(dp1
S'12022016'
p2
(lp3
VCAD=X
p4
aVEUR=X
p5
aVCHF=X
p6
aVAUD=X
p7
aVJPY=X
p8
aVNZD=X
p9
asS'03232016'
p10
(lp11
VCHF=X
p12
aVAUD=X
p13
aVJPY=X
p14
aVNZD=X
p15
asS'03232015'
p16
(lp17
VEUR=X
p18
aVCHF=X
p19
aVAUD=X
p20
aVJPY=X
p21
aVNZD=X
p22
asS'12022015'
p23
(lp24
VCHF=X
p25
aVAUD=X
p26
aVJPY=X
p27
aVNZD=X
p28
asS'09012015'
p29
(lp30
VCHF=X
p31
aVAUD=X
p32
aVJPY=X
p33
aVNZD=X
p34
asS'09012016'
p35
(lp36
VCHF=X
p37
aVAUD=X
p38
aVJPY=X
p39
aVNZD=X
p40
asS'07312015'
p41
(lp42
VCHF=X
p43
aVAUD=X
p44
aVJPY=X
p45
aVNZD=X
p46
asS'08132015'
p47
(lp48
VCHF=X
p49
aVAUD=X
p50
aVJPY=X
p51
aVNZD=X
p52
asS'11072016'
p53
(lp54
VCAD=X
p55
aVCHF=X
p56
aVAUD=X
p57
aVJPY=X
p58
aVNZD=X
p59
asS'08082016'
p60
(lp61
VCHF=X
p62
aVAUD=X
p63
aVJPY=X
p64
aVNZD=X
p65
asS'06302016'
p66
(lp67
VCHF=X
p68
aVAUD=X
p69
aVJPY=X
p70
aVNZD=X
p71
asS'06302015'
p72
(lp73
VCHF=X
p74
aVAUD=X
p75
aVJPY=X
p76
aVNZD=X
p77
asS'12062016'
p78
(lp79
VEUR=X
p80
aVCAD=X
p81
aVCHF=X
p82
aVAUD=X
p83
aVJPY=X
p84
aVNZD=X
p85
asS'02082017'
p86
(lp87
VCAD=X
p88
aVCHF=X
p89
aVAUD=X
p90
aVJPY=X
p91
aVNZD=X
p92
asS'10122016'
p93
(lp94
VCHF=X
p95
aVAUD=X
p96
aVJPY=X
p97
aVNZD=X
p98
asS'10122015'
p99
(lp100
VCHF=X
p101
aVAUD=X
p102
aVJPY=X
p103
aVNZD=X
p104
asS'09272016'
p105
(lp106
VCHF=X
p107
aVAUD=X
p108
aVJPY=X
p109
aVNZD=X
p110
asS'04232015'
p111
(lp112
VEUR=X
p113
aVCHF=X
p114
aVAUD=X
p115
aVJPY=X
p116
aVNZD=X
p117
asS'10132016'
p118
(lp119
VCHF=X
p120
aVAUD=X
p121
aVJPY=X
p122
aVNZD=X
p123
asS'02092017'
p124
(lp125
VCAD=X
p126
aVCHF=X
p127
aVAUD=X
p128
aVJPY=X
p129
aVNZD=X
p130
asS'06122015'
p131
(lp132
VCHF=X
p133
aVAUD=X
p134
aVJPY=X
p135
aVNZD=X
p136
asS'12182015'
p137
(lp138
VCHF=X
p139
aVAUD=X
p140
aVJPY=X
p141
aVNZD=X
p142
asS'05182016'
p143
(lp144
VCHF=X
p145
aVAUD=X
p146
aVJPY=X
p147
aVNZD=X
p148
asS'05182015'
p149
(lp150
VCHF=X
p151
aVAUD=X
p152
aVJPY=X
p153
aVNZD=X
p154
asS'02272015'
p155
(lp156
VCHF=X
p157
aVAUD=X
p158
aVJPY=X
p159
aVNZD=X
p160
asS'12112015'
p161
(lp162
VCHF=X
p163
aVAUD=X
p164
aVJPY=X
p165
aVNZD=X
p166
asS'09282016'
p167
(lp168
VCHF=X
p169
aVAUD=X
p170
aVJPY=X
p171
aVNZD=X
p172
asS'09282015'
p173
(lp174
VCHF=X
p175
aVAUD=X
p176
aVJPY=X
p177
aVNZD=X
p178
asS'04162015'
p179
(lp180
VEUR=X
p181
aVCHF=X
p182
aVAUD=X
p183
aVJPY=X
p184
aVNZD=X
p185
asS'05102016'
p186
(lp187
VCHF=X
p188
aVAUD=X
p189
aVJPY=X
p190
aVNZD=X
p191
asS'02232016'
p192
(lp193
VCHF=X
p194
aVAUD=X
p195
aVJPY=X
p196
aVNZD=X
p197
asS'02232015'
p198
(lp199
VCHF=X
p200
aVAUD=X
p201
aVJPY=X
p202
aVNZD=X
p203
asS'08032016'
p204
(lp205
VCHF=X
p206
aVAUD=X
p207
aVJPY=X
p208
aVNZD=X
p209
asS'12212016'
p210
(lp211
VEUR=X
p212
aVCAD=X
p213
aVCHF=X
p214
aVAUD=X
p215
aVJPY=X
p216
aVNZD=X
p217
asS'12212015'
p218
(lp219
VCHF=X
p220
aVAUD=X
p221
aVJPY=X
p222
aVNZD=X
p223
asS'08032015'
p224
(lp225
VCHF=X
p226
aVAUD=X
p227
aVJPY=X
p228
aVNZD=X
p229
asS'07222016'
p230
(lp231
VCHF=X
p232
aVAUD=X
p233
aVJPY=X
p234
aVNZD=X
p235
asS'11032015'
p236
(lp237
VCHF=X
p238
aVAUD=X
p239
aVJPY=X
p240
aVNZD=X
p241
asS'11032016'
p242
(lp243
VCAD=X
p244
aVCHF=X
p245
aVAUD=X
p246
aVJPY=X
p247
aVNZD=X
p248
asS'07222015'
p249
(lp250
VCHF=X
p251
aVAUD=X
p252
aVJPY=X
p253
aVNZD=X
p254
asS'12202016'
p255
(lp256
VCAD=X
p257
aVEUR=X
p258
aVCHF=X
p259
aVAUD=X
p260
aVJPY=X
p261
aVNZD=X
p262
asS'02022016'
p263
(lp264
VCHF=X
p265
aVAUD=X
p266
aVJPY=X
p267
aVNZD=X
p268
asS'11132015'
p269
(lp270
VCHF=X
p271
aVAUD=X
p272
aVJPY=X
p273
aVNZD=X
p274
asS'08172015'
p275
(lp276
VCHF=X
p277
aVAUD=X
p278
aVJPY=X
p279
aVNZD=X
p280
asS'10242016'
p281
(lp282
VCAD=X
p283
aVCHF=X
p284
aVAUD=X
p285
aVJPY=X
p286
aVNZD=X
p287
asS'06012016'
p288
(lp289
VCHF=X
p290
aVAUD=X
p291
aVJPY=X
p292
aVNZD=X
p293
asS'06012015'
p294
(lp295
VCHF=X
p296
aVAUD=X
p297
aVJPY=X
p298
aVNZD=X
p299
asS'12292016'
p300
(lp301
VEUR=X
p302
aVCAD=X
p303
aVCHF=X
p304
aVAUD=X
p305
aVJPY=X
p306
aVNZD=X
p307
asS'12292015'
p308
(lp309
VCHF=X
p310
aVAUD=X
p311
aVJPY=X
p312
aVNZD=X
p313
asS'04182016'
p314
(lp315
VCHF=X
p316
aVAUD=X
p317
aVJPY=X
p318
aVNZD=X
p319
asS'03112015'
p320
(lp321
VEUR=X
p322
aVCHF=X
p323
aVAUD=X
p324
aVJPY=X
p325
aVNZD=X
p326
asS'03112016'
p327
(lp328
VEUR=X
p329
aVCHF=X
p330
aVAUD=X
p331
aVJPY=X
p332
aVNZD=X
p333
asS'08212015'
p334
(lp335
VCHF=X
p336
aVAUD=X
p337
aVJPY=X
p338
aVNZD=X
p339
asS'08172016'
p340
(lp341
VCHF=X
p342
aVAUD=X
p343
aVJPY=X
p344
aVNZD=X
p345
asS'01132016'
p346
(lp347
VCHF=X
p348
aVAUD=X
p349
aVJPY=X
p350
aVNZD=X
p351
asS'01132017'
p352
(lp353
VCHF=X
p354
aVAUD=X
p355
aVJPY=X
p356
aVNZD=X
p357
asS'05202016'
p358
(lp359
VCHF=X
p360
aVAUD=X
p361
aVJPY=X
p362
aVNZD=X
p363
asS'05202015'
p364
(lp365
VCHF=X
p366
aVAUD=X
p367
aVJPY=X
p368
aVNZD=X
p369
asS'07092015'
p370
(lp371
VCHF=X
p372
aVAUD=X
p373
aVJPY=X
p374
aVNZD=X
p375
asS'04012015'
p376
(lp377
VCHF=X
p378
aVAUD=X
p379
aVJPY=X
p380
aVNZD=X
p381
asS'04012016'
p382
(lp383
VCHF=X
p384
aVAUD=X
p385
aVJPY=X
p386
aVNZD=X
p387
asS'11282016'
p388
(lp389
VCAD=X
p390
aVCHF=X
p391
aVAUD=X
p392
aVJPY=X
p393
aVNZD=X
p394
asS'12092015'
p395
(lp396
VCHF=X
p397
aVAUD=X
p398
aVJPY=X
p399
aVNZD=X
p400
asS'12092016'
p401
(lp402
VCAD=X
p403
aVEUR=X
p404
aVCHF=X
p405
aVAUD=X
p406
aVJPY=X
p407
aVNZD=X
p408
asS'10232015'
p409
(lp410
VCHF=X
p411
aVAUD=X
p412
aVJPY=X
p413
aVNZD=X
p414
asS'03042016'
p415
(lp416
VEUR=X
p417
aVCHF=X
p418
aVAUD=X
p419
aVJPY=X
p420
aVNZD=X
p421
asS'03042015'
p422
(lp423
VCHF=X
p424
aVAUD=X
p425
aVJPY=X
p426
aVNZD=X
p427
asS'05142015'
p428
(lp429
VCHF=X
p430
aVAUD=X
p431
aVJPY=X
p432
aVNZD=X
p433
asS'03162016'
p434
(lp435
VCHF=X
p436
aVAUD=X
p437
aVJPY=X
p438
aVNZD=X
p439
asS'07012015'
p440
(lp441
VCHF=X
p442
aVAUD=X
p443
aVJPY=X
p444
aVNZD=X
p445
asS'11082016'
p446
(lp447
VCAD=X
p448
aVCHF=X
p449
aVAUD=X
p450
aVJPY=X
p451
aVNZD=X
p452
asS'11092016'
p453
(lp454
VCAD=X
p455
aVCHF=X
p456
aVAUD=X
p457
aVJPY=X
p458
aVNZD=X
p459
asS'11092015'
p460
(lp461
VCHF=X
p462
aVAUD=X
p463
aVJPY=X
p464
aVNZD=X
p465
asS'06132016'
p466
(lp467
VCHF=X
p468
aVAUD=X
p469
aVJPY=X
p470
aVNZD=X
p471
asS'04062016'
p472
(lp473
VCHF=X
p474
aVAUD=X
p475
aVJPY=X
p476
aVNZD=X
p477
asS'04062015'
p478
(lp479
VEUR=X
p480
aVCHF=X
p481
aVAUD=X
p482
aVJPY=X
p483
aVNZD=X
p484
asS'11272015'
p485
(lp486
VCHF=X
p487
aVAUD=X
p488
aVJPY=X
p489
aVNZD=X
p490
asS'08302016'
p491
(lp492
VCHF=X
p493
aVAUD=X
p494
aVJPY=X
p495
aVNZD=X
p496
asS'08232016'
p497
(lp498
VCHF=X
p499
aVAUD=X
p500
aVJPY=X
p501
aVNZD=X
p502
asS'09162015'
p503
(lp504
VCHF=X
p505
aVAUD=X
p506
aVJPY=X
p507
aVNZD=X
p508
asS'04282015'
p509
(lp510
VEUR=X
p511
aVCHF=X
p512
aVAUD=X
p513
aVJPY=X
p514
aVNZD=X
p515
asS'09162016'
p516
(lp517
VCHF=X
p518
aVAUD=X
p519
aVJPY=X
p520
aVNZD=X
p521
asS'02082016'
p522
(lp523
VCHF=X
p524
aVAUD=X
p525
aVJPY=X
p526
aVNZD=X
p527
asS'08022016'
p528
(lp529
VCHF=X
p530
aVAUD=X
p531
aVJPY=X
p532
aVNZD=X
p533
asS'02182015'
p534
(lp535
VCHF=X
p536
aVAUD=X
p537
aVJPY=X
p538
aVNZD=X
p539
asS'02182016'
p540
(lp541
VCHF=X
p542
aVAUD=X
p543
aVJPY=X
p544
aVNZD=X
p545
asS'01192016'
p546
(lp547
VCHF=X
p548
aVAUD=X
p549
aVJPY=X
p550
aVNZD=X
p551
asS'01192017'
p552
(lp553
VCHF=X
p554
aVAUD=X
p555
aVJPY=X
p556
aVNZD=X
p557
asS'11232015'
p558
(lp559
VCHF=X
p560
aVAUD=X
p561
aVJPY=X
p562
aVNZD=X
p563
asS'02092016'
p564
(lp565
VCHF=X
p566
aVAUD=X
p567
aVJPY=X
p568
aVNZD=X
p569
asS'07162015'
p570
(lp571
VCHF=X
p572
aVAUD=X
p573
aVJPY=X
p574
aVNZD=X
p575
asS'05042015'
p576
(lp577
VCHF=X
p578
aVAUD=X
p579
aVJPY=X
p580
aVNZD=X
p581
asS'05042016'
p582
(lp583
VCHF=X
p584
aVAUD=X
p585
aVJPY=X
p586
aVNZD=X
p587
asS'08182016'
p588
(lp589
VCHF=X
p590
aVAUD=X
p591
aVJPY=X
p592
aVNZD=X
p593
asS'07172015'
p594
(lp595
VCHF=X
p596
aVAUD=X
p597
aVJPY=X
p598
aVNZD=X
p599
asS'06102015'
p600
(lp601
VCHF=X
p602
aVAUD=X
p603
aVJPY=X
p604
aVNZD=X
p605
asS'06102016'
p606
(lp607
VCHF=X
p608
aVAUD=X
p609
aVJPY=X
p610
aVNZD=X
p611
asS'08182015'
p612
(lp613
VCHF=X
p614
aVAUD=X
p615
aVJPY=X
p616
aVNZD=X
p617
asS'01242017'
p618
(lp619
VCHF=X
p620
aVAUD=X
p621
aVJPY=X
p622
aVNZD=X
p623
asS'02252015'
p624
(lp625
VCHF=X
p626
aVAUD=X
p627
aVJPY=X
p628
aVNZD=X
p629
asS'02252016'
p630
(lp631
VCHF=X
p632
aVAUD=X
p633
aVJPY=X
p634
aVNZD=X
p635
asS'09072016'
p636
(lp637
VCHF=X
p638
aVAUD=X
p639
aVJPY=X
p640
aVNZD=X
p641
asS'12132016'
p642
(lp643
VEUR=X
p644
aVCAD=X
p645
aVCHF=X
p646
aVAUD=X
p647
aVJPY=X
p648
aVNZD=X
p649
asS'06242015'
p650
(lp651
VCHF=X
p652
aVAUD=X
p653
aVJPY=X
p654
aVNZD=X
p655
asS'06242016'
p656
(lp657
VCHF=X
p658
aVAUD=X
p659
aVJPY=X
p660
aVNZD=X
p661
asS'06072016'
p662
(lp663
VCHF=X
p664
aVAUD=X
p665
aVJPY=X
p666
aVNZD=X
p667
asS'06032015'
p668
(lp669
VCHF=X
p670
aVAUD=X
p671
aVJPY=X
p672
aVNZD=X
p673
asS'02042016'
p674
(lp675
VCHF=X
p676
aVAUD=X
p677
aVJPY=X
p678
aVNZD=X
p679
asS'07202015'
p680
(lp681
VCHF=X
p682
aVAUD=X
p683
aVJPY=X
p684
aVNZD=X
p685
asS'07202016'
p686
(lp687
VCHF=X
p688
aVAUD=X
p689
aVJPY=X
p690
aVNZD=X
p691
asS'05152015'
p692
(lp693
VCHF=X
p694
aVAUD=X
p695
aVJPY=X
p696
aVNZD=X
p697
asS'10042016'
p698
(lp699
VCHF=X
p700
aVAUD=X
p701
aVJPY=X
p702
aVNZD=X
p703
asS'07192016'
p704
(lp705
VCHF=X
p706
aVAUD=X
p707
aVJPY=X
p708
aVNZD=X
p709
asS'08152016'
p710
(lp711
VCHF=X
p712
aVAUD=X
p713
aVJPY=X
p714
aVNZD=X
p715
asS'06172016'
p716
(lp717
VCHF=X
p718
aVAUD=X
p719
aVJPY=X
p720
aVNZD=X
p721
asS'06172015'
p722
(lp723
VCHF=X
p724
aVAUD=X
p725
aVJPY=X
p726
aVNZD=X
p727
asS'05222015'
p728
(lp729
VCHF=X
p730
aVAUD=X
p731
aVJPY=X
p732
aVNZD=X
p733
asS'12312015'
p734
(lp735
VCHF=X
p736
aVAUD=X
p737
aVJPY=X
p738
aVNZD=X
p739
asS'05282015'
p740
(lp741
VCHF=X
p742
aVAUD=X
p743
aVJPY=X
p744
aVNZD=X
p745
asS'07272015'
p746
(lp747
VCHF=X
p748
aVAUD=X
p749
aVJPY=X
p750
aVNZD=X
p751
asS'08192015'
p752
(lp753
VCHF=X
p754
aVAUD=X
p755
aVJPY=X
p756
aVNZD=X
p757
asS'06152015'
p758
(lp759
VCHF=X
p760
aVAUD=X
p761
aVJPY=X
p762
aVNZD=X
p763
asS'06042015'
p764
(lp765
VCHF=X
p766
aVAUD=X
p767
aVJPY=X
p768
aVNZD=X
p769
asS'10202015'
p770
(lp771
VCHF=X
p772
aVAUD=X
p773
aVJPY=X
p774
aVNZD=X
p775
asS'10202016'
p776
(lp777
VCAD=X
p778
aVCHF=X
p779
aVAUD=X
p780
aVJPY=X
p781
aVNZD=X
p782
asS'06232016'
p783
(lp784
VCHF=X
p785
aVAUD=X
p786
aVJPY=X
p787
aVNZD=X
p788
asS'11182015'
p789
(lp790
VCHF=X
p791
aVAUD=X
p792
aVJPY=X
p793
aVNZD=X
p794
asS'11182016'
p795
(lp796
VCAD=X
p797
aVCHF=X
p798
aVAUD=X
p799
aVJPY=X
p800
aVNZD=X
p801
asS'06232015'
p802
(lp803
VCHF=X
p804
aVAUD=X
p805
aVJPY=X
p806
aVNZD=X
p807
asS'12192016'
p808
(lp809
VCAD=X
p810
aVEUR=X
p811
aVCHF=X
p812
aVAUD=X
p813
aVJPY=X
p814
aVNZD=X
p815
asS'06152016'
p816
(lp817
VCHF=X
p818
aVAUD=X
p819
aVJPY=X
p820
aVNZD=X
p821
asS'10162015'
p822
(lp823
VCHF=X
p824
aVAUD=X
p825
aVJPY=X
p826
aVNZD=X
p827
asS'04262016'
p828
(lp829
VCHF=X
p830
aVAUD=X
p831
aVJPY=X
p832
aVNZD=X
p833
asS'08272015'
p834
(lp835
VCHF=X
p836
aVAUD=X
p837
aVJPY=X
p838
aVNZD=X
p839
asS'05252016'
p840
(lp841
VCHF=X
p842
aVAUD=X
p843
aVJPY=X
p844
aVNZD=X
p845
asS'12242015'
p846
(lp847
VCHF=X
p848
aVAUD=X
p849
aVJPY=X
p850
aVNZD=X
p851
asS'04292016'
p852
(lp853
VCHF=X
p854
aVAUD=X
p855
aVJPY=X
p856
aVNZD=X
p857
asS'05172016'
p858
(lp859
VCHF=X
p860
aVAUD=X
p861
aVJPY=X
p862
aVNZD=X
p863
asS'04292015'
p864
(lp865
VEUR=X
p866
aVCHF=X
p867
aVAUD=X
p868
aVJPY=X
p869
aVNZD=X
p870
asS'11252015'
p871
(lp872
VCHF=X
p873
aVAUD=X
p874
aVJPY=X
p875
aVNZD=X
p876
asS'11252016'
p877
(lp878
VCAD=X
p879
aVCHF=X
p880
aVAUD=X
p881
aVJPY=X
p882
aVNZD=X
p883
asS'04052016'
p884
(lp885
VCHF=X
p886
aVAUD=X
p887
aVJPY=X
p888
aVNZD=X
p889
asS'03062015'
p890
(lp891
VEUR=X
p892
aVCHF=X
p893
aVAUD=X
p894
aVJPY=X
p895
aVNZD=X
p896
asS'03082016'
p897
(lp898
VEUR=X
p899
aVCHF=X
p900
aVAUD=X
p901
aVJPY=X
p902
aVNZD=X
p903
asS'07022015'
p904
(lp905
VCHF=X
p906
aVAUD=X
p907
aVJPY=X
p908
aVNZD=X
p909
asS'09142015'
p910
(lp911
VCHF=X
p912
aVAUD=X
p913
aVJPY=X
p914
aVNZD=X
p915
asS'11042016'
p916
(lp917
VCAD=X
p918
aVCHF=X
p919
aVAUD=X
p920
aVJPY=X
p921
aVNZD=X
p922
asS'11042015'
p923
(lp924
VCHF=X
p925
aVAUD=X
p926
aVJPY=X
p927
aVNZD=X
p928
asS'07152015'
p929
(lp930
VCHF=X
p931
aVAUD=X
p932
aVJPY=X
p933
aVNZD=X
p934
asS'07152016'
p935
(lp936
VCHF=X
p937
aVAUD=X
p938
aVJPY=X
p939
aVNZD=X
p940
asS'08142015'
p941
(lp942
VCHF=X
p943
aVAUD=X
p944
aVJPY=X
p945
aVNZD=X
p946
asS'01262016'
p947
(lp948
VCHF=X
p949
aVAUD=X
p950
aVJPY=X
p951
aVNZD=X
p952
asS'01262017'
p953
(lp954
VCHF=X
p955
aVAUD=X
p956
aVJPY=X
p957
aVNZD=X
p958
asS'09062016'
p959
(lp960
VCHF=X
p961
aVAUD=X
p962
aVJPY=X
p963
aVNZD=X
p964
asS'03292016'
p965
(lp966
VCHF=X
p967
aVAUD=X
p968
aVJPY=X
p969
aVNZD=X
p970
asS'02112016'
p971
(lp972
VCHF=X
p973
aVAUD=X
p974
aVJPY=X
p975
aVNZD=X
p976
asS'01042016'
p977
(lp978
VCHF=X
p979
aVAUD=X
p980
aVJPY=X
p981
aVNZD=X
p982
asS'01042017'
p983
(lp984
VCAD=X
p985
aVCHF=X
p986
aVAUD=X
p987
aVJPY=X
p988
aVNZD=X
p989
asS'12162015'
p990
(lp991
VCHF=X
p992
aVAUD=X
p993
aVJPY=X
p994
aVNZD=X
p995
asS'12162016'
p996
(lp997
VEUR=X
p998
aVCAD=X
p999
aVCHF=X
p1000
aVAUD=X
p1001
aVJPY=X
p1002
aVNZD=X
p1003
asS'07272016'
p1004
(lp1005
VCHF=X
p1006
aVAUD=X
p1007
aVJPY=X
p1008
aVNZD=X
p1009
asS'01052017'
p1010
(lp1011
VCAD=X
p1012
aVCHF=X
p1013
aVAUD=X
p1014
aVJPY=X
p1015
aVNZD=X
p1016
asS'01052016'
p1017
(lp1018
VCHF=X
p1019
aVAUD=X
p1020
aVJPY=X
p1021
aVNZD=X
p1022
asS'03172016'
p1023
(lp1024
VCHF=X
p1025
aVAUD=X
p1026
aVJPY=X
p1027
aVNZD=X
p1028
asS'03172015'
p1029
(lp1030
VEUR=X
p1031
aVCHF=X
p1032
aVAUD=X
p1033
aVJPY=X
p1034
aVNZD=X
p1035
asS'05092016'
p1036
(lp1037
VCHF=X
p1038
aVAUD=X
p1039
aVJPY=X
p1040
aVNZD=X
p1041
asS'05292015'
p1042
(lp1043
VCHF=X
p1044
aVAUD=X
p1045
aVJPY=X
p1046
aVNZD=X
p1047
asS'07122016'
p1048
(lp1049
VCHF=X
p1050
aVAUD=X
p1051
aVJPY=X
p1052
aVNZD=X
p1053
asS'06202016'
p1054
(lp1055
VCHF=X
p1056
aVAUD=X
p1057
aVJPY=X
p1058
aVNZD=X
p1059
asS'03282016'
p1060
(lp1061
VCHF=X
p1062
aVAUD=X
p1063
aVJPY=X
p1064
aVNZD=X
p1065
asS'01282016'
p1066
(lp1067
VCHF=X
p1068
aVAUD=X
p1069
aVJPY=X
p1070
aVNZD=X
p1071
asS'04212016'
p1072
(lp1073
VCHF=X
p1074
aVAUD=X
p1075
aVJPY=X
p1076
aVNZD=X
p1077
asS'04092015'
p1078
(lp1079
VEUR=X
p1080
aVCHF=X
p1081
aVAUD=X
p1082
aVJPY=X
p1083
aVNZD=X
p1084
asS'08162016'
p1085
(lp1086
VCHF=X
p1087
aVAUD=X
p1088
aVJPY=X
p1089
aVNZD=X
p1090
asS'09232015'
p1091
(lp1092
VCHF=X
p1093
aVAUD=X
p1094
aVJPY=X
p1095
aVNZD=X
p1096
asS'09232016'
p1097
(lp1098
VCHF=X
p1099
aVAUD=X
p1100
aVJPY=X
p1101
aVNZD=X
p1102
asS'11112016'
p1103
(lp1104
VCAD=X
p1105
aVCHF=X
p1106
aVAUD=X
p1107
aVJPY=X
p1108
aVNZD=X
p1109
asS'07242015'
p1110
(lp1111
VCHF=X
p1112
aVAUD=X
p1113
aVJPY=X
p1114
aVNZD=X
p1115
asS'02162016'
p1116
(lp1117
VCHF=X
p1118
aVAUD=X
p1119
aVJPY=X
p1120
aVNZD=X
p1121
asS'10152015'
p1122
(lp1123
VCHF=X
p1124
aVAUD=X
p1125
aVJPY=X
p1126
aVNZD=X
p1127
asS'06142016'
p1128
(lp1129
VCHF=X
p1130
aVAUD=X
p1131
aVJPY=X
p1132
aVNZD=X
p1133
asS'10082015'
p1134
(lp1135
VCHF=X
p1136
aVAUD=X
p1137
aVJPY=X
p1138
aVNZD=X
p1139
asS'06282016'
p1140
(lp1141
VCHF=X
p1142
aVAUD=X
p1143
aVJPY=X
p1144
aVNZD=X
p1145
asS'11292016'
p1146
(lp1147
VCAD=X
p1148
aVCHF=X
p1149
aVAUD=X
p1150
aVJPY=X
p1151
aVNZD=X
p1152
asS'05012015'
p1153
(lp1154
VEUR=X
p1155
aVCHF=X
p1156
aVAUD=X
p1157
aVJPY=X
p1158
aVNZD=X
p1159
asS'05132015'
p1160
(lp1161
VCHF=X
p1162
aVAUD=X
p1163
aVJPY=X
p1164
aVNZD=X
p1165
asS'05132016'
p1166
(lp1167
VCHF=X
p1168
aVAUD=X
p1169
aVJPY=X
p1170
aVNZD=X
p1171
asS'07062015'
p1172
(lp1173
VCHF=X
p1174
aVAUD=X
p1175
aVJPY=X
p1176
aVNZD=X
p1177
asS'07062016'
p1178
(lp1179
VCHF=X
p1180
aVAUD=X
p1181
aVJPY=X
p1182
aVNZD=X
p1183
asS'05262015'
p1184
(lp1185
VCHF=X
p1186
aVAUD=X
p1187
aVJPY=X
p1188
aVNZD=X
p1189
asS'05262016'
p1190
(lp1191
VCHF=X
p1192
aVAUD=X
p1193
aVJPY=X
p1194
aVNZD=X
p1195
asS'03032015'
p1196
(lp1197
VCHF=X
p1198
aVAUD=X
p1199
aVJPY=X
p1200
aVNZD=X
p1201
asS'03032016'
p1202
(lp1203
VCHF=X
p1204
aVAUD=X
p1205
aVJPY=X
p1206
aVNZD=X
p1207
asS'11112015'
p1208
(lp1209
VCHF=X
p1210
aVAUD=X
p1211
aVJPY=X
p1212
aVNZD=X
p1213
asS'04212015'
p1214
(lp1215
VEUR=X
p1216
aVCHF=X
p1217
aVAUD=X
p1218
aVJPY=X
p1219
aVNZD=X
p1220
asS'12042015'
p1221
(lp1222
VCHF=X
p1223
aVAUD=X
p1224
aVJPY=X
p1225
aVNZD=X
p1226
asS'09032015'
p1227
(lp1228
VCHF=X
p1229
aVAUD=X
p1230
aVJPY=X
p1231
aVNZD=X
p1232
asS'09022016'
p1233
(lp1234
VCHF=X
p1235
aVAUD=X
p1236
aVJPY=X
p1237
aVNZD=X
p1238
asS'09022015'
p1239
(lp1240
VCHF=X
p1241
aVAUD=X
p1242
aVJPY=X
p1243
aVNZD=X
p1244
asS'09092015'
p1245
(lp1246
VCHF=X
p1247
aVAUD=X
p1248
aVJPY=X
p1249
aVNZD=X
p1250
asS'09092016'
p1251
(lp1252
VCHF=X
p1253
aVAUD=X
p1254
aVJPY=X
p1255
aVNZD=X
p1256
asS'05112016'
p1257
(lp1258
VCHF=X
p1259
aVAUD=X
p1260
aVJPY=X
p1261
aVNZD=X
p1262
asS'04222015'
p1263
(lp1264
VEUR=X
p1265
aVCHF=X
p1266
aVAUD=X
p1267
aVJPY=X
p1268
aVNZD=X
p1269
asS'12052016'
p1270
(lp1271
VEUR=X
p1272
aVCAD=X
p1273
aVCHF=X
p1274
aVAUD=X
p1275
aVJPY=X
p1276
aVNZD=X
p1277
asS'06162016'
p1278
(lp1279
VCHF=X
p1280
aVAUD=X
p1281
aVJPY=X
p1282
aVNZD=X
p1283
asS'06162015'
p1284
(lp1285
VCHF=X
p1286
aVAUD=X
p1287
aVJPY=X
p1288
aVNZD=X
p1289
asS'04132015'
p1290
(lp1291
VEUR=X
p1292
aVCHF=X
p1293
aVAUD=X
p1294
aVJPY=X
p1295
aVNZD=X
p1296
asS'04132016'
p1297
(lp1298
VCHF=X
p1299
aVAUD=X
p1300
aVJPY=X
p1301
aVNZD=X
p1302
asS'08062015'
p1303
(lp1304
VCHF=X
p1305
aVAUD=X
p1306
aVJPY=X
p1307
aVNZD=X
p1308
asS'09302016'
p1309
(lp1310
VCHF=X
p1311
aVAUD=X
p1312
aVJPY=X
p1313
aVNZD=X
p1314
asS'06082016'
p1315
(lp1316
VCHF=X
p1317
aVAUD=X
p1318
aVJPY=X
p1319
aVNZD=X
p1320
asS'06082015'
p1321
(lp1322
VCHF=X
p1323
aVAUD=X
p1324
aVJPY=X
p1325
aVNZD=X
p1326
asS'10282015'
p1327
(lp1328
VCHF=X
p1329
aVAUD=X
p1330
aVJPY=X
p1331
aVNZD=X
p1332
asS'10282016'
p1333
(lp1334
VCAD=X
p1335
aVCHF=X
p1336
aVAUD=X
p1337
aVJPY=X
p1338
aVNZD=X
p1339
asS'05312016'
p1340
(lp1341
VCHF=X
p1342
aVAUD=X
p1343
aVJPY=X
p1344
aVNZD=X
p1345
asS'01232017'
p1346
(lp1347
VCHF=X
p1348
aVAUD=X
p1349
aVJPY=X
p1350
aVNZD=X
p1351
asS'09112015'
p1352
(lp1353
VCHF=X
p1354
aVAUD=X
p1355
aVJPY=X
p1356
aVNZD=X
p1357
asS'12282016'
p1358
(lp1359
VEUR=X
p1360
aVCAD=X
p1361
aVCHF=X
p1362
aVAUD=X
p1363
aVJPY=X
p1364
aVNZD=X
p1365
asS'07302015'
p1366
(lp1367
VCHF=X
p1368
aVAUD=X
p1369
aVJPY=X
p1370
aVNZD=X
p1371
asS'12282015'
p1372
(lp1373
VCHF=X
p1374
aVAUD=X
p1375
aVJPY=X
p1376
aVNZD=X
p1377
asS'02202015'
p1378
(lp1379
VCHF=X
p1380
aVAUD=X
p1381
aVJPY=X
p1382
aVNZD=X
p1383
asS'07282015'
p1384
(lp1385
VCHF=X
p1386
aVAUD=X
p1387
aVJPY=X
p1388
aVNZD=X
p1389
asS'07282016'
p1390
(lp1391
VCHF=X
p1392
aVAUD=X
p1393
aVJPY=X
p1394
aVNZD=X
p1395
asS'11162016'
p1396
(lp1397
VCAD=X
p1398
aVCHF=X
p1399
aVAUD=X
p1400
aVJPY=X
p1401
aVNZD=X
p1402
asS'11162015'
p1403
(lp1404
VCHF=X
p1405
aVAUD=X
p1406
aVJPY=X
p1407
aVNZD=X
p1408
asS'08222016'
p1409
(lp1410
VCHF=X
p1411
aVAUD=X
p1412
aVJPY=X
p1413
aVNZD=X
p1414
asS'08122015'
p1415
(lp1416
VCHF=X
p1417
aVAUD=X
p1418
aVJPY=X
p1419
aVNZD=X
p1420
asS'08122016'
p1421
(lp1422
VCHF=X
p1423
aVAUD=X
p1424
aVJPY=X
p1425
aVNZD=X
p1426
asS'01082016'
p1427
(lp1428
VCHF=X
p1429
aVAUD=X
p1430
aVJPY=X
p1431
aVGBP=X
p1432
aVNZD=X
p1433
asS'12302015'
p1434
(lp1435
VCHF=X
p1436
aVAUD=X
p1437
aVJPY=X
p1438
aVNZD=X
p1439
asS'09292016'
p1440
(lp1441
VCHF=X
p1442
aVAUD=X
p1443
aVJPY=X
p1444
aVNZD=X
p1445
asS'09292015'
p1446
(lp1447
VCHF=X
p1448
aVAUD=X
p1449
aVJPY=X
p1450
aVNZD=X
p1451
asS'04142016'
p1452
(lp1453
VCHF=X
p1454
aVAUD=X
p1455
aVJPY=X
p1456
aVNZD=X
p1457
asS'10172016'
p1458
(lp1459
VCAD=X
p1460
aVCHF=X
p1461
aVAUD=X
p1462
aVJPY=X
p1463
aVNZD=X
p1464
asS'09132016'
p1465
(lp1466
VCHF=X
p1467
aVAUD=X
p1468
aVJPY=X
p1469
aVNZD=X
p1470
asS'04142015'
p1471
(lp1472
VEUR=X
p1473
aVCHF=X
p1474
aVAUD=X
p1475
aVJPY=X
p1476
aVNZD=X
p1477
asS'09212016'
p1478
(lp1479
VCHF=X
p1480
aVAUD=X
p1481
aVJPY=X
p1482
aVNZD=X
p1483
asS'08092016'
p1484
(lp1485
VCHF=X
p1486
aVAUD=X
p1487
aVJPY=X
p1488
aVNZD=X
p1489
asS'09192016'
p1490
(lp1491
VCHF=X
p1492
aVAUD=X
p1493
aVJPY=X
p1494
aVNZD=X
p1495
asS'07112016'
p1496
(lp1497
VCHF=X
p1498
aVAUD=X
p1499
aVJPY=X
p1500
aVNZD=X
p1501
asS'10032016'
p1502
(lp1503
VCHF=X
p1504
aVAUD=X
p1505
aVJPY=X
p1506
aVNZD=X
p1507
asS'06272016'
p1508
(lp1509
VCHF=X
p1510
aVAUD=X
p1511
aVJPY=X
p1512
aVNZD=X
p1513
asS'08072015'
p1514
(lp1515
VCHF=X
p1516
aVAUD=X
p1517
aVJPY=X
p1518
aVNZD=X
p1519
asS'03252015'
p1520
(lp1521
VEUR=X
p1522
aVCHF=X
p1523
aVAUD=X
p1524
aVJPY=X
p1525
aVNZD=X
p1526
asS'05062016'
p1527
(lp1528
VCHF=X
p1529
aVAUD=X
p1530
aVJPY=X
p1531
aVNZD=X
p1532
asS'05062015'
p1533
(lp1534
VCHF=X
p1535
aVAUD=X
p1536
aVJPY=X
p1537
aVNZD=X
p1538
asS'01062016'
p1539
(lp1540
VCHF=X
p1541
aVAUD=X
p1542
aVJPY=X
p1543
aVNZD=X
p1544
asS'11212016'
p1545
(lp1546
VCAD=X
p1547
aVCHF=X
p1548
aVAUD=X
p1549
aVJPY=X
p1550
aVNZD=X
p1551
asS'12232015'
p1552
(lp1553
VCHF=X
p1554
aVAUD=X
p1555
aVJPY=X
p1556
aVNZD=X
p1557
asS'12232016'
p1558
(lp1559
VEUR=X
p1560
aVCAD=X
p1561
aVCHF=X
p1562
aVAUD=X
p1563
aVJPY=X
p1564
aVNZD=X
p1565
asS'01032017'
p1566
(lp1567
VCAD=X
p1568
aVCHF=X
p1569
aVAUD=X
p1570
aVJPY=X
p1571
aVNZD=X
p1572
asS'11202015'
p1573
(lp1574
VCHF=X
p1575
aVAUD=X
p1576
aVJPY=X
p1577
aVNZD=X
p1578
asS'07132016'
p1579
(lp1580
VCHF=X
p1581
aVAUD=X
p1582
aVJPY=X
p1583
aVNZD=X
p1584
asS'07132015'
p1585
(lp1586
VCHF=X
p1587
aVAUD=X
p1588
aVJPY=X
p1589
aVNZD=X
p1590
asS'09252015'
p1591
(lp1592
VCHF=X
p1593
aVAUD=X
p1594
aVJPY=X
p1595
aVNZD=X
p1596
asS'11152016'
p1597
(lp1598
VCAD=X
p1599
aVCHF=X
p1600
aVAUD=X
p1601
aVJPY=X
p1602
aVNZD=X
p1603
asS'12082015'
p1604
(lp1605
VCHF=X
p1606
aVAUD=X
p1607
aVJPY=X
p1608
aVNZD=X
p1609
asS'12082016'
p1610
(lp1611
VEUR=X
p1612
aVCAD=X
p1613
aVCHF=X
p1614
aVAUD=X
p1615
aVJPY=X
p1616
aVNZD=X
p1617
asS'03072016'
p1618
(lp1619
VEUR=X
p1620
aVCHF=X
p1621
aVAUD=X
p1622
aVJPY=X
p1623
aVNZD=X
p1624
asS'06252015'
p1625
(lp1626
VCHF=X
p1627
aVAUD=X
p1628
aVJPY=X
p1629
aVNZD=X
p1630
asS'03222016'
p1631
(lp1632
VCHF=X
p1633
aVAUD=X
p1634
aVJPY=X
p1635
aVNZD=X
p1636
asS'08052015'
p1637
(lp1638
VCHF=X
p1639
aVAUD=X
p1640
aVJPY=X
p1641
aVNZD=X
p1642
asS'08052016'
p1643
(lp1644
VCHF=X
p1645
aVAUD=X
p1646
aVJPY=X
p1647
aVNZD=X
p1648
asS'09302015'
p1649
(lp1650
VCHF=X
p1651
aVAUD=X
p1652
aVJPY=X
p1653
aVNZD=X
p1654
asS'04222016'
p1655
(lp1656
VCHF=X
p1657
aVAUD=X
p1658
aVJPY=X
p1659
aVNZD=X
p1660
asS'04172015'
p1661
(lp1662
VEUR=X
p1663
aVCHF=X
p1664
aVAUD=X
p1665
aVJPY=X
p1666
aVNZD=X
p1667
asS'09142016'
p1668
(lp1669
VCHF=X
p1670
aVAUD=X
p1671
aVJPY=X
p1672
aVNZD=X
p1673
asS'02012016'
p1674
(lp1675
VCHF=X
p1676
aVAUD=X
p1677
aVJPY=X
p1678
aVNZD=X
p1679
asS'02012017'
p1680
(lp1681
VCHF=X
p1682
aVAUD=X
p1683
aVJPY=X
p1684
aVNZD=X
p1685
asS'03152016'
p1686
(lp1687
VCHF=X
p1688
aVAUD=X
p1689
aVJPY=X
p1690
aVNZD=X
p1691
asS'03182015'
p1692
(lp1693
VEUR=X
p1694
aVCHF=X
p1695
aVAUD=X
p1696
aVJPY=X
p1697
aVNZD=X
p1698
asS'03182016'
p1699
(lp1700
VCHF=X
p1701
aVAUD=X
p1702
aVJPY=X
p1703
aVNZD=X
p1704
asS'05162016'
p1705
(lp1706
VCHF=X
p1707
aVAUD=X
p1708
aVJPY=X
p1709
aVNZD=X
p1710
asS'09172015'
p1711
(lp1712
VCHF=X
p1713
aVAUD=X
p1714
aVJPY=X
p1715
aVNZD=X
p1716
asS'10132015'
p1717
(lp1718
VCHF=X
p1719
aVAUD=X
p1720
aVJPY=X
p1721
aVNZD=X
p1722
asS'05192016'
p1723
(lp1724
VCHF=X
p1725
aVAUD=X
p1726
aVJPY=X
p1727
aVNZD=X
p1728
asS'05192015'
p1729
(lp1730
VCHF=X
p1731
aVAUD=X
p1732
aVJPY=X
p1733
aVNZD=X
p1734
asS'10252016'
p1735
(lp1736
VCAD=X
p1737
aVCHF=X
p1738
aVAUD=X
p1739
aVJPY=X
p1740
aVNZD=X
p1741
asS'07072015'
p1742
(lp1743
VCHF=X
p1744
aVAUD=X
p1745
aVJPY=X
p1746
aVNZD=X
p1747
asS'03102016'
p1748
(lp1749
VEUR=X
p1750
aVCHF=X
p1751
aVAUD=X
p1752
aVJPY=X
p1753
aVNZD=X
p1754
asS'11062015'
p1755
(lp1756
VCHF=X
p1757
aVAUD=X
p1758
aVJPY=X
p1759
aVNZD=X
p1760
asS'08252015'
p1761
(lp1762
VCHF=X
p1763
aVAUD=X
p1764
aVJPY=X
p1765
aVNZD=X
p1766
asS'06212016'
p1767
(lp1768
VCHF=X
p1769
aVAUD=X
p1770
aVJPY=X
p1771
aVNZD=X
p1772
asS'01252016'
p1773
(lp1774
VCHF=X
p1775
aVAUD=X
p1776
aVJPY=X
p1777
aVNZD=X
p1778
asS'02122016'
p1779
(lp1780
VCHF=X
p1781
aVAUD=X
p1782
aVJPY=X
p1783
aVNZD=X
p1784
asS'12032015'
p1785
(lp1786
VCHF=X
p1787
aVAUD=X
p1788
aVJPY=X
p1789
aVNZD=X
p1790
asS'09242015'
p1791
(lp1792
VCHF=X
p1793
aVAUD=X
p1794
aVJPY=X
p1795
aVNZD=X
p1796
asS'06092016'
p1797
(lp1798
VCHF=X
p1799
aVAUD=X
p1800
aVJPY=X
p1801
aVNZD=X
p1802
asS'06092015'
p1803
(lp1804
VCHF=X
p1805
aVAUD=X
p1806
aVJPY=X
p1807
aVNZD=X
p1808
asS'04112016'
p1809
(lp1810
VCHF=X
p1811
aVAUD=X
p1812
aVJPY=X
p1813
aVNZD=X
p1814
asS'08282015'
p1815
(lp1816
VCHF=X
p1817
aVAUD=X
p1818
aVJPY=X
p1819
aVNZD=X
p1820
asS'07182016'
p1821
(lp1822
VCHF=X
p1823
aVAUD=X
p1824
aVJPY=X
p1825
aVNZD=X
p1826
asS'07082015'
p1827
(lp1828
VCHF=X
p1829
aVAUD=X
p1830
aVJPY=X
p1831
aVNZD=X
p1832
asS'03102015'
p1833
(lp1834
VEUR=X
p1835
aVCHF=X
p1836
aVAUD=X
p1837
aVJPY=X
p1838
aVNZD=X
p1839
asS'01302017'
p1840
(lp1841
VCHF=X
p1842
aVAUD=X
p1843
aVJPY=X
p1844
aVNZD=X
p1845
asS'10072015'
p1846
(lp1847
VCHF=X
p1848
aVAUD=X
p1849
aVJPY=X
p1850
aVNZD=X
p1851
asS'02262016'
p1852
(lp1853
VCHF=X
p1854
aVAUD=X
p1855
aVJPY=X
p1856
aVNZD=X
p1857
asS'02262015'
p1858
(lp1859
VCHF=X
p1860
aVAUD=X
p1861
aVJPY=X
p1862
aVNZD=X
p1863
asS'02192016'
p1864
(lp1865
VCHF=X
p1866
aVAUD=X
p1867
aVJPY=X
p1868
aVNZD=X
p1869
asS'08252016'
p1870
(lp1871
VCHF=X
p1872
aVAUD=X
p1873
aVJPY=X
p1874
aVNZD=X
p1875
asS'08312015'
p1876
(lp1877
VCHF=X
p1878
aVAUD=X
p1879
aVJPY=X
p1880
aVNZD=X
p1881
asS'08312016'
p1882
(lp1883
VCHF=X
p1884
aVAUD=X
p1885
aVJPY=X
p1886
aVNZD=X
p1887
asS'10222015'
p1888
(lp1889
VCHF=X
p1890
aVAUD=X
p1891
aVJPY=X
p1892
aVNZD=X
p1893
asS'06222016'
p1894
(lp1895
VCHF=X
p1896
aVAUD=X
p1897
aVJPY=X
p1898
aVNZD=X
p1899
asS'06222015'
p1900
(lp1901
VCHF=X
p1902
aVAUD=X
p1903
aVJPY=X
p1904
aVNZD=X
p1905
asS'03212016'
p1906
(lp1907
VCHF=X
p1908
aVAUD=X
p1909
aVJPY=X
p1910
aVNZD=X
p1911
asS'11012016'
p1912
(lp1913
VCAD=X
p1914
aVCHF=X
p1915
aVAUD=X
p1916
aVJPY=X
p1917
aVNZD=X
p1918
asS'07012016'
p1919
(lp1920
VCHF=X
p1921
aVAUD=X
p1922
aVJPY=X
p1923
aVNZD=X
p1924
asS'06192015'
p1925
(lp1926
VCHF=X
p1927
aVAUD=X
p1928
aVJPY=X
p1929
aVNZD=X
p1930
asS'03302016'
p1931
(lp1932
VCHF=X
p1933
aVAUD=X
p1934
aVJPY=X
p1935
aVNZD=X
p1936
asS'02022017'
p1937
(lp1938
VCHF=X
p1939
aVAUD=X
p1940
aVJPY=X
p1941
aVNZD=X
p1942
asS'10182016'
p1943
(lp1944
VCAD=X
p1945
aVCHF=X
p1946
aVAUD=X
p1947
aVJPY=X
p1948
aVNZD=X
p1949
asS'04082015'
p1950
(lp1951
VEUR=X
p1952
aVCHF=X
p1953
aVAUD=X
p1954
aVJPY=X
p1955
aVNZD=X
p1956
asS'04082016'
p1957
(lp1958
VCHF=X
p1959
aVAUD=X
p1960
aVJPY=X
p1961
aVNZD=X
p1962
asS'08012016'
p1963
(lp1964
VCHF=X
p1965
aVAUD=X
p1966
aVJPY=X
p1967
aVNZD=X
p1968
asS'01122017'
p1969
(lp1970
VCHF=X
p1971
aVAUD=X
p1972
aVJPY=X
p1973
aVNZD=X
p1974
asS'01122016'
p1975
(lp1976
VCHF=X
p1977
aVAUD=X
p1978
aVJPY=X
p1979
aVNZD=X
p1980
asS'01172017'
p1981
(lp1982
VCHF=X
p1983
aVAUD=X
p1984
aVJPY=X
p1985
aVNZD=X
p1986
asS'03302015'
p1987
(lp1988
VEUR=X
p1989
aVCHF=X
p1990
aVAUD=X
p1991
aVJPY=X
p1992
aVNZD=X
p1993
asS'04282016'
p1994
(lp1995
VCHF=X
p1996
aVAUD=X
p1997
aVJPY=X
p1998
aVNZD=X
p1999
asS'02102016'
p2000
(lp2001
VCHF=X
p2002
aVAUD=X
p2003
aVJPY=X
p2004
aVNZD=X
p2005
asS'02102017'
p2006
(lp2007
VCAD=X
p2008
aVCHF=X
p2009
aVAUD=X
p2010
aVJPY=X
p2011
aVNZD=X
p2012
asS'04072016'
p2013
(lp2014
VCHF=X
p2015
aVAUD=X
p2016
aVJPY=X
p2017
aVNZD=X
p2018
asS'04302015'
p2019
(lp2020
VEUR=X
p2021
aVCHF=X
p2022
aVAUD=X
p2023
aVJPY=X
p2024
aVNZD=X
p2025
asS'09262016'
p2026
(lp2027
VCHF=X
p2028
aVAUD=X
p2029
aVJPY=X
p2030
aVNZD=X
p2031
asS'04072015'
p2032
(lp2033
VEUR=X
p2034
aVCHF=X
p2035
aVAUD=X
p2036
aVJPY=X
p2037
aVNZD=X
p2038
asS'05052015'
p2039
(lp2040
VCHF=X
p2041
aVAUD=X
p2042
aVJPY=X
p2043
aVNZD=X
p2044
asS'05052016'
p2045
(lp2046
VCHF=X
p2047
aVAUD=X
p2048
aVJPY=X
p2049
aVNZD=X
p2050
asS'03092016'
p2051
(lp2052
VEUR=X
p2053
aVCHF=X
p2054
aVAUD=X
p2055
aVJPY=X
p2056
aVNZD=X
p2057
asS'03092015'
p2058
(lp2059
VEUR=X
p2060
aVCHF=X
p2061
aVAUD=X
p2062
aVJPY=X
p2063
aVNZD=X
p2064
asS'04202016'
p2065
(lp2066
VCHF=X
p2067
aVAUD=X
p2068
aVJPY=X
p2069
aVNZD=X
p2070
asS'04202015'
p2071
(lp2072
VEUR=X
p2073
aVCHF=X
p2074
aVAUD=X
p2075
aVJPY=X
p2076
aVNZD=X
p2077
asS'06112015'
p2078
(lp2079
VCHF=X
p2080
aVAUD=X
p2081
aVJPY=X
p2082
aVNZD=X
p2083
asS'10102016'
p2084
(lp2085
VCHF=X
p2086
aVAUD=X
p2087
aVJPY=X
p2088
aVNZD=X
p2089
asS'03012016'
p2090
(lp2091
VCHF=X
p2092
aVAUD=X
p2093
aVJPY=X
p2094
aVNZD=X
p2095
asS'01072016'
p2096
(lp2097
VCHF=X
p2098
aVAUD=X
p2099
aVJPY=X
p2100
aVNZD=X
p2101
asS'11122015'
p2102
(lp2103
VCHF=X
p2104
aVAUD=X
p2105
aVJPY=X
p2106
aVNZD=X
p2107
asS'01102017'
p2108
(lp2109
VCHF=X
p2110
aVAUD=X
p2111
aVJPY=X
p2112
aVNZD=X
p2113
asS'01312017'
p2114
(lp2115
VCHF=X
p2116
aVAUD=X
p2117
aVJPY=X
p2118
aVNZD=X
p2119
asS'07212015'
p2120
(lp2121
VCHF=X
p2122
aVAUD=X
p2123
aVJPY=X
p2124
aVNZD=X
p2125
asS'09202016'
p2126
(lp2127
VCHF=X
p2128
aVAUD=X
p2129
aVJPY=X
p2130
aVNZD=X
p2131
asS'07212016'
p2132
(lp2133
VCHF=X
p2134
aVAUD=X
p2135
aVJPY=X
p2136
aVNZD=X
p2137
asS'03272015'
p2138
(lp2139
VEUR=X
p2140
aVCHF=X
p2141
aVAUD=X
p2142
aVJPY=X
p2143
aVNZD=X
p2144
asS'10192015'
p2145
(lp2146
VCHF=X
p2147
aVAUD=X
p2148
aVJPY=X
p2149
aVNZD=X
p2150
asS'06022015'
p2151
(lp2152
VCHF=X
p2153
aVAUD=X
p2154
aVJPY=X
p2155
aVNZD=X
p2156
asS'01142016'
p2157
(lp2158
VCHF=X
p2159
aVAUD=X
p2160
aVJPY=X
p2161
aVNZD=X
p2162
asS'06022016'
p2163
(lp2164
VCHF=X
p2165
aVAUD=X
p2166
aVJPY=X
p2167
aVNZD=X
p2168
asS'08292016'
p2169
(lp2170
VCHF=X
p2171
aVAUD=X
p2172
aVJPY=X
p2173
aVNZD=X
p2174
asS'10192016'
p2175
(lp2176
VCAD=X
p2177
aVCHF=X
p2178
aVAUD=X
p2179
aVJPY=X
p2180
aVNZD=X
p2181
asS'04102015'
p2182
(lp2183
VEUR=X
p2184
aVCHF=X
p2185
aVAUD=X
p2186
aVJPY=X
p2187
aVNZD=X
p2188
asS'01152016'
p2189
(lp2190
VCHF=X
p2191
aVAUD=X
p2192
aVJPY=X
p2193
aVNZD=X
p2194
asS'12012015'
p2195
(lp2196
VCHF=X
p2197
aVAUD=X
p2198
aVJPY=X
p2199
aVNZD=X
p2200
asS'10092015'
p2201
(lp2202
VCHF=X
p2203
aVAUD=X
p2204
aVJPY=X
p2205
aVNZD=X
p2206
asS'12012016'
p2207
(lp2208
VCAD=X
p2209
aVCHF=X
p2210
aVAUD=X
p2211
aVJPY=X
p2212
aVNZD=X
p2213
asS'07082016'
p2214
(lp2215
VCHF=X
p2216
aVAUD=X
p2217
aVJPY=X
p2218
aVNZD=X
p2219
asS'12302016'
p2220
(lp2221
VEUR=X
p2222
aVCAD=X
p2223
aVCHF=X
p2224
aVAUD=X
p2225
aVJPY=X
p2226
aVNZD=X
p2227
asS'11192015'
p2228
(lp2229
VCHF=X
p2230
aVAUD=X
p2231
aVJPY=X
p2232
aVNZD=X
p2233
asS'08192016'
p2234
(lp2235
VCHF=X
p2236
aVAUD=X
p2237
aVJPY=X
p2238
aVNZD=X
p2239
asS'06032016'
p2240
(lp2241
VCHF=X
p2242
aVAUD=X
p2243
aVJPY=X
p2244
aVNZD=X
p2245
asS'05232016'
p2246
(lp2247
VCHF=X
p2248
aVAUD=X
p2249
aVJPY=X
p2250
aVNZD=X
p2251
asS'10212015'
p2252
(lp2253
VCHF=X
p2254
aVAUD=X
p2255
aVJPY=X
p2256
aVNZD=X
p2257
asS'04242015'
p2258
(lp2259
VEUR=X
p2260
aVCHF=X
p2261
aVAUD=X
p2262
aVJPY=X
p2263
aVNZD=X
p2264
asS'10212016'
p2265
(lp2266
VCAD=X
p2267
aVCHF=X
p2268
aVAUD=X
p2269
aVJPY=X
p2270
aVNZD=X
p2271
asS'11022015'
p2272
(lp2273
VCHF=X
p2274
aVAUD=X
p2275
aVJPY=X
p2276
aVNZD=X
p2277
asS'10302015'
p2278
(lp2279
VCHF=X
p2280
aVAUD=X
p2281
aVJPY=X
p2282
aVNZD=X
p2283
asS'11022016'
p2284
(lp2285
VCAD=X
p2286
aVCHF=X
p2287
aVAUD=X
p2288
aVJPY=X
p2289
aVNZD=X
p2290
asS'07292015'
p2291
(lp2292
VCHF=X
p2293
aVAUD=X
p2294
aVJPY=X
p2295
aVNZD=X
p2296
asS'07292016'
p2297
(lp2298
VCHF=X
p2299
aVAUD=X
p2300
aVJPY=X
p2301
aVNZD=X
p2302
asS'02242015'
p2303
(lp2304
VCHF=X
p2305
aVAUD=X
p2306
aVJPY=X
p2307
aVNZD=X
p2308
asS'02242016'
p2309
(lp2310
VCHF=X
p2311
aVAUD=X
p2312
aVJPY=X
p2313
aVNZD=X
p2314
asS'05082015'
p2315
(lp2316
VCHF=X
p2317
aVAUD=X
p2318
aVJPY=X
p2319
aVNZD=X
p2320
asS'12122016'
p2321
(lp2322
VEUR=X
p2323
aVCAD=X
p2324
aVCHF=X
p2325
aVAUD=X
p2326
aVJPY=X
p2327
aVNZD=X
p2328
asS'12172015'
p2329
(lp2330
VCHF=X
p2331
aVAUD=X
p2332
aVJPY=X
p2333
aVNZD=X
p2334
asS'03142016'
p2335
(lp2336
VEUR=X
p2337
aVCHF=X
p2338
aVAUD=X
p2339
aVJPY=X
p2340
aVNZD=X
p2341
asS'11102015'
p2342
(lp2343
VCHF=X
p2344
aVAUD=X
p2345
aVJPY=X
p2346
aVNZD=X
p2347
asS'11102016'
p2348
(lp2349
VCAD=X
p2350
aVCHF=X
p2351
aVAUD=X
p2352
aVJPY=X
p2353
aVNZD=X
p2354
asS'07262016'
p2355
(lp2356
VCHF=X
p2357
aVAUD=X
p2358
aVJPY=X
p2359
aVNZD=X
p2360
asS'08262015'
p2361
(lp2362
VCHF=X
p2363
aVAUD=X
p2364
aVJPY=X
p2365
aVNZD=X
p2366
asS'08262016'
p2367
(lp2368
VCHF=X
p2369
aVAUD=X
p2370
aVJPY=X
p2371
aVNZD=X
p2372
asS'02172016'
p2373
(lp2374
VCHF=X
p2375
aVAUD=X
p2376
aVJPY=X
p2377
aVNZD=X
p2378
asS'02172015'
p2379
(lp2380
VCHF=X
p2381
aVAUD=X
p2382
aVJPY=X
p2383
aVNZD=X
p2384
asS'04042016'
p2385
(lp2386
VCHF=X
p2387
aVAUD=X
p2388
aVJPY=X
p2389
aVNZD=X
p2390
asS'06052015'
p2391
(lp2392
VCHF=X
p2393
aVAUD=X
p2394
aVJPY=X
p2395
aVNZD=X
p2396
asS'09082015'
p2397
(lp2398
VCHF=X
p2399
aVAUD=X
p2400
aVJPY=X
p2401
aVNZD=X
p2402
asS'09082016'
p2403
(lp2404
VCHF=X
p2405
aVAUD=X
p2406
aVJPY=X
p2407
aVNZD=X
p2408
asS'10012015'
p2409
(lp2410
VCHF=X
p2411
aVAUD=X
p2412
aVJPY=X
p2413
aVNZD=X
p2414
asS'09122016'
p2415
(lp2416
VCHF=X
p2417
aVAUD=X
p2418
aVJPY=X
p2419
aVNZD=X
p2420
asS'09222015'
p2421
(lp2422
VNZD=X
p2423
asS'09222016'
p2424
(lp2425
VCHF=X
p2426
aVAUD=X
p2427
aVJPY=X
p2428
aVNZD=X
p2429
asS'12072016'
p2430
(lp2431
VEUR=X
p2432
aVCAD=X
p2433
aVCHF=X
p2434
aVAUD=X
p2435
aVJPY=X
p2436
aVNZD=X
p2437
asS'12072015'
p2438
(lp2439
VCHF=X
p2440
aVAUD=X
p2441
aVJPY=X
p2442
aVNZD=X
p2443
asS'06292015'
p2444
(lp2445
VCHF=X
p2446
aVAUD=X
p2447
aVJPY=X
p2448
aVNZD=X
p2449
asS'12102015'
p2450
(lp2451
VCHF=X
p2452
aVAUD=X
p2453
aVJPY=X
p2454
aVNZD=X
p2455
asS'03202015'
p2456
(lp2457
VEUR=X
p2458
aVCHF=X
p2459
aVAUD=X
p2460
aVJPY=X
p2461
aVNZD=X
p2462
asS'05242016'
p2463
(lp2464
VCHF=X
p2465
aVAUD=X
p2466
aVJPY=X
p2467
aVNZD=X
p2468
asS'07072016'
p2469
(lp2470
VCHF=X
p2471
aVAUD=X
p2472
aVJPY=X
p2473
aVNZD=X
p2474
asS'10062015'
p2475
(lp2476
VCHF=X
p2477
aVAUD=X
p2478
aVJPY=X
p2479
aVNZD=X
p2480
asS'05072015'
p2481
(lp2482
VCHF=X
p2483
aVAUD=X
p2484
aVJPY=X
p2485
aVNZD=X
p2486
asS'07142015'
p2487
(lp2488
VCHF=X
p2489
aVAUD=X
p2490
aVJPY=X
p2491
aVNZD=X
p2492
asS'08112015'
p2493
(lp2494
VCHF=X
p2495
aVAUD=X
p2496
aVJPY=X
p2497
aVNZD=X
p2498
asS'10272015'
p2499
(lp2500
VCHF=X
p2501
aVAUD=X
p2502
aVJPY=X
p2503
aVNZD=X
p2504
asS'07142016'
p2505
(lp2506
VCHF=X
p2507
aVAUD=X
p2508
aVJPY=X
p2509
aVNZD=X
p2510
asS'08102016'
p2511
(lp2512
VCHF=X
p2513
aVAUD=X
p2514
aVJPY=X
p2515
aVNZD=X
p2516
asS'12142016'
p2517
(lp2518
VEUR=X
p2519
aVCAD=X
p2520
aVCHF=X
p2521
aVAUD=X
p2522
aVJPY=X
p2523
aVNZD=X
p2524
asS'12142015'
p2525
(lp2526
VCHF=X
p2527
aVAUD=X
p2528
aVJPY=X
p2529
aVNZD=X
p2530
asS'08102015'
p2531
(lp2532
VCHF=X
p2533
aVAUD=X
p2534
aVJPY=X
p2535
aVNZD=X
p2536
asS'11142016'
p2537
(lp2538
VCAD=X
p2539
aVCHF=X
p2540
aVAUD=X
p2541
aVJPY=X
p2542
aVNZD=X
p2543
asS'03262015'
p2544
(lp2545
VEUR=X
p2546
aVCHF=X
p2547
aVAUD=X
p2548
aVJPY=X
p2549
aVNZD=X
p2550
asS'12152016'
p2551
(lp2552
VEUR=X
p2553
aVCAD=X
p2554
aVCHF=X
p2555
aVAUD=X
p2556
aVJPY=X
p2557
aVNZD=X
p2558
asS'11232016'
p2559
(lp2560
VCAD=X
p2561
aVCHF=X
p2562
aVAUD=X
p2563
aVJPY=X
p2564
aVNZD=X
p2565
asS'12152015'
p2566
(lp2567
VCHF=X
p2568
aVAUD=X
p2569
aVJPY=X
p2570
aVNZD=X
p2571
asS'06262015'
p2572
(lp2573
VCHF=X
p2574
aVAUD=X
p2575
aVJPY=X
p2576
aVNZD=X
p2577
asS'02052016'
p2578
(lp2579
VCHF=X
p2580
aVAUD=X
p2581
aVJPY=X
p2582
aVNZD=X
p2583
asS'02222016'
p2584
(lp2585
VCHF=X
p2586
aVAUD=X
p2587
aVJPY=X
p2588
aVNZD=X
p2589
asS'04252016'
p2590
(lp2591
VCHF=X
p2592
aVAUD=X
p2593
aVJPY=X
p2594
aVNZD=X
p2595
asS'03022015'
p2596
(lp2597
VCHF=X
p2598
aVAUD=X
p2599
aVJPY=X
p2600
aVNZD=X
p2601
asS'03022016'
p2602
(lp2603
VCHF=X
p2604
aVAUD=X
p2605
aVJPY=X
p2606
aVNZD=X
p2607
asS'10312016'
p2608
(lp2609
VCAD=X
p2610
aVCHF=X
p2611
aVAUD=X
p2612
aVJPY=X
p2613
aVNZD=X
p2614
asS'10062016'
p2615
(lp2616
VCHF=X
p2617
aVAUD=X
p2618
aVJPY=X
p2619
aVNZD=X
p2620
asS'04022015'
p2621
(lp2622
VCHF=X
p2623
aVAUD=X
p2624
aVJPY=X
p2625
aVNZD=X
p2626
asS'03192015'
p2627
(lp2628
VEUR=X
p2629
aVCHF=X
p2630
aVAUD=X
p2631
aVJPY=X
p2632
aVNZD=X
p2633
asS'11242015'
p2634
(lp2635
VCHF=X
p2636
aVAUD=X
p2637
aVJPY=X
p2638
aVNZD=X
p2639
asS'04122016'
p2640
(lp2641
VCHF=X
p2642
aVAUD=X
p2643
aVJPY=X
p2644
aVNZD=X
p2645
asS'06292016'
p2646
(lp2647
VCHF=X
p2648
aVAUD=X
p2649
aVJPY=X
p2650
aVNZD=X
p2651
asS'10142015'
p2652
(lp2653
VCHF=X
p2654
aVAUD=X
p2655
aVJPY=X
p2656
aVNZD=X
p2657
asS'10142016'
p2658
(lp2659
VCAD=X
p2660
aVCHF=X
p2661
aVAUD=X
p2662
aVJPY=X
p2663
aVNZD=X
p2664
asS'03312016'
p2665
(lp2666
VCHF=X
p2667
aVAUD=X
p2668
aVJPY=X
p2669
aVNZD=X
p2670
asS'03312015'
p2671
(lp2672
VEUR=X
p2673
aVCHF=X
p2674
aVAUD=X
p2675
aVJPY=X
p2676
aVNZD=X
p2677
asS'11172016'
p2678
(lp2679
VCAD=X
p2680
aVCHF=X
p2681
aVAUD=X
p2682
aVJPY=X
p2683
aVNZD=X
p2684
asS'11172015'
p2685
(lp2686
VCHF=X
p2687
aVAUD=X
p2688
aVJPY=X
p2689
aVNZD=X
p2690
asS'05032016'
p2691
(lp2692
VCHF=X
p2693
aVAUD=X
p2694
aVJPY=X
p2695
aVNZD=X
p2696
asS'07252016'
p2697
(lp2698
VCHF=X
p2699
aVAUD=X
p2700
aVJPY=X
p2701
aVNZD=X
p2702
asS'09212015'
p2703
(lp2704
VCHF=X
p2705
aVAUD=X
p2706
aVJPY=X
p2707
aVNZD=X
p2708
asS'08112016'
p2709
(lp2710
VCHF=X
p2711
aVAUD=X
p2712
aVJPY=X
p2713
aVNZD=X
p2714
asS'03052015'
p2715
(lp2716
VCHF=X
p2717
aVAUD=X
p2718
aVJPY=X
p2719
aVNZD=X
p2720
asS'06062016'
p2721
(lp2722
VCHF=X
p2723
aVAUD=X
p2724
aVJPY=X
p2725
aVNZD=X
p2726
asS'08042015'
p2727
(lp2728
VCHF=X
p2729
aVAUD=X
p2730
aVJPY=X
p2731
aVNZD=X
p2732
asS'08042016'
p2733
(lp2734
VCHF=X
p2735
aVAUD=X
p2736
aVJPY=X
p2737
aVNZD=X
p2738
asS'01272017'
p2739
(lp2740
VCHF=X
p2741
aVAUD=X
p2742
aVJPY=X
p2743
aVNZD=X
p2744
asS'01272016'
p2745
(lp2746
VCHF=X
p2747
aVAUD=X
p2748
aVJPY=X
p2749
aVNZD=X
p2750
asS'09182015'
p2751
(lp2752
VCHF=X
p2753
aVAUD=X
p2754
aVJPY=X
p2755
aVNZD=X
p2756
asS'01222016'
p2757
(lp2758
VCHF=X
p2759
aVAUD=X
p2760
aVJPY=X
p2761
aVNZD=X
p2762
asS'04152016'
p2763
(lp2764
VCHF=X
p2765
aVAUD=X
p2766
aVJPY=X
p2767
aVNZD=X
p2768
asS'04152015'
p2769
(lp2770
VEUR=X
p2771
aVCHF=X
p2772
aVAUD=X
p2773
aVJPY=X
p2774
aVNZD=X
p2775
asS'04272015'
p2776
(lp2777
VEUR=X
p2778
aVCHF=X
p2779
aVAUD=X
p2780
aVJPY=X
p2781
aVNZD=X
p2782
asS'04272016'
p2783
(lp2784
VCHF=X
p2785
aVAUD=X
p2786
aVJPY=X
p2787
aVNZD=X
p2788
asS'05122015'
p2789
(lp2790
VCHF=X
p2791
aVAUD=X
p2792
aVJPY=X
p2793
aVNZD=X
p2794
asS'05122016'
p2795
(lp2796
VCHF=X
p2797
aVAUD=X
p2798
aVJPY=X
p2799
aVNZD=X
p2800
asS'02192015'
p2801
(lp2802
VCHF=X
p2803
aVAUD=X
p2804
aVJPY=X
p2805
aVNZD=X
p2806
asS'05272015'
p2807
(lp2808
VCHF=X
p2809
aVAUD=X
p2810
aVJPY=X
p2811
aVNZD=X
p2812
asS'05272016'
p2813
(lp2814
VCHF=X
p2815
aVAUD=X
p2816
aVJPY=X
p2817
aVNZD=X
p2818
asS'08242016'
p2819
(lp2820
VCHF=X
p2821
aVAUD=X
p2822
aVJPY=X
p2823
aVNZD=X
p2824
asS'08242015'
p2825
(lp2826
VCHF=X
p2827
aVAUD=X
p2828
aVJPY=X
p2829
aVNZD=X
p2830
asS'11302016'
p2831
(lp2832
VCAD=X
p2833
aVCHF=X
p2834
aVAUD=X
p2835
aVJPY=X
p2836
aVNZD=X
p2837
asS'01062017'
p2838
(lp2839
VCAD=X
p2840
aVCHF=X
p2841
aVAUD=X
p2842
aVJPY=X
p2843
aVNZD=X
p2844
asS'11302015'
p2845
(lp2846
VCHF=X
p2847
aVAUD=X
p2848
aVJPY=X
p2849
aVNZD=X
p2850
asS'09042015'
p2851
(lp2852
VCHF=X
p2853
aVAUD=X
p2854
aVJPY=X
p2855
aVNZD=X
p2856
asS'10072016'
p2857
(lp2858
VCHF=X
p2859
aVAUD=X
p2860
aVJPY=X
p2861
aVNZD=X
p2862
asS'10262016'
p2863
(lp2864
VCAD=X
p2865
aVCHF=X
p2866
aVAUD=X
p2867
aVJPY=X
p2868
aVNZD=X
p2869
asS'10262015'
p2870
(lp2871
VCHF=X
p2872
aVAUD=X
p2873
aVJPY=X
p2874
aVNZD=X
p2875
asS'07052016'
p2876
(lp2877
VCHF=X
p2878
aVAUD=X
p2879
aVJPY=X
p2880
aVNZD=X
p2881
asS'03122015'
p2882
(lp2883
VEUR=X
p2884
aVCHF=X
p2885
aVAUD=X
p2886
aVJPY=X
p2887
aVNZD=X
p2888
asS'03132015'
p2889
(lp2890
VEUR=X
p2891
aVCHF=X
p2892
aVAUD=X
p2893
aVJPY=X
p2894
aVNZD=X
p2895
asS'01182017'
p2896
(lp2897
VCHF=X
p2898
aVAUD=X
p2899
aVJPY=X
p2900
aVNZD=X
p2901
asS'11222016'
p2902
(lp2903
VCAD=X
p2904
aVCHF=X
p2905
aVAUD=X
p2906
aVJPY=X
p2907
aVNZD=X
p2908
asS'11052015'
p2909
(lp2910
VCHF=X
p2911
aVAUD=X
p2912
aVJPY=X
p2913
aVNZD=X
p2914
asS'01252017'
p2915
(lp2916
VCHF=X
p2917
aVAUD=X
p2918
aVJPY=X
p2919
aVNZD=X
p2920
asS'10022015'
p2921
(lp2922
VCHF=X
p2923
aVAUD=X
p2924
aVJPY=X
p2925
aVNZD=X
p2926
asS'03162015'
p2927
(lp2928
VEUR=X
p2929
aVCHF=X
p2930
aVAUD=X
p2931
aVJPY=X
p2932
aVNZD=X
p2933
asS'01112016'
p2934
(lp2935
VCHF=X
p2936
aVAUD=X
p2937
aVJPY=X
p2938
aVNZD=X
p2939
asS'01112017'
p2940
(lp2941
VCHF=X
p2942
aVAUD=X
p2943
aVJPY=X
p2944
aVNZD=X
p2945
asS'09102015'
p2946
(lp2947
VCHF=X
p2948
aVAUD=X
p2949
aVJPY=X
p2950
aVNZD=X
p2951
asS'07232015'
p2952
(lp2953
VCHF=X
p2954
aVAUD=X
p2955
aVJPY=X
p2956
aVNZD=X
p2957
asS'09152016'
p2958
(lp2959
VCHF=X
p2960
aVAUD=X
p2961
aVJPY=X
p2962
aVNZD=X
p2963
asS'01212016'
p2964
(lp2965
VCHF=X
p2966
aVAUD=X
p2967
aVJPY=X
p2968
aVNZD=X
p2969
asS'09152015'
p2970
(lp2971
VCHF=X
p2972
aVAUD=X
p2973
aVJPY=X
p2974
aVNZD=X
p2975
asS'06182015'
p2976
(lp2977
VCHF=X
p2978
aVAUD=X
p2979
aVJPY=X
p2980
aVNZD=X
p2981
asS'02032016'
p2982
(lp2983
VCHF=X
p2984
aVAUD=X
p2985
aVJPY=X
p2986
aVNZD=X
p2987
asS'02032017'
p2988
(lp2989
VCHF=X
p2990
aVAUD=X
p2991
aVJPY=X
p2992
aVNZD=X
p2993
asS'01202016'
p2994
(lp2995
VCHF=X
p2996
aVAUD=X
p2997
aVJPY=X
p2998
aVNZD=X
p2999
asS'01202017'
p3000
(lp3001
VCHF=X
p3002
aVAUD=X
p3003
aVJPY=X
p3004
aVNZD=X
p3005
asS'02132015'
p3006
(lp3007
VCHF=X
p3008
aVAUD=X
p3009
aVJPY=X
p3010
aVNZD=X
p3011
asS'10272016'
p3012
(lp3013
VCAD=X
p3014
aVCHF=X
p3015
aVAUD=X
p3016
aVJPY=X
p3017
aVNZD=X
p3018
asS'03242015'
p3019
(lp3020
VEUR=X
p3021
aVCHF=X
p3022
aVAUD=X
p3023
aVJPY=X
p3024
aVNZD=X
p3025
asS'03242016'
p3026
(lp3027
VCHF=X
p3028
aVAUD=X
p3029
aVJPY=X
p3030
aVNZD=X
p3031
asS'01292016'
p3032
(lp3033
VCHF=X
p3034
aVAUD=X
p3035
aVJPY=X
p3036
aVNZD=X
p3037
asS'05022016'
p3038
(lp3039
VCHF=X
p3040
aVAUD=X
p3041
aVJPY=X
p3042
aVNZD=X
p3043
asS'12222016'
p3044
(lp3045
VEUR=X
p3046
aVCAD=X
p3047
aVCHF=X
p3048
aVAUD=X
p3049
aVJPY=X
p3050
aVNZD=X
p3051
asS'10292015'
p3052
(lp3053
VCHF=X
p3054
aVAUD=X
p3055
aVJPY=X
p3056
aVNZD=X
p3057
asS'02292016'
p3058
(lp3059
VCHF=X
p3060
aVAUD=X
p3061
aVJPY=X
p3062
aVNZD=X
p3063
asS'10112016'
p3064
(lp3065
VCHF=X
p3066
aVAUD=X
p3067
aVJPY=X
p3068
aVNZD=X
p3069
asS'04192016'
p3070
(lp3071
VCHF=X
p3072
aVAUD=X
p3073
aVJPY=X
p3074
aVNZD=X
p3075
asS'08202015'
p3076
(lp3077
VCHF=X
p3078
aVAUD=X
p3079
aVJPY=X
p3080
aVNZD=X
p3081
asS'05212015'
p3082
(lp3083
VCHF=X
p3084
aVAUD=X
p3085
aVJPY=X
p3086
aVNZD=X
p3087
asS'10052016'
p3088
(lp3089
VCHF=X
p3090
aVAUD=X
p3091
aVJPY=X
p3092
aVNZD=X
p3093
asS'10052015'
p3094
(lp3095
VCHF=X
p3096
aVAUD=X
p3097
aVJPY=X
p3098
aVNZD=X
p3099
asS'05112015'
p3100
(lp3101
VCHF=X
p3102
aVAUD=X
p3103
aVJPY=X
p3104
aVNZD=X
p3105
asS'12272016'
p3106
(lp3107
VCAD=X
p3108
aVEUR=X
p3109
aVCHF=X
p3110
aVAUD=X
p3111
aVJPY=X
p3112
aVNZD=X
p3113
asS'12222015'
p3114
(lp3115
VCHF=X
p3116
aVAUD=X
p3117
aVJPY=X
p3118
aVNZD=X
p3119
asS'01092017'
p3120
(lp3121
VCAD=X
p3122
aVCHF=X
p3123
aVAUD=X
p3124
aVJPY=X
p3125
aVNZD=X
p3126
asS'07102015'
p3127
(lp3128
VCHF=X
p3129
aVAUD=X
p3130
aVJPY=X
p3131
aVNZD=X
p3132
as.