(dp1
S'11072014'
p2
(lp3
VCHF=X
p4
aVJPY=X
p5
asS'03232016'
p6
(lp7
VCAD=X
p8
aVCHF=X
p9
aVAUD=X
p10
aVJPY=X
p11
aVNZD=X
p12
asS'03232015'
p13
(lp14
VEUR=X
p15
aVCAD=X
p16
aVCHF=X
p17
aVAUD=X
p18
aVJPY=X
p19
aVNZD=X
p20
asS'12022015'
p21
(lp22
VCAD=X
p23
aVAUD=X
p24
aVJPY=X
p25
asS'09012015'
p26
(lp27
VCAD=X
p28
aVCHF=X
p29
aVAUD=X
p30
aVJPY=X
p31
aVNZD=X
p32
asS'12022013'
p33
(lp34
VCHF=X
p35
asS'11072013'
p36
(lp37
VCHF=X
p38
asS'08132013'
p39
(lp40
VCAD=X
p41
aVCHF=X
p42
aVJPY=X
p43
aVNZD=X
p44
asS'07312015'
p45
(lp46
VCHF=X
p47
aVAUD=X
p48
aVJPY=X
p49
aVNZD=X
p50
asS'08132015'
p51
(lp52
VCHF=X
p53
aVAUD=X
p54
aVJPY=X
p55
aVNZD=X
p56
asS'08132014'
p57
(lp58
VCHF=X
p59
aVJPY=X
p60
asS'08082013'
p61
(lp62
VCAD=X
p63
aVCHF=X
p64
aVAUD=X
p65
aVJPY=X
p66
asS'08082014'
p67
(lp68
VCHF=X
p69
asS'08082016'
p70
(lp71
VCAD=X
p72
aVAUD=X
p73
aVJPY=X
p74
aVNZD=X
p75
asS'06302016'
p76
(lp77
VAUD=X
p78
aVJPY=X
p79
aVNZD=X
p80
asS'12062013'
p81
(lp82
VEUR=X
p83
aVCHF=X
p84
aVJPY=X
p85
asS'06302014'
p86
(lp87
VCHF=X
p88
aVJPY=X
p89
asS'06302015'
p90
(lp91
VCHF=X
p92
aVAUD=X
p93
aVNZD=X
p94
asS'12062016'
p95
(lp96
VEUR=X
p97
aVCAD=X
p98
aVCHF=X
p99
aVAUD=X
p100
aVJPY=X
p101
aVNZD=X
p102
asS'02082017'
p103
(lp104
VCAD=X
p105
aVAUD=X
p106
aVJPY=X
p107
aVNZD=X
p108
asS'02082016'
p109
(lp110
VCAD=X
p111
aVCHF=X
p112
aVAUD=X
p113
aVJPY=X
p114
aVNZD=X
p115
asS'10122015'
p116
(lp117
VCHF=X
p118
aVAUD=X
p119
aVJPY=X
p120
aVNZD=X
p121
asS'06132014'
p122
(lp123
VCHF=X
p124
asS'04232014'
p125
(lp126
VCHF=X
p127
asS'04232015'
p128
(lp129
VCAD=X
p130
aVCHF=X
p131
aVAUD=X
p132
aVJPY=X
p133
asS'09272013'
p134
(lp135
VCHF=X
p136
aVAUD=X
p137
aVJPY=X
p138
asS'12182013'
p139
(lp140
VCHF=X
p141
aVJPY=X
p142
asS'02092017'
p143
(lp144
VCAD=X
p145
aVAUD=X
p146
aVJPY=X
p147
aVNZD=X
p148
asS'10132014'
p149
(lp150
VCHF=X
p151
aVJPY=X
p152
asS'02092015'
p153
(lp154
VCAD=X
p155
aVCHF=X
p156
aVJPY=X
p157
asS'06122013'
p158
(lp159
VCAD=X
p160
aVCHF=X
p161
aVAUD=X
p162
aVJPY=X
p163
aVNZD=X
p164
asS'12182015'
p165
(lp166
VCHF=X
p167
aVAUD=X
p168
aVJPY=X
p169
asS'12182014'
p170
(lp171
VCHF=X
p172
aVJPY=X
p173
aVNZD=X
p174
asS'07312014'
p175
(lp176
VCHF=X
p177
aVJPY=X
p178
asS'12112013'
p179
(lp180
VEUR=X
p181
aVCHF=X
p182
aVJPY=X
p183
asS'02272014'
p184
(lp185
VCHF=X
p186
asS'02272015'
p187
(lp188
VCAD=X
p189
aVCHF=X
p190
aVAUD=X
p191
aVJPY=X
p192
asS'02272013'
p193
(lp194
VEUR=X
p195
aVCAD=X
p196
aVCHF=X
p197
aVNZD=X
p198
asS'12112014'
p199
(lp200
VCHF=X
p201
aVJPY=X
p202
aVNZD=X
p203
asS'07192013'
p204
(lp205
VCAD=X
p206
aVCHF=X
p207
aVJPY=X
p208
aVNZD=X
p209
asS'09282016'
p210
(lp211
VCAD=X
p212
aVJPY=X
p213
asS'09082015'
p214
(lp215
VCAD=X
p216
aVCHF=X
p217
aVAUD=X
p218
aVJPY=X
p219
aVNZD=X
p220
asS'09282015'
p221
(lp222
VCHF=X
p223
aVAUD=X
p224
aVJPY=X
p225
aVNZD=X
p226
asS'10182013'
p227
(lp228
VCAD=X
p229
aVCHF=X
p230
asS'07312013'
p231
(lp232
VCAD=X
p233
aVCHF=X
p234
asS'04162013'
p235
(lp236
VEUR=X
p237
aVCAD=X
p238
aVCHF=X
p239
aVAUD=X
p240
aVJPY=X
p241
aVNZD=X
p242
asS'04162014'
p243
(lp244
VCHF=X
p245
asS'04162015'
p246
(lp247
VCAD=X
p248
aVCHF=X
p249
aVAUD=X
p250
aVJPY=X
p251
aVNZD=X
p252
asS'03062014'
p253
(lp254
VCHF=X
p255
aVJPY=X
p256
asS'03062015'
p257
(lp258
VCAD=X
p259
aVCHF=X
p260
aVAUD=X
p261
aVJPY=X
p262
asS'05102013'
p263
(lp264
VEUR=X
p265
aVCAD=X
p266
aVAUD=X
p267
aVJPY=X
p268
aVNZD=X
p269
asS'03062013'
p270
(lp271
VEUR=X
p272
aVCAD=X
p273
aVCHF=X
p274
aVAUD=X
p275
aVJPY=X
p276
aVNZD=X
p277
asS'08032016'
p278
(lp279
VCAD=X
p280
aVAUD=X
p281
aVJPY=X
p282
aVNZD=X
p283
asS'12212016'
p284
(lp285
VEUR=X
p286
aVCAD=X
p287
aVCHF=X
p288
aVAUD=X
p289
aVJPY=X
p290
asS'12212015'
p291
(lp292
VCHF=X
p293
aVAUD=X
p294
aVJPY=X
p295
asS'08032015'
p296
(lp297
VCHF=X
p298
aVAUD=X
p299
aVNZD=X
p300
asS'11032014'
p301
(lp302
VCHF=X
p303
aVJPY=X
p304
asS'11032015'
p305
(lp306
VCAD=X
p307
aVCHF=X
p308
aVAUD=X
p309
aVJPY=X
p310
aVNZD=X
p311
asS'07222014'
p312
(lp313
VCHF=X
p314
aVJPY=X
p315
asS'07222015'
p316
(lp317
VCAD=X
p318
aVCHF=X
p319
aVAUD=X
p320
aVJPY=X
p321
aVNZD=X
p322
asS'11132013'
p323
(lp324
VCAD=X
p325
aVCHF=X
p326
asS'02022016'
p327
(lp328
VCAD=X
p329
aVCHF=X
p330
aVAUD=X
p331
aVJPY=X
p332
aVNZD=X
p333
asS'12202013'
p334
(lp335
VCHF=X
p336
aVJPY=X
p337
asS'11132015'
p338
(lp339
VCHF=X
p340
aVAUD=X
p341
aVJPY=X
p342
aVNZD=X
p343
asS'11132014'
p344
(lp345
VCHF=X
p346
aVJPY=X
p347
aVNZD=X
p348
asS'10242014'
p349
(lp350
VCHF=X
p351
aVJPY=X
p352
asS'04082015'
p353
(lp354
VCAD=X
p355
aVEUR=X
p356
aVCHF=X
p357
aVAUD=X
p358
aVJPY=X
p359
asS'10242016'
p360
(lp361
VEUR=X
p362
aVCAD=X
p363
aVAUD=X
p364
aVNZD=X
p365
asS'06012016'
p366
(lp367
VCAD=X
p368
aVCHF=X
p369
aVAUD=X
p370
asS'04252014'
p371
(lp372
VCHF=X
p373
asS'10242013'
p374
(lp375
VCAD=X
p376
aVCHF=X
p377
asS'04182013'
p378
(lp379
VEUR=X
p380
aVCAD=X
p381
aVCHF=X
p382
aVAUD=X
p383
aVJPY=X
p384
aVNZD=X
p385
asS'12292015'
p386
(lp387
VCAD=X
p388
aVCHF=X
p389
aVAUD=X
p390
aVJPY=X
p391
asS'03112013'
p392
(lp393
VEUR=X
p394
aVCAD=X
p395
aVCHF=X
p396
aVAUD=X
p397
aVJPY=X
p398
asS'03112014'
p399
(lp400
VCHF=X
p401
asS'03112015'
p402
(lp403
VCAD=X
p404
aVCHF=X
p405
aVAUD=X
p406
aVJPY=X
p407
aVNZD=X
p408
asS'08212014'
p409
(lp410
VCHF=X
p411
aVJPY=X
p412
asS'08212015'
p413
(lp414
VCAD=X
p415
aVCHF=X
p416
aVAUD=X
p417
aVJPY=X
p418
aVNZD=X
p419
asS'08012013'
p420
(lp421
VCAD=X
p422
aVCHF=X
p423
aVJPY=X
p424
asS'02102017'
p425
(lp426
VCAD=X
p427
aVCHF=X
p428
aVAUD=X
p429
aVJPY=X
p430
aVNZD=X
p431
asS'01132014'
p432
(lp433
VEUR=X
p434
aVCHF=X
p435
asS'01132015'
p436
(lp437
VCHF=X
p438
aVJPY=X
p439
asS'01132016'
p440
(lp441
VCAD=X
p442
aVCHF=X
p443
aVAUD=X
p444
aVJPY=X
p445
asS'01132017'
p446
(lp447
VCAD=X
p448
aVAUD=X
p449
aVJPY=X
p450
aVNZD=X
p451
asS'08012016'
p452
(lp453
VCAD=X
p454
aVAUD=X
p455
aVJPY=X
p456
asS'11292013'
p457
(lp458
VCHF=X
p459
asS'06022014'
p460
(lp461
VCHF=X
p462
aVJPY=X
p463
asS'05202013'
p464
(lp465
VCAD=X
p466
aVCHF=X
p467
aVAUD=X
p468
aVJPY=X
p469
aVNZD=X
p470
asS'05202016'
p471
(lp472
VCHF=X
p473
aVAUD=X
p474
aVJPY=X
p475
asS'05202014'
p476
(lp477
VCHF=X
p478
aVJPY=X
p479
asS'05202015'
p480
(lp481
VEUR=X
p482
aVCAD=X
p483
aVCHF=X
p484
aVAUD=X
p485
aVJPY=X
p486
asS'07092013'
p487
(lp488
VEUR=X
p489
aVCAD=X
p490
aVCHF=X
p491
aVJPY=X
p492
aVNZD=X
p493
asS'07092015'
p494
(lp495
VEUR=X
p496
aVCHF=X
p497
aVAUD=X
p498
aVJPY=X
p499
aVNZD=X
p500
asS'07092014'
p501
(lp502
VCHF=X
p503
asS'04012014'
p504
(lp505
VEUR=X
p506
aVCHF=X
p507
asS'04012015'
p508
(lp509
VEUR=X
p510
aVCAD=X
p511
aVCHF=X
p512
aVAUD=X
p513
aVJPY=X
p514
aVNZD=X
p515
asS'12092013'
p516
(lp517
VEUR=X
p518
aVCHF=X
p519
aVJPY=X
p520
asS'01122016'
p521
(lp522
VCAD=X
p523
aVCHF=X
p524
aVAUD=X
p525
aVJPY=X
p526
aVNZD=X
p527
asS'12092015'
p528
(lp529
VCAD=X
p530
aVAUD=X
p531
asS'12092014'
p532
(lp533
VCHF=X
p534
aVJPY=X
p535
asS'04012013'
p536
(lp537
VCAD=X
p538
aVCHF=X
p539
aVAUD=X
p540
aVJPY=X
p541
asS'09232013'
p542
(lp543
VCAD=X
p544
aVCHF=X
p545
aVAUD=X
p546
aVJPY=X
p547
asS'02062015'
p548
(lp549
VCAD=X
p550
aVCHF=X
p551
aVJPY=X
p552
aVNZD=X
p553
asS'10232015'
p554
(lp555
VCHF=X
p556
aVAUD=X
p557
aVJPY=X
p558
asS'10232014'
p559
(lp560
VCHF=X
p561
aVJPY=X
p562
asS'10232013'
p563
(lp564
VCAD=X
p565
aVCHF=X
p566
asS'03042013'
p567
(lp568
VEUR=X
p569
aVCAD=X
p570
aVCHF=X
p571
aVAUD=X
p572
aVJPY=X
p573
aVNZD=X
p574
asS'03042016'
p575
(lp576
VCHF=X
p577
aVGBP=X
p578
aVNZD=X
p579
asS'03042014'
p580
(lp581
VCHF=X
p582
asS'03042015'
p583
(lp584
VCAD=X
p585
aVCHF=X
p586
aVJPY=X
p587
asS'05142013'
p588
(lp589
VEUR=X
p590
aVCAD=X
p591
aVCHF=X
p592
aVAUD=X
p593
aVNZD=X
p594
asS'03052014'
p595
(lp596
VCHF=X
p597
asS'05142015'
p598
(lp599
VCAD=X
p600
aVCHF=X
p601
aVAUD=X
p602
aVJPY=X
p603
asS'05142014'
p604
(lp605
VCHF=X
p606
aVJPY=X
p607
asS'08162013'
p608
(lp609
VCAD=X
p610
aVCHF=X
p611
aVJPY=X
p612
aVNZD=X
p613
asS'07012013'
p614
(lp615
VCAD=X
p616
aVCHF=X
p617
aVAUD=X
p618
aVJPY=X
p619
aVNZD=X
p620
asS'03162016'
p621
(lp622
VCAD=X
p623
aVAUD=X
p624
aVNZD=X
p625
asS'07012015'
p626
(lp627
VEUR=X
p628
aVCHF=X
p629
aVAUD=X
p630
aVJPY=X
p631
aVNZD=X
p632
asS'07012014'
p633
(lp634
VCHF=X
p635
aVJPY=X
p636
asS'11082016'
p637
(lp638
VEUR=X
p639
aVCAD=X
p640
aVAUD=X
p641
aVJPY=X
p642
aVNZD=X
p643
asS'11082013'
p644
(lp645
VCHF=X
p646
asS'03262014'
p647
(lp648
VEUR=X
p649
aVCHF=X
p650
asS'11092016'
p651
(lp652
VEUR=X
p653
aVCAD=X
p654
aVAUD=X
p655
aVJPY=X
p656
asS'11092015'
p657
(lp658
VCHF=X
p659
aVAUD=X
p660
aVJPY=X
p661
aVNZD=X
p662
asS'01312014'
p663
(lp664
VCHF=X
p665
aVJPY=X
p666
asS'05082015'
p667
(lp668
VCAD=X
p669
aVCHF=X
p670
aVAUD=X
p671
asS'06132016'
p672
(lp673
VAUD=X
p674
aVJPY=X
p675
aVNZD=X
p676
asS'04212015'
p677
(lp678
VCAD=X
p679
aVCHF=X
p680
aVAUD=X
p681
aVJPY=X
p682
asS'08182016'
p683
(lp684
VCAD=X
p685
aVAUD=X
p686
aVJPY=X
p687
aVNZD=X
p688
asS'06032014'
p689
(lp690
VCHF=X
p691
asS'06032015'
p692
(lp693
VEUR=X
p694
aVCHF=X
p695
aVAUD=X
p696
aVJPY=X
p697
asS'04062015'
p698
(lp699
VEUR=X
p700
aVCAD=X
p701
aVCHF=X
p702
aVAUD=X
p703
aVJPY=X
p704
aVNZD=X
p705
asS'09272016'
p706
(lp707
VCAD=X
p708
aVAUD=X
p709
aVJPY=X
p710
asS'08192013'
p711
(lp712
VCAD=X
p713
aVCHF=X
p714
asS'11272013'
p715
(lp716
VCAD=X
p717
aVCHF=X
p718
asS'08302016'
p719
(lp720
VCAD=X
p721
aVAUD=X
p722
aVJPY=X
p723
asS'06032013'
p724
(lp725
VCAD=X
p726
aVCHF=X
p727
aVAUD=X
p728
aVJPY=X
p729
aVNZD=X
p730
asS'06132013'
p731
(lp732
VCAD=X
p733
aVCHF=X
p734
aVAUD=X
p735
aVJPY=X
p736
aVNZD=X
p737
asS'09162013'
p738
(lp739
VCAD=X
p740
aVCHF=X
p741
aVAUD=X
p742
asS'09162015'
p743
(lp744
VCHF=X
p745
aVAUD=X
p746
aVJPY=X
p747
aVNZD=X
p748
asS'09162014'
p749
(lp750
VCHF=X
p751
aVJPY=X
p752
asS'08232013'
p753
(lp754
VCAD=X
p755
aVCHF=X
p756
aVAUD=X
p757
aVJPY=X
p758
aVNZD=X
p759
asS'10152014'
p760
(lp761
VCHF=X
p762
aVJPY=X
p763
asS'03202013'
p764
(lp765
VEUR=X
p766
aVCAD=X
p767
aVCHF=X
p768
aVAUD=X
p769
aVJPY=X
p770
aVNZD=X
p771
asS'03202014'
p772
(lp773
VCHF=X
p774
asS'03202015'
p775
(lp776
VCAD=X
p777
aVEUR=X
p778
aVCHF=X
p779
aVAUD=X
p780
aVJPY=X
p781
aVNZD=X
p782
asS'10152015'
p783
(lp784
VCAD=X
p785
aVCHF=X
p786
aVAUD=X
p787
aVJPY=X
p788
aVNZD=X
p789
asS'02182014'
p790
(lp791
VCHF=X
p792
asS'02182015'
p793
(lp794
VCAD=X
p795
aVCHF=X
p796
aVJPY=X
p797
asS'08112015'
p798
(lp799
VCHF=X
p800
aVAUD=X
p801
aVJPY=X
p802
aVNZD=X
p803
asS'08112014'
p804
(lp805
VCHF=X
p806
aVJPY=X
p807
asS'01192016'
p808
(lp809
VCAD=X
p810
aVCHF=X
p811
aVAUD=X
p812
aVJPY=X
p813
aVNZD=X
p814
asS'10082014'
p815
(lp816
VCHF=X
p817
aVJPY=X
p818
asS'11232015'
p819
(lp820
VCHF=X
p821
aVAUD=X
p822
aVJPY=X
p823
aVNZD=X
p824
asS'02092016'
p825
(lp826
VCAD=X
p827
aVAUD=X
p828
aVJPY=X
p829
aVNZD=X
p830
asS'07162015'
p831
(lp832
VCAD=X
p833
aVCHF=X
p834
aVAUD=X
p835
aVJPY=X
p836
aVNZD=X
p837
asS'07162014'
p838
(lp839
VCHF=X
p840
aVJPY=X
p841
asS'07162013'
p842
(lp843
VCAD=X
p844
aVCHF=X
p845
aVJPY=X
p846
asS'06122014'
p847
(lp848
VCHF=X
p849
aVNZD=X
p850
asS'05042016'
p851
(lp852
VCAD=X
p853
aVAUD=X
p854
aVJPY=X
p855
aVNZD=X
p856
asS'04302014'
p857
(lp858
VCHF=X
p859
asS'07172014'
p860
(lp861
VCHF=X
p862
aVJPY=X
p863
asS'06122015'
p864
(lp865
VCHF=X
p866
aVAUD=X
p867
aVJPY=X
p868
aVNZD=X
p869
asS'07172013'
p870
(lp871
VCHF=X
p872
aVJPY=X
p873
aVNZD=X
p874
asS'06102013'
p875
(lp876
VCAD=X
p877
aVCHF=X
p878
aVAUD=X
p879
aVJPY=X
p880
aVNZD=X
p881
asS'06102014'
p882
(lp883
VCHF=X
p884
asS'09262016'
p885
(lp886
VCAD=X
p887
aVAUD=X
p888
aVJPY=X
p889
asS'06102016'
p890
(lp891
VAUD=X
p892
aVJPY=X
p893
aVNZD=X
p894
asS'08182015'
p895
(lp896
VCAD=X
p897
aVCHF=X
p898
aVAUD=X
p899
aVJPY=X
p900
aVNZD=X
p901
asS'01242017'
p902
(lp903
VCAD=X
p904
aVAUD=X
p905
aVJPY=X
p906
aVNZD=X
p907
asS'01242014'
p908
(lp909
VCHF=X
p910
aVJPY=X
p911
asS'02252013'
p912
(lp913
VEUR=X
p914
aVCAD=X
p915
aVAUD=X
p916
aVJPY=X
p917
aVNZD=X
p918
asS'02252014'
p919
(lp920
VCHF=X
p921
asS'02252015'
p922
(lp923
VEUR=X
p924
aVCHF=X
p925
aVAUD=X
p926
asS'02252016'
p927
(lp928
VCAD=X
p929
aVCHF=X
p930
aVAUD=X
p931
aVJPY=X
p932
aVNZD=X
p933
asS'09072016'
p934
(lp935
VCAD=X
p936
aVAUD=X
p937
aVJPY=X
p938
asS'04232013'
p939
(lp940
VCAD=X
p941
aVCHF=X
p942
aVAUD=X
p943
aVJPY=X
p944
aVNZD=X
p945
asS'12132016'
p946
(lp947
VEUR=X
p948
aVCAD=X
p949
aVCHF=X
p950
aVAUD=X
p951
aVJPY=X
p952
aVNZD=X
p953
asS'12132013'
p954
(lp955
VCHF=X
p956
aVJPY=X
p957
asS'04302013'
p958
(lp959
VEUR=X
p960
aVCAD=X
p961
aVCHF=X
p962
aVAUD=X
p963
aVJPY=X
p964
aVNZD=X
p965
asS'04072014'
p966
(lp967
VCHF=X
p968
asS'06242015'
p969
(lp970
VCHF=X
p971
aVAUD=X
p972
aVJPY=X
p973
aVNZD=X
p974
asS'06242014'
p975
(lp976
VCHF=X
p977
aVJPY=X
p978
asS'06242016'
p979
(lp980
VCAD=X
p981
aVAUD=X
p982
aVJPY=X
p983
aVNZD=X
p984
asS'09202013'
p985
(lp986
VCAD=X
p987
aVCHF=X
p988
aVJPY=X
p989
asS'06242013'
p990
(lp991
VCAD=X
p992
aVCHF=X
p993
aVAUD=X
p994
aVJPY=X
p995
aVNZD=X
p996
asS'02022015'
p997
(lp998
VCHF=X
p999
aVJPY=X
p1000
aVNZD=X
p1001
asS'02042016'
p1002
(lp1003
VCAD=X
p1004
aVCHF=X
p1005
aVAUD=X
p1006
aVJPY=X
p1007
aVNZD=X
p1008
asS'02042015'
p1009
(lp1010
VCHF=X
p1011
aVAUD=X
p1012
aVJPY=X
p1013
aVNZD=X
p1014
asS'02042014'
p1015
(lp1016
VCHF=X
p1017
asS'07202015'
p1018
(lp1019
VCAD=X
p1020
aVCHF=X
p1021
aVAUD=X
p1022
aVJPY=X
p1023
aVNZD=X
p1024
asS'07202016'
p1025
(lp1026
VCAD=X
p1027
aVCHF=X
p1028
aVAUD=X
p1029
aVJPY=X
p1030
asS'05152013'
p1031
(lp1032
VEUR=X
p1033
aVCAD=X
p1034
aVCHF=X
p1035
aVAUD=X
p1036
aVJPY=X
p1037
asS'05152014'
p1038
(lp1039
VCHF=X
p1040
asS'05152015'
p1041
(lp1042
VCAD=X
p1043
aVCHF=X
p1044
aVAUD=X
p1045
aVJPY=X
p1046
asS'05182016'
p1047
(lp1048
VCHF=X
p1049
aVAUD=X
p1050
aVJPY=X
p1051
aVGBP=X
p1052
asS'10042013'
p1053
(lp1054
VCAD=X
p1055
aVCHF=X
p1056
asS'06032016'
p1057
(lp1058
VCHF=X
p1059
aVAUD=X
p1060
asS'10042016'
p1061
(lp1062
VCAD=X
p1063
aVJPY=X
p1064
asS'05182015'
p1065
(lp1066
VCHF=X
p1067
aVAUD=X
p1068
aVJPY=X
p1069
asS'08152013'
p1070
(lp1071
VCAD=X
p1072
aVEUR=X
p1073
aVJPY=X
p1074
aVNZD=X
p1075
asS'05132016'
p1076
(lp1077
VCAD=X
p1078
aVCHF=X
p1079
aVAUD=X
p1080
aVGBP=X
p1081
aVNZD=X
p1082
asS'08152014'
p1083
(lp1084
VCHF=X
p1085
aVJPY=X
p1086
asS'10102013'
p1087
(lp1088
VCHF=X
p1089
aVAUD=X
p1090
asS'10162013'
p1091
(lp1092
VCAD=X
p1093
aVCHF=X
p1094
asS'06172016'
p1095
(lp1096
VAUD=X
p1097
aVJPY=X
p1098
aVNZD=X
p1099
asS'06172015'
p1100
(lp1101
VCHF=X
p1102
aVAUD=X
p1103
aVJPY=X
p1104
aVNZD=X
p1105
asS'10162014'
p1106
(lp1107
VCHF=X
p1108
aVJPY=X
p1109
asS'12112015'
p1110
(lp1111
VAUD=X
p1112
aVJPY=X
p1113
asS'06112014'
p1114
(lp1115
VCHF=X
p1116
asS'05222014'
p1117
(lp1118
VCHF=X
p1119
asS'05222015'
p1120
(lp1121
VEUR=X
p1122
aVCHF=X
p1123
aVAUD=X
p1124
aVJPY=X
p1125
asS'12312013'
p1126
(lp1127
VCHF=X
p1128
aVJPY=X
p1129
asS'01162015'
p1130
(lp1131
VCHF=X
p1132
aVJPY=X
p1133
aVNZD=X
p1134
asS'01162014'
p1135
(lp1136
VCHF=X
p1137
aVJPY=X
p1138
asS'05222013'
p1139
(lp1140
VEUR=X
p1141
aVCHF=X
p1142
aVJPY=X
p1143
aVNZD=X
p1144
asS'07272016'
p1145
(lp1146
VCAD=X
p1147
aVAUD=X
p1148
aVJPY=X
p1149
asS'07272015'
p1150
(lp1151
VCHF=X
p1152
aVAUD=X
p1153
aVJPY=X
p1154
aVNZD=X
p1155
asS'03302016'
p1156
(lp1157
VCAD=X
p1158
aVCHF=X
p1159
aVAUD=X
p1160
aVGBP=X
p1161
aVNZD=X
p1162
asS'10142015'
p1163
(lp1164
VCAD=X
p1165
aVCHF=X
p1166
aVAUD=X
p1167
aVNZD=X
p1168
asS'06042015'
p1169
(lp1170
VEUR=X
p1171
aVCHF=X
p1172
aVAUD=X
p1173
aVJPY=X
p1174
asS'06042014'
p1175
(lp1176
VCHF=X
p1177
asS'10202014'
p1178
(lp1179
VCHF=X
p1180
aVJPY=X
p1181
asS'10202015'
p1182
(lp1183
VCHF=X
p1184
aVAUD=X
p1185
aVJPY=X
p1186
asS'10202016'
p1187
(lp1188
VCAD=X
p1189
aVCHF=X
p1190
aVAUD=X
p1191
aVJPY=X
p1192
aVNZD=X
p1193
asS'11182014'
p1194
(lp1195
VCHF=X
p1196
aVJPY=X
p1197
asS'11182015'
p1198
(lp1199
VCAD=X
p1200
aVCHF=X
p1201
aVAUD=X
p1202
aVJPY=X
p1203
aVNZD=X
p1204
asS'06232014'
p1205
(lp1206
VCHF=X
p1207
aVJPY=X
p1208
asS'06232015'
p1209
(lp1210
VCHF=X
p1211
aVAUD=X
p1212
aVJPY=X
p1213
aVNZD=X
p1214
asS'12192016'
p1215
(lp1216
VEUR=X
p1217
aVCAD=X
p1218
aVCHF=X
p1219
aVAUD=X
p1220
aVJPY=X
p1221
aVNZD=X
p1222
asS'12192014'
p1223
(lp1224
VCHF=X
p1225
aVJPY=X
p1226
aVNZD=X
p1227
asS'11182013'
p1228
(lp1229
VCHF=X
p1230
asS'06152016'
p1231
(lp1232
VAUD=X
p1233
aVJPY=X
p1234
asS'10162015'
p1235
(lp1236
VCAD=X
p1237
aVCHF=X
p1238
aVAUD=X
p1239
aVJPY=X
p1240
aVNZD=X
p1241
asS'08192014'
p1242
(lp1243
VCHF=X
p1244
aVJPY=X
p1245
asS'08272013'
p1246
(lp1247
VCAD=X
p1248
aVCHF=X
p1249
aVAUD=X
p1250
asS'08272014'
p1251
(lp1252
VCHF=X
p1253
aVJPY=X
p1254
asS'08272015'
p1255
(lp1256
VCAD=X
p1257
aVCHF=X
p1258
aVAUD=X
p1259
aVJPY=X
p1260
aVNZD=X
p1261
asS'04262013'
p1262
(lp1263
VEUR=X
p1264
aVCAD=X
p1265
aVCHF=X
p1266
aVAUD=X
p1267
aVJPY=X
p1268
aVNZD=X
p1269
asS'01212014'
p1270
(lp1271
VCHF=X
p1272
aVJPY=X
p1273
asS'12242013'
p1274
(lp1275
VCHF=X
p1276
aVJPY=X
p1277
asS'12022016'
p1278
(lp1279
VCAD=X
p1280
aVCHF=X
p1281
aVAUD=X
p1282
aVJPY=X
p1283
aVNZD=X
p1284
asS'12242015'
p1285
(lp1286
VCAD=X
p1287
aVCHF=X
p1288
aVAUD=X
p1289
aVJPY=X
p1290
asS'04292016'
p1291
(lp1292
VCAD=X
p1293
aVCHF=X
p1294
aVAUD=X
p1295
aVJPY=X
p1296
aVNZD=X
p1297
asS'04292014'
p1298
(lp1299
VCHF=X
p1300
asS'11252013'
p1301
(lp1302
VCAD=X
p1303
aVCHF=X
p1304
asS'11252014'
p1305
(lp1306
VCHF=X
p1307
aVJPY=X
p1308
asS'04292013'
p1309
(lp1310
VEUR=X
p1311
aVCAD=X
p1312
aVCHF=X
p1313
aVAUD=X
p1314
aVJPY=X
p1315
aVNZD=X
p1316
asS'11252016'
p1317
(lp1318
VEUR=X
p1319
aVCAD=X
p1320
aVCHF=X
p1321
aVAUD=X
p1322
aVJPY=X
p1323
aVNZD=X
p1324
asS'05172013'
p1325
(lp1326
VCAD=X
p1327
aVCHF=X
p1328
aVAUD=X
p1329
aVJPY=X
p1330
aVNZD=X
p1331
asS'04052013'
p1332
(lp1333
VEUR=X
p1334
aVCAD=X
p1335
aVCHF=X
p1336
aVAUD=X
p1337
aVJPY=X
p1338
aVNZD=X
p1339
asS'04052016'
p1340
(lp1341
VCAD=X
p1342
aVAUD=X
p1343
aVJPY=X
p1344
aVNZD=X
p1345
asS'05102016'
p1346
(lp1347
VCAD=X
p1348
aVAUD=X
p1349
aVJPY=X
p1350
aVNZD=X
p1351
asS'07022014'
p1352
(lp1353
VCHF=X
p1354
aVJPY=X
p1355
asS'07022015'
p1356
(lp1357
VEUR=X
p1358
aVCHF=X
p1359
aVAUD=X
p1360
aVJPY=X
p1361
aVNZD=X
p1362
asS'09142015'
p1363
(lp1364
VCAD=X
p1365
aVCHF=X
p1366
aVAUD=X
p1367
aVJPY=X
p1368
aVNZD=X
p1369
asS'03082013'
p1370
(lp1371
VEUR=X
p1372
aVCAD=X
p1373
aVAUD=X
p1374
aVJPY=X
p1375
aVNZD=X
p1376
asS'07022013'
p1377
(lp1378
VCAD=X
p1379
aVCHF=X
p1380
aVAUD=X
p1381
aVNZD=X
p1382
asS'11042013'
p1383
(lp1384
VCHF=X
p1385
asS'02232016'
p1386
(lp1387
VCAD=X
p1388
aVCHF=X
p1389
aVAUD=X
p1390
aVJPY=X
p1391
aVNZD=X
p1392
asS'11042016'
p1393
(lp1394
VEUR=X
p1395
aVCAD=X
p1396
aVAUD=X
p1397
aVJPY=X
p1398
aVNZD=X
p1399
asS'11042015'
p1400
(lp1401
VCAD=X
p1402
aVCHF=X
p1403
aVAUD=X
p1404
aVJPY=X
p1405
aVNZD=X
p1406
asS'11042014'
p1407
(lp1408
VCHF=X
p1409
aVJPY=X
p1410
asS'08142013'
p1411
(lp1412
VCAD=X
p1413
aVCHF=X
p1414
aVJPY=X
p1415
aVNZD=X
p1416
asS'07152013'
p1417
(lp1418
VCAD=X
p1419
aVCHF=X
p1420
aVJPY=X
p1421
aVNZD=X
p1422
asS'07152014'
p1423
(lp1424
VCHF=X
p1425
aVJPY=X
p1426
asS'07152015'
p1427
(lp1428
VCHF=X
p1429
aVAUD=X
p1430
aVNZD=X
p1431
asS'08142014'
p1432
(lp1433
VCHF=X
p1434
aVJPY=X
p1435
asS'08142015'
p1436
(lp1437
VCHF=X
p1438
aVAUD=X
p1439
aVJPY=X
p1440
aVNZD=X
p1441
asS'12022014'
p1442
(lp1443
VCHF=X
p1444
aVJPY=X
p1445
aVNZD=X
p1446
asS'01072015'
p1447
(lp1448
VCHF=X
p1449
aVJPY=X
p1450
aVNZD=X
p1451
asS'07222013'
p1452
(lp1453
VCAD=X
p1454
aVCHF=X
p1455
aVJPY=X
p1456
aVNZD=X
p1457
asS'01072014'
p1458
(lp1459
VEUR=X
p1460
aVCHF=X
p1461
aVJPY=X
p1462
asS'01142014'
p1463
(lp1464
VEUR=X
p1465
aVCHF=X
p1466
aVJPY=X
p1467
asS'09062013'
p1468
(lp1469
VCAD=X
p1470
aVCHF=X
p1471
aVAUD=X
p1472
aVJPY=X
p1473
asS'01262016'
p1474
(lp1475
VCAD=X
p1476
aVCHF=X
p1477
aVAUD=X
p1478
aVJPY=X
p1479
aVNZD=X
p1480
asS'01262017'
p1481
(lp1482
VCAD=X
p1483
aVAUD=X
p1484
aVJPY=X
p1485
aVNZD=X
p1486
asS'09062016'
p1487
(lp1488
VCAD=X
p1489
aVAUD=X
p1490
asS'07222016'
p1491
(lp1492
VCHF=X
p1493
aVAUD=X
p1494
aVJPY=X
p1495
asS'03292016'
p1496
(lp1497
VCAD=X
p1498
aVCHF=X
p1499
aVAUD=X
p1500
aVGBP=X
p1501
asS'02112015'
p1502
(lp1503
VCAD=X
p1504
aVCHF=X
p1505
aVJPY=X
p1506
asS'02112014'
p1507
(lp1508
VEUR=X
p1509
aVCHF=X
p1510
asS'02112016'
p1511
(lp1512
VCAD=X
p1513
aVCHF=X
p1514
aVAUD=X
p1515
aVJPY=X
p1516
aVNZD=X
p1517
asS'11032016'
p1518
(lp1519
VEUR=X
p1520
aVCAD=X
p1521
aVAUD=X
p1522
aVJPY=X
p1523
aVNZD=X
p1524
asS'01042016'
p1525
(lp1526
VCAD=X
p1527
aVCHF=X
p1528
aVAUD=X
p1529
aVJPY=X
p1530
aVNZD=X
p1531
asS'01042017'
p1532
(lp1533
VCAD=X
p1534
aVAUD=X
p1535
aVJPY=X
p1536
aVNZD=X
p1537
asS'11172015'
p1538
(lp1539
VCAD=X
p1540
aVAUD=X
p1541
aVJPY=X
p1542
aVNZD=X
p1543
asS'12202016'
p1544
(lp1545
VEUR=X
p1546
aVCAD=X
p1547
aVCHF=X
p1548
aVAUD=X
p1549
aVJPY=X
p1550
asS'12162013'
p1551
(lp1552
VCHF=X
p1553
aVJPY=X
p1554
asS'12162015'
p1555
(lp1556
VAUD=X
p1557
aVJPY=X
p1558
asS'12162014'
p1559
(lp1560
VCHF=X
p1561
aVJPY=X
p1562
asS'12162016'
p1563
(lp1564
VCAD=X
p1565
aVCHF=X
p1566
aVAUD=X
p1567
aVJPY=X
p1568
aVNZD=X
p1569
asS'09152015'
p1570
(lp1571
VCHF=X
p1572
aVAUD=X
p1573
aVJPY=X
p1574
aVNZD=X
p1575
asS'05032016'
p1576
(lp1577
VCAD=X
p1578
aVAUD=X
p1579
aVJPY=X
p1580
aVNZD=X
p1581
asS'11072016'
p1582
(lp1583
VEUR=X
p1584
aVCAD=X
p1585
aVAUD=X
p1586
aVJPY=X
p1587
aVNZD=X
p1588
asS'01052015'
p1589
(lp1590
VCHF=X
p1591
aVJPY=X
p1592
asS'01052017'
p1593
(lp1594
VCAD=X
p1595
aVAUD=X
p1596
aVJPY=X
p1597
aVNZD=X
p1598
asS'01052016'
p1599
(lp1600
VCAD=X
p1601
aVCHF=X
p1602
aVAUD=X
p1603
aVJPY=X
p1604
aVNZD=X
p1605
asS'03172016'
p1606
(lp1607
VCAD=X
p1608
aVAUD=X
p1609
aVJPY=X
p1610
asS'03172014'
p1611
(lp1612
VCHF=X
p1613
asS'03172015'
p1614
(lp1615
VEUR=X
p1616
aVCAD=X
p1617
aVCHF=X
p1618
aVAUD=X
p1619
aVJPY=X
p1620
aVNZD=X
p1621
asS'09102013'
p1622
(lp1623
VCAD=X
p1624
aVCHF=X
p1625
aVAUD=X
p1626
asS'05092014'
p1627
(lp1628
VCHF=X
p1629
asS'05092016'
p1630
(lp1631
VCAD=X
p1632
aVAUD=X
p1633
aVJPY=X
p1634
aVNZD=X
p1635
asS'05092013'
p1636
(lp1637
VEUR=X
p1638
aVCAD=X
p1639
aVCHF=X
p1640
aVNZD=X
p1641
asS'05292014'
p1642
(lp1643
VCHF=X
p1644
asS'10072016'
p1645
(lp1646
sS'11252015'
p1647
(lp1648
VCAD=X
p1649
aVCHF=X
p1650
aVAUD=X
p1651
aVJPY=X
p1652
asS'07122013'
p1653
(lp1654
VCAD=X
p1655
aVCHF=X
p1656
aVJPY=X
p1657
asS'06202013'
p1658
(lp1659
VCAD=X
p1660
aVCHF=X
p1661
aVJPY=X
p1662
aVNZD=X
p1663
asS'07122016'
p1664
(lp1665
VAUD=X
p1666
aVJPY=X
p1667
aVNZD=X
p1668
asS'06202016'
p1669
(lp1670
VCAD=X
p1671
aVAUD=X
p1672
aVJPY=X
p1673
aVNZD=X
p1674
asS'03282013'
p1675
(lp1676
VEUR=X
p1677
aVCAD=X
p1678
aVAUD=X
p1679
aVJPY=X
p1680
asS'03282014'
p1681
(lp1682
VEUR=X
p1683
aVCHF=X
p1684
asS'03282016'
p1685
(lp1686
VCAD=X
p1687
aVCHF=X
p1688
aVAUD=X
p1689
aVJPY=X
p1690
asS'01282016'
p1691
(lp1692
VCAD=X
p1693
aVCHF=X
p1694
aVAUD=X
p1695
aVJPY=X
p1696
aVNZD=X
p1697
asS'11112015'
p1698
(lp1699
VCAD=X
p1700
aVCHF=X
p1701
aVAUD=X
p1702
aVJPY=X
p1703
aVNZD=X
p1704
asS'01282014'
p1705
(lp1706
VCHF=X
p1707
asS'01282015'
p1708
(lp1709
VCAD=X
p1710
aVCHF=X
p1711
aVJPY=X
p1712
asS'04092014'
p1713
(lp1714
VEUR=X
p1715
aVCHF=X
p1716
asS'04092015'
p1717
(lp1718
VEUR=X
p1719
aVCAD=X
p1720
aVCHF=X
p1721
aVAUD=X
p1722
aVJPY=X
p1723
aVNZD=X
p1724
asS'08162016'
p1725
(lp1726
VCAD=X
p1727
aVAUD=X
p1728
aVJPY=X
p1729
aVNZD=X
p1730
asS'06012015'
p1731
(lp1732
VEUR=X
p1733
aVCHF=X
p1734
aVAUD=X
p1735
aVJPY=X
p1736
aVNZD=X
p1737
asS'09232015'
p1738
(lp1739
VCHF=X
p1740
aVAUD=X
p1741
aVJPY=X
p1742
aVNZD=X
p1743
asS'09232014'
p1744
(lp1745
VCHF=X
p1746
aVJPY=X
p1747
asS'04092013'
p1748
(lp1749
VCAD=X
p1750
aVCHF=X
p1751
aVJPY=X
p1752
asS'07242013'
p1753
(lp1754
VCAD=X
p1755
aVCHF=X
p1756
aVNZD=X
p1757
asS'07242014'
p1758
(lp1759
VCHF=X
p1760
aVJPY=X
p1761
asS'07242015'
p1762
(lp1763
VCAD=X
p1764
aVCHF=X
p1765
aVAUD=X
p1766
aVJPY=X
p1767
aVNZD=X
p1768
asS'12292016'
p1769
(lp1770
VEUR=X
p1771
aVCAD=X
p1772
aVAUD=X
p1773
aVJPY=X
p1774
aVNZD=X
p1775
asS'02162016'
p1776
(lp1777
VCAD=X
p1778
aVCHF=X
p1779
aVAUD=X
p1780
aVJPY=X
p1781
aVNZD=X
p1782
asS'08022016'
p1783
(lp1784
VAUD=X
p1785
aVJPY=X
p1786
aVNZD=X
p1787
asS'06282013'
p1788
(lp1789
VCAD=X
p1790
aVCHF=X
p1791
aVAUD=X
p1792
aVJPY=X
p1793
aVNZD=X
p1794
asS'10082015'
p1795
(lp1796
VCHF=X
p1797
aVAUD=X
p1798
aVJPY=X
p1799
aVNZD=X
p1800
asS'08022013'
p1801
(lp1802
VCAD=X
p1803
aVCHF=X
p1804
aVAUD=X
p1805
aVJPY=X
p1806
asS'10082013'
p1807
(lp1808
sS'10152013'
p1809
(lp1810
VCAD=X
p1811
aVCHF=X
p1812
asS'12292014'
p1813
(lp1814
VCHF=X
p1815
aVJPY=X
p1816
aVNZD=X
p1817
asS'05012015'
p1818
(lp1819
VCAD=X
p1820
aVCHF=X
p1821
aVAUD=X
p1822
aVJPY=X
p1823
asS'05012014'
p1824
(lp1825
VEUR=X
p1826
aVCHF=X
p1827
asS'05132013'
p1828
(lp1829
VEUR=X
p1830
aVCAD=X
p1831
aVCHF=X
p1832
aVAUD=X
p1833
aVJPY=X
p1834
aVNZD=X
p1835
asS'05132014'
p1836
(lp1837
VJPY=X
p1838
asS'05132015'
p1839
(lp1840
VCAD=X
p1841
aVCHF=X
p1842
aVAUD=X
p1843
aVJPY=X
p1844
asS'05012013'
p1845
(lp1846
VEUR=X
p1847
aVCAD=X
p1848
aVCHF=X
p1849
aVAUD=X
p1850
aVJPY=X
p1851
aVNZD=X
p1852
asS'07062015'
p1853
(lp1854
VEUR=X
p1855
aVCHF=X
p1856
aVAUD=X
p1857
aVNZD=X
p1858
asS'03112016'
p1859
(lp1860
VCAD=X
p1861
aVCHF=X
p1862
aVAUD=X
p1863
aVJPY=X
p1864
aVNZD=X
p1865
asS'06042013'
p1866
(lp1867
VCAD=X
p1868
aVCHF=X
p1869
aVAUD=X
p1870
aVJPY=X
p1871
aVNZD=X
p1872
asS'12312015'
p1873
(lp1874
VCAD=X
p1875
aVCHF=X
p1876
aVAUD=X
p1877
aVJPY=X
p1878
aVNZD=X
p1879
asS'12312014'
p1880
(lp1881
VCHF=X
p1882
aVJPY=X
p1883
asS'12262014'
p1884
(lp1885
VCHF=X
p1886
aVJPY=X
p1887
asS'06232016'
p1888
(lp1889
VAUD=X
p1890
aVJPY=X
p1891
aVNZD=X
p1892
asS'05212013'
p1893
(lp1894
VEUR=X
p1895
aVCHF=X
p1896
aVAUD=X
p1897
aVJPY=X
p1898
aVNZD=X
p1899
asS'05262015'
p1900
(lp1901
VCHF=X
p1902
aVAUD=X
p1903
aVJPY=X
p1904
asS'05262016'
p1905
(lp1906
VCAD=X
p1907
aVCHF=X
p1908
aVAUD=X
p1909
asS'12262013'
p1910
(lp1911
VCHF=X
p1912
aVJPY=X
p1913
asS'03032015'
p1914
(lp1915
VCAD=X
p1916
aVCHF=X
p1917
aVAUD=X
p1918
aVJPY=X
p1919
asS'03032014'
p1920
(lp1921
VEUR=X
p1922
aVCHF=X
p1923
asS'03032016'
p1924
(lp1925
VCHF=X
p1926
aVAUD=X
p1927
aVJPY=X
p1928
aVNZD=X
p1929
asS'04212016'
p1930
(lp1931
VCAD=X
p1932
aVCHF=X
p1933
aVAUD=X
p1934
aVJPY=X
p1935
aVNZD=X
p1936
asS'11112014'
p1937
(lp1938
VCHF=X
p1939
aVJPY=X
p1940
asS'04212014'
p1941
(lp1942
VCHF=X
p1943
asS'11112016'
p1944
(lp1945
VEUR=X
p1946
aVCAD=X
p1947
aVAUD=X
p1948
aVJPY=X
p1949
aVNZD=X
p1950
asS'11112013'
p1951
(lp1952
VCAD=X
p1953
aVCHF=X
p1954
asS'12042014'
p1955
(lp1956
VCHF=X
p1957
aVJPY=X
p1958
aVNZD=X
p1959
asS'12042015'
p1960
(lp1961
VCAD=X
p1962
aVAUD=X
p1963
aVJPY=X
p1964
asS'12042013'
p1965
(lp1966
VCHF=X
p1967
asS'08052014'
p1968
(lp1969
VCHF=X
p1970
aVJPY=X
p1971
asS'09032015'
p1972
(lp1973
VCAD=X
p1974
aVCHF=X
p1975
aVAUD=X
p1976
aVJPY=X
p1977
aVNZD=X
p1978
asS'09032014'
p1979
(lp1980
VCHF=X
p1981
aVJPY=X
p1982
asS'09032013'
p1983
(lp1984
VCAD=X
p1985
aVCHF=X
p1986
aVAUD=X
p1987
asS'02032016'
p1988
(lp1989
VCAD=X
p1990
aVCHF=X
p1991
aVAUD=X
p1992
aVJPY=X
p1993
aVNZD=X
p1994
asS'09022016'
p1995
(lp1996
VCAD=X
p1997
aVAUD=X
p1998
aVJPY=X
p1999
asS'05282013'
p2000
(lp2001
VEUR=X
p2002
aVCAD=X
p2003
aVCHF=X
p2004
aVJPY=X
p2005
aVNZD=X
p2006
asS'09092013'
p2007
(lp2008
VCAD=X
p2009
aVCHF=X
p2010
aVAUD=X
p2011
aVJPY=X
p2012
asS'09022015'
p2013
(lp2014
VCAD=X
p2015
aVCHF=X
p2016
aVAUD=X
p2017
aVJPY=X
p2018
aVNZD=X
p2019
asS'09092015'
p2020
(lp2021
VCAD=X
p2022
aVCHF=X
p2023
aVAUD=X
p2024
aVJPY=X
p2025
aVNZD=X
p2026
asS'09092014'
p2027
(lp2028
VCHF=X
p2029
aVJPY=X
p2030
asS'05282014'
p2031
(lp2032
VCHF=X
p2033
asS'09112015'
p2034
(lp2035
VCHF=X
p2036
aVAUD=X
p2037
aVJPY=X
p2038
aVNZD=X
p2039
asS'05112016'
p2040
(lp2041
VCAD=X
p2042
aVAUD=X
p2043
aVJPY=X
p2044
aVGBP=X
p2045
aVNZD=X
p2046
asS'08292013'
p2047
(lp2048
VCAD=X
p2049
aVCHF=X
p2050
aVAUD=X
p2051
asS'12052014'
p2052
(lp2053
VCHF=X
p2054
aVJPY=X
p2055
aVNZD=X
p2056
asS'12052016'
p2057
(lp2058
VCAD=X
p2059
aVCHF=X
p2060
aVAUD=X
p2061
aVJPY=X
p2062
aVNZD=X
p2063
asS'10172016'
p2064
(lp2065
VCAD=X
p2066
aVCHF=X
p2067
aVAUD=X
p2068
aVNZD=X
p2069
asS'12052013'
p2070
(lp2071
VCHF=X
p2072
aVJPY=X
p2073
asS'06162015'
p2074
(lp2075
VCHF=X
p2076
aVAUD=X
p2077
aVJPY=X
p2078
aVNZD=X
p2079
asS'04132015'
p2080
(lp2081
VEUR=X
p2082
aVCAD=X
p2083
aVCHF=X
p2084
aVAUD=X
p2085
aVJPY=X
p2086
asS'04132016'
p2087
(lp2088
VCAD=X
p2089
aVAUD=X
p2090
aVJPY=X
p2091
aVNZD=X
p2092
asS'08062015'
p2093
(lp2094
VCHF=X
p2095
aVAUD=X
p2096
aVNZD=X
p2097
asS'08062014'
p2098
(lp2099
VCHF=X
p2100
aVJPY=X
p2101
asS'08292016'
p2102
(lp2103
VCAD=X
p2104
aVAUD=X
p2105
aVJPY=X
p2106
asS'08052013'
p2107
(lp2108
VCAD=X
p2109
aVCHF=X
p2110
aVAUD=X
p2111
aVJPY=X
p2112
asS'09022014'
p2113
(lp2114
VCHF=X
p2115
aVJPY=X
p2116
asS'06082016'
p2117
(lp2118
VAUD=X
p2119
aVJPY=X
p2120
aVNZD=X
p2121
asS'06082015'
p2122
(lp2123
VCHF=X
p2124
aVAUD=X
p2125
aVJPY=X
p2126
asS'11182016'
p2127
(lp2128
VEUR=X
p2129
aVCAD=X
p2130
aVCHF=X
p2131
aVAUD=X
p2132
asS'02212014'
p2133
(lp2134
VCHF=X
p2135
asS'10282013'
p2136
(lp2137
VCHF=X
p2138
aVAUD=X
p2139
asS'10282014'
p2140
(lp2141
VCHF=X
p2142
aVJPY=X
p2143
asS'11292016'
p2144
(lp2145
VEUR=X
p2146
aVCAD=X
p2147
aVCHF=X
p2148
aVAUD=X
p2149
aVJPY=X
p2150
aVNZD=X
p2151
asS'10282016'
p2152
(lp2153
VEUR=X
p2154
aVCAD=X
p2155
aVCHF=X
p2156
aVAUD=X
p2157
aVJPY=X
p2158
aVNZD=X
p2159
asS'02212013'
p2160
(lp2161
VEUR=X
p2162
aVCAD=X
p2163
aVCHF=X
p2164
aVAUD=X
p2165
aVJPY=X
p2166
aVNZD=X
p2167
asS'05022013'
p2168
(lp2169
VEUR=X
p2170
aVCAD=X
p2171
aVCHF=X
p2172
aVAUD=X
p2173
aVJPY=X
p2174
aVNZD=X
p2175
asS'05312016'
p2176
(lp2177
VCAD=X
p2178
aVCHF=X
p2179
aVAUD=X
p2180
aVNZD=X
p2181
asS'01232015'
p2182
(lp2183
VCHF=X
p2184
aVJPY=X
p2185
aVNZD=X
p2186
asS'01232014'
p2187
(lp2188
VCHF=X
p2189
aVJPY=X
p2190
asS'01232017'
p2191
(lp2192
VEUR=X
p2193
aVCAD=X
p2194
aVAUD=X
p2195
aVJPY=X
p2196
aVNZD=X
p2197
asS'05312013'
p2198
(lp2199
VCAD=X
p2200
aVCHF=X
p2201
aVJPY=X
p2202
aVNZD=X
p2203
asS'09092016'
p2204
(lp2205
VCAD=X
p2206
aVAUD=X
p2207
aVJPY=X
p2208
asS'12282016'
p2209
(lp2210
VEUR=X
p2211
aVCAD=X
p2212
aVAUD=X
p2213
aVJPY=X
p2214
aVNZD=X
p2215
asS'12192013'
p2216
(lp2217
VCHF=X
p2218
asS'07302014'
p2219
(lp2220
VCHF=X
p2221
asS'07302013'
p2222
(lp2223
VCAD=X
p2224
aVCHF=X
p2225
asS'07282014'
p2226
(lp2227
VCHF=X
p2228
aVJPY=X
p2229
asS'02202014'
p2230
(lp2231
VCHF=X
p2232
asS'07282016'
p2233
(lp2234
VCAD=X
p2235
aVAUD=X
p2236
aVJPY=X
p2237
asS'01022014'
p2238
(lp2239
VEUR=X
p2240
aVCHF=X
p2241
aVJPY=X
p2242
asS'02202013'
p2243
(lp2244
VEUR=X
p2245
aVCAD=X
p2246
aVCHF=X
p2247
aVAUD=X
p2248
aVJPY=X
p2249
aVNZD=X
p2250
asS'04152014'
p2251
(lp2252
VCHF=X
p2253
asS'10312013'
p2254
(lp2255
VCHF=X
p2256
asS'11162016'
p2257
(lp2258
VEUR=X
p2259
aVCAD=X
p2260
aVAUD=X
p2261
asS'11162015'
p2262
(lp2263
VCAD=X
p2264
aVCHF=X
p2265
aVAUD=X
p2266
aVJPY=X
p2267
aVNZD=X
p2268
asS'01092015'
p2269
(lp2270
VCHF=X
p2271
aVJPY=X
p2272
asS'08222014'
p2273
(lp2274
VCHF=X
p2275
aVJPY=X
p2276
asS'08122013'
p2277
(lp2278
VCAD=X
p2279
aVCHF=X
p2280
aVJPY=X
p2281
aVNZD=X
p2282
asS'08122014'
p2283
(lp2284
VCHF=X
p2285
aVJPY=X
p2286
asS'08122015'
p2287
(lp2288
VCHF=X
p2289
aVAUD=X
p2290
aVJPY=X
p2291
aVNZD=X
p2292
asS'08222013'
p2293
(lp2294
VCHF=X
p2295
aVJPY=X
p2296
asS'01082014'
p2297
(lp2298
VEUR=X
p2299
aVCHF=X
p2300
aVJPY=X
p2301
asS'01082015'
p2302
(lp2303
VCHF=X
p2304
aVJPY=X
p2305
aVNZD=X
p2306
asS'01082016'
p2307
(lp2308
VCAD=X
p2309
aVCHF=X
p2310
aVAUD=X
p2311
aVJPY=X
p2312
aVNZD=X
p2313
asS'10172013'
p2314
(lp2315
VCAD=X
p2316
aVCHF=X
p2317
asS'07082016'
p2318
(lp2319
VCAD=X
p2320
aVAUD=X
p2321
aVJPY=X
p2322
asS'09052014'
p2323
(lp2324
VCHF=X
p2325
aVJPY=X
p2326
asS'09292015'
p2327
(lp2328
VCHF=X
p2329
aVAUD=X
p2330
aVNZD=X
p2331
asS'09292014'
p2332
(lp2333
VCHF=X
p2334
aVJPY=X
p2335
asS'06142013'
p2336
(lp2337
VCAD=X
p2338
aVCHF=X
p2339
aVAUD=X
p2340
aVJPY=X
p2341
aVNZD=X
p2342
asS'09052013'
p2343
(lp2344
VCAD=X
p2345
aVCHF=X
p2346
aVAUD=X
p2347
asS'09192013'
p2348
(lp2349
VCAD=X
p2350
aVCHF=X
p2351
aVAUD=X
p2352
aVJPY=X
p2353
asS'04142016'
p2354
(lp2355
VCAD=X
p2356
aVAUD=X
p2357
aVJPY=X
p2358
aVNZD=X
p2359
asS'06162016'
p2360
(lp2361
VAUD=X
p2362
aVJPY=X
p2363
aVNZD=X
p2364
asS'04142014'
p2365
(lp2366
VCHF=X
p2367
asS'04142015'
p2368
(lp2369
VEUR=X
p2370
aVCAD=X
p2371
aVCHF=X
p2372
aVAUD=X
p2373
aVJPY=X
p2374
asS'09132013'
p2375
(lp2376
VCAD=X
p2377
aVCHF=X
p2378
aVAUD=X
p2379
asS'06172013'
p2380
(lp2381
VCAD=X
p2382
aVCHF=X
p2383
aVAUD=X
p2384
aVJPY=X
p2385
aVNZD=X
p2386
asS'10172014'
p2387
(lp2388
VCHF=X
p2389
aVJPY=X
p2390
asS'08092016'
p2391
(lp2392
VCAD=X
p2393
aVAUD=X
p2394
aVJPY=X
p2395
aVNZD=X
p2396
asS'07112014'
p2397
(lp2398
VCHF=X
p2399
aVJPY=X
p2400
asS'09212016'
p2401
(lp2402
VCAD=X
p2403
aVAUD=X
p2404
aVJPY=X
p2405
asS'09212015'
p2406
(lp2407
VCHF=X
p2408
aVAUD=X
p2409
aVNZD=X
p2410
asS'10032014'
p2411
(lp2412
VCHF=X
p2413
aVJPY=X
p2414
asS'07192016'
p2415
(lp2416
VCHF=X
p2417
aVAUD=X
p2418
aVJPY=X
p2419
asS'07112013'
p2420
(lp2421
VEUR=X
p2422
aVCAD=X
p2423
aVCHF=X
p2424
aVJPY=X
p2425
asS'08062013'
p2426
(lp2427
VCHF=X
p2428
aVAUD=X
p2429
aVJPY=X
p2430
asS'11302015'
p2431
(lp2432
VCHF=X
p2433
aVAUD=X
p2434
aVJPY=X
p2435
aVNZD=X
p2436
asS'09192014'
p2437
(lp2438
VCHF=X
p2439
aVJPY=X
p2440
asS'09302014'
p2441
(lp2442
VCHF=X
p2443
aVJPY=X
p2444
asS'06272013'
p2445
(lp2446
VCAD=X
p2447
aVCHF=X
p2448
aVAUD=X
p2449
aVJPY=X
p2450
aVNZD=X
p2451
asS'06272016'
p2452
(lp2453
VCAD=X
p2454
aVAUD=X
p2455
aVJPY=X
p2456
asS'12272013'
p2457
(lp2458
VCHF=X
p2459
aVJPY=X
p2460
asS'06272014'
p2461
(lp2462
VCHF=X
p2463
aVJPY=X
p2464
asS'08072013'
p2465
(lp2466
VCAD=X
p2467
aVCHF=X
p2468
aVAUD=X
p2469
aVJPY=X
p2470
asS'08072014'
p2471
(lp2472
VCHF=X
p2473
aVJPY=X
p2474
asS'08072015'
p2475
(lp2476
VCAD=X
p2477
aVCHF=X
p2478
aVAUD=X
p2479
aVJPY=X
p2480
aVNZD=X
p2481
asS'09172013'
p2482
(lp2483
VCAD=X
p2484
aVCHF=X
p2485
aVAUD=X
p2486
asS'05252016'
p2487
(lp2488
VCHF=X
p2489
aVAUD=X
p2490
asS'05272016'
p2491
(lp2492
VCAD=X
p2493
aVCHF=X
p2494
aVAUD=X
p2495
asS'07062016'
p2496
(lp2497
VCAD=X
p2498
aVJPY=X
p2499
asS'03252015'
p2500
(lp2501
VEUR=X
p2502
aVCAD=X
p2503
aVCHF=X
p2504
aVAUD=X
p2505
aVJPY=X
p2506
aVNZD=X
p2507
asS'03252014'
p2508
(lp2509
VCHF=X
p2510
asS'03252013'
p2511
(lp2512
VEUR=X
p2513
aVCAD=X
p2514
aVCHF=X
p2515
aVAUD=X
p2516
aVJPY=X
p2517
aVNZD=X
p2518
asS'05062016'
p2519
(lp2520
VCAD=X
p2521
aVAUD=X
p2522
aVJPY=X
p2523
asS'02062014'
p2524
(lp2525
VEUR=X
p2526
aVCHF=X
p2527
asS'05062014'
p2528
(lp2529
VCHF=X
p2530
aVJPY=X
p2531
asS'05062015'
p2532
(lp2533
VCAD=X
p2534
aVCHF=X
p2535
aVAUD=X
p2536
aVJPY=X
p2537
aVNZD=X
p2538
asS'05062013'
p2539
(lp2540
VEUR=X
p2541
aVCAD=X
p2542
aVCHF=X
p2543
aVJPY=X
p2544
aVNZD=X
p2545
asS'11212014'
p2546
(lp2547
VCHF=X
p2548
aVJPY=X
p2549
asS'01062016'
p2550
(lp2551
VCAD=X
p2552
aVCHF=X
p2553
aVAUD=X
p2554
aVJPY=X
p2555
aVNZD=X
p2556
asS'11212016'
p2557
(lp2558
VEUR=X
p2559
aVCAD=X
p2560
aVCHF=X
p2561
aVAUD=X
p2562
aVJPY=X
p2563
asS'04012016'
p2564
(lp2565
VCAD=X
p2566
aVAUD=X
p2567
aVJPY=X
p2568
aVNZD=X
p2569
asS'11212013'
p2570
(lp2571
VCHF=X
p2572
asS'12232013'
p2573
(lp2574
VJPY=X
p2575
aVNZD=X
p2576
asS'12232015'
p2577
(lp2578
VCAD=X
p2579
aVCHF=X
p2580
aVAUD=X
p2581
aVJPY=X
p2582
asS'12232014'
p2583
(lp2584
VCHF=X
p2585
aVJPY=X
p2586
asS'12232016'
p2587
(lp2588
VCAD=X
p2589
aVAUD=X
p2590
aVJPY=X
p2591
aVNZD=X
p2592
asS'01032017'
p2593
(lp2594
VCAD=X
p2595
aVAUD=X
p2596
aVJPY=X
p2597
aVNZD=X
p2598
asS'01032014'
p2599
(lp2600
VEUR=X
p2601
aVCHF=X
p2602
aVJPY=X
p2603
asS'04262016'
p2604
(lp2605
VCAD=X
p2606
aVCHF=X
p2607
aVAUD=X
p2608
aVJPY=X
p2609
aVNZD=X
p2610
asS'05172016'
p2611
(lp2612
VCAD=X
p2613
aVCHF=X
p2614
aVAUD=X
p2615
aVJPY=X
p2616
aVGBP=X
p2617
asS'04292015'
p2618
(lp2619
VCAD=X
p2620
aVCHF=X
p2621
aVAUD=X
p2622
aVJPY=X
p2623
asS'11202015'
p2624
(lp2625
VCAD=X
p2626
aVCHF=X
p2627
aVAUD=X
p2628
aVJPY=X
p2629
aVNZD=X
p2630
asS'11202014'
p2631
(lp2632
VCHF=X
p2633
aVJPY=X
p2634
asS'12092016'
p2635
(lp2636
VEUR=X
p2637
aVCAD=X
p2638
aVAUD=X
p2639
aVJPY=X
p2640
aVNZD=X
p2641
asS'07132016'
p2642
(lp2643
VAUD=X
p2644
aVJPY=X
p2645
aVNZD=X
p2646
asS'11202013'
p2647
(lp2648
VCHF=X
p2649
asS'07132015'
p2650
(lp2651
VEUR=X
p2652
aVCHF=X
p2653
aVAUD=X
p2654
aVNZD=X
p2655
asS'09252013'
p2656
(lp2657
VCAD=X
p2658
aVCHF=X
p2659
aVAUD=X
p2660
aVJPY=X
p2661
asS'04042013'
p2662
(lp2663
VEUR=X
p2664
aVCAD=X
p2665
aVCHF=X
p2666
aVAUD=X
p2667
aVJPY=X
p2668
asS'09252015'
p2669
(lp2670
VCAD=X
p2671
aVCHF=X
p2672
aVAUD=X
p2673
aVJPY=X
p2674
aVNZD=X
p2675
asS'09252014'
p2676
(lp2677
VCHF=X
p2678
aVJPY=X
p2679
asS'10272016'
p2680
(lp2681
VEUR=X
p2682
aVCAD=X
p2683
aVCHF=X
p2684
aVAUD=X
p2685
asS'11152013'
p2686
(lp2687
VCAD=X
p2688
aVCHF=X
p2689
asS'08212013'
p2690
(lp2691
VCAD=X
p2692
aVCHF=X
p2693
aVJPY=X
p2694
asS'11152016'
p2695
(lp2696
VEUR=X
p2697
aVCAD=X
p2698
aVAUD=X
p2699
asS'10262015'
p2700
(lp2701
VCHF=X
p2702
aVAUD=X
p2703
aVJPY=X
p2704
asS'08302013'
p2705
(lp2706
VCAD=X
p2707
aVCHF=X
p2708
aVAUD=X
p2709
aVJPY=X
p2710
asS'05232016'
p2711
(lp2712
VCHF=X
p2713
aVAUD=X
p2714
aVJPY=X
p2715
asS'12082014'
p2716
(lp2717
VCHF=X
p2718
aVJPY=X
p2719
asS'12082015'
p2720
(lp2721
VCHF=X
p2722
aVAUD=X
p2723
aVJPY=X
p2724
asS'12082016'
p2725
(lp2726
VEUR=X
p2727
aVCAD=X
p2728
aVAUD=X
p2729
aVJPY=X
p2730
aVNZD=X
p2731
asS'03072014'
p2732
(lp2733
VCHF=X
p2734
asS'03072016'
p2735
(lp2736
VCAD=X
p2737
aVCHF=X
p2738
aVAUD=X
p2739
aVJPY=X
p2740
aVNZD=X
p2741
asS'03122015'
p2742
(lp2743
VCAD=X
p2744
aVCHF=X
p2745
aVAUD=X
p2746
aVJPY=X
p2747
aVNZD=X
p2748
asS'06282016'
p2749
(lp2750
VCAD=X
p2751
aVAUD=X
p2752
aVJPY=X
p2753
asS'10212014'
p2754
(lp2755
VCHF=X
p2756
aVJPY=X
p2757
asS'06252014'
p2758
(lp2759
VCHF=X
p2760
aVJPY=X
p2761
asS'06252015'
p2762
(lp2763
VCHF=X
p2764
aVAUD=X
p2765
aVJPY=X
p2766
aVNZD=X
p2767
asS'04242015'
p2768
(lp2769
VEUR=X
p2770
aVCAD=X
p2771
aVCHF=X
p2772
aVAUD=X
p2773
aVJPY=X
p2774
asS'06252013'
p2775
(lp2776
VCAD=X
p2777
aVCHF=X
p2778
aVAUD=X
p2779
aVJPY=X
p2780
aVNZD=X
p2781
asS'03222016'
p2782
(lp2783
VCAD=X
p2784
aVAUD=X
p2785
aVJPY=X
p2786
aVNZD=X
p2787
asS'08052015'
p2788
(lp2789
VCHF=X
p2790
aVAUD=X
p2791
aVNZD=X
p2792
asS'09302013'
p2793
(lp2794
VJPY=X
p2795
asS'10212016'
p2796
(lp2797
VEUR=X
p2798
aVCAD=X
p2799
aVCHF=X
p2800
aVJPY=X
p2801
aVNZD=X
p2802
asS'09302015'
p2803
(lp2804
VCHF=X
p2805
aVAUD=X
p2806
aVJPY=X
p2807
aVNZD=X
p2808
asS'03222013'
p2809
(lp2810
VEUR=X
p2811
aVCAD=X
p2812
aVCHF=X
p2813
aVAUD=X
p2814
aVJPY=X
p2815
asS'09302016'
p2816
(lp2817
VCAD=X
p2818
aVJPY=X
p2819
asS'03082016'
p2820
(lp2821
VCAD=X
p2822
aVCHF=X
p2823
aVAUD=X
p2824
aVJPY=X
p2825
aVNZD=X
p2826
asS'04172013'
p2827
(lp2828
VCAD=X
p2829
aVCHF=X
p2830
aVAUD=X
p2831
aVJPY=X
p2832
aVNZD=X
p2833
asS'04172015'
p2834
(lp2835
VCAD=X
p2836
aVCHF=X
p2837
aVAUD=X
p2838
aVJPY=X
p2839
aVNZD=X
p2840
asS'04172014'
p2841
(lp2842
VCHF=X
p2843
asS'09142016'
p2844
(lp2845
VCAD=X
p2846
aVAUD=X
p2847
aVJPY=X
p2848
asS'02012016'
p2849
(lp2850
VCAD=X
p2851
aVCHF=X
p2852
aVAUD=X
p2853
aVJPY=X
p2854
aVNZD=X
p2855
asS'02012017'
p2856
(lp2857
VEUR=X
p2858
aVCAD=X
p2859
aVAUD=X
p2860
aVNZD=X
p2861
asS'03152016'
p2862
(lp2863
VCAD=X
p2864
aVAUD=X
p2865
aVJPY=X
p2866
aVNZD=X
p2867
asS'03182013'
p2868
(lp2869
VCAD=X
p2870
aVEUR=X
p2871
aVAUD=X
p2872
aVJPY=X
p2873
aVNZD=X
p2874
asS'03182015'
p2875
(lp2876
VEUR=X
p2877
aVCAD=X
p2878
aVCHF=X
p2879
aVAUD=X
p2880
aVJPY=X
p2881
aVNZD=X
p2882
asS'06172014'
p2883
(lp2884
VCHF=X
p2885
aVJPY=X
p2886
asS'03182016'
p2887
(lp2888
VCAD=X
p2889
aVAUD=X
p2890
aVJPY=X
p2891
aVNZD=X
p2892
asS'05162014'
p2893
(lp2894
VCHF=X
p2895
aVJPY=X
p2896
asS'05162016'
p2897
(lp2898
VCAD=X
p2899
aVAUD=X
p2900
aVJPY=X
p2901
aVGBP=X
p2902
aVNZD=X
p2903
asS'09172014'
p2904
(lp2905
VCHF=X
p2906
aVJPY=X
p2907
asS'09172015'
p2908
(lp2909
VCHF=X
p2910
aVAUD=X
p2911
aVJPY=X
p2912
aVNZD=X
p2913
asS'05162013'
p2914
(lp2915
VEUR=X
p2916
aVCAD=X
p2917
aVCHF=X
p2918
aVAUD=X
p2919
aVJPY=X
p2920
aVNZD=X
p2921
asS'02282014'
p2922
(lp2923
VCHF=X
p2924
asS'02282013'
p2925
(lp2926
VEUR=X
p2927
aVCAD=X
p2928
aVCHF=X
p2929
aVAUD=X
p2930
aVJPY=X
p2931
aVNZD=X
p2932
asS'03152013'
p2933
(lp2934
VEUR=X
p2935
aVCAD=X
p2936
aVAUD=X
p2937
aVJPY=X
p2938
aVNZD=X
p2939
asS'11222016'
p2940
(lp2941
VEUR=X
p2942
aVCAD=X
p2943
aVCHF=X
p2944
aVAUD=X
p2945
asS'10132015'
p2946
(lp2947
VCHF=X
p2948
aVAUD=X
p2949
aVJPY=X
p2950
aVNZD=X
p2951
asS'05192016'
p2952
(lp2953
VCHF=X
p2954
aVAUD=X
p2955
aVJPY=X
p2956
aVGBP=X
p2957
asS'05192014'
p2958
(lp2959
VCHF=X
p2960
aVJPY=X
p2961
asS'05192015'
p2962
(lp2963
VEUR=X
p2964
aVCHF=X
p2965
aVAUD=X
p2966
aVJPY=X
p2967
asS'12242014'
p2968
(lp2969
VCHF=X
p2970
aVJPY=X
p2971
asS'10252016'
p2972
(lp2973
VEUR=X
p2974
aVCHF=X
p2975
aVAUD=X
p2976
aVJPY=X
p2977
aVNZD=X
p2978
asS'10252013'
p2979
(lp2980
VCAD=X
p2981
aVCHF=X
p2982
aVAUD=X
p2983
asS'10192015'
p2984
(lp2985
VCAD=X
p2986
aVCHF=X
p2987
aVAUD=X
p2988
aVJPY=X
p2989
aVNZD=X
p2990
asS'03102015'
p2991
(lp2992
VCAD=X
p2993
aVCHF=X
p2994
aVAUD=X
p2995
aVJPY=X
p2996
aVNZD=X
p2997
asS'07072014'
p2998
(lp2999
VCHF=X
p3000
aVJPY=X
p3001
asS'03102016'
p3002
(lp3003
VCAD=X
p3004
aVCHF=X
p3005
aVAUD=X
p3006
aVJPY=X
p3007
aVNZD=X
p3008
asS'08252016'
p3009
(lp3010
VCAD=X
p3011
aVAUD=X
p3012
aVJPY=X
p3013
asS'11062014'
p3014
(lp3015
VCHF=X
p3016
aVJPY=X
p3017
asS'09262014'
p3018
(lp3019
VCHF=X
p3020
aVJPY=X
p3021
asS'06212013'
p3022
(lp3023
VCAD=X
p3024
aVCHF=X
p3025
aVAUD=X
p3026
aVJPY=X
p3027
aVNZD=X
p3028
asS'11062013'
p3029
(lp3030
VCHF=X
p3031
asS'01252017'
p3032
(lp3033
VCAD=X
p3034
aVAUD=X
p3035
aVJPY=X
p3036
aVNZD=X
p3037
asS'11022016'
p3038
(lp3039
VEUR=X
p3040
aVCAD=X
p3041
aVAUD=X
p3042
aVJPY=X
p3043
aVNZD=X
p3044
asS'10022015'
p3045
(lp3046
VCHF=X
p3047
aVAUD=X
p3048
aVJPY=X
p3049
aVNZD=X
p3050
asS'02122016'
p3051
(lp3052
VCAD=X
p3053
aVCHF=X
p3054
aVAUD=X
p3055
aVJPY=X
p3056
aVNZD=X
p3057
asS'02122014'
p3058
(lp3059
VCHF=X
p3060
asS'02122015'
p3061
(lp3062
VCAD=X
p3063
aVCHF=X
p3064
aVJPY=X
p3065
asS'09242013'
p3066
(lp3067
VCAD=X
p3068
aVCHF=X
p3069
aVAUD=X
p3070
aVJPY=X
p3071
asS'12032015'
p3072
(lp3073
VAUD=X
p3074
asS'12032014'
p3075
(lp3076
VCHF=X
p3077
aVJPY=X
p3078
aVNZD=X
p3079
asS'12032013'
p3080
(lp3081
VCHF=X
p3082
asS'09242014'
p3083
(lp3084
VCHF=X
p3085
aVJPY=X
p3086
asS'09242015'
p3087
(lp3088
VCHF=X
p3089
aVAUD=X
p3090
aVJPY=X
p3091
aVNZD=X
p3092
asS'07142015'
p3093
(lp3094
VEUR=X
p3095
aVCHF=X
p3096
aVAUD=X
p3097
aVJPY=X
p3098
aVNZD=X
p3099
asS'02242015'
p3100
(lp3101
VCHF=X
p3102
aVAUD=X
p3103
aVJPY=X
p3104
asS'06092016'
p3105
(lp3106
VAUD=X
p3107
aVJPY=X
p3108
aVNZD=X
p3109
asS'07302015'
p3110
(lp3111
VCHF=X
p3112
aVAUD=X
p3113
aVJPY=X
p3114
aVNZD=X
p3115
asS'06092014'
p3116
(lp3117
VCHF=X
p3118
asS'06092015'
p3119
(lp3120
VCAD=X
p3121
aVCHF=X
p3122
aVAUD=X
p3123
aVJPY=X
p3124
aVNZD=X
p3125
asS'12282015'
p3126
(lp3127
VCAD=X
p3128
aVCHF=X
p3129
aVAUD=X
p3130
aVJPY=X
p3131
asS'03182014'
p3132
(lp3133
VCHF=X
p3134
aVJPY=X
p3135
asS'04112013'
p3136
(lp3137
VCAD=X
p3138
aVCHF=X
p3139
aVAUD=X
p3140
aVJPY=X
p3141
asS'10122016'
p3142
(lp3143
VCAD=X
p3144
aVAUD=X
p3145
asS'04112016'
p3146
(lp3147
VCAD=X
p3148
aVCHF=X
p3149
aVAUD=X
p3150
aVJPY=X
p3151
aVNZD=X
p3152
asS'08282015'
p3153
(lp3154
VCAD=X
p3155
aVCHF=X
p3156
aVAUD=X
p3157
aVJPY=X
p3158
aVNZD=X
p3159
asS'04112014'
p3160
(lp3161
VCHF=X
p3162
asS'07182014'
p3163
(lp3164
VCHF=X
p3165
asS'09112014'
p3166
(lp3167
VCHF=X
p3168
aVJPY=X
p3169
asS'07182013'
p3170
(lp3171
VCAD=X
p3172
aVCHF=X
p3173
aVJPY=X
p3174
aVNZD=X
p3175
asS'10282015'
p3176
(lp3177
VCAD=X
p3178
aVCHF=X
p3179
aVAUD=X
p3180
aVJPY=X
p3181
asS'07072015'
p3182
(lp3183
VEUR=X
p3184
aVCHF=X
p3185
aVAUD=X
p3186
aVJPY=X
p3187
aVNZD=X
p3188
asS'06072013'
p3189
(lp3190
VCAD=X
p3191
aVCHF=X
p3192
aVAUD=X
p3193
aVJPY=X
p3194
aVNZD=X
p3195
asS'03102014'
p3196
(lp3197
VCHF=X
p3198
asS'02202015'
p3199
(lp3200
VCAD=X
p3201
aVCHF=X
p3202
aVJPY=X
p3203
asS'12172013'
p3204
(lp3205
VCHF=X
p3206
aVJPY=X
p3207
asS'01302015'
p3208
(lp3209
VCHF=X
p3210
aVJPY=X
p3211
asS'01302014'
p3212
(lp3213
VCHF=X
p3214
aVJPY=X
p3215
asS'01302017'
p3216
(lp3217
VCAD=X
p3218
aVAUD=X
p3219
aVJPY=X
p3220
aVNZD=X
p3221
asS'07282015'
p3222
(lp3223
VEUR=X
p3224
aVCHF=X
p3225
aVAUD=X
p3226
aVJPY=X
p3227
aVNZD=X
p3228
asS'02192015'
p3229
(lp3230
VCAD=X
p3231
aVCHF=X
p3232
aVAUD=X
p3233
aVJPY=X
p3234
asS'02192014'
p3235
(lp3236
VCHF=X
p3237
asS'02262015'
p3238
(lp3239
VCAD=X
p3240
aVCHF=X
p3241
aVAUD=X
p3242
aVJPY=X
p3243
asS'02192016'
p3244
(lp3245
VCAD=X
p3246
aVCHF=X
p3247
aVAUD=X
p3248
aVJPY=X
p3249
aVNZD=X
p3250
asS'02262013'
p3251
(lp3252
VEUR=X
p3253
aVCAD=X
p3254
aVCHF=X
p3255
aVAUD=X
p3256
aVJPY=X
p3257
asS'10072013'
p3258
(lp3259
VCHF=X
p3260
aVAUD=X
p3261
asS'11062015'
p3262
(lp3263
VCAD=X
p3264
aVCHF=X
p3265
aVAUD=X
p3266
aVJPY=X
p3267
asS'08312015'
p3268
(lp3269
VCAD=X
p3270
aVCHF=X
p3271
aVAUD=X
p3272
aVJPY=X
p3273
aVNZD=X
p3274
asS'08312016'
p3275
(lp3276
VCAD=X
p3277
aVAUD=X
p3278
aVJPY=X
p3279
asS'05282015'
p3280
(lp3281
VEUR=X
p3282
aVCHF=X
p3283
aVAUD=X
p3284
aVJPY=X
p3285
asS'10222014'
p3286
(lp3287
VCHF=X
p3288
aVJPY=X
p3289
asS'10222015'
p3290
(lp3291
VCHF=X
p3292
aVAUD=X
p3293
aVJPY=X
p3294
asS'08252014'
p3295
(lp3296
VCHF=X
p3297
aVJPY=X
p3298
asS'04182016'
p3299
(lp3300
VCAD=X
p3301
aVCHF=X
p3302
aVAUD=X
p3303
aVJPY=X
p3304
aVGBP=X
p3305
aVNZD=X
p3306
asS'03212013'
p3307
(lp3308
VEUR=X
p3309
aVCAD=X
p3310
aVCHF=X
p3311
aVAUD=X
p3312
aVJPY=X
p3313
aVNZD=X
p3314
asS'08252015'
p3315
(lp3316
VCAD=X
p3317
aVCHF=X
p3318
aVAUD=X
p3319
aVJPY=X
p3320
aVNZD=X
p3321
asS'03212014'
p3322
(lp3323
VCHF=X
p3324
aVJPY=X
p3325
asS'03212016'
p3326
(lp3327
VCAD=X
p3328
aVCHF=X
p3329
aVAUD=X
p3330
aVJPY=X
p3331
aVNZD=X
p3332
asS'11012016'
p3333
(lp3334
VEUR=X
p3335
aVCAD=X
p3336
aVCHF=X
p3337
aVAUD=X
p3338
aVJPY=X
p3339
aVNZD=X
p3340
asS'07142016'
p3341
(lp3342
VAUD=X
p3343
aVJPY=X
p3344
asS'11012013'
p3345
(lp3346
VCHF=X
p3347
asS'09232016'
p3348
(lp3349
VCAD=X
p3350
aVCHF=X
p3351
aVAUD=X
p3352
aVJPY=X
p3353
asS'07012016'
p3354
(lp3355
VAUD=X
p3356
aVJPY=X
p3357
aVNZD=X
p3358
asS'06192013'
p3359
(lp3360
VCAD=X
p3361
aVCHF=X
p3362
aVAUD=X
p3363
aVJPY=X
p3364
aVNZD=X
p3365
asS'06192015'
p3366
(lp3367
VCHF=X
p3368
aVAUD=X
p3369
aVJPY=X
p3370
aVNZD=X
p3371
asS'06192014'
p3372
(lp3373
VCHF=X
p3374
aVJPY=X
p3375
asS'02022017'
p3376
(lp3377
VCAD=X
p3378
aVAUD=X
p3379
aVJPY=X
p3380
aVNZD=X
p3381
asS'10182016'
p3382
(lp3383
VCAD=X
p3384
aVCHF=X
p3385
aVAUD=X
p3386
asS'08172015'
p3387
(lp3388
VCAD=X
p3389
aVCHF=X
p3390
aVAUD=X
p3391
aVJPY=X
p3392
aVNZD=X
p3393
asS'04082014'
p3394
(lp3395
VCHF=X
p3396
asS'04082016'
p3397
(lp3398
VCAD=X
p3399
aVCHF=X
p3400
aVAUD=X
p3401
aVJPY=X
p3402
aVNZD=X
p3403
asS'08012014'
p3404
(lp3405
VCHF=X
p3406
aVJPY=X
p3407
asS'04082013'
p3408
(lp3409
VEUR=X
p3410
aVCAD=X
p3411
aVCHF=X
p3412
aVAUD=X
p3413
aVJPY=X
p3414
asS'01122015'
p3415
(lp3416
VCHF=X
p3417
aVJPY=X
p3418
asS'11282014'
p3419
(lp3420
VCHF=X
p3421
aVJPY=X
p3422
asS'01122017'
p3423
(lp3424
VCAD=X
p3425
aVAUD=X
p3426
aVJPY=X
p3427
aVNZD=X
p3428
asS'11282016'
p3429
(lp3430
VEUR=X
p3431
aVCAD=X
p3432
aVCHF=X
p3433
aVAUD=X
p3434
aVJPY=X
p3435
aVNZD=X
p3436
asS'01172014'
p3437
(lp3438
VCHF=X
p3439
aVJPY=X
p3440
asS'07032013'
p3441
(lp3442
VEUR=X
p3443
aVCAD=X
p3444
aVCHF=X
p3445
aVAUD=X
p3446
aVNZD=X
p3447
asS'01172017'
p3448
(lp3449
VCAD=X
p3450
aVAUD=X
p3451
aVJPY=X
p3452
aVNZD=X
p3453
asS'03302015'
p3454
(lp3455
VEUR=X
p3456
aVCAD=X
p3457
aVCHF=X
p3458
aVAUD=X
p3459
aVJPY=X
p3460
aVNZD=X
p3461
asS'02102014'
p3462
(lp3463
VEUR=X
p3464
aVCHF=X
p3465
asS'02102015'
p3466
(lp3467
VCAD=X
p3468
aVCHF=X
p3469
aVJPY=X
p3470
asS'04282015'
p3471
(lp3472
VCAD=X
p3473
aVCHF=X
p3474
aVAUD=X
p3475
aVJPY=X
p3476
asS'04282014'
p3477
(lp3478
VCHF=X
p3479
asS'06072016'
p3480
(lp3481
VCAD=X
p3482
aVAUD=X
p3483
aVJPY=X
p3484
asS'04072016'
p3485
(lp3486
VCAD=X
p3487
aVAUD=X
p3488
aVJPY=X
p3489
aVGBP=X
p3490
aVNZD=X
p3491
asS'04302015'
p3492
(lp3493
VCAD=X
p3494
aVCHF=X
p3495
aVAUD=X
p3496
aVJPY=X
p3497
asS'08182014'
p3498
(lp3499
VCHF=X
p3500
aVJPY=X
p3501
asS'04072015'
p3502
(lp3503
VCAD=X
p3504
aVEUR=X
p3505
aVCHF=X
p3506
aVAUD=X
p3507
aVJPY=X
p3508
asS'05052015'
p3509
(lp3510
VCHF=X
p3511
aVAUD=X
p3512
aVNZD=X
p3513
asS'05052014'
p3514
(lp3515
VEUR=X
p3516
aVCHF=X
p3517
asS'05052016'
p3518
(lp3519
VCAD=X
p3520
aVAUD=X
p3521
aVJPY=X
p3522
aVNZD=X
p3523
asS'03092016'
p3524
(lp3525
VCAD=X
p3526
aVCHF=X
p3527
aVAUD=X
p3528
aVJPY=X
p3529
aVNZD=X
p3530
asS'03092015'
p3531
(lp3532
VCAD=X
p3533
aVCHF=X
p3534
aVAUD=X
p3535
aVJPY=X
p3536
asS'04222016'
p3537
(lp3538
VCAD=X
p3539
aVCHF=X
p3540
aVAUD=X
p3541
aVJPY=X
p3542
aVNZD=X
p3543
asS'04202016'
p3544
(lp3545
VCAD=X
p3546
aVCHF=X
p3547
aVAUD=X
p3548
aVJPY=X
p3549
aVGBP=X
p3550
aVNZD=X
p3551
asS'04202015'
p3552
(lp3553
VCAD=X
p3554
aVCHF=X
p3555
aVAUD=X
p3556
aVJPY=X
p3557
asS'06112015'
p3558
(lp3559
VCHF=X
p3560
aVAUD=X
p3561
aVJPY=X
p3562
aVNZD=X
p3563
asS'10102014'
p3564
(lp3565
VCHF=X
p3566
aVJPY=X
p3567
asS'10102016'
p3568
(lp3569
VEUR=X
p3570
aVCAD=X
p3571
aVAUD=X
p3572
asS'03012016'
p3573
(lp3574
VCAD=X
p3575
aVCHF=X
p3576
aVJPY=X
p3577
aVNZD=X
p3578
asS'03012013'
p3579
(lp3580
VEUR=X
p3581
aVCAD=X
p3582
aVCHF=X
p3583
aVAUD=X
p3584
aVJPY=X
p3585
aVNZD=X
p3586
asS'07032014'
p3587
(lp3588
VCHF=X
p3589
aVJPY=X
p3590
asS'11122013'
p3591
(lp3592
VCAD=X
p3593
aVCHF=X
p3594
asS'09262013'
p3595
(lp3596
VCHF=X
p3597
aVJPY=X
p3598
asS'01072016'
p3599
(lp3600
VCAD=X
p3601
aVCHF=X
p3602
aVAUD=X
p3603
aVJPY=X
p3604
aVNZD=X
p3605
asS'11122014'
p3606
(lp3607
VCHF=X
p3608
aVJPY=X
p3609
asS'11122015'
p3610
(lp3611
VCAD=X
p3612
aVAUD=X
p3613
aVJPY=X
p3614
aVNZD=X
p3615
asS'01102017'
p3616
(lp3617
VCAD=X
p3618
aVAUD=X
p3619
aVJPY=X
p3620
aVNZD=X
p3621
asS'01102014'
p3622
(lp3623
VEUR=X
p3624
aVCHF=X
p3625
asS'04032013'
p3626
(lp3627
VEUR=X
p3628
aVCAD=X
p3629
aVCHF=X
p3630
aVAUD=X
p3631
aVJPY=X
p3632
aVNZD=X
p3633
asS'03262013'
p3634
(lp3635
VEUR=X
p3636
aVCAD=X
p3637
aVCHF=X
p3638
aVAUD=X
p3639
aVJPY=X
p3640
aVNZD=X
p3641
asS'01312017'
p3642
(lp3643
VCAD=X
p3644
aVAUD=X
p3645
aVNZD=X
p3646
asS'01212015'
p3647
(lp3648
VCHF=X
p3649
aVJPY=X
p3650
asS'08262014'
p3651
(lp3652
VCHF=X
p3653
aVJPY=X
p3654
asS'07212015'
p3655
(lp3656
VCAD=X
p3657
aVCHF=X
p3658
aVAUD=X
p3659
aVJPY=X
p3660
aVNZD=X
p3661
asS'07212014'
p3662
(lp3663
VCHF=X
p3664
aVJPY=X
p3665
asS'07212016'
p3666
(lp3667
VCAD=X
p3668
aVCHF=X
p3669
aVAUD=X
p3670
aVJPY=X
p3671
asS'03272013'
p3672
(lp3673
VEUR=X
p3674
aVCAD=X
p3675
aVCHF=X
p3676
aVAUD=X
p3677
aVJPY=X
p3678
asS'02032014'
p3679
(lp3680
VCHF=X
p3681
aVJPY=X
p3682
asS'03272015'
p3683
(lp3684
VEUR=X
p3685
aVCAD=X
p3686
aVCHF=X
p3687
aVAUD=X
p3688
aVJPY=X
p3689
asS'03272014'
p3690
(lp3691
VEUR=X
p3692
aVCHF=X
p3693
asS'06022015'
p3694
(lp3695
VCHF=X
p3696
aVAUD=X
p3697
aVJPY=X
p3698
asS'04102013'
p3699
(lp3700
VCAD=X
p3701
aVCHF=X
p3702
aVAUD=X
p3703
aVJPY=X
p3704
asS'01142015'
p3705
(lp3706
VCHF=X
p3707
aVJPY=X
p3708
asS'06022016'
p3709
(lp3710
VCAD=X
p3711
aVCHF=X
p3712
aVAUD=X
p3713
asS'02142014'
p3714
(lp3715
VEUR=X
p3716
aVCHF=X
p3717
aVJPY=X
p3718
asS'10192016'
p3719
(lp3720
VEUR=X
p3721
aVCAD=X
p3722
aVCHF=X
p3723
aVAUD=X
p3724
aVJPY=X
p3725
asS'08292014'
p3726
(lp3727
VCHF=X
p3728
aVJPY=X
p3729
asS'01262015'
p3730
(lp3731
VCHF=X
p3732
aVJPY=X
p3733
aVNZD=X
p3734
asS'01152016'
p3735
(lp3736
VCAD=X
p3737
aVCHF=X
p3738
aVAUD=X
p3739
aVJPY=X
p3740
asS'01152014'
p3741
(lp3742
VEUR=X
p3743
aVCHF=X
p3744
aVJPY=X
p3745
aVGBP=X
p3746
asS'01152015'
p3747
(lp3748
VCHF=X
p3749
aVJPY=X
p3750
aVNZD=X
p3751
asS'12012015'
p3752
(lp3753
VCHF=X
p3754
aVAUD=X
p3755
aVJPY=X
p3756
asS'12012014'
p3757
(lp3758
VCHF=X
p3759
aVJPY=X
p3760
asS'12012016'
p3761
(lp3762
VEUR=X
p3763
aVCAD=X
p3764
aVCHF=X
p3765
aVAUD=X
p3766
aVJPY=X
p3767
aVNZD=X
p3768
asS'07082013'
p3769
(lp3770
VEUR=X
p3771
aVCAD=X
p3772
aVCHF=X
p3773
aVJPY=X
p3774
asS'12302013'
p3775
(lp3776
VEUR=X
p3777
aVCHF=X
p3778
aVJPY=X
p3779
asS'12302015'
p3780
(lp3781
VCAD=X
p3782
aVCHF=X
p3783
aVAUD=X
p3784
aVJPY=X
p3785
aVNZD=X
p3786
asS'12302014'
p3787
(lp3788
VCHF=X
p3789
aVJPY=X
p3790
aVNZD=X
p3791
asS'07082014'
p3792
(lp3793
VCHF=X
p3794
asS'12302016'
p3795
(lp3796
VEUR=X
p3797
aVCAD=X
p3798
aVAUD=X
p3799
aVJPY=X
p3800
aVNZD=X
p3801
asS'11192015'
p3802
(lp3803
VCAD=X
p3804
aVCHF=X
p3805
aVAUD=X
p3806
aVJPY=X
p3807
aVNZD=X
p3808
asS'11192014'
p3809
(lp3810
VCHF=X
p3811
aVJPY=X
p3812
asS'11262014'
p3813
(lp3814
VCHF=X
p3815
aVJPY=X
p3816
asS'11262013'
p3817
(lp3818
VCAD=X
p3819
aVCHF=X
p3820
asS'11192013'
p3821
(lp3822
VCAD=X
p3823
aVCHF=X
p3824
asS'04102014'
p3825
(lp3826
VEUR=X
p3827
aVCHF=X
p3828
asS'08222016'
p3829
(lp3830
VCAD=X
p3831
aVAUD=X
p3832
aVJPY=X
p3833
aVNZD=X
p3834
asS'08192016'
p3835
(lp3836
VCAD=X
p3837
aVAUD=X
p3838
aVJPY=X
p3839
aVNZD=X
p3840
asS'08152016'
p3841
(lp3842
VCAD=X
p3843
aVAUD=X
p3844
aVJPY=X
p3845
aVNZD=X
p3846
asS'08192015'
p3847
(lp3848
VCAD=X
p3849
aVCHF=X
p3850
aVAUD=X
p3851
aVJPY=X
p3852
aVNZD=X
p3853
asS'04242013'
p3854
(lp3855
VCAD=X
p3856
aVAUD=X
p3857
aVJPY=X
p3858
aVNZD=X
p3859
asS'05232014'
p3860
(lp3861
VCHF=X
p3862
asS'10212013'
p3863
(lp3864
VCAD=X
p3865
aVCHF=X
p3866
asS'11272015'
p3867
(lp3868
VCHF=X
p3869
aVAUD=X
p3870
aVJPY=X
p3871
aVNZD=X
p3872
asS'10212015'
p3873
(lp3874
VCHF=X
p3875
aVAUD=X
p3876
aVJPY=X
p3877
asS'08122016'
p3878
(lp3879
VCAD=X
p3880
aVAUD=X
p3881
aVJPY=X
p3882
aVNZD=X
p3883
asS'05232013'
p3884
(lp3885
VEUR=X
p3886
aVCHF=X
p3887
aVAUD=X
p3888
aVJPY=X
p3889
aVNZD=X
p3890
asS'04242014'
p3891
(lp3892
sS'02132014'
p3893
(lp3894
VCHF=X
p3895
asS'04222015'
p3896
(lp3897
VCAD=X
p3898
aVCHF=X
p3899
aVAUD=X
p3900
aVJPY=X
p3901
asS'10302013'
p3902
(lp3903
VCHF=X
p3904
asS'11022015'
p3905
(lp3906
VCAD=X
p3907
aVCHF=X
p3908
aVAUD=X
p3909
aVJPY=X
p3910
aVNZD=X
p3911
asS'10302015'
p3912
(lp3913
VCAD=X
p3914
aVCHF=X
p3915
aVAUD=X
p3916
aVJPY=X
p3917
aVNZD=X
p3918
asS'10302014'
p3919
(lp3920
VCHF=X
p3921
aVJPY=X
p3922
asS'07292015'
p3923
(lp3924
VCHF=X
p3925
aVAUD=X
p3926
aVJPY=X
p3927
aVNZD=X
p3928
asS'07292014'
p3929
(lp3930
VCHF=X
p3931
asS'07292016'
p3932
(lp3933
VCAD=X
p3934
aVAUD=X
p3935
aVJPY=X
p3936
asS'04062016'
p3937
(lp3938
VCAD=X
p3939
aVAUD=X
p3940
aVJPY=X
p3941
aVGBP=X
p3942
aVNZD=X
p3943
asS'02242014'
p3944
(lp3945
VCHF=X
p3946
asS'07292013'
p3947
(lp3948
VCAD=X
p3949
aVCHF=X
p3950
aVNZD=X
p3951
asS'02242016'
p3952
(lp3953
VCAD=X
p3954
aVCHF=X
p3955
aVAUD=X
p3956
aVJPY=X
p3957
aVNZD=X
p3958
asS'05082014'
p3959
(lp3960
VCHF=X
p3961
asS'12122014'
p3962
(lp3963
VCHF=X
p3964
aVJPY=X
p3965
aVNZD=X
p3966
asS'12122016'
p3967
(lp3968
VEUR=X
p3969
aVCAD=X
p3970
aVAUD=X
p3971
aVJPY=X
p3972
aVNZD=X
p3973
asS'12172014'
p3974
(lp3975
VCHF=X
p3976
aVJPY=X
p3977
aVNZD=X
p3978
asS'12172015'
p3979
(lp3980
VCHF=X
p3981
aVAUD=X
p3982
aVJPY=X
p3983
asS'12122013'
p3984
(lp3985
VEUR=X
p3986
aVCHF=X
p3987
aVJPY=X
p3988
asS'05082013'
p3989
(lp3990
VEUR=X
p3991
aVCAD=X
p3992
aVCHF=X
p3993
aVAUD=X
p3994
aVJPY=X
p3995
aVNZD=X
p3996
asS'03142014'
p3997
(lp3998
VCHF=X
p3999
asS'03142016'
p4000
(lp4001
VCAD=X
p4002
aVCHF=X
p4003
aVAUD=X
p4004
aVJPY=X
p4005
asS'08232016'
p4006
(lp4007
VCAD=X
p4008
aVAUD=X
p4009
aVJPY=X
p4010
asS'03142013'
p4011
(lp4012
VEUR=X
p4013
aVCAD=X
p4014
aVAUD=X
p4015
aVJPY=X
p4016
aVNZD=X
p4017
asS'11102014'
p4018
(lp4019
VCHF=X
p4020
aVJPY=X
p4021
asS'11102015'
p4022
(lp4023
VCAD=X
p4024
aVCHF=X
p4025
aVAUD=X
p4026
aVJPY=X
p4027
aVNZD=X
p4028
asS'11102016'
p4029
(lp4030
VEUR=X
p4031
aVCAD=X
p4032
aVAUD=X
p4033
aVJPY=X
p4034
asS'07262016'
p4035
(lp4036
VCAD=X
p4037
aVAUD=X
p4038
aVJPY=X
p4039
asS'08262013'
p4040
(lp4041
VCAD=X
p4042
aVCHF=X
p4043
aVAUD=X
p4044
asS'08262015'
p4045
(lp4046
VCAD=X
p4047
aVCHF=X
p4048
aVAUD=X
p4049
aVJPY=X
p4050
aVNZD=X
p4051
asS'07262013'
p4052
(lp4053
VCAD=X
p4054
aVCHF=X
p4055
aVJPY=X
p4056
aVNZD=X
p4057
asS'08262016'
p4058
(lp4059
VCAD=X
p4060
aVAUD=X
p4061
aVJPY=X
p4062
asS'09132016'
p4063
(lp4064
VCAD=X
p4065
aVCHF=X
p4066
asS'02172016'
p4067
(lp4068
VCAD=X
p4069
aVCHF=X
p4070
aVAUD=X
p4071
aVJPY=X
p4072
aVNZD=X
p4073
asS'02172015'
p4074
(lp4075
VCAD=X
p4076
aVEUR=X
p4077
aVCHF=X
p4078
aVJPY=X
p4079
asS'10092014'
p4080
(lp4081
VCHF=X
p4082
aVJPY=X
p4083
asS'10092013'
p4084
(lp4085
VCHF=X
p4086
asS'04042014'
p4087
(lp4088
VEUR=X
p4089
aVCHF=X
p4090
asS'04042016'
p4091
(lp4092
VCAD=X
p4093
aVAUD=X
p4094
aVJPY=X
p4095
aVNZD=X
p4096
asS'06052014'
p4097
(lp4098
VCHF=X
p4099
asS'06052015'
p4100
(lp4101
VCHF=X
p4102
aVAUD=X
p4103
aVJPY=X
p4104
asS'09082014'
p4105
(lp4106
VCHF=X
p4107
aVJPY=X
p4108
asS'06052013'
p4109
(lp4110
VCAD=X
p4111
aVCHF=X
p4112
aVAUD=X
p4113
aVJPY=X
p4114
aVNZD=X
p4115
asS'09082016'
p4116
(lp4117
VCAD=X
p4118
aVAUD=X
p4119
aVJPY=X
p4120
asS'09112013'
p4121
(lp4122
VCAD=X
p4123
aVCHF=X
p4124
aVAUD=X
p4125
asS'09122014'
p4126
(lp4127
VCHF=X
p4128
aVJPY=X
p4129
asS'10012015'
p4130
(lp4131
VCHF=X
p4132
aVAUD=X
p4133
aVJPY=X
p4134
aVNZD=X
p4135
asS'10012014'
p4136
(lp4137
VCHF=X
p4138
aVJPY=X
p4139
asS'04282016'
p4140
(lp4141
VCAD=X
p4142
aVCHF=X
p4143
aVAUD=X
p4144
aVJPY=X
p4145
asS'09222015'
p4146
(lp4147
VNZD=X
p4148
asS'09122013'
p4149
(lp4150
VCAD=X
p4151
aVCHF=X
p4152
aVAUD=X
p4153
aVJPY=X
p4154
asS'10112016'
p4155
(lp4156
VCAD=X
p4157
aVAUD=X
p4158
asS'12072016'
p4159
(lp4160
VEUR=X
p4161
aVCAD=X
p4162
aVCHF=X
p4163
aVAUD=X
p4164
aVJPY=X
p4165
aVNZD=X
p4166
asS'12072015'
p4167
(lp4168
VCHF=X
p4169
aVAUD=X
p4170
asS'12102013'
p4171
(lp4172
VCHF=X
p4173
aVJPY=X
p4174
aVNZD=X
p4175
asS'06292015'
p4176
(lp4177
VEUR=X
p4178
aVCHF=X
p4179
aVAUD=X
p4180
aVJPY=X
p4181
aVNZD=X
p4182
asS'12102015'
p4183
(lp4184
VAUD=X
p4185
aVJPY=X
p4186
asS'12102014'
p4187
(lp4188
VCHF=X
p4189
aVJPY=X
p4190
aVNZD=X
p4191
asS'09122016'
p4192
(lp4193
VCAD=X
p4194
aVAUD=X
p4195
aVJPY=X
p4196
asS'01292015'
p4197
(lp4198
VCHF=X
p4199
aVJPY=X
p4200
aVNZD=X
p4201
asS'09292016'
p4202
(lp4203
VCAD=X
p4204
aVJPY=X
p4205
asS'05242016'
p4206
(lp4207
VCHF=X
p4208
aVAUD=X
p4209
aVJPY=X
p4210
asS'10012013'
p4211
(lp4212
VCHF=X
p4213
aVAUD=X
p4214
asS'05242013'
p4215
(lp4216
VEUR=X
p4217
aVCAD=X
p4218
aVCHF=X
p4219
aVAUD=X
p4220
aVJPY=X
p4221
aVNZD=X
p4222
asS'07072016'
p4223
(lp4224
VCAD=X
p4225
aVJPY=X
p4226
asS'09162016'
p4227
(lp4228
VCAD=X
p4229
aVAUD=X
p4230
asS'08282013'
p4231
(lp4232
VCAD=X
p4233
aVCHF=X
p4234
aVAUD=X
p4235
asS'09182013'
p4236
(lp4237
VCAD=X
p4238
aVCHF=X
p4239
aVAUD=X
p4240
aVJPY=X
p4241
asS'07082015'
p4242
(lp4243
VEUR=X
p4244
aVCHF=X
p4245
aVAUD=X
p4246
aVJPY=X
p4247
aVNZD=X
p4248
asS'10062015'
p4249
(lp4250
VCHF=X
p4251
aVAUD=X
p4252
aVJPY=X
p4253
aVNZD=X
p4254
asS'06182015'
p4255
(lp4256
VCHF=X
p4257
aVAUD=X
p4258
aVJPY=X
p4259
aVNZD=X
p4260
asS'05072015'
p4261
(lp4262
VCAD=X
p4263
aVCHF=X
p4264
aVAUD=X
p4265
aVJPY=X
p4266
asS'05072014'
p4267
(lp4268
VCHF=X
p4269
asS'05072013'
p4270
(lp4271
VEUR=X
p4272
aVCAD=X
p4273
aVCHF=X
p4274
aVAUD=X
p4275
aVJPY=X
p4276
aVNZD=X
p4277
asS'02182016'
p4278
(lp4279
VCAD=X
p4280
aVCHF=X
p4281
aVAUD=X
p4282
aVJPY=X
p4283
aVNZD=X
p4284
asS'10062014'
p4285
(lp4286
VCHF=X
p4287
aVJPY=X
p4288
asS'10272014'
p4289
(lp4290
VCHF=X
p4291
aVJPY=X
p4292
asS'08102016'
p4293
(lp4294
VCAD=X
p4295
aVCHF=X
p4296
aVAUD=X
p4297
aVJPY=X
p4298
aVNZD=X
p4299
asS'09222014'
p4300
(lp4301
VCHF=X
p4302
aVJPY=X
p4303
asS'12142015'
p4304
(lp4305
VAUD=X
p4306
aVJPY=X
p4307
asS'11142013'
p4308
(lp4309
VCAD=X
p4310
aVCHF=X
p4311
asS'11142014'
p4312
(lp4313
VCHF=X
p4314
aVJPY=X
p4315
asS'06162014'
p4316
(lp4317
VCHF=X
p4318
asS'11142016'
p4319
(lp4320
VEUR=X
p4321
aVCAD=X
p4322
aVAUD=X
p4323
asS'03262015'
p4324
(lp4325
VEUR=X
p4326
aVCAD=X
p4327
aVCHF=X
p4328
aVAUD=X
p4329
aVJPY=X
p4330
asS'06262013'
p4331
(lp4332
VCAD=X
p4333
aVCHF=X
p4334
aVAUD=X
p4335
aVJPY=X
p4336
aVNZD=X
p4337
asS'11232016'
p4338
(lp4339
VEUR=X
p4340
aVCAD=X
p4341
aVCHF=X
p4342
aVAUD=X
p4343
asS'12152014'
p4344
(lp4345
VCHF=X
p4346
aVJPY=X
p4347
asS'12152015'
p4348
(lp4349
VAUD=X
p4350
aVJPY=X
p4351
asS'06262015'
p4352
(lp4353
VCHF=X
p4354
aVAUD=X
p4355
aVJPY=X
p4356
aVNZD=X
p4357
asS'06262014'
p4358
(lp4359
VCHF=X
p4360
aVJPY=X
p4361
asS'02222013'
p4362
(lp4363
VEUR=X
p4364
aVCAD=X
p4365
aVCHF=X
p4366
aVAUD=X
p4367
aVJPY=X
p4368
aVNZD=X
p4369
asS'02052016'
p4370
(lp4371
VCAD=X
p4372
aVCHF=X
p4373
aVAUD=X
p4374
aVJPY=X
p4375
aVNZD=X
p4376
asS'02222016'
p4377
(lp4378
VCAD=X
p4379
aVCHF=X
p4380
aVAUD=X
p4381
aVJPY=X
p4382
aVNZD=X
p4383
asS'02052014'
p4384
(lp4385
VEUR=X
p4386
aVJPY=X
p4387
asS'02052015'
p4388
(lp4389
VCHF=X
p4390
aVAUD=X
p4391
aVJPY=X
p4392
aVNZD=X
p4393
asS'04252013'
p4394
(lp4395
VEUR=X
p4396
aVCAD=X
p4397
aVAUD=X
p4398
aVJPY=X
p4399
aVNZD=X
p4400
asS'08282014'
p4401
(lp4402
VCHF=X
p4403
aVJPY=X
p4404
asS'04252016'
p4405
(lp4406
VCAD=X
p4407
aVCHF=X
p4408
aVAUD=X
p4409
aVNZD=X
p4410
asS'03022015'
p4411
(lp4412
VEUR=X
p4413
aVCAD=X
p4414
aVCHF=X
p4415
aVAUD=X
p4416
aVJPY=X
p4417
asS'03022016'
p4418
(lp4419
VCHF=X
p4420
aVAUD=X
p4421
aVNZD=X
p4422
asS'01192017'
p4423
(lp4424
VEUR=X
p4425
aVCAD=X
p4426
aVAUD=X
p4427
aVJPY=X
p4428
aVNZD=X
p4429
asS'02102016'
p4430
(lp4431
VCAD=X
p4432
aVAUD=X
p4433
aVJPY=X
p4434
aVNZD=X
p4435
asS'09192016'
p4436
(lp4437
VCAD=X
p4438
aVAUD=X
p4439
aVJPY=X
p4440
asS'10312016'
p4441
(lp4442
VCAD=X
p4443
aVEUR=X
p4444
aVCHF=X
p4445
aVAUD=X
p4446
aVJPY=X
p4447
aVNZD=X
p4448
asS'07182016'
p4449
(lp4450
VCAD=X
p4451
aVAUD=X
p4452
aVJPY=X
p4453
asS'05042015'
p4454
(lp4455
VCHF=X
p4456
aVAUD=X
p4457
aVJPY=X
p4458
asS'04022013'
p4459
(lp4460
VEUR=X
p4461
aVCAD=X
p4462
aVCHF=X
p4463
aVAUD=X
p4464
aVJPY=X
p4465
asS'10062016'
p4466
(lp4467
VEUR=X
p4468
aVCAD=X
p4469
aVAUD=X
p4470
asS'07152016'
p4471
(lp4472
VAUD=X
p4473
aVJPY=X
p4474
aVNZD=X
p4475
asS'09222016'
p4476
(lp4477
VCAD=X
p4478
aVAUD=X
p4479
aVJPY=X
p4480
asS'04022015'
p4481
(lp4482
VEUR=X
p4483
aVCAD=X
p4484
aVCHF=X
p4485
aVAUD=X
p4486
aVJPY=X
p4487
aVNZD=X
p4488
asS'04022014'
p4489
(lp4490
VEUR=X
p4491
aVCHF=X
p4492
asS'08202013'
p4493
(lp4494
VCAD=X
p4495
aVCHF=X
p4496
aVJPY=X
p4497
asS'03192013'
p4498
(lp4499
VEUR=X
p4500
aVCAD=X
p4501
aVCHF=X
p4502
aVAUD=X
p4503
aVJPY=X
p4504
aVNZD=X
p4505
asS'03192014'
p4506
(lp4507
VCHF=X
p4508
asS'03192015'
p4509
(lp4510
VEUR=X
p4511
aVCAD=X
p4512
aVCHF=X
p4513
aVAUD=X
p4514
aVJPY=X
p4515
aVNZD=X
p4516
asS'11242015'
p4517
(lp4518
VCHF=X
p4519
aVAUD=X
p4520
aVJPY=X
p4521
aVNZD=X
p4522
asS'11242014'
p4523
(lp4524
VCHF=X
p4525
aVJPY=X
p4526
asS'10032013'
p4527
(lp4528
VCAD=X
p4529
aVCHF=X
p4530
asS'04122016'
p4531
(lp4532
VCAD=X
p4533
aVAUD=X
p4534
aVJPY=X
p4535
aVGBP=X
p4536
aVNZD=X
p4537
asS'08092013'
p4538
(lp4539
VCAD=X
p4540
aVCHF=X
p4541
aVJPY=X
p4542
asS'06292016'
p4543
(lp4544
VAUD=X
p4545
aVJPY=X
p4546
aVNZD=X
p4547
asS'04122013'
p4548
(lp4549
VCAD=X
p4550
aVCHF=X
p4551
aVAUD=X
p4552
aVJPY=X
p4553
aVNZD=X
p4554
asS'06152015'
p4555
(lp4556
VCHF=X
p4557
aVAUD=X
p4558
aVJPY=X
p4559
aVNZD=X
p4560
asS'10142014'
p4561
(lp4562
VCHF=X
p4563
aVJPY=X
p4564
asS'10142016'
p4565
(lp4566
VCAD=X
p4567
aVCHF=X
p4568
aVAUD=X
p4569
asS'10142013'
p4570
(lp4571
VCAD=X
p4572
aVCHF=X
p4573
aVAUD=X
p4574
asS'05302013'
p4575
(lp4576
VEUR=X
p4577
aVCAD=X
p4578
aVCHF=X
p4579
aVJPY=X
p4580
aVNZD=X
p4581
asS'03312016'
p4582
(lp4583
VCAD=X
p4584
aVCHF=X
p4585
aVAUD=X
p4586
aVNZD=X
p4587
asS'03312014'
p4588
(lp4589
VEUR=X
p4590
aVCHF=X
p4591
asS'03312015'
p4592
(lp4593
VEUR=X
p4594
aVCAD=X
p4595
aVCHF=X
p4596
aVAUD=X
p4597
aVJPY=X
p4598
aVNZD=X
p4599
asS'05032013'
p4600
(lp4601
VEUR=X
p4602
aVCAD=X
p4603
aVCHF=X
p4604
aVAUD=X
p4605
aVJPY=X
p4606
aVNZD=X
p4607
asS'11172016'
p4608
(lp4609
VEUR=X
p4610
aVCAD=X
p4611
aVAUD=X
p4612
asS'07252013'
p4613
(lp4614
VCAD=X
p4615
aVCHF=X
p4616
aVJPY=X
p4617
aVNZD=X
p4618
asS'11172014'
p4619
(lp4620
VCHF=X
p4621
aVJPY=X
p4622
asS'07252014'
p4623
(lp4624
VCHF=X
p4625
aVJPY=X
p4626
asS'06202014'
p4627
(lp4628
VCHF=X
p4629
aVJPY=X
p4630
asS'07252016'
p4631
(lp4632
VAUD=X
p4633
aVJPY=X
p4634
asS'07112016'
p4635
(lp4636
VAUD=X
p4637
aVJPY=X
p4638
asS'03052013'
p4639
(lp4640
VEUR=X
p4641
aVCAD=X
p4642
aVCHF=X
p4643
aVAUD=X
p4644
aVJPY=X
p4645
aVNZD=X
p4646
asS'06062013'
p4647
(lp4648
VCAD=X
p4649
aVCHF=X
p4650
aVAUD=X
p4651
aVJPY=X
p4652
aVNZD=X
p4653
asS'08112016'
p4654
(lp4655
VCAD=X
p4656
aVAUD=X
p4657
aVJPY=X
p4658
aVNZD=X
p4659
asS'06062014'
p4660
(lp4661
VCHF=X
p4662
asS'03052015'
p4663
(lp4664
VCAD=X
p4665
aVCHF=X
p4666
aVAUD=X
p4667
aVJPY=X
p4668
aVNZD=X
p4669
asS'06062016'
p4670
(lp4671
VCHF=X
p4672
aVAUD=X
p4673
aVJPY=X
p4674
aVGBP=X
p4675
aVNZD=X
p4676
asS'08042015'
p4677
(lp4678
VCAD=X
p4679
aVCHF=X
p4680
aVAUD=X
p4681
aVNZD=X
p4682
asS'08042014'
p4683
(lp4684
VCHF=X
p4685
aVJPY=X
p4686
asS'08042016'
p4687
(lp4688
VCAD=X
p4689
aVAUD=X
p4690
aVJPY=X
p4691
aVNZD=X
p4692
asS'01272015'
p4693
(lp4694
VCHF=X
p4695
aVJPY=X
p4696
aVNZD=X
p4697
asS'01272014'
p4698
(lp4699
VCHF=X
p4700
aVJPY=X
p4701
asS'01272017'
p4702
(lp4703
VCAD=X
p4704
aVAUD=X
p4705
aVJPY=X
p4706
aVNZD=X
p4707
asS'07172015'
p4708
(lp4709
VCAD=X
p4710
aVCHF=X
p4711
aVAUD=X
p4712
aVJPY=X
p4713
aVNZD=X
p4714
asS'01222014'
p4715
(lp4716
VCHF=X
p4717
aVJPY=X
p4718
asS'01222015'
p4719
(lp4720
VCHF=X
p4721
aVJPY=X
p4722
aVNZD=X
p4723
asS'01222016'
p4724
(lp4725
VCAD=X
p4726
aVCHF=X
p4727
aVAUD=X
p4728
aVJPY=X
p4729
aVNZD=X
p4730
asS'05292013'
p4731
(lp4732
VEUR=X
p4733
aVCAD=X
p4734
aVCHF=X
p4735
aVJPY=X
p4736
aVNZD=X
p4737
asS'09182014'
p4738
(lp4739
VCHF=X
p4740
aVJPY=X
p4741
asS'02072014'
p4742
(lp4743
VEUR=X
p4744
aVCHF=X
p4745
asS'04152016'
p4746
(lp4747
VCAD=X
p4748
aVAUD=X
p4749
aVJPY=X
p4750
aVNZD=X
p4751
asS'04152015'
p4752
(lp4753
VCAD=X
p4754
aVCHF=X
p4755
aVJPY=X
p4756
aVNZD=X
p4757
asS'01022015'
p4758
(lp4759
VCHF=X
p4760
aVJPY=X
p4761
asS'04152013'
p4762
(lp4763
VCAD=X
p4764
aVCHF=X
p4765
aVAUD=X
p4766
aVJPY=X
p4767
aVNZD=X
p4768
asS'09182015'
p4769
(lp4770
VCHF=X
p4771
aVAUD=X
p4772
aVJPY=X
p4773
aVNZD=X
p4774
asS'04272015'
p4775
(lp4776
VEUR=X
p4777
aVCAD=X
p4778
aVCHF=X
p4779
aVAUD=X
p4780
asS'04272016'
p4781
(lp4782
VCAD=X
p4783
aVCHF=X
p4784
aVAUD=X
p4785
aVJPY=X
p4786
asS'05122015'
p4787
(lp4788
VCAD=X
p4789
aVCHF=X
p4790
aVAUD=X
p4791
asS'05122014'
p4792
(lp4793
VCHF=X
p4794
aVJPY=X
p4795
asS'05122016'
p4796
(lp4797
VCAD=X
p4798
aVCHF=X
p4799
aVAUD=X
p4800
aVJPY=X
p4801
aVGBP=X
p4802
aVNZD=X
p4803
asS'10072015'
p4804
(lp4805
VCHF=X
p4806
aVAUD=X
p4807
aVJPY=X
p4808
aVNZD=X
p4809
asS'05272015'
p4810
(lp4811
VEUR=X
p4812
aVCHF=X
p4813
aVAUD=X
p4814
aVJPY=X
p4815
asS'05272014'
p4816
(lp4817
VCHF=X
p4818
asS'10072014'
p4819
(lp4820
VCHF=X
p4821
aVJPY=X
p4822
asS'08202015'
p4823
(lp4824
VCHF=X
p4825
aVAUD=X
p4826
aVJPY=X
p4827
aVNZD=X
p4828
asS'08242016'
p4829
(lp4830
VCAD=X
p4831
aVAUD=X
p4832
aVJPY=X
p4833
asS'08242015'
p4834
(lp4835
VCAD=X
p4836
aVCHF=X
p4837
aVAUD=X
p4838
aVJPY=X
p4839
aVNZD=X
p4840
asS'11302016'
p4841
(lp4842
VEUR=X
p4843
aVCAD=X
p4844
aVCHF=X
p4845
aVAUD=X
p4846
aVJPY=X
p4847
aVNZD=X
p4848
asS'01062017'
p4849
(lp4850
VEUR=X
p4851
aVCAD=X
p4852
aVAUD=X
p4853
aVJPY=X
p4854
aVNZD=X
p4855
asS'01062014'
p4856
(lp4857
VEUR=X
p4858
aVCHF=X
p4859
aVJPY=X
p4860
asS'01062015'
p4861
(lp4862
VCHF=X
p4863
aVJPY=X
p4864
asS'09042014'
p4865
(lp4866
VCHF=X
p4867
aVJPY=X
p4868
asS'09042015'
p4869
(lp4870
VCAD=X
p4871
aVCHF=X
p4872
aVAUD=X
p4873
aVJPY=X
p4874
aVNZD=X
p4875
asS'02262014'
p4876
(lp4877
VCHF=X
p4878
aVNZD=X
p4879
asS'10262016'
p4880
(lp4881
VEUR=X
p4882
aVCAD=X
p4883
aVCHF=X
p4884
aVAUD=X
p4885
aVJPY=X
p4886
aVNZD=X
p4887
asS'09042013'
p4888
(lp4889
VCAD=X
p4890
aVCHF=X
p4891
aVAUD=X
p4892
asS'06142016'
p4893
(lp4894
VAUD=X
p4895
aVJPY=X
p4896
aVNZD=X
p4897
asS'07052016'
p4898
(lp4899
VJPY=X
p4900
asS'02232015'
p4901
(lp4902
VCAD=X
p4903
aVCHF=X
p4904
aVAUD=X
p4905
aVJPY=X
p4906
asS'03122014'
p4907
(lp4908
VCHF=X
p4909
asS'07052013'
p4910
(lp4911
VEUR=X
p4912
aVCAD=X
p4913
aVCHF=X
p4914
aVJPY=X
p4915
asS'06102015'
p4916
(lp4917
VCHF=X
p4918
aVAUD=X
p4919
aVJPY=X
p4920
aVNZD=X
p4921
asS'11222013'
p4922
(lp4923
VCHF=X
p4924
asS'11052013'
p4925
(lp4926
VCHF=X
p4927
asS'03132014'
p4928
(lp4929
VCHF=X
p4930
asS'03132015'
p4931
(lp4932
VCAD=X
p4933
aVCHF=X
p4934
aVAUD=X
p4935
aVJPY=X
p4936
asS'01182017'
p4937
(lp4938
VCAD=X
p4939
aVAUD=X
p4940
aVJPY=X
p4941
aVNZD=X
p4942
asS'03132013'
p4943
(lp4944
VEUR=X
p4945
aVCAD=X
p4946
aVAUD=X
p4947
aVJPY=X
p4948
aVNZD=X
p4949
asS'11052014'
p4950
(lp4951
VCHF=X
p4952
aVJPY=X
p4953
asS'11052015'
p4954
(lp4955
VCAD=X
p4956
aVCHF=X
p4957
aVAUD=X
p4958
aVJPY=X
p4959
asS'10112013'
p4960
(lp4961
VCAD=X
p4962
aVCHF=X
p4963
aVAUD=X
p4964
asS'09202016'
p4965
(lp4966
VCAD=X
p4967
aVAUD=X
p4968
aVJPY=X
p4969
asS'10022013'
p4970
(lp4971
VCHF=X
p4972
aVAUD=X
p4973
asS'10022014'
p4974
(lp4975
VCHF=X
p4976
aVJPY=X
p4977
asS'01252016'
p4978
(lp4979
VCAD=X
p4980
aVCHF=X
p4981
aVAUD=X
p4982
aVJPY=X
p4983
aVNZD=X
p4984
asS'06112013'
p4985
(lp4986
VCAD=X
p4987
aVCHF=X
p4988
aVAUD=X
p4989
aVJPY=X
p4990
aVNZD=X
p4991
asS'03162015'
p4992
(lp4993
VEUR=X
p4994
aVCAD=X
p4995
aVCHF=X
p4996
aVAUD=X
p4997
aVJPY=X
p4998
aVNZD=X
p4999
asS'01112016'
p5000
(lp5001
VCAD=X
p5002
aVCHF=X
p5003
aVAUD=X
p5004
aVJPY=X
p5005
aVNZD=X
p5006
asS'01112017'
p5007
(lp5008
VCAD=X
p5009
aVAUD=X
p5010
aVJPY=X
p5011
aVNZD=X
p5012
asS'10032016'
p5013
(lp5014
VCAD=X
p5015
aVAUD=X
p5016
aVJPY=X
p5017
asS'04102015'
p5018
(lp5019
VEUR=X
p5020
aVCAD=X
p5021
aVCHF=X
p5022
aVAUD=X
p5023
aVJPY=X
p5024
aVNZD=X
p5025
asS'09102014'
p5026
(lp5027
VCHF=X
p5028
aVJPY=X
p5029
asS'08172016'
p5030
(lp5031
VCAD=X
p5032
aVAUD=X
p5033
aVJPY=X
p5034
aVNZD=X
p5035
asS'01142016'
p5036
(lp5037
VCAD=X
p5038
aVCHF=X
p5039
aVAUD=X
p5040
aVJPY=X
p5041
asS'09102015'
p5042
(lp5043
VCHF=X
p5044
aVAUD=X
p5045
aVJPY=X
p5046
aVNZD=X
p5047
asS'04222013'
p5048
(lp5049
VCAD=X
p5050
aVCHF=X
p5051
aVAUD=X
p5052
aVJPY=X
p5053
aVNZD=X
p5054
asS'07232013'
p5055
(lp5056
VCAD=X
p5057
aVCHF=X
p5058
aVNZD=X
p5059
asS'02262016'
p5060
(lp5061
VCAD=X
p5062
aVCHF=X
p5063
aVJPY=X
p5064
aVNZD=X
p5065
asS'07232015'
p5066
(lp5067
VCAD=X
p5068
aVCHF=X
p5069
aVAUD=X
p5070
aVJPY=X
p5071
aVNZD=X
p5072
asS'07232014'
p5073
(lp5074
VCHF=X
p5075
aVJPY=X
p5076
asS'09152016'
p5077
(lp5078
VAUD=X
p5079
aVJPY=X
p5080
asS'01212016'
p5081
(lp5082
VCAD=X
p5083
aVCHF=X
p5084
aVAUD=X
p5085
aVJPY=X
p5086
aVNZD=X
p5087
asS'09152014'
p5088
(lp5089
VCHF=X
p5090
aVJPY=X
p5091
asS'06182013'
p5092
(lp5093
VCAD=X
p5094
aVCHF=X
p5095
aVAUD=X
p5096
aVJPY=X
p5097
aVNZD=X
p5098
asS'06182014'
p5099
(lp5100
VCHF=X
p5101
asS'02032015'
p5102
(lp5103
VCHF=X
p5104
aVAUD=X
p5105
aVJPY=X
p5106
aVNZD=X
p5107
asS'04032014'
p5108
(lp5109
VEUR=X
p5110
aVCHF=X
p5111
asS'02032017'
p5112
(lp5113
VCAD=X
p5114
aVAUD=X
p5115
aVJPY=X
p5116
aVNZD=X
p5117
asS'01202016'
p5118
(lp5119
VCAD=X
p5120
aVCHF=X
p5121
aVAUD=X
p5122
aVJPY=X
p5123
aVNZD=X
p5124
asS'01202017'
p5125
(lp5126
VEUR=X
p5127
aVCAD=X
p5128
aVAUD=X
p5129
aVJPY=X
p5130
aVNZD=X
p5131
asS'01202015'
p5132
(lp5133
VCHF=X
p5134
aVJPY=X
p5135
asS'03072013'
p5136
(lp5137
VEUR=X
p5138
aVCAD=X
p5139
aVCHF=X
p5140
aVAUD=X
p5141
aVJPY=X
p5142
aVNZD=X
p5143
asS'02132015'
p5144
(lp5145
VCAD=X
p5146
aVCHF=X
p5147
aVAUD=X
p5148
aVJPY=X
p5149
asS'07142014'
p5150
(lp5151
VCHF=X
p5152
aVJPY=X
p5153
asS'03242014'
p5154
(lp5155
sS'03242015'
p5156
(lp5157
VEUR=X
p5158
aVCAD=X
p5159
aVCHF=X
p5160
aVAUD=X
p5161
aVJPY=X
p5162
aVNZD=X
p5163
asS'03242016'
p5164
(lp5165
VCAD=X
p5166
aVAUD=X
p5167
aVJPY=X
p5168
aVNZD=X
p5169
asS'10272015'
p5170
(lp5171
VCAD=X
p5172
aVCHF=X
p5173
aVAUD=X
p5174
aVJPY=X
p5175
asS'01292016'
p5176
(lp5177
VCAD=X
p5178
aVCHF=X
p5179
aVAUD=X
p5180
aVJPY=X
p5181
aVNZD=X
p5182
asS'10132016'
p5183
(lp5184
VCHF=X
p5185
aVAUD=X
p5186
asS'01292014'
p5187
(lp5188
VCHF=X
p5189
aVJPY=X
p5190
asS'05022016'
p5191
(lp5192
VCAD=X
p5193
aVCHF=X
p5194
aVAUD=X
p5195
aVJPY=X
p5196
aVNZD=X
p5197
asS'05022014'
p5198
(lp5199
VEUR=X
p5200
aVCHF=X
p5201
asS'12222015'
p5202
(lp5203
VCAD=X
p5204
aVCHF=X
p5205
aVAUD=X
p5206
aVJPY=X
p5207
asS'12222016'
p5208
(lp5209
VEUR=X
p5210
aVCAD=X
p5211
aVAUD=X
p5212
aVJPY=X
p5213
aVNZD=X
p5214
asS'12142016'
p5215
(lp5216
VEUR=X
p5217
aVCAD=X
p5218
aVCHF=X
p5219
aVAUD=X
p5220
aVJPY=X
p5221
aVNZD=X
p5222
asS'01272016'
p5223
(lp5224
VCAD=X
p5225
aVCHF=X
p5226
aVAUD=X
p5227
aVJPY=X
p5228
aVNZD=X
p5229
asS'10292013'
p5230
(lp5231
VCHF=X
p5232
asS'10292015'
p5233
(lp5234
VCAD=X
p5235
aVCHF=X
p5236
aVAUD=X
p5237
aVJPY=X
p5238
aVNZD=X
p5239
asS'10292014'
p5240
(lp5241
VCHF=X
p5242
aVJPY=X
p5243
asS'10312014'
p5244
(lp5245
VCHF=X
p5246
aVJPY=X
p5247
asS'10222013'
p5248
(lp5249
VCAD=X
p5250
aVCHF=X
p5251
aVJPY=X
p5252
asS'04192013'
p5253
(lp5254
VEUR=X
p5255
aVCAD=X
p5256
aVCHF=X
p5257
aVAUD=X
p5258
aVJPY=X
p5259
aVNZD=X
p5260
asS'05302014'
p5261
(lp5262
VCHF=X
p5263
asS'02292016'
p5264
(lp5265
VCAD=X
p5266
aVCHF=X
p5267
aVAUD=X
p5268
aVJPY=X
p5269
aVNZD=X
p5270
asS'08102015'
p5271
(lp5272
VCHF=X
p5273
aVAUD=X
p5274
aVJPY=X
p5275
aVNZD=X
p5276
asS'04192016'
p5277
(lp5278
VCAD=X
p5279
aVCHF=X
p5280
aVAUD=X
p5281
aVJPY=X
p5282
aVGBP=X
p5283
aVNZD=X
p5284
asS'08052016'
p5285
(lp5286
VCAD=X
p5287
aVAUD=X
p5288
aVJPY=X
p5289
aVNZD=X
p5290
asS'08202014'
p5291
(lp5292
VCHF=X
p5293
aVJPY=X
p5294
asS'09012016'
p5295
(lp5296
VCAD=X
p5297
aVAUD=X
p5298
asS'05212015'
p5299
(lp5300
VEUR=X
p5301
aVCAD=X
p5302
aVCHF=X
p5303
aVAUD=X
p5304
asS'05212014'
p5305
(lp5306
VCHF=X
p5307
aVJPY=X
p5308
asS'06212016'
p5309
(lp5310
VAUD=X
p5311
aVJPY=X
p5312
aVNZD=X
p5313
asS'10052016'
p5314
(lp5315
VCAD=X
p5316
aVAUD=X
p5317
aVJPY=X
p5318
asS'10052015'
p5319
(lp5320
VCAD=X
p5321
aVCHF=X
p5322
aVAUD=X
p5323
aVJPY=X
p5324
aVNZD=X
p5325
asS'06222016'
p5326
(lp5327
VAUD=X
p5328
aVJPY=X
p5329
aVNZD=X
p5330
asS'10092015'
p5331
(lp5332
VCHF=X
p5333
aVAUD=X
p5334
aVJPY=X
p5335
aVNZD=X
p5336
asS'03122013'
p5337
(lp5338
VEUR=X
p5339
aVCAD=X
p5340
aVAUD=X
p5341
aVJPY=X
p5342
asS'06222015'
p5343
(lp5344
VCHF=X
p5345
aVAUD=X
p5346
aVJPY=X
p5347
aVNZD=X
p5348
asS'05292015'
p5349
(lp5350
VEUR=X
p5351
aVCHF=X
p5352
aVAUD=X
p5353
aVJPY=X
p5354
asS'05112015'
p5355
(lp5356
VCAD=X
p5357
aVCHF=X
p5358
aVAUD=X
p5359
aVJPY=X
p5360
asS'04222014'
p5361
(lp5362
VCHF=X
p5363
asS'12152016'
p5364
(lp5365
VEUR=X
p5366
aVCAD=X
p5367
aVCHF=X
p5368
aVAUD=X
p5369
aVJPY=X
p5370
aVNZD=X
p5371
asS'12272016'
p5372
(lp5373
VCAD=X
p5374
aVAUD=X
p5375
aVJPY=X
p5376
aVNZD=X
p5377
asS'12222014'
p5378
(lp5379
VJPY=X
p5380
aVNZD=X
p5381
asS'01092014'
p5382
(lp5383
VEUR=X
p5384
aVCHF=X
p5385
aVJPY=X
p5386
asS'01092017'
p5387
(lp5388
VCAD=X
p5389
aVAUD=X
p5390
aVJPY=X
p5391
aVNZD=X
p5392
asS'07102015'
p5393
(lp5394
VCHF=X
p5395
aVAUD=X
p5396
aVJPY=X
p5397
aVNZD=X
p5398
asS'07102014'
p5399
(lp5400
VCHF=X
p5401
aVJPY=X
p5402
asS'07102013'
p5403
(lp5404
VEUR=X
p5405
aVCAD=X
p5406
aVCHF=X
p5407
aVJPY=X
p5408
as.