(dp1
S'12022016'
p2
(lp3
VBA
p4
aVSJM
p5
aVEOG
p6
aVBRK-B
p7
aVAPD
p8
aVCME
p9
aVIFF
p10
aVFDX
p11
aVPX
p12
aVLLL
p13
aVEFX
p14
aVSHW
p15
aVBDX
p16
aVMA
p17
aVNOC
p18
aVNEE
p19
aVPEP
p20
aVZBH
p21
aVWHR
p22
aVCB
p23
aVCLX
p24
aVIBM
p25
aVMCD
p26
aVSPGI
p27
aVPNC
p28
asS'03232016'
p29
(lp30
VBA
p31
aVBRK-B
p32
aVACN
p33
aVZBH
p34
aVFRT
p35
aVWAT
p36
aVESS
p37
asS'11072016'
p38
(lp39
VGS
p40
aVBRK-B
p41
aVAPD
p42
aVFDX
p43
aVROK
p44
aVPX
p45
aVLLL
p46
aVMA
p47
aVNOC
p48
aVPEP
p49
aVILMN
p50
aVCLX
p51
aVIBM
p52
aVUTX
p53
asS'12022015'
p54
(lp55
VBA
p56
aVGS
p57
aVAVGO
p58
aVSHW
p59
aVORLY
p60
aVCOST
p61
aVNKE
p62
asS'12242015'
p63
(lp64
VBA
p65
aVGS
p66
aVORLY
p67
aVAVB
p68
aVACN
p69
aVCOST
p70
aVNKE
p71
asS'04292016'
p72
(lp73
VHD
p74
aVAMT
p75
aVTRV
p76
aVPEP
p77
aVIBM
p78
aVAYI
p79
asS'05172016'
p80
(lp81
VBRK-B
p82
aVFDX
p83
aVPM
p84
aVTRV
p85
aVPEP
p86
aVWAT
p87
asS'03212016'
p88
(lp89
VBA
p90
aVGS
p91
aVBRK-B
p92
aVAMT
p93
aVPSA
p94
aVKMB
p95
aVACN
p96
aVFRT
p97
aVAYI
p98
asS'07062016'
p99
(lp100
VGS
p101
aVSNA
p102
aVSYK
p103
aVUPS
p104
aVPM
p105
aVMON
p106
aVACN
p107
aVAAP
p108
aVSRE
p109
aVGOOG
p110
asS'11252016'
p111
(lp112
VBA
p113
aVBRK-B
p114
aVJNJ
p115
aVCME
p116
aVIFF
p117
aVPX
p118
aVLLL
p119
aVSHW
p120
aVTRV
p121
aVNOC
p122
aVNEE
p123
aVPEP
p124
aVZBH
p125
aVCB
p126
aVIBM
p127
aVROK
p128
aVSTZ
p129
aVMCD
p130
asS'05232016'
p131
(lp132
VGOOGL
p133
aVGS
p134
aVBRK-B
p135
aVHD
p136
aVTRV
p137
aVPEP
p138
aVZBH
p139
asS'04052016'
p140
(lp141
VBA
p142
aVSNA
p143
aVBDX
p144
aVTRV
p145
aVAVB
p146
aVPEP
p147
aVACN
p148
aVFRT
p149
asS'08082016'
p150
(lp151
VAON
p152
aVGS
p153
aVBRK-B
p154
aVSNA
p155
aVSYK
p156
aVAPD
p157
aVCME
p158
aVCTAS
p159
aVFDX
p160
aVKMB
p161
aVZBH
p162
aVUPS
p163
aVIBM
p164
aVGPC
p165
asS'03082016'
p166
(lp167
VKMB
p168
aVACN
p169
aVALXN
p170
asS'09142016'
p171
(lp172
VGS
p173
aVGD
p174
aVBRK-B
p175
aVSYK
p176
aVAPD
p177
aVAET
p178
aVFDX
p179
aVLLL
p180
aVORLY
p181
aVTRV
p182
aVMA
p183
aVCOST
p184
aVZBH
p185
aVUPS
p186
aVADS
p187
aVADBE
p188
aVIBM
p189
aVAYI
p190
aVUTX
p191
aVMCO
p192
asS'03152016'
p193
(lp194
VBDX
p195
aVUHS
p196
aVKMB
p197
aVACN
p198
aVWAT
p199
aVLH
p200
aVALXN
p201
asS'12062016'
p202
(lp203
VSJM
p204
aVAON
p205
aVBRK-B
p206
aVAPD
p207
aVCMG
p208
aVIFF
p209
aVFDX
p210
aVPX
p211
aVLLL
p212
aVEFX
p213
aVSHW
p214
aVMA
p215
aVNOC
p216
aVNEE
p217
aVPEP
p218
aVZBH
p219
aVCB
p220
aVIBM
p221
aVROK
p222
aVSTZ
p223
aVSPGI
p224
asS'05062016'
p225
(lp226
VBRK-B
p227
aVLLL
p228
aVTRV
p229
aVPEP
p230
aVACN
p231
aVLMT
p232
asS'11022016'
p233
(lp234
VGOOGL
p235
aVGS
p236
aVBRK-B
p237
aVJNJ
p238
aVNOC
p239
aVPEP
p240
aVILMN
p241
aVIBM
p242
aVUTX
p243
aVSTZ
p244
asS'02082017'
p245
(lp246
VBA
p247
aVSJM
p248
aVAON
p249
aVHAR
p250
aVBRK-B
p251
aVJNJ
p252
aVAPD
p253
aVCTAS
p254
aVPX
p255
aVPCLN
p256
aVEFX
p257
aVNOC
p258
aVUNP
p259
aVCB
p260
aVILMN
p261
aVITW
p262
aVBXP
p263
aVDE
p264
aVMTB
p265
aVUTX
p266
aVSTZ
p267
aVMCD
p268
asS'02082016'
p269
(lp270
VGS
p271
aVLLL
p272
aVEFX
p273
aVORLY
p274
aVACN
p275
aVAZO
p276
asS'11212016'
p277
(lp278
VBA
p279
aVSJM
p280
aVBRK-B
p281
aVJNJ
p282
aVCME
p283
aVLLL
p284
aVTRV
p285
aVMA
p286
aVNOC
p287
aVPEP
p288
aVZBH
p289
aVCB
p290
aVIBM
p291
aVROK
p292
aVUTX
p293
aVMCD
p294
asS'07292016'
p295
(lp296
VGS
p297
aVBRK-B
p298
aVSNA
p299
aVSYK
p300
aVCME
p301
aVCTAS
p302
aVHD
p303
aVZBH
p304
aVIBM
p305
aVPPG
p306
asS'11042016'
p307
(lp308
VGOOGL
p309
aVBRK-B
p310
aVJNJ
p311
aVAPD
p312
aVFDX
p313
aVPX
p314
aVLLL
p315
aVSHW
p316
aVPSA
p317
aVNOC
p318
aVPEP
p319
aVILMN
p320
aVIBM
p321
aVUTX
p322
asS'02242016'
p323
(lp324
VGS
p325
aVAET
p326
aVPCLN
p327
aVEFX
p328
aVACN
p329
aVAYI
p330
aVLH
p331
asS'02092016'
p332
(lp333
VGS
p334
aVAZO
p335
aVFB
p336
aVLLL
p337
aVORLY
p338
aVICE
p339
asS'02092017'
p340
(lp341
VSJM
p342
aVHAR
p343
aVJNJ
p344
aVPM
p345
aVAPD
p346
aVIFF
p347
aVCTAS
p348
aVFDX
p349
aVPX
p350
aVAMG
p351
aVEFX
p352
aVPSA
p353
aVNOC
p354
aVUNP
p355
aVCB
p356
aVILMN
p357
aVITW
p358
aVSWK
p359
aVDE
p360
aVMTB
p361
aVUTX
p362
aVMCD
p363
asS'12122016'
p364
(lp365
VBA
p366
aVSJM
p367
aVAON
p368
aVBRK-B
p369
aVSNA
p370
aVJNJ
p371
aVAPD
p372
aVFDX
p373
aVPX
p374
aVLLL
p375
aVEFX
p376
aVBDX
p377
aVTRV
p378
aVNOC
p379
aVNEE
p380
aVPEP
p381
aVIBM
p382
aVDE
p383
aVGOOG
p384
aVROK
p385
aVSTZ
p386
aVMCD
p387
asS'12232015'
p388
(lp389
VBA
p390
aVGS
p391
aVEFX
p392
aVORLY
p393
aVAVB
p394
aVACN
p395
aVCOST
p396
aVDNB
p397
aVMNST
p398
asS'12172015'
p399
(lp400
VGS
p401
aVHD
p402
aVORLY
p403
aVACN
p404
aVCOST
p405
asS'12182015'
p406
(lp407
VAGN
p408
aVGOOGL
p409
aVGS
p410
aVBRK-B
p411
aVEFX
p412
aVORLY
p413
aVPEP
p414
aVCOST
p415
aVBF-B
p416
asS'12232016'
p417
(lp418
VBA
p419
aVAON
p420
aVPRU
p421
aVHAR
p422
aVBRK-B
p423
aVAPD
p424
aVCME
p425
aVFDX
p426
aVPX
p427
aVEFX
p428
aVBDX
p429
aVMA
p430
aVNOC
p431
aVPEP
p432
aVCOST
p433
aVZBH
p434
aVCB
p435
aVCLX
p436
aVIBM
p437
aVSTZ
p438
aVMCD
p439
asS'01032017'
p440
(lp441
VBA
p442
aVSJM
p443
aVAON
p444
aVPRU
p445
aVHAR
p446
aVBRK-B
p447
aVAPD
p448
aVPX
p449
aVRTN
p450
aVEFX
p451
aVSHW
p452
aVBDX
p453
aVMA
p454
aVNOC
p455
aVCOST
p456
aVZBH
p457
aVWHR
p458
aVCB
p459
aVCLX
p460
aVIBM
p461
aVDE
p462
aVMTB
p463
aVUTX
p464
aVSTZ
p465
aVMCD
p466
aVPNC
p467
asS'12092015'
p468
(lp469
VGS
p470
aVSHW
p471
aVORLY
p472
aVPEP
p473
aVACN
p474
aVCOST
p475
asS'03142016'
p476
(lp477
VLLL
p478
aVPSA
p479
aVUHS
p480
aVACN
p481
aVFB
p482
aVWAT
p483
asS'07152016'
p484
(lp485
VGOOGL
p486
aVHD
p487
aVZBH
p488
aVPPG
p489
aVGPC
p490
asS'01072016'
p491
(lp492
VBA
p493
aVGS
p494
aVORLY
p495
aVAVB
p496
aVACN
p497
aVCOST
p498
asS'05182016'
p499
(lp500
VBRK-B
p501
aVCMG
p502
aVFDX
p503
aVPM
p504
aVPEP
p505
aVZBH
p506
aVVMC
p507
aVMMM
p508
asS'07192016'
p509
(lp510
VUHS
p511
aVGS
p512
aVBRK-B
p513
aVSNA
p514
aVTDG
p515
aVHD
p516
aVPCLN
p517
aVLLL
p518
aVUNH
p519
aVIBM
p520
aVPPG
p521
aVGPC
p522
asS'01302017'
p523
(lp524
VBA
p525
aVSJM
p526
aVHAR
p527
aVBRK-B
p528
aVAPD
p529
aVHD
p530
aVRTN
p531
aVPCLN
p532
aVEFX
p533
aVORLY
p534
aVBDX
p535
aVADP
p536
aVCB
p537
aVMTB
p538
aVUTX
p539
aVSTZ
p540
aVMCD
p541
asS'12112015'
p542
(lp543
VBA
p544
aVGS
p545
aVORLY
p546
aVEW
p547
aVCOST
p548
aVHON
p549
asS'07262016'
p550
(lp551
VGS
p552
aVBRK-B
p553
aVSNA
p554
aVCTAS
p555
aVHD
p556
aVORLY
p557
aVPEP
p558
aVZBH
p559
aVIBM
p560
aVGOOG
p561
asS'06092016'
p562
(lp563
VGS
p564
aVBRK-B
p565
aVHD
p566
aVPSA
p567
aVACN
p568
aVCOST
p569
asS'07132016'
p570
(lp571
VGOOGL
p572
aVBRK-B
p573
aVSNA
p574
aVSYK
p575
aVHD
p576
aVLLL
p577
aVPM
p578
aVBLK
p579
aVPSA
p580
aVZBH
p581
aVPPG
p582
aVSRE
p583
aVANTM
p584
asS'08262016'
p585
(lp586
VBRK-B
p587
aVSYK
p588
aVCME
p589
aVFDX
p590
aVCOST
p591
aVZBH
p592
aVUPS
p593
aVCLX
p594
aVADBE
p595
aVIBM
p596
aVAYI
p597
aVPPG
p598
aVGOOG
p599
aVUTX
p600
asS'02172016'
p601
(lp602
VGS
p603
aVAZO
p604
aVORLY
p605
aVFRT
p606
aVWAT
p607
aVLMT
p608
asS'01262016'
p609
(lp610
VAGN
p611
aVFRT
p612
aVGOOGL
p613
aVHSIC
p614
aVGS
p615
aVORLY
p616
aVACN
p617
aVLMT
p618
aVLH
p619
asS'01262017'
p620
(lp621
VBA
p622
aVAON
p623
aVPRU
p624
aVHAR
p625
aVBRK-B
p626
aVAPD
p627
aVCMI
p628
aVFDX
p629
aVHD
p630
aVPX
p631
aVEFX
p632
aVBDX
p633
aVNOC
p634
aVWHR
p635
aVADP
p636
aVCB
p637
aVDE
p638
aVLH
p639
aVROK
p640
aVSTZ
p641
aVMCD
p642
asS'09062016'
p643
(lp644
VGS
p645
aVBRK-B
p646
aVAPD
p647
aVAET
p648
aVCME
p649
aVFDX
p650
aVLLL
p651
aVCOST
p652
aVZBH
p653
aVUPS
p654
aVCLX
p655
aVADBE
p656
aVIBM
p657
aVAYI
p658
aVMNST
p659
aVUTX
p660
asS'04042016'
p661
(lp662
VBA
p663
aVSNA
p664
aVCMG
p665
aVPCLN
p666
aVAMT
p667
aVAVB
p668
aVACN
p669
aVFRT
p670
aVAYI
p671
asS'05102016'
p672
(lp673
VBRK-B
p674
aVHD
p675
aVHUM
p676
aVLLL
p677
aVPM
p678
aVTRV
p679
aVPEP
p680
aVLMT
p681
aVUTX
p682
asS'09162016'
p683
(lp684
VGS
p685
aVGD
p686
aVBRK-B
p687
aVSYK
p688
aVAPD
p689
aVFDX
p690
aVLLL
p691
aVORLY
p692
aVTRV
p693
aVCOST
p694
aVUPS
p695
aVIBM
p696
aVAAP
p697
aVAYI
p698
aVUTX
p699
asS'02232016'
p700
(lp701
VGS
p702
aVPCLN
p703
aVFRT
p704
aVLMT
p705
aVAYI
p706
asS'09082016'
p707
(lp708
VGS
p709
aVBRK-B
p710
aVAPD
p711
aVAET
p712
aVCME
p713
aVLLL
p714
aVCOST
p715
aVFISV
p716
aVZBH
p717
aVUPS
p718
aVADBE
p719
aVIBM
p720
aVAYI
p721
aVMNST
p722
aVUTX
p723
asS'06082016'
p724
(lp725
VGS
p726
aVBRK-B
p727
aVHD
p728
aVACN
p729
asS'08032016'
p730
(lp731
VAON
p732
aVGS
p733
aVBRK-B
p734
aVSNA
p735
aVSYK
p736
aVCME
p737
aVCTAS
p738
aVHD
p739
aVLLL
p740
aVPM
p741
aVORLY
p742
aVDLR
p743
aVTRV
p744
aVZBH
p745
aVIBM
p746
aVMNST
p747
aVGOOG
p748
asS'12212016'
p749
(lp750
VSJM
p751
aVAON
p752
aVPRU
p753
aVAMGN
p754
aVHAR
p755
aVBRK-B
p756
aVAPD
p757
aVFDX
p758
aVPX
p759
aVEFX
p760
aVTRV
p761
aVNOC
p762
aVPEP
p763
aVZBH
p764
aVUNP
p765
aVADP
p766
aVCB
p767
aVIBM
p768
aVDIS
p769
aVCELG
p770
aVSTZ
p771
aVMCD
p772
asS'12212015'
p773
(lp774
VAGN
p775
aVGS
p776
aVORLY
p777
aVAVB
p778
aVACN
p779
aVCOST
p780
asS'02112016'
p781
(lp782
VGS
p783
aVAZO
p784
aVLLL
p785
aVORLY
p786
aVFRT
p787
aVLMT
p788
aVMNST
p789
asS'07222016'
p790
(lp791
VGS
p792
aVBRK-B
p793
aVSNA
p794
aVCTAS
p795
aVHD
p796
aVKMB
p797
aVPEP
p798
aVZBH
p799
aVUNH
p800
aVIBM
p801
aVAYI
p802
aVPPG
p803
aVGPC
p804
asS'02022017'
p805
(lp806
VBA
p807
aVSJM
p808
aVGS
p809
aVHAR
p810
aVBRK-B
p811
aVJNJ
p812
aVAPD
p813
aVEFX
p814
aVBDX
p815
aVNOC
p816
aVADP
p817
aVCB
p818
aVITW
p819
aVDE
p820
aVMTB
p821
aVUTX
p822
aVSTZ
p823
aVMCD
p824
asS'11032016'
p825
(lp826
VGS
p827
aVBRK-B
p828
aVJNJ
p829
aVPX
p830
aVNOC
p831
aVCOST
p832
aVADS
p833
aVILMN
p834
aVIBM
p835
aVUTX
p836
asS'11152016'
p837
(lp838
VSJM
p839
aVAON
p840
aVGS
p841
aVBRK-B
p842
aVJNJ
p843
aVLLL
p844
aVSHW
p845
aVMA
p846
aVNOC
p847
aVPEP
p848
aVCOST
p849
aVUPS
p850
aVCB
p851
aVIBM
p852
aVMCK
p853
aVMCD
p854
asS'12202016'
p855
(lp856
VSJM
p857
aVAON
p858
aVPRU
p859
aVAMGN
p860
aVBRK-B
p861
aVAPD
p862
aVCME
p863
aVFDX
p864
aVHD
p865
aVPX
p866
aVEFX
p867
aVFFIV
p868
aVNOC
p869
aVPEP
p870
aVZBH
p871
aVWHR
p872
aVUNP
p873
aVADP
p874
aVIBM
p875
aVDIS
p876
aVCELG
p877
aVSTZ
p878
aVMCD
p879
asS'01102017'
p880
(lp881
VBA
p882
aVSJM
p883
aVPRU
p884
aVHAR
p885
aVBRK-B
p886
aVAPD
p887
aVPX
p888
aVRTN
p889
aVEFX
p890
aVNOC
p891
aVNEE
p892
aVZBH
p893
aVADP
p894
aVCB
p895
aVSWK
p896
aVIBM
p897
aVSTZ
p898
aVMCD
p899
aVSPGI
p900
asS'01042016'
p901
(lp902
VGS
p903
aVEFX
p904
aVORLY
p905
aVNOC
p906
aVACN
p907
aVCOST
p908
aVBF-B
p909
aVMCD
p910
asS'09122016'
p911
(lp912
VGS
p913
aVGD
p914
aVBRK-B
p915
aVSYK
p916
aVAPD
p917
aVCME
p918
aVLLL
p919
aVTRV
p920
aVCOST
p921
aVUPS
p922
aVCLX
p923
aVIBM
p924
aVAYI
p925
aVMNST
p926
aVUTX
p927
asS'09222016'
p928
(lp929
VBRK-B
p930
aVAPD
p931
aVCME
p932
aVIFF
p933
aVLLL
p934
aVTRV
p935
aVMA
p936
aVUPS
p937
aVADBE
p938
aVIBM
p939
aVAYI
p940
aVPPG
p941
aVUTX
p942
asS'12072016'
p943
(lp944
VBA
p945
aVSJM
p946
aVAON
p947
aVBRK-B
p948
aVAPD
p949
aVCMG
p950
aVCME
p951
aVIFF
p952
aVPX
p953
aVLLL
p954
aVEFX
p955
aVTRV
p956
aVMA
p957
aVNEE
p958
aVPEP
p959
aVCB
p960
aVIBM
p961
aVROK
p962
aVSTZ
p963
aVSPGI
p964
aVPNC
p965
asS'10242016'
p966
(lp967
VAON
p968
aVGS
p969
aVBRK-B
p970
aVJNJ
p971
aVAPD
p972
aVCME
p973
aVLLL
p974
aVTRV
p975
aVMA
p976
aVNOC
p977
aVPEP
p978
aVCLX
p979
aVIBM
p980
aVSTZ
p981
asS'06012016'
p982
(lp983
VBRK-B
p984
aVPSA
p985
aVPEP
p986
aVACN
p987
aVCOST
p988
aVBCR
p989
aVFRT
p990
asS'12082015'
p991
(lp992
VBA
p993
aVGS
p994
aVSHW
p995
aVORLY
p996
aVEW
p997
aVCOST
p998
aVZBH
p999
aVDNB
p1000
asS'12072015'
p1001
(lp1002
VBA
p1003
aVGS
p1004
aVORLY
p1005
aVACN
p1006
aVDNB
p1007
aVNKE
p1008
asS'12162016'
p1009
(lp1010
VBA
p1011
aVAON
p1012
aVBRK-B
p1013
aVAPD
p1014
aVCME
p1015
aVFDX
p1016
aVHD
p1017
aVPX
p1018
aVNOC
p1019
aVPEP
p1020
aVZBH
p1021
aVCB
p1022
aVIBM
p1023
aVSTZ
p1024
aVMCD
p1025
aVSPGI
p1026
asS'10192016'
p1027
(lp1028
VGD
p1029
aVBRK-B
p1030
aVJNJ
p1031
aVAPD
p1032
aVLLL
p1033
aVTRV
p1034
aVMA
p1035
aVNOC
p1036
aVPEP
p1037
aVSWK
p1038
aVIBM
p1039
aVAYI
p1040
aVGOOG
p1041
aVSTZ
p1042
asS'12292015'
p1043
(lp1044
VGS
p1045
aVTSO
p1046
aVORLY
p1047
aVAVB
p1048
aVACN
p1049
aVCOST
p1050
aVBF-B
p1051
asS'03072016'
p1052
(lp1053
VHSIC
p1054
aVGS
p1055
aVKMB
p1056
aVACN
p1057
asS'04182016'
p1058
(lp1059
VAGN
p1060
aVBA
p1061
aVAMT
p1062
aVORLY
p1063
aVTRV
p1064
aVAVB
p1065
aVPEP
p1066
aVACN
p1067
aVFRT
p1068
asS'12102015'
p1069
(lp1070
VBA
p1071
aVGS
p1072
aVSHW
p1073
aVORLY
p1074
aVEW
p1075
aVCOST
p1076
aVDNB
p1077
aVMCO
p1078
asS'08172016'
p1079
(lp1080
VAON
p1081
aVBRK-B
p1082
aVAPD
p1083
aVCME
p1084
aVAYI
p1085
aVCTAS
p1086
aVCOST
p1087
aVZBH
p1088
aVADS
p1089
aVUNH
p1090
aVMMM
p1091
aVIBM
p1092
aVBIIB
p1093
aVGOOG
p1094
aVUTX
p1095
aVGPC
p1096
asS'09292016'
p1097
(lp1098
VGS
p1099
aVBRK-B
p1100
aVAPD
p1101
aVCME
p1102
aVLLL
p1103
aVORLY
p1104
aVTRV
p1105
aVNEE
p1106
aVPEP
p1107
aVBCR
p1108
aVUPS
p1109
aVADS
p1110
aVILMN
p1111
aVCLX
p1112
aVHON
p1113
aVUTX
p1114
aVMCD
p1115
asS'05242016'
p1116
(lp1117
VGS
p1118
aVBRK-B
p1119
aVHD
p1120
aVPEP
p1121
aVZBH
p1122
asS'08052016'
p1123
(lp1124
VGS
p1125
aVBRK-B
p1126
aVSNA
p1127
aVSYK
p1128
aVCME
p1129
aVCTAS
p1130
aVFDX
p1131
aVLLL
p1132
aVEFX
p1133
aVORLY
p1134
aVPSA
p1135
aVKMB
p1136
aVZBH
p1137
aVIBM
p1138
aVBIIB
p1139
aVGPC
p1140
asS'01052016'
p1141
(lp1142
VGS
p1143
aVEFX
p1144
aVORLY
p1145
aVACN
p1146
aVCOST
p1147
asS'03172016'
p1148
(lp1149
VBA
p1150
aVREGN
p1151
aVACN
p1152
aVFRT
p1153
aVALXN
p1154
asS'01122017'
p1155
(lp1156
VBA
p1157
aVHAR
p1158
aVBRK-B
p1159
aVAPD
p1160
aVIFF
p1161
aVFDX
p1162
aVPX
p1163
aVRTN
p1164
aVEFX
p1165
aVNOC
p1166
aVCOST
p1167
aVTMO
p1168
aVADP
p1169
aVCB
p1170
aVSWK
p1171
aVIBM
p1172
aVDE
p1173
aVSTZ
p1174
aVMCD
p1175
asS'07072016'
p1176
(lp1177
VUHS
p1178
aVAYI
p1179
aVAVGO
p1180
aVPM
p1181
aVMON
p1182
aVACN
p1183
aVUPS
p1184
aVAAP
p1185
aVBIIB
p1186
aVSRE
p1187
aVGOOG
p1188
asS'04222016'
p1189
(lp1190
VBLK
p1191
aVTRV
p1192
aVPSA
p1193
aVUHS
p1194
aVAVB
p1195
aVPEP
p1196
aVACN
p1197
aVLMT
p1198
asS'06302016'
p1199
(lp1200
VUHS
p1201
aVGS
p1202
aVBRK-B
p1203
aVSNA
p1204
aVSYK
p1205
aVBLK
p1206
aVPEP
p1207
aVACN
p1208
aVIBM
p1209
aVAYI
p1210
aVBIIB
p1211
aVGOOG
p1212
asS'01132016'
p1213
(lp1214
VAGN
p1215
aVBA
p1216
aVGS
p1217
aVORLY
p1218
asS'05092016'
p1219
(lp1220
VBRK-B
p1221
aVSNA
p1222
aVLLL
p1223
aVTRV
p1224
aVPEP
p1225
aVACN
p1226
aVLMT
p1227
asS'10282016'
p1228
(lp1229
VGS
p1230
aVBRK-B
p1231
aVJNJ
p1232
aVMA
p1233
aVNOC
p1234
aVPEP
p1235
aVCLX
p1236
aVIBM
p1237
aVCVX
p1238
aVSTZ
p1239
asS'02012016'
p1240
(lp1241
VGS
p1242
aVGOOGL
p1243
aVAZO
p1244
aVACN
p1245
aVREGN
p1246
aVORLY
p1247
aVLH
p1248
asS'10072016'
p1249
(lp1250
VBRK-B
p1251
aVSNA
p1252
aVJNJ
p1253
aVAPD
p1254
aVFDX
p1255
aVLLL
p1256
aVMA
p1257
aVNEE
p1258
aVPEP
p1259
aVADS
p1260
aVILMN
p1261
aVIBM
p1262
aVCVX
p1263
aVPPG
p1264
aVUTX
p1265
aVMCD
p1266
asS'01042017'
p1267
(lp1268
VBA
p1269
aVSJM
p1270
aVAON
p1271
aVPRU
p1272
aVAMGN
p1273
aVHAR
p1274
aVBRK-B
p1275
aVAPD
p1276
aVIFF
p1277
aVPX
p1278
aVEFX
p1279
aVMA
p1280
aVNOC
p1281
aVCOST
p1282
aVZBH
p1283
aVCB
p1284
aVIBM
p1285
aVUTX
p1286
aVSLG
p1287
aVSTZ
p1288
aVMCD
p1289
aVPNC
p1290
asS'10062016'
p1291
(lp1292
VBRK-B
p1293
aVAPD
p1294
aVFDX
p1295
aVPCLN
p1296
aVLLL
p1297
aVMA
p1298
aVNEE
p1299
aVPEP
p1300
aVUPS
p1301
aVILMN
p1302
aVIBM
p1303
aVCVX
p1304
aVUTX
p1305
asS'11302016'
p1306
(lp1307
VBA
p1308
aVBRK-B
p1309
aVJNJ
p1310
aVAPD
p1311
aVCME
p1312
aVIFF
p1313
aVFDX
p1314
aVLLL
p1315
aVSHW
p1316
aVBDX
p1317
aVMA
p1318
aVNOC
p1319
aVPEP
p1320
aVZBH
p1321
aVWHR
p1322
aVROK
p1323
aVMCD
p1324
asS'07142016'
p1325
(lp1326
VGOOGL
p1327
aVGS
p1328
aVHD
p1329
aVLLL
p1330
aVPM
p1331
aVZBH
p1332
aVSRE
p1333
aVGPC
p1334
aVMCD
p1335
asS'08102016'
p1336
(lp1337
VBRK-B
p1338
aVSNA
p1339
aVSYK
p1340
aVAPD
p1341
aVCTAS
p1342
aVUNH
p1343
aVIBM
p1344
aVGPC
p1345
asS'12142016'
p1346
(lp1347
VBA
p1348
aVSJM
p1349
aVAON
p1350
aVAMGN
p1351
aVBRK-B
p1352
aVAPD
p1353
aVCMG
p1354
aVFDX
p1355
aVHD
p1356
aVPX
p1357
aVEFX
p1358
aVTRV
p1359
aVMA
p1360
aVNOC
p1361
aVNEE
p1362
aVPEP
p1363
aVZBH
p1364
aVCB
p1365
aVIBM
p1366
aVMCD
p1367
asS'12142015'
p1368
(lp1369
VBA
p1370
aVGS
p1371
aVORLY
p1372
aVEW
p1373
aVACN
p1374
aVCOST
p1375
asS'05202016'
p1376
(lp1377
VGOOGL
p1378
aVBRK-B
p1379
aVTRV
p1380
aVPEP
p1381
aVACN
p1382
aVZBH
p1383
aVIBM
p1384
asS'07122016'
p1385
(lp1386
VBRK-B
p1387
aVSNA
p1388
aVHD
p1389
aVLLL
p1390
aVZBH
p1391
aVWHR
p1392
aVAAP
p1393
aVPPG
p1394
aVSRE
p1395
asS'11142016'
p1396
(lp1397
VGS
p1398
aVBRK-B
p1399
aVJNJ
p1400
aVLLL
p1401
aVMA
p1402
aVNOC
p1403
aVPEP
p1404
aVCOST
p1405
aVZBH
p1406
aVUPS
p1407
aVCB
p1408
aVIBM
p1409
aVUTX
p1410
aVMCK
p1411
asS'03182016'
p1412
(lp1413
VBA
p1414
aVBRK-B
p1415
aVREGN
p1416
aVACN
p1417
aVFRT
p1418
asS'12152016'
p1419
(lp1420
VBA
p1421
aVSJM
p1422
aVAON
p1423
aVHSY
p1424
aVBRK-B
p1425
aVAPD
p1426
aVCME
p1427
aVFDX
p1428
aVHD
p1429
aVPX
p1430
aVTRV
p1431
aVNOC
p1432
aVNEE
p1433
aVPEP
p1434
aVIBM
p1435
aVSTZ
p1436
aVSPGI
p1437
asS'11232016'
p1438
(lp1439
VBA
p1440
aVSJM
p1441
aVBRK-B
p1442
aVJNJ
p1443
aVIFF
p1444
aVLLL
p1445
aVTRV
p1446
aVMA
p1447
aVNOC
p1448
aVNEE
p1449
aVPEP
p1450
aVCB
p1451
aVCLX
p1452
aVIBM
p1453
aVROK
p1454
aVUTX
p1455
aVMCD
p1456
asS'12152015'
p1457
(lp1458
VGS
p1459
aVTSO
p1460
aVSHW
p1461
aVORLY
p1462
aVEW
p1463
aVACN
p1464
aVCOST
p1465
asS'07202016'
p1466
(lp1467
VGOOGL
p1468
aVGS
p1469
aVBRK-B
p1470
aVTDG
p1471
aVCME
p1472
aVHD
p1473
aVPCLN
p1474
aVLLL
p1475
aVPSA
p1476
aVPEP
p1477
aVZBH
p1478
aVUNH
p1479
aVIBM
p1480
aVPPG
p1481
aVMNST
p1482
aVGPC
p1483
asS'03282016'
p1484
(lp1485
VBA
p1486
aVSHW
p1487
aVACN
p1488
aVWAT
p1489
aVALXN
p1490
asS'01192017'
p1491
(lp1492
VBA
p1493
aVPRU
p1494
aVBRK-B
p1495
aVAPD
p1496
aVIFF
p1497
aVPCLN
p1498
aVEFX
p1499
aVBDX
p1500
aVNOC
p1501
aVADP
p1502
aVCB
p1503
aVSWK
p1504
aVIBM
p1505
aVUTX
p1506
aVSTZ
p1507
aVMCD
p1508
asS'04012016'
p1509
(lp1510
VCMG
p1511
aVAMT
p1512
aVSHW
p1513
aVBDX
p1514
aVAVB
p1515
aVACN
p1516
aVFRT
p1517
aVAYI
p1518
asS'11282016'
p1519
(lp1520
VBA
p1521
aVBRK-B
p1522
aVJNJ
p1523
aVIFF
p1524
aVFDX
p1525
aVLLL
p1526
aVSHW
p1527
aVTRV
p1528
aVMA
p1529
aVNOC
p1530
aVNEE
p1531
aVPEP
p1532
aVZBH
p1533
aVCB
p1534
aVIBM
p1535
aVROK
p1536
aVSTZ
p1537
aVMCD
p1538
asS'02052016'
p1539
(lp1540
VGOOGL
p1541
aVHSIC
p1542
aVGS
p1543
aVLLL
p1544
aVORLY
p1545
aVACN
p1546
aVAZO
p1547
aVMNST
p1548
asS'02222016'
p1549
(lp1550
VGS
p1551
aVORLY
p1552
aVFRT
p1553
aVWAT
p1554
aVLMT
p1555
aVAZO
p1556
aVAYI
p1557
asS'11112016'
p1558
(lp1559
VBA
p1560
aVSJM
p1561
aVGS
p1562
aVBRK-B
p1563
aVJNJ
p1564
aVHD
p1565
aVTRV
p1566
aVMA
p1567
aVNOC
p1568
aVPEP
p1569
aVCOST
p1570
aVZBH
p1571
aVUPS
p1572
aVWHR
p1573
aVCB
p1574
aVILMN
p1575
aVIBM
p1576
aVUTX
p1577
aVSTZ
p1578
asS'12092016'
p1579
(lp1580
VBA
p1581
aVSJM
p1582
aVAMGN
p1583
aVBRK-B
p1584
aVJNJ
p1585
aVAPD
p1586
aVCMG
p1587
aVFDX
p1588
aVLLL
p1589
aVEFX
p1590
aVSHW
p1591
aVBDX
p1592
aVTRV
p1593
aVNOC
p1594
aVPEP
p1595
aVIBM
p1596
aVDE
p1597
aVSTZ
p1598
asS'12162015'
p1599
(lp1600
VGS
p1601
aVSHW
p1602
aVORLY
p1603
aVACN
p1604
aVCOST
p1605
asS'04252016'
p1606
(lp1607
VAMT
p1608
aVTRV
p1609
aVUHS
p1610
aVPEP
p1611
aVACN
p1612
aVLMT
p1613
aVSRE
p1614
asS'06272016'
p1615
(lp1616
VBRK-B
p1617
aVSNA
p1618
aVSYK
p1619
aVAYI
p1620
aVTRV
p1621
aVPEP
p1622
aVACN
p1623
asS'03022016'
p1624
(lp1625
VGOOGL
p1626
aVHSIC
p1627
aVLLL
p1628
aVKMB
p1629
aVACN
p1630
aVFRT
p1631
aVLMT
p1632
asS'11222016'
p1633
(lp1634
VSJM
p1635
aVBRK-B
p1636
aVJNJ
p1637
aVCME
p1638
aVMA
p1639
aVNOC
p1640
aVPEP
p1641
aVZBH
p1642
aVIBM
p1643
aVROK
p1644
aVUTX
p1645
aVMCD
p1646
asS'01282016'
p1647
(lp1648
VAGN
p1649
aVHSIC
p1650
aVGS
p1651
aVORLY
p1652
aVACN
p1653
aVFRT
p1654
aVAZO
p1655
aVLH
p1656
aVSTZ
p1657
asS'12082016'
p1658
(lp1659
VBA
p1660
aVSJM
p1661
aVAON
p1662
aVAMGN
p1663
aVBRK-B
p1664
aVAPD
p1665
aVCMG
p1666
aVCME
p1667
aVFDX
p1668
aVPX
p1669
aVLLL
p1670
aVEFX
p1671
aVBDX
p1672
aVTRV
p1673
aVMA
p1674
aVNOC
p1675
aVNEE
p1676
aVPEP
p1677
aVCOST
p1678
aVDNB
p1679
aVCB
p1680
aVIBM
p1681
aVSTZ
p1682
aVSPGI
p1683
asS'01052017'
p1684
(lp1685
VAON
p1686
aVPRU
p1687
aVGS
p1688
aVAMGN
p1689
aVHAR
p1690
aVBRK-B
p1691
aVAPD
p1692
aVIFF
p1693
aVPX
p1694
aVRTN
p1695
aVEFX
p1696
aVNOC
p1697
aVCOST
p1698
aVZBH
p1699
aVCB
p1700
aVSWK
p1701
aVIBM
p1702
aVSTZ
p1703
aVMCD
p1704
asS'05192016'
p1705
(lp1706
VGOOGL
p1707
aVBRK-B
p1708
aVFDX
p1709
aVTRV
p1710
aVPEP
p1711
aVACN
p1712
aVIBM
p1713
asS'08162016'
p1714
(lp1715
VBRK-B
p1716
aVCME
p1717
aVAYI
p1718
aVCTAS
p1719
aVHD
p1720
aVADS
p1721
aVMMM
p1722
aVIBM
p1723
aVGOOG
p1724
aVGPC
p1725
asS'03042016'
p1726
(lp1727
VHSIC
p1728
aVGS
p1729
aVACN
p1730
aVALXN
p1731
asS'07082016'
p1732
(lp1733
VBRK-B
p1734
aVHD
p1735
aVPM
p1736
aVUHS
p1737
aVACN
p1738
aVMKC
p1739
aVAAP
p1740
asS'09232016'
p1741
(lp1742
VBRK-B
p1743
aVAPD
p1744
aVORLY
p1745
aVTRV
p1746
aVMA
p1747
aVUPS
p1748
aVILMN
p1749
aVCLX
p1750
aVAYI
p1751
aVUTX
p1752
asS'01202017'
p1753
(lp1754
VBA
p1755
aVBRK-B
p1756
aVAPD
p1757
aVNOC
p1758
aVADP
p1759
aVCB
p1760
aVSWK
p1761
aVIBM
p1762
aVDE
p1763
aVSTZ
p1764
aVMCD
p1765
asS'10252016'
p1766
(lp1767
VGS
p1768
aVBRK-B
p1769
aVJNJ
p1770
aVAPD
p1771
aVLLL
p1772
aVSHW
p1773
aVTRV
p1774
aVMA
p1775
aVNOC
p1776
aVPEP
p1777
aVCLX
p1778
aVIBM
p1779
aVSTZ
p1780
asS'10122016'
p1781
(lp1782
VBRK-B
p1783
aVAPD
p1784
aVFDX
p1785
aVPCLN
p1786
aVLLL
p1787
aVORLY
p1788
aVMA
p1789
aVPEP
p1790
aVILMN
p1791
aVIBM
p1792
aVAYI
p1793
aVMCD
p1794
asS'12292016'
p1795
(lp1796
VBA
p1797
aVAON
p1798
aVPRU
p1799
aVAMGN
p1800
aVBRK-B
p1801
aVAPD
p1802
aVHD
p1803
aVPX
p1804
aVEFX
p1805
aVSHW
p1806
aVNOC
p1807
aVCOST
p1808
aVZBH
p1809
aVUNP
p1810
aVCB
p1811
aVIBM
p1812
aVDE
p1813
aVDIS
p1814
aVMTB
p1815
aVSTZ
p1816
aVMCD
p1817
asS'02162016'
p1818
(lp1819
VGS
p1820
aVFB
p1821
aVORLY
p1822
aVFRT
p1823
aVLMT
p1824
asS'08022016'
p1825
(lp1826
VAON
p1827
aVGS
p1828
aVBRK-B
p1829
aVSNA
p1830
aVSYK
p1831
aVAPD
p1832
aVCME
p1833
aVCTAS
p1834
aVHD
p1835
aVLLL
p1836
aVPM
p1837
aVORLY
p1838
aVTRV
p1839
aVIBM
p1840
aVISRG
p1841
asS'06142016'
p1842
(lp1843
VGOOGL
p1844
aVGS
p1845
aVBRK-B
p1846
aVMON
p1847
aVACN
p1848
aVFRT
p1849
aVIBM
p1850
aVPPG
p1851
aVBIIB
p1852
asS'03102016'
p1853
(lp1854
VPSA
p1855
aVAVB
p1856
aVKMB
p1857
aVACN
p1858
aVFB
p1859
asS'08252016'
p1860
(lp1861
VBRK-B
p1862
aVCME
p1863
aVFDX
p1864
aVCOST
p1865
aVZBH
p1866
aVCLX
p1867
aVADBE
p1868
aVIBM
p1869
aVAYI
p1870
aVGOOG
p1871
aVUTX
p1872
asS'07012016'
p1873
(lp1874
VGS
p1875
aVBRK-B
p1876
aVSNA
p1877
aVSYK
p1878
aVBLK
p1879
aVMON
p1880
aVPEP
p1881
aVACN
p1882
aVIBM
p1883
aVBIIB
p1884
aVGOOG
p1885
asS'03162016'
p1886
(lp1887
VBA
p1888
aVREGN
p1889
aVAVB
p1890
aVKMB
p1891
aVACN
p1892
aVFRT
p1893
aVWAT
p1894
asS'06212016'
p1895
(lp1896
VUHS
p1897
aVGOOGL
p1898
aVGS
p1899
aVBRK-B
p1900
aVHD
p1901
aVORLY
p1902
aVTRV
p1903
aVPSA
p1904
aVMON
p1905
aVACN
p1906
aVBCR
p1907
aVAYI
p1908
aVBIIB
p1909
asS'10212016'
p1910
(lp1911
VGS
p1912
aVGD
p1913
aVBRK-B
p1914
aVJNJ
p1915
aVAPD
p1916
aVCME
p1917
aVLLL
p1918
aVTRV
p1919
aVMA
p1920
aVNOC
p1921
aVPEP
p1922
aVIBM
p1923
aVGOOG
p1924
aVSTZ
p1925
asS'11082016'
p1926
(lp1927
VBRK-B
p1928
aVJNJ
p1929
aVIFF
p1930
aVROK
p1931
aVPX
p1932
aVPCLN
p1933
aVLLL
p1934
aVMA
p1935
aVNOC
p1936
aVPEP
p1937
aVILMN
p1938
aVIBM
p1939
aVUTX
p1940
asS'05132016'
p1941
(lp1942
VAON
p1943
aVBRK-B
p1944
aVTRV
p1945
aVPEP
p1946
aVACN
p1947
aVAYI
p1948
asS'11092016'
p1949
(lp1950
VSJM
p1951
aVGS
p1952
aVBRK-B
p1953
aVJNJ
p1954
aVAPD
p1955
aVIFF
p1956
aVROK
p1957
aVPX
p1958
aVLLL
p1959
aVMA
p1960
aVNOC
p1961
aVPEP
p1962
aVCOST
p1963
aVILMN
p1964
aVIBM
p1965
aVUTX
p1966
asS'04122016'
p1967
(lp1968
VBA
p1969
aVGS
p1970
aVHUM
p1971
aVPM
p1972
aVORLY
p1973
aVTRV
p1974
aVAVB
p1975
aVACN
p1976
aVCOST
p1977
aVFRT
p1978
asS'02122016'
p1979
(lp1980
VGS
p1981
aVAZO
p1982
aVFB
p1983
aVLLL
p1984
aVORLY
p1985
aVLMT
p1986
asS'03112016'
p1987
(lp1988
VLLL
p1989
aVUHS
p1990
aVKMB
p1991
aVACN
p1992
aVFB
p1993
aVWAT
p1994
asS'06132016'
p1995
(lp1996
VGOOGL
p1997
aVGS
p1998
aVBRK-B
p1999
aVHD
p2000
aVORLY
p2001
aVMON
p2002
aVACN
p2003
aVCOST
p2004
aVFRT
p2005
asS'12032015'
p2006
(lp2007
VGS
p2008
aVAMT
p2009
aVSHW
p2010
aVORLY
p2011
aVEW
p2012
aVAVB
p2013
aVACN
p2014
aVCOST
p2015
aVNKE
p2016
asS'06152016'
p2017
(lp2018
VGOOGL
p2019
aVGS
p2020
aVBRK-B
p2021
aVHD
p2022
aVTRV
p2023
aVMON
p2024
aVACN
p2025
asS'08182016'
p2026
(lp2027
VAON
p2028
aVBRK-B
p2029
aVAPD
p2030
aVFDX
p2031
aVNEE
p2032
aVCOST
p2033
aVZBH
p2034
aVUPS
p2035
aVADS
p2036
aVUNH
p2037
aVIBM
p2038
aVAYI
p2039
aVBIIB
p2040
aVGOOG
p2041
aVUTX
p2042
asS'01182017'
p2043
(lp2044
VBA
p2045
aVGS
p2046
aVBRK-B
p2047
aVAPD
p2048
aVIFF
p2049
aVFDX
p2050
aVBDX
p2051
aVNOC
p2052
aVZBH
p2053
aVCB
p2054
aVSWK
p2055
aVIBM
p2056
aVDE
p2057
aVUTX
p2058
aVSTZ
p2059
aVMCD
p2060
asS'04062016'
p2061
(lp2062
VBA
p2063
aVSNA
p2064
aVSHW
p2065
aVTRV
p2066
aVPSA
p2067
aVAVB
p2068
aVKMB
p2069
aVPEP
p2070
aVACN
p2071
asS'06032016'
p2072
(lp2073
VGOOGL
p2074
aVBRK-B
p2075
aVSNA
p2076
aVPEP
p2077
aVACN
p2078
aVANTM
p2079
asS'09272016'
p2080
(lp2081
VGS
p2082
aVBRK-B
p2083
aVAPD
p2084
aVCME
p2085
aVPCLN
p2086
aVLLL
p2087
aVMA
p2088
aVPEP
p2089
aVUPS
p2090
aVAYI
p2091
aVPPG
p2092
aVUTX
p2093
asS'10202016'
p2094
(lp2095
VGD
p2096
aVBRK-B
p2097
aVJNJ
p2098
aVAPD
p2099
aVCME
p2100
aVLLL
p2101
aVTRV
p2102
aVMA
p2103
aVNOC
p2104
aVPEP
p2105
aVZBH
p2106
aVGOOG
p2107
aVSTZ
p2108
asS'08302016'
p2109
(lp2110
VBRK-B
p2111
aVCME
p2112
aVTRV
p2113
aVCOST
p2114
aVZBH
p2115
aVUPS
p2116
aVCLX
p2117
aVADBE
p2118
aVIBM
p2119
aVAYI
p2120
aVGOOG
p2121
aVUTX
p2122
asS'12312015'
p2123
(lp2124
VGS
p2125
aVPCLN
p2126
aVEFX
p2127
aVORLY
p2128
aVNOC
p2129
aVACN
p2130
aVCOST
p2131
aVBF-B
p2132
asS'08232016'
p2133
(lp2134
VSJM
p2135
aVBRK-B
p2136
aVSNA
p2137
aVCME
p2138
aVCOST
p2139
aVZBH
p2140
aVADS
p2141
aVCLX
p2142
aVIBM
p2143
aVGOOG
p2144
aVMCO
p2145
asS'03312016'
p2146
(lp2147
VBA
p2148
aVCMG
p2149
aVBDX
p2150
aVAVB
p2151
aVACN
p2152
aVFRT
p2153
aVAYI
p2154
aVESS
p2155
asS'03292016'
p2156
(lp2157
VBA
p2158
aVAMT
p2159
aVBDX
p2160
aVPSA
p2161
aVACN
p2162
aVFRT
p2163
asS'11172016'
p2164
(lp2165
VBRK-B
p2166
aVJNJ
p2167
aVAPD
p2168
aVLLL
p2169
aVMA
p2170
aVNOC
p2171
aVPEP
p2172
aVBCR
p2173
aVUPS
p2174
aVIBM
p2175
aVMCD
p2176
asS'02102017'
p2177
(lp2178
VSJM
p2179
aVAMGN
p2180
aVHAR
p2181
aVBRK-B
p2182
aVJNJ
p2183
aVPM
p2184
aVAPD
p2185
aVIFF
p2186
aVCTAS
p2187
aVFDX
p2188
aVPX
p2189
aVAMG
p2190
aVEFX
p2191
aVWHR
p2192
aVUNP
p2193
aVCB
p2194
aVLMT
p2195
aVITW
p2196
aVNVDA
p2197
aVSWK
p2198
aVBXP
p2199
aVDE
p2200
aVMTB
p2201
aVMCD
p2202
asS'05032016'
p2203
(lp2204
VGWW
p2205
aVTRV
p2206
aVPEP
p2207
aVACN
p2208
asS'05262016'
p2209
(lp2210
VGOOGL
p2211
aVBRK-B
p2212
aVHD
p2213
aVPEP
p2214
aVACN
p2215
aVZBH
p2216
aVFRT
p2217
asS'07252016'
p2218
(lp2219
VGS
p2220
aVBRK-B
p2221
aVCTAS
p2222
aVFDX
p2223
aVHD
p2224
aVKMB
p2225
aVIBM
p2226
aVAYI
p2227
aVPPG
p2228
aVMNST
p2229
asS'08112016'
p2230
(lp2231
VGS
p2232
aVBRK-B
p2233
aVCTAS
p2234
aVPCLN
p2235
aVLLL
p2236
aVUPS
p2237
aVIBM
p2238
aVMNST
p2239
aVCELG
p2240
aVUTX
p2241
asS'02182016'
p2242
(lp2243
VGS
p2244
aVAET
p2245
aVLMT
p2246
aVORLY
p2247
aVFRT
p2248
aVAZO
p2249
aVMNST
p2250
asS'01192016'
p2251
(lp2252
VAGN
p2253
aVGS
p2254
aVORLY
p2255
aVACN
p2256
aVCOST
p2257
aVLH
p2258
aVSTZ
p2259
asS'04112016'
p2260
(lp2261
VBA
p2262
aVGS
p2263
aVREGN
p2264
aVPM
p2265
aVORLY
p2266
aVTRV
p2267
aVAVB
p2268
aVPEP
p2269
aVACN
p2270
aVCOST
p2271
aVFRT
p2272
asS'03032016'
p2273
(lp2274
VGOOGL
p2275
aVHSIC
p2276
aVULTA
p2277
aVKMB
p2278
aVACN
p2279
asS'04212016'
p2280
(lp2281
VAMT
p2282
aVTRV
p2283
aVAVB
p2284
aVPEP
p2285
aVACN
p2286
aVCOST
p2287
aVAYI
p2288
asS'10132016'
p2289
(lp2290
VBRK-B
p2291
aVAPD
p2292
aVFDX
p2293
aVLLL
p2294
aVORLY
p2295
aVTRV
p2296
aVMA
p2297
aVPEP
p2298
aVADS
p2299
aVILMN
p2300
aVIBM
p2301
aVAYI
p2302
aVSTZ
p2303
aVMCD
p2304
asS'07182016'
p2305
(lp2306
VGOOGL
p2307
aVGS
p2308
aVBRK-B
p2309
aVHD
p2310
aVLLL
p2311
aVZBH
p2312
aVUNH
p2313
aVMMM
p2314
aVIBM
p2315
aVPPG
p2316
aVGPC
p2317
asS'06062016'
p2318
(lp2319
VGOOGL
p2320
aVBRK-B
p2321
aVPCLN
p2322
aVPEP
p2323
aVACN
p2324
aVCOST
p2325
asS'12042015'
p2326
(lp2327
VGS
p2328
aVSHW
p2329
aVORLY
p2330
aVAVB
p2331
aVACN
p2332
aVDNB
p2333
asS'08042016'
p2334
(lp2335
VAON
p2336
aVGS
p2337
aVBRK-B
p2338
aVSYK
p2339
aVJNJ
p2340
aVCME
p2341
aVCTAS
p2342
aVFDX
p2343
aVHD
p2344
aVLLL
p2345
aVORLY
p2346
aVTRV
p2347
aVKMB
p2348
aVZBH
p2349
aVIBM
p2350
aVGPC
p2351
asS'05042016'
p2352
(lp2353
VTRV
p2354
aVPEP
p2355
aVWAT
p2356
aVLMT
p2357
asS'03222016'
p2358
(lp2359
VBA
p2360
aVBRK-B
p2361
aVPSA
p2362
aVACN
p2363
aVFRT
p2364
aVESS
p2365
asS'01272017'
p2366
(lp2367
VBA
p2368
aVAON
p2369
aVHAR
p2370
aVBRK-B
p2371
aVAPD
p2372
aVCME
p2373
aVIFF
p2374
aVFDX
p2375
aVPX
p2376
aVRTN
p2377
aVPCLN
p2378
aVAMT
p2379
aVEFX
p2380
aVNEE
p2381
aVADP
p2382
aVCB
p2383
aVDE
p2384
aVROK
p2385
aVMTB
p2386
aVUTX
p2387
aVMCD
p2388
asS'01272016'
p2389
(lp2390
VAGN
p2391
aVBA
p2392
aVGOOGL
p2393
aVGS
p2394
aVORLY
p2395
aVACN
p2396
aVLMT
p2397
aVLH
p2398
aVSTZ
p2399
asS'01222016'
p2400
(lp2401
VAGN
p2402
aVLMT
p2403
aVORLY
p2404
aVHSIC
p2405
aVLH
p2406
asS'09022016'
p2407
(lp2408
VGS
p2409
aVGD
p2410
aVBRK-B
p2411
aVCME
p2412
aVFDX
p2413
aVPCLN
p2414
aVLLL
p2415
aVTRV
p2416
aVCOST
p2417
aVUPS
p2418
aVADS
p2419
aVCLX
p2420
aVADBE
p2421
aVIBM
p2422
aVAYI
p2423
aVMNST
p2424
aVUTX
p2425
asS'02262016'
p2426
(lp2427
VAGN
p2428
aVFRT
p2429
aVWAT
p2430
aVBF-B
p2431
aVAYI
p2432
aVLH
p2433
asS'02192016'
p2434
(lp2435
VGS
p2436
aVAET
p2437
aVLLL
p2438
aVORLY
p2439
aVFRT
p2440
aVWAT
p2441
aVLMT
p2442
aVAZO
p2443
asS'09262016'
p2444
(lp2445
VGS
p2446
aVBRK-B
p2447
aVJNJ
p2448
aVAPD
p2449
aVTRV
p2450
aVMA
p2451
aVUPS
p2452
aVILMN
p2453
aVCLX
p2454
aVAYI
p2455
aVPPG
p2456
aVUTX
p2457
aVMCD
p2458
asS'06102016'
p2459
(lp2460
VGS
p2461
aVBRK-B
p2462
aVMON
p2463
aVACN
p2464
aVCOST
p2465
aVFRT
p2466
aVLH
p2467
asS'09092016'
p2468
(lp2469
VGS
p2470
aVBRK-B
p2471
aVSYK
p2472
aVAPD
p2473
aVCME
p2474
aVLLL
p2475
aVEFX
p2476
aVCOST
p2477
aVUPS
p2478
aVCLX
p2479
aVADBE
p2480
aVIBM
p2481
aVAYI
p2482
aVMNST
p2483
aVUTX
p2484
asS'04152016'
p2485
(lp2486
VAGN
p2487
aVBA
p2488
aVBRK-B
p2489
aVAET
p2490
aVORLY
p2491
aVTRV
p2492
aVPSA
p2493
aVPEP
p2494
aVACN
p2495
aVFRT
p2496
aVESS
p2497
aVHON
p2498
asS'09212016'
p2499
(lp2500
VBRK-B
p2501
aVJNJ
p2502
aVAPD
p2503
aVCME
p2504
aVFDX
p2505
aVTRV
p2506
aVBCR
p2507
aVUPS
p2508
aVIBM
p2509
aVAYI
p2510
aVUTX
p2511
asS'01132017'
p2512
(lp2513
VBA
p2514
aVSJM
p2515
aVAON
p2516
aVPRU
p2517
aVHAR
p2518
aVBRK-B
p2519
aVAPD
p2520
aVIFF
p2521
aVEFX
p2522
aVNOC
p2523
aVADP
p2524
aVCB
p2525
aVSWK
p2526
aVIBM
p2527
aVDE
p2528
aVSTZ
p2529
asS'01242017'
p2530
(lp2531
VBA
p2532
aVAON
p2533
aVPRU
p2534
aVBRK-B
p2535
aVAPD
p2536
aVCMI
p2537
aVEFX
p2538
aVADP
p2539
aVSWK
p2540
aVDE
p2541
aVUTX
p2542
aVSTZ
p2543
aVMCD
p2544
asS'08312016'
p2545
(lp2546
VBRK-B
p2547
aVSYK
p2548
aVCME
p2549
aVFDX
p2550
aVCOST
p2551
aVCLX
p2552
aVADBE
p2553
aVIBM
p2554
aVAYI
p2555
asS'04272016'
p2556
(lp2557
VSNA
p2558
aVSHW
p2559
aVORLY
p2560
aVTRV
p2561
aVPEP
p2562
aVACN
p2563
aVSRE
p2564
asS'12052016'
p2565
(lp2566
VBA
p2567
aVSJM
p2568
aVBRK-B
p2569
aVJNJ
p2570
aVAPD
p2571
aVIFF
p2572
aVFDX
p2573
aVPX
p2574
aVLLL
p2575
aVEFX
p2576
aVSHW
p2577
aVTRV
p2578
aVMA
p2579
aVNOC
p2580
aVNEE
p2581
aVCB
p2582
aVIBM
p2583
aVMCD
p2584
aVSPGI
p2585
asS'06162016'
p2586
(lp2587
VGOOGL
p2588
aVGS
p2589
aVBRK-B
p2590
aVHD
p2591
aVBLK
p2592
aVTRV
p2593
aVACN
p2594
aVAYI
p2595
aVLH
p2596
asS'02252016'
p2597
(lp2598
VAGN
p2599
aVGD
p2600
aVEFX
p2601
aVFRT
p2602
aVBF-B
p2603
aVLH
p2604
asS'05122016'
p2605
(lp2606
VBRK-B
p2607
aVPM
p2608
aVTRV
p2609
aVPEP
p2610
aVSPG
p2611
aVAYI
p2612
asS'06222016'
p2613
(lp2614
VUHS
p2615
aVGOOGL
p2616
aVGS
p2617
aVBRK-B
p2618
aVSNA
p2619
aVHD
p2620
aVBLK
p2621
aVTRV
p2622
aVPSA
p2623
aVMON
p2624
aVKMB
p2625
aVACN
p2626
aVAYI
p2627
aVBIIB
p2628
asS'12132016'
p2629
(lp2630
VBA
p2631
aVSJM
p2632
aVEOG
p2633
aVAON
p2634
aVAMGN
p2635
aVBRK-B
p2636
aVAPD
p2637
aVCMG
p2638
aVFDX
p2639
aVHD
p2640
aVLLL
p2641
aVEFX
p2642
aVTRV
p2643
aVNOC
p2644
aVNEE
p2645
aVPEP
p2646
aVIBM
p2647
aVSTZ
p2648
aVMCD
p2649
asS'04132016'
p2650
(lp2651
VBA
p2652
aVGS
p2653
aVPM
p2654
aVTRV
p2655
aVPEP
p2656
aVACN
p2657
aVFRT
p2658
aVAYI
p2659
asS'05272016'
p2660
(lp2661
VGOOGL
p2662
aVBRK-B
p2663
aVMON
p2664
aVPEP
p2665
aVZBH
p2666
aVFRT
p2667
aVWAT
p2668
aVMMM
p2669
asS'11012016'
p2670
(lp2671
VGOOGL
p2672
aVHSY
p2673
aVBRK-B
p2674
aVJNJ
p2675
aVAPD
p2676
aVFDX
p2677
aVSHW
p2678
aVMA
p2679
aVNOC
p2680
aVPEP
p2681
aVILMN
p2682
aVIBM
p2683
aVSTZ
p2684
asS'08242016'
p2685
(lp2686
VBRK-B
p2687
aVSNA
p2688
aVCME
p2689
aVFDX
p2690
aVHD
p2691
aVZBH
p2692
aVIBM
p2693
aVAYI
p2694
aVPPG
p2695
aVBIIB
p2696
aVGOOG
p2697
asS'09302016'
p2698
(lp2699
VGS
p2700
aVBRK-B
p2701
aVAPD
p2702
aVLLL
p2703
aVTRV
p2704
aVPEP
p2705
aVUPS
p2706
aVADS
p2707
aVCLX
p2708
aVADBE
p2709
aVANTM
p2710
aVUTX
p2711
aVMCD
p2712
asS'01062016'
p2713
(lp2714
VBA
p2715
aVGS
p2716
aVEFX
p2717
aVORLY
p2718
aVACN
p2719
aVCOST
p2720
aVBCR
p2721
asS'06282016'
p2722
(lp2723
VGS
p2724
aVBRK-B
p2725
aVSNA
p2726
aVSYK
p2727
aVHD
p2728
aVORLY
p2729
aVBLK
p2730
aVTRV
p2731
aVPEP
p2732
aVACN
p2733
aVIBM
p2734
aVAYI
p2735
asS'11302015'
p2736
(lp2737
VBA
p2738
aVGOOGL
p2739
aVGS
p2740
aVSHW
p2741
aVORLY
p2742
aVEW
p2743
aVAVB
p2744
asS'09202016'
p2745
(lp2746
VBRK-B
p2747
aVJNJ
p2748
aVAPD
p2749
aVFDX
p2750
aVLLL
p2751
aVORLY
p2752
aVTRV
p2753
aVCOST
p2754
aVUPS
p2755
aVIBM
p2756
aVAYI
p2757
aVGOOG
p2758
aVUTX
p2759
asS'06242016'
p2760
(lp2761
VGS
p2762
aVBRK-B
p2763
aVAYI
p2764
aVHD
p2765
aVTRV
p2766
aVPEP
p2767
aVACN
p2768
aVIBM
p2769
asS'10262016'
p2770
(lp2771
VGOOGL
p2772
aVGS
p2773
aVBRK-B
p2774
aVJNJ
p2775
aVAPD
p2776
aVCME
p2777
aVLLL
p2778
aVTRV
p2779
aVMA
p2780
aVNEE
p2781
aVPEP
p2782
aVILMN
p2783
aVCLX
p2784
aVIBM
p2785
aVSRE
p2786
asS'03302016'
p2787
(lp2788
VBA
p2789
aVAMT
p2790
aVACN
p2791
aVFRT
p2792
aVAYI
p2793
asS'06072016'
p2794
(lp2795
VUHS
p2796
aVGS
p2797
aVBRK-B
p2798
aVPCLN
p2799
aVACN
p2800
aVCOST
p2801
asS'02022016'
p2802
(lp2803
VGOOGL
p2804
aVGS
p2805
aVREGN
p2806
aVEFX
p2807
aVORLY
p2808
aVACN
p2809
aVAZO
p2810
asS'07052016'
p2811
(lp2812
VGS
p2813
aVBRK-B
p2814
aVSNA
p2815
aVSYK
p2816
aVAYI
p2817
aVUPS
p2818
aVMON
p2819
aVACN
p2820
aVGOOG
p2821
asS'04082016'
p2822
(lp2823
VAGN
p2824
aVBA
p2825
aVPM
p2826
aVORLY
p2827
aVTRV
p2828
aVPEP
p2829
aVACN
p2830
aVFRT
p2831
asS'02042016'
p2832
(lp2833
VGOOGL
p2834
aVGS
p2835
aVREGN
p2836
aVLLL
p2837
aVORLY
p2838
aVACN
p2839
aVWAT
p2840
aVMNST
p2841
asS'08012016'
p2842
(lp2843
VGS
p2844
aVBRK-B
p2845
aVSNA
p2846
aVSYK
p2847
aVCME
p2848
aVCTAS
p2849
aVFDX
p2850
aVHD
p2851
aVLLL
p2852
aVZBH
p2853
aVIBM
p2854
aVPPG
p2855
asS'09012016'
p2856
(lp2857
VGS
p2858
aVBRK-B
p2859
aVSYK
p2860
aVCME
p2861
aVLLL
p2862
aVCOST
p2863
aVMKC
p2864
aVUPS
p2865
aVCLX
p2866
aVADBE
p2867
aVIBM
p2868
aVAYI
p2869
aVPPG
p2870
asS'05312016'
p2871
(lp2872
VGOOGL
p2873
aVBRK-B
p2874
aVPEP
p2875
aVACN
p2876
aVFRT
p2877
aVIBM
p2878
aVANTM
p2879
asS'01122016'
p2880
(lp2881
VAGN
p2882
aVBA
p2883
aVGS
p2884
aVORLY
p2885
aVMNST
p2886
asS'05252016'
p2887
(lp2888
VGS
p2889
aVBRK-B
p2890
aVFDX
p2891
aVHD
p2892
aVPEP
p2893
aVFRT
p2894
asS'10112016'
p2895
(lp2896
VBRK-B
p2897
aVSNA
p2898
aVAPD
p2899
aVFDX
p2900
aVLLL
p2901
aVTRV
p2902
aVMA
p2903
aVNOC
p2904
aVPEP
p2905
aVUPS
p2906
aVILMN
p2907
aVIBM
p2908
aVCVX
p2909
aVUTX
p2910
aVMCD
p2911
asS'01232017'
p2912
(lp2913
VBA
p2914
aVAMZN
p2915
aVAON
p2916
aVBRK-B
p2917
aVAPD
p2918
aVIFF
p2919
aVNOC
p2920
aVCB
p2921
aVSWK
p2922
aVIBM
p2923
aVDE
p2924
aVSTZ
p2925
aVMCD
p2926
asS'01172017'
p2927
(lp2928
VBA
p2929
aVPRU
p2930
aVHAR
p2931
aVBRK-B
p2932
aVAPD
p2933
aVIFF
p2934
aVFDX
p2935
aVEFX
p2936
aVBDX
p2937
aVNOC
p2938
aVCB
p2939
aVSWK
p2940
aVIBM
p2941
aVDE
p2942
aVUTX
p2943
aVSTZ
p2944
asS'01252017'
p2945
(lp2946
VBA
p2947
aVAON
p2948
aVHAR
p2949
aVBRK-B
p2950
aVAPD
p2951
aVHD
p2952
aVEFX
p2953
aVADP
p2954
aVCB
p2955
aVITW
p2956
aVSWK
p2957
aVDE
p2958
aVLH
p2959
aVUTX
p2960
aVSTZ
p2961
aVMCD
p2962
asS'01252016'
p2963
(lp2964
VAGN
p2965
aVGOOGL
p2966
aVLMT
p2967
aVORLY
p2968
aVHSIC
p2969
aVLH
p2970
asS'12282016'
p2971
(lp2972
VBA
p2973
aVAON
p2974
aVPRU
p2975
aVGS
p2976
aVAMGN
p2977
aVHAR
p2978
aVBRK-B
p2979
aVAPD
p2980
aVIFF
p2981
aVFDX
p2982
aVHD
p2983
aVPX
p2984
aVRTN
p2985
aVEFX
p2986
aVBDX
p2987
aVNOC
p2988
aVCOST
p2989
aVZBH
p2990
aVCB
p2991
aVCLX
p2992
aVIBM
p2993
aVDE
p2994
aVDIS
p2995
aVGOOG
p2996
aVMTB
p2997
aVSTZ
p2998
aVMCD
p2999
asS'04282016'
p3000
(lp3001
VSNA
p3002
aVHD
p3003
aVAMT
p3004
aVTRV
p3005
aVPEP
p3006
aVACN
p3007
aVLMT
p3008
aVAYI
p3009
asS'02102016'
p3010
(lp3011
VGS
p3012
aVAZO
p3013
aVLLL
p3014
aVORLY
p3015
aVICE
p3016
aVFRT
p3017
aVWAT
p3018
aVLMT
p3019
asS'12282015'
p3020
(lp3021
VBA
p3022
aVTSO
p3023
aVORLY
p3024
aVAVB
p3025
aVACN
p3026
aVCOST
p3027
aVBF-B
p3028
asS'01112016'
p3029
(lp3030
VBA
p3031
aVGS
p3032
aVORLY
p3033
aVCOST
p3034
aVMNST
p3035
aVMCD
p3036
asS'01112017'
p3037
(lp3038
VBA
p3039
aVPRU
p3040
aVHAR
p3041
aVBRK-B
p3042
aVAPD
p3043
aVFDX
p3044
aVPX
p3045
aVRTN
p3046
aVEFX
p3047
aVNOC
p3048
aVNEE
p3049
aVCOST
p3050
aVZBH
p3051
aVTMO
p3052
aVCB
p3053
aVSWK
p3054
aVIBM
p3055
aVAAP
p3056
aVCELG
p3057
aVSTZ
p3058
aVMCD
p3059
asS'04072016'
p3060
(lp3061
VAGN
p3062
aVSHW
p3063
aVORLY
p3064
aVTRV
p3065
aVAVB
p3066
aVPEP
p3067
aVACN
p3068
aVCOST
p3069
aVFRT
p3070
aVLMT
p3071
aVMNST
p3072
asS'07282016'
p3073
(lp3074
VGD
p3075
aVBRK-B
p3076
aVSNA
p3077
aVSYK
p3078
aVCTAS
p3079
aVHD
p3080
aVZBH
p3081
aVIBM
p3082
aVGOOG
p3083
asS'10042016'
p3084
(lp3085
VBRK-B
p3086
aVJNJ
p3087
aVAPD
p3088
aVLLL
p3089
aVORLY
p3090
aVPEP
p3091
aVUPS
p3092
aVADBE
p3093
aVUTX
p3094
asS'09072016'
p3095
(lp3096
VGS
p3097
aVGD
p3098
aVBRK-B
p3099
aVAPD
p3100
aVCME
p3101
aVLLL
p3102
aVCOST
p3103
aVFISV
p3104
aVZBH
p3105
aVUPS
p3106
aVADBE
p3107
aVIBM
p3108
aVAYI
p3109
aVMNST
p3110
aVUTX
p3111
asS'05052016'
p3112
(lp3113
VBRK-B
p3114
aVLLL
p3115
aVTRV
p3116
aVPEP
p3117
aVACN
p3118
aVLMT
p3119
aVSPG
p3120
asS'11182016'
p3121
(lp3122
VSJM
p3123
aVBRK-B
p3124
aVJNJ
p3125
aVAPD
p3126
aVAET
p3127
aVCME
p3128
aVIFF
p3129
aVFFIV
p3130
aVTRV
p3131
aVMA
p3132
aVNOC
p3133
aVPEP
p3134
aVCB
p3135
aVIBM
p3136
aVROK
p3137
aVMCD
p3138
asS'03092016'
p3139
(lp3140
VAGN
p3141
aVGS
p3142
aVPSA
p3143
aVACN
p3144
aVFB
p3145
asS'08152016'
p3146
(lp3147
VBRK-B
p3148
aVCME
p3149
aVCTAS
p3150
aVHD
p3151
aVUPS
p3152
aVADS
p3153
aVMMM
p3154
aVIBM
p3155
aVGOOG
p3156
aVGPC
p3157
asS'10182016'
p3158
(lp3159
VGD
p3160
aVBRK-B
p3161
aVJNJ
p3162
aVAPD
p3163
aVLLL
p3164
aVMA
p3165
aVNOC
p3166
aVPEP
p3167
aVSWK
p3168
aVIBM
p3169
aVCVX
p3170
aVAYI
p3171
aVUTX
p3172
asS'02012017'
p3173
(lp3174
VBA
p3175
aVAON
p3176
aVHAR
p3177
aVBRK-B
p3178
aVAPD
p3179
aVPCLN
p3180
aVEFX
p3181
aVORLY
p3182
aVBDX
p3183
aVNOC
p3184
aVCOST
p3185
aVADP
p3186
aVCB
p3187
aVITW
p3188
aVDE
p3189
aVUTX
p3190
aVSTZ
p3191
aVMCD
p3192
asS'11162016'
p3193
(lp3194
VAON
p3195
aVBRK-B
p3196
aVJNJ
p3197
aVAET
p3198
aVPX
p3199
aVLLL
p3200
aVFFIV
p3201
aVMA
p3202
aVNOC
p3203
aVUPS
p3204
aVCB
p3205
aVIBM
p3206
aVMCK
p3207
aVMCD
p3208
asS'04202016'
p3209
(lp3210
VAGN
p3211
aVAMT
p3212
aVTRV
p3213
aVUHS
p3214
aVAVB
p3215
aVPEP
p3216
aVACN
p3217
aVLMT
p3218
aVAYI
p3219
asS'10102016'
p3220
(lp3221
VBRK-B
p3222
aVJNJ
p3223
aVAPD
p3224
aVFDX
p3225
aVLLL
p3226
aVTRV
p3227
aVMA
p3228
aVNOC
p3229
aVPEP
p3230
aVILMN
p3231
aVIBM
p3232
aVCVX
p3233
aVPPG
p3234
aVUTX
p3235
aVMCD
p3236
asS'09152016'
p3237
(lp3238
VGS
p3239
aVBRK-B
p3240
aVSYK
p3241
aVAPD
p3242
aVTRV
p3243
aVCOST
p3244
aVUPS
p3245
aVIBM
p3246
aVAYI
p3247
aVUTX
p3248
aVMCO
p3249
asS'01212016'
p3250
(lp3251
VAGN
p3252
aVHSIC
p3253
aVGS
p3254
aVORLY
p3255
aVACN
p3256
aVLMT
p3257
aVLH
p3258
asS'06172016'
p3259
(lp3260
VGOOGL
p3261
aVGS
p3262
aVBRK-B
p3263
aVHD
p3264
aVTRV
p3265
aVACN
p3266
aVBCR
p3267
aVIBM
p3268
aVAYI
p3269
aVBIIB
p3270
asS'02032016'
p3271
(lp3272
VGOOGL
p3273
aVGS
p3274
aVREGN
p3275
aVLLL
p3276
aVORLY
p3277
aVACN
p3278
aVWAT
p3279
asS'02032017'
p3280
(lp3281
VSJM
p3282
aVAON
p3283
aVHAR
p3284
aVBRK-B
p3285
aVAPD
p3286
aVIFF
p3287
aVCTAS
p3288
aVPX
p3289
aVEFX
p3290
aVNOC
p3291
aVCOST
p3292
aVCB
p3293
aVILMN
p3294
aVITW
p3295
aVBXP
p3296
aVDE
p3297
aVMTB
p3298
aVUTX
p3299
aVSTZ
p3300
asS'01202016'
p3301
(lp3302
VAGN
p3303
aVNFLX
p3304
aVGS
p3305
aVORLY
p3306
aVCOST
p3307
aVLH
p3308
aVSTZ
p3309
asS'03012016'
p3310
(lp3311
VGOOGL
p3312
aVACN
p3313
aVLMT
p3314
asS'08222016'
p3315
(lp3316
VBRK-B
p3317
aVSNA
p3318
aVPCLN
p3319
aVCOST
p3320
aVZBH
p3321
aVADS
p3322
aVCLX
p3323
aVUNH
p3324
aVIBM
p3325
aVAYI
p3326
aVGOOG
p3327
aVUTX
p3328
asS'08192016'
p3329
(lp3330
VBRK-B
p3331
aVCOST
p3332
aVZBH
p3333
aVUPS
p3334
aVADS
p3335
aVCLX
p3336
aVUNH
p3337
aVIBM
p3338
aVBIIB
p3339
aVGOOG
p3340
aVUTX
p3341
asS'06202016'
p3342
(lp3343
VGOOGL
p3344
aVGS
p3345
aVBRK-B
p3346
aVHD
p3347
aVTRV
p3348
aVPSA
p3349
aVMON
p3350
aVACN
p3351
aVBCR
p3352
aVIBM
p3353
aVAYI
p3354
aVBIIB
p3355
asS'08122016'
p3356
(lp3357
VAON
p3358
aVBRK-B
p3359
aVCME
p3360
aVAYI
p3361
aVCTAS
p3362
aVPCLN
p3363
aVUPS
p3364
aVIBM
p3365
aVGOOG
p3366
asS'10272016'
p3367
(lp3368
VGS
p3369
aVBRK-B
p3370
aVJNJ
p3371
aVAPD
p3372
aVCME
p3373
aVIFF
p3374
aVLLL
p3375
aVMA
p3376
aVNOC
p3377
aVPEP
p3378
aVCLX
p3379
aVIBM
p3380
aVCVX
p3381
aVSTZ
p3382
asS'09282016'
p3383
(lp3384
VGS
p3385
aVBRK-B
p3386
aVAPD
p3387
aVCME
p3388
aVLLL
p3389
aVTRV
p3390
aVNEE
p3391
aVPEP
p3392
aVWYNN
p3393
aVBCR
p3394
aVUPS
p3395
aVILMN
p3396
aVCLX
p3397
aVIBM
p3398
aVAYI
p3399
aVPPG
p3400
aVHON
p3401
aVUTX
p3402
asS'03242016'
p3403
(lp3404
VBA
p3405
aVBRK-B
p3406
aVACN
p3407
aVZBH
p3408
aVFRT
p3409
aVWAT
p3410
aVCVS
p3411
aVALXN
p3412
asS'11102016'
p3413
(lp3414
VSJM
p3415
aVGS
p3416
aVBRK-B
p3417
aVJNJ
p3418
aVAPD
p3419
aVIFF
p3420
aVLLL
p3421
aVTRV
p3422
aVMA
p3423
aVNOC
p3424
aVPEP
p3425
aVCOST
p3426
aVWHR
p3427
aVCB
p3428
aVILMN
p3429
aVIBM
p3430
aVROK
p3431
aVUTX
p3432
aVISRG
p3433
aVSTZ
p3434
asS'05162016'
p3435
(lp3436
VBRK-B
p3437
aVPM
p3438
aVTRV
p3439
aVLMT
p3440
asS'01082016'
p3441
(lp3442
VBA
p3443
aVGS
p3444
aVORLY
p3445
aVACN
p3446
aVCOST
p3447
asS'01292016'
p3448
(lp3449
VAGN
p3450
aVGOOGL
p3451
aVGS
p3452
aVORLY
p3453
aVACN
p3454
aVAZO
p3455
aVLH
p3456
asS'05022016'
p3457
(lp3458
VTRV
p3459
aVPEP
p3460
aVACN
p3461
aVAYI
p3462
asS'07272016'
p3463
(lp3464
VGS
p3465
aVGD
p3466
aVBRK-B
p3467
aVAYI
p3468
aVCTAS
p3469
aVHD
p3470
aVZBH
p3471
aVIBM
p3472
aVBIIB
p3473
aVGOOG
p3474
asS'10142016'
p3475
(lp3476
VGD
p3477
aVBRK-B
p3478
aVAPD
p3479
aVFDX
p3480
aVLLL
p3481
aVORLY
p3482
aVTRV
p3483
aVMA
p3484
aVNOC
p3485
aVPEP
p3486
aVILMN
p3487
aVIBM
p3488
aVAYI
p3489
aVMCD
p3490
asS'01092017'
p3491
(lp3492
VBA
p3493
aVPRU
p3494
aVAMGN
p3495
aVHAR
p3496
aVBRK-B
p3497
aVAPD
p3498
aVIFF
p3499
aVPX
p3500
aVRTN
p3501
aVEFX
p3502
aVNOC
p3503
aVZBH
p3504
aVCB
p3505
aVSWK
p3506
aVIBM
p3507
aVAAP
p3508
aVSTZ
p3509
aVMCD
p3510
aVSPGI
p3511
asS'04142016'
p3512
(lp3513
VAGN
p3514
aVGS
p3515
aVAET
p3516
aVPM
p3517
aVTRV
p3518
aVPSA
p3519
aVPEP
p3520
aVACN
p3521
aVCLX
p3522
aVFRT
p3523
aVAYI
p3524
aVHON
p3525
asS'10172016'
p3526
(lp3527
VGD
p3528
aVBRK-B
p3529
aVAPD
p3530
aVLLL
p3531
aVSHW
p3532
aVORLY
p3533
aVTRV
p3534
aVMA
p3535
aVNOC
p3536
aVPEP
p3537
aVSWK
p3538
aVIBM
p3539
aVAYI
p3540
aVMCD
p3541
asS'09132016'
p3542
(lp3543
VGS
p3544
aVGD
p3545
aVBRK-B
p3546
aVSYK
p3547
aVAPD
p3548
aVAET
p3549
aVCME
p3550
aVLLL
p3551
aVTRV
p3552
aVCOST
p3553
aVZBH
p3554
aVUPS
p3555
aVCLX
p3556
aVIBM
p3557
aVAYI
p3558
aVUTX
p3559
aVMCO
p3560
asS'01312017'
p3561
(lp3562
VBA
p3563
aVSJM
p3564
aVHAR
p3565
aVAON
p3566
aVAMGN
p3567
aVBRK-B
p3568
aVAPD
p3569
aVPCLN
p3570
aVEFX
p3571
aVORLY
p3572
aVBDX
p3573
aVNOC
p3574
aVCOST
p3575
aVADP
p3576
aVCB
p3577
aVITW
p3578
aVDE
p3579
aVUTX
p3580
aVMCD
p3581
asS'10312016'
p3582
(lp3583
VBRK-B
p3584
aVJNJ
p3585
aVMA
p3586
aVNOC
p3587
aVPEP
p3588
aVCB
p3589
aVILMN
p3590
aVCLX
p3591
aVIBM
p3592
aVSTZ
p3593
asS'11292016'
p3594
(lp3595
VBA
p3596
aVBRK-B
p3597
aVJNJ
p3598
aVIFF
p3599
aVFDX
p3600
aVLLL
p3601
aVBDX
p3602
aVMA
p3603
aVNOC
p3604
aVNEE
p3605
aVPEP
p3606
aVIBM
p3607
aVBIIB
p3608
aVROK
p3609
aVMCD
p3610
asS'02292016'
p3611
(lp3612
VFRT
p3613
aVACN
p3614
aVLH
p3615
asS'07212016'
p3616
(lp3617
VGOOGL
p3618
aVGS
p3619
aVBRK-B
p3620
aVSYK
p3621
aVHD
p3622
aVAVB
p3623
aVPEP
p3624
aVZBH
p3625
aVIBM
p3626
aVPPG
p3627
asS'04192016'
p3628
(lp3629
VBA
p3630
aVBRK-B
p3631
aVPCLN
p3632
aVAMT
p3633
aVORLY
p3634
aVTRV
p3635
aVPEP
p3636
aVACN
p3637
aVAYI
p3638
asS'08092016'
p3639
(lp3640
VAON
p3641
aVSNA
p3642
aVSYK
p3643
aVAPD
p3644
aVCTAS
p3645
aVKMB
p3646
aVZBH
p3647
aVUPS
p3648
aVIBM
p3649
aVGPC
p3650
asS'06232016'
p3651
(lp3652
VGS
p3653
aVBRK-B
p3654
aVSNA
p3655
aVBLK
p3656
aVTRV
p3657
aVMON
p3658
aVPEP
p3659
aVACN
p3660
aVAYI
p3661
aVPPG
p3662
aVLH
p3663
asS'09192016'
p3664
(lp3665
VBRK-B
p3666
aVSYK
p3667
aVJNJ
p3668
aVAPD
p3669
aVCME
p3670
aVFDX
p3671
aVLLL
p3672
aVEFX
p3673
aVORLY
p3674
aVTRV
p3675
aVCOST
p3676
aVUPS
p3677
aVIBM
p3678
aVAYI
p3679
aVUTX
p3680
aVMCO
p3681
asS'07112016'
p3682
(lp3683
VBRK-B
p3684
aVHD
p3685
aVPM
p3686
aVBLK
p3687
aVUPS
p3688
aVAAP
p3689
aVSRE
p3690
asS'12192016'
p3691
(lp3692
VSJM
p3693
aVAON
p3694
aVHSY
p3695
aVHAR
p3696
aVBRK-B
p3697
aVSNA
p3698
aVAPD
p3699
aVCME
p3700
aVFDX
p3701
aVPX
p3702
aVEFX
p3703
aVNOC
p3704
aVPEP
p3705
aVZBH
p3706
aVCB
p3707
aVIBM
p3708
aVSTZ
p3709
aVMCD
p3710
aVSPGI
p3711
aVPNC
p3712
asS'10032016'
p3713
(lp3714
VGS
p3715
aVBRK-B
p3716
aVJNJ
p3717
aVAPD
p3718
aVLLL
p3719
aVORLY
p3720
aVTRV
p3721
aVPEP
p3722
aVUPS
p3723
aVCLX
p3724
aVADBE
p3725
aVUTX
p3726
aVSTZ
p3727
aVMCD
p3728
asS'05112016'
p3729
(lp3730
VBRK-B
p3731
aVHD
p3732
aVHUM
p3733
aVLLL
p3734
aVPM
p3735
aVPEP
p3736
asS'01142016'
p3737
(lp3738
VAGN
p3739
aVBA
p3740
aVGS
p3741
aVORLY
p3742
aVACN
p3743
aVBCR
p3744
aVMNST
p3745
asS'06022016'
p3746
(lp3747
VGOOGL
p3748
aVBRK-B
p3749
aVSNA
p3750
aVPSA
p3751
aVPEP
p3752
aVACN
p3753
aVBCR
p3754
aVANTM
p3755
asS'08292016'
p3756
(lp3757
VBRK-B
p3758
aVSYK
p3759
aVCME
p3760
aVFDX
p3761
aVCOST
p3762
aVZBH
p3763
aVCLX
p3764
aVADBE
p3765
aVIBM
p3766
aVAYI
p3767
aVUTX
p3768
aVMCO
p3769
asS'10052016'
p3770
(lp3771
VBRK-B
p3772
aVJNJ
p3773
aVAPD
p3774
aVFDX
p3775
aVPCLN
p3776
aVLLL
p3777
aVMA
p3778
aVFB
p3779
aVBCR
p3780
aVUPS
p3781
aVADBE
p3782
aVIBM
p3783
aVUTX
p3784
asS'01062017'
p3785
(lp3786
VBA
p3787
aVAMGN
p3788
aVHAR
p3789
aVBRK-B
p3790
aVAPD
p3791
aVRTN
p3792
aVAMT
p3793
aVEFX
p3794
aVNOC
p3795
aVPEP
p3796
aVCOST
p3797
aVZBH
p3798
aVCB
p3799
aVIBM
p3800
aVDE
p3801
aVMCD
p3802
asS'01152016'
p3803
(lp3804
VAGN
p3805
aVGS
p3806
aVORLY
p3807
aVCOST
p3808
asS'04262016'
p3809
(lp3810
VBA
p3811
aVSNA
p3812
aVAMT
p3813
aVORLY
p3814
aVTRV
p3815
aVPEP
p3816
aVACN
p3817
aVLMT
p3818
aVSRE
p3819
asS'12012015'
p3820
(lp3821
VGOOGL
p3822
aVGS
p3823
aVAVGO
p3824
aVSHW
p3825
aVCOST
p3826
aVNKE
p3827
asS'12012016'
p3828
(lp3829
VBA
p3830
aVSJM
p3831
aVBRK-B
p3832
aVSNA
p3833
aVJNJ
p3834
aVAPD
p3835
aVCME
p3836
aVIFF
p3837
aVFDX
p3838
aVPX
p3839
aVLLL
p3840
aVSHW
p3841
aVBDX
p3842
aVMA
p3843
aVNOC
p3844
aVPEP
p3845
aVZBH
p3846
aVCB
p3847
aVCLX
p3848
aVIBM
p3849
aVROK
p3850
aVMCK
p3851
aVMCD
p3852
asS'12272016'
p3853
(lp3854
VBA
p3855
aVAON
p3856
aVGS
p3857
aVURI
p3858
aVHAR
p3859
aVBRK-B
p3860
aVAPD
p3861
aVFDX
p3862
aVPX
p3863
aVEFX
p3864
aVBDX
p3865
aVNOC
p3866
aVCOST
p3867
aVZBH
p3868
aVCB
p3869
aVIBM
p3870
aVSTZ
p3871
aVMCD
p3872
asS'12302015'
p3873
(lp3874
VGS
p3875
aVORLY
p3876
aVPEP
p3877
aVACN
p3878
aVCOST
p3879
asS'12222015'
p3880
(lp3881
VAGN
p3882
aVBA
p3883
aVGS
p3884
aVORLY
p3885
aVACN
p3886
aVCOST
p3887
aVDNB
p3888
aVMNST
p3889
asS'12222016'
p3890
(lp3891
VBA
p3892
aVSJM
p3893
aVAON
p3894
aVPRU
p3895
aVHAR
p3896
aVBRK-B
p3897
aVAPD
p3898
aVFDX
p3899
aVPX
p3900
aVEFX
p3901
aVNOC
p3902
aVPEP
p3903
aVCOST
p3904
aVZBH
p3905
aVUNP
p3906
aVADP
p3907
aVCB
p3908
aVIBM
p3909
aVAAP
p3910
aVSTZ
p3911
aVMCD
p3912
aVSPGI
p3913
asS'12302016'
p3914
(lp3915
VAON
p3916
aVGS
p3917
aVBRK-B
p3918
aVAPD
p3919
aVPX
p3920
aVRTN
p3921
aVEFX
p3922
aVMA
p3923
aVNOC
p3924
aVNEE
p3925
aVCOST
p3926
aVZBH
p3927
aVWHR
p3928
aVUNP
p3929
aVCB
p3930
aVCLX
p3931
aVIBM
p3932
aVDE
p3933
aVMTB
p3934
aVSTZ
p3935
aVMCD
p3936
asS'06292016'
p3937
(lp3938
VGS
p3939
aVBRK-B
p3940
aVSNA
p3941
aVSYK
p3942
aVORLY
p3943
aVBLK
p3944
aVTRV
p3945
aVUHS
p3946
aVPEP
p3947
aVACN
p3948
aVIBM
p3949
aVAYI
p3950
aVBIIB
p3951
aVGOOG
p3952
as.