(dp1
S'12022016'
p2
(lp3
VPCLN
p4
aVBIIB
p5
aVSNA
p6
aVPVH
p7
aVAYI
p8
aVROP
p9
aVILMN
p10
aVCVX
p11
aVSHW
p12
aVURI
p13
aVCXO
p14
aVMCK
p15
aVXEC
p16
asS'03232016'
p17
(lp18
VPCLN
p19
aVSHW
p20
aVAYI
p21
aVSPG
p22
aVCXO
p23
aVFISV
p24
aVPXD
p25
aVWHR
p26
aVESS
p27
aVBA
p28
aVGOOG
p29
asS'03232015'
p30
(lp31
VNFLX
p32
aVHAR
p33
aVTDG
p34
aVMMM
p35
aVAVGO
p36
aVPH
p37
aVAMP
p38
aVLMT
p39
aVAYI
p40
aVPXD
p41
aVANTM
p42
aVPRGO
p43
aVEW
p44
aVAGN
p45
aVHUM
p46
aVCMG
p47
asS'12022015'
p48
(lp49
VREGN
p50
aVGOOG
p51
aVTSO
p52
aVGD
p53
aVMLM
p54
aVEW
p55
aVAVGO
p56
asS'09012015'
p57
(lp58
VPCLN
p59
aVEQIX
p60
aVNOC
p61
aVFFIV
p62
aVPRGO
p63
aVVRTX
p64
aVUHS
p65
aVMLM
p66
aVLLL
p67
aVLH
p68
aVANTM
p69
aVCXO
p70
aVPVH
p71
aVNFLX
p72
asS'09012016'
p73
(lp74
VPCLN
p75
aVILMN
p76
aVCXO
p77
aVAYI
p78
aVPH
p79
aVSHW
p80
aVFB
p81
aVAMG
p82
aVSNA
p83
aVADS
p84
aVCME
p85
aVAMP
p86
aVPSA
p87
asS'07312015'
p88
(lp89
VROK
p90
aVIBM
p91
aVAVGO
p92
aVANTM
p93
aVHUM
p94
aVMNK
p95
aVMLM
p96
aVPVH
p97
aVAVB
p98
aVVRTX
p99
aVEFX
p100
aVLH
p101
aVLMT
p102
aVNOC
p103
aVCXO
p104
aVPRGO
p105
aVEQIX
p106
asS'08132015'
p107
(lp108
VMNK
p109
aVPVH
p110
aVAMP
p111
aVIBM
p112
aVEQIX
p113
aVANTM
p114
aVNOC
p115
aVPRGO
p116
aVREGN
p117
aVBF-B
p118
aVAVGO
p119
aVFFIV
p120
aVVRTX
p121
aVEXPE
p122
aVHAR
p123
aVTSO
p124
aVHUM
p125
aVSTZ
p126
aVMLM
p127
aVCXO
p128
aVPCLN
p129
aVNFLX
p130
asS'11072016'
p131
(lp132
VPCLN
p133
aVXEC
p134
aVFB
p135
aVCXO
p136
aVPVH
p137
aVADS
p138
aVBA
p139
aVILMN
p140
aVGWW
p141
aVAPD
p142
asS'08082016'
p143
(lp144
VPSA
p145
aVSNA
p146
aVAPD
p147
aVGPC
p148
aVAYI
p149
aVCME
p150
aVFB
p151
aVROP
p152
aVALXN
p153
aVBIIB
p154
asS'06302016'
p155
(lp156
VPCLN
p157
aVALXN
p158
aVPXD
p159
aVPPG
p160
aVSWK
p161
aVITW
p162
aVHON
p163
aVFB
p164
aVXEC
p165
aVROP
p166
aVDLR
p167
aVMKC
p168
aVISRG
p169
aVORLY
p170
aVPSA
p171
asS'06302015'
p172
(lp173
VHUM
p174
aVAVGO
p175
aVCXO
p176
aVGS
p177
aVFFIV
p178
aVSWKS
p179
aVMNK
p180
aVSTZ
p181
aVAMP
p182
aVSIG
p183
aVPRGO
p184
aVEXPE
p185
aVPVH
p186
aVLH
p187
aVCELG
p188
aVAET
p189
aVUHS
p190
asS'12062016'
p191
(lp192
VSNA
p193
aVADS
p194
aVPVH
p195
aVAMP
p196
aVAYI
p197
aVILMN
p198
aVROP
p199
aVSHW
p200
aVROK
p201
aVURI
p202
aVCXO
p203
aVMCK
p204
aVXEC
p205
asS'02082017'
p206
(lp207
VILMN
p208
aVCVX
p209
aVBA
p210
aVLRCX
p211
aVNVDA
p212
aVURI
p213
aVAYI
p214
asS'10122016'
p215
(lp216
VILMN
p217
aVPCLN
p218
aVAPD
p219
aVBLK
p220
aVADS
p221
aVSHW
p222
aVPSA
p223
aVSLG
p224
aVSNA
p225
aVPH
p226
aVFB
p227
aVAAPL
p228
aVPVH
p229
aVCXO
p230
aVXEC
p231
asS'10122015'
p232
(lp233
VAVGO
p234
aVANTM
p235
aVLLL
p236
aVNFLX
p237
aVREGN
p238
aVPCLN
p239
asS'09272016'
p240
(lp241
VPCLN
p242
aVPVH
p243
aVFB
p244
aVPH
p245
aVWYNN
p246
aVSLG
p247
aVAAPL
p248
aVMNST
p249
aVSNA
p250
aVILMN
p251
aVSHW
p252
aVPSA
p253
asS'04232015'
p254
(lp255
VPVH
p256
aVSIG
p257
aVSTZ
p258
aVHUM
p259
aVLMT
p260
aVEW
p261
aVHON
p262
aVCXO
p263
aVPRGO
p264
aVNFLX
p265
asS'10132016'
p266
(lp267
VILMN
p268
aVPCLN
p269
aVAPD
p270
aVBLK
p271
aVADS
p272
aVROP
p273
aVSHW
p274
aVEW
p275
aVSNA
p276
aVPH
p277
aVFB
p278
aVPSA
p279
aVSLG
p280
aVPVH
p281
aVMNST
p282
aVXEC
p283
asS'02092017'
p284
(lp285
VILMN
p286
aVEOG
p287
aVBA
p288
aVLRCX
p289
aVURI
p290
aVNVDA
p291
aVAMP
p292
aVAYI
p293
asS'06122015'
p294
(lp295
VMNK
p296
aVANTM
p297
aVMLM
p298
aVTDG
p299
aVAET
p300
aVCELG
p301
aVSIG
p302
aVSTZ
p303
aVORLY
p304
aVLMT
p305
aVLH
p306
aVEW
p307
aVCXO
p308
aVHUM
p309
asS'12182015'
p310
(lp311
VGOOG
p312
aVSHW
p313
aVWHR
p314
aVAAPL
p315
aVTSO
p316
aVGD
p317
aVAVGO
p318
aVAYI
p319
aVUHS
p320
aVALXN
p321
aVUNH
p322
aVAET
p323
aVANTM
p324
asS'05182016'
p325
(lp326
VPCLN
p327
aVWHR
p328
aVAYI
p329
aVMHK
p330
aVPX
p331
aVPXD
p332
aVHD
p333
aVESS
p334
aVSHW
p335
aVHON
p336
aVVMC
p337
aVXEC
p338
aVFISV
p339
asS'05182015'
p340
(lp341
VCXO
p342
aVHAR
p343
aVSIG
p344
aVLH
p345
aVPRGO
p346
aVPVH
p347
aVSTZ
p348
aVUHS
p349
aVROK
p350
aVANTM
p351
aVHUM
p352
aVNFLX
p353
aVAVGO
p354
asS'02272015'
p355
(lp356
VAMP
p357
aVHON
p358
aVSIG
p359
aVGILD
p360
aVCELG
p361
aVLMT
p362
aVGS
p363
aVPRGO
p364
aVUHS
p365
aVGOOGL
p366
asS'12112015'
p367
(lp368
VGOOG
p369
aVREGN
p370
aVWHR
p371
aVTSO
p372
aVGD
p373
aVPXD
p374
aVGILD
p375
aVAAPL
p376
aVEW
p377
aVAYI
p378
aVABC
p379
aVAET
p380
aVANTM
p381
aVAVGO
p382
asS'09282016'
p383
(lp384
VPCLN
p385
aVBLK
p386
aVWYNN
p387
aVFB
p388
aVPH
p389
aVAAPL
p390
aVMNST
p391
aVSNA
p392
aVILMN
p393
aVSHW
p394
aVPSA
p395
asS'09282015'
p396
(lp397
VREGN
p398
aVPRGO
p399
aVMLM
p400
aVPVH
p401
aVHUM
p402
aVAVGO
p403
aVNOC
p404
aVSTZ
p405
aVFFIV
p406
aVCOST
p407
aVTSO
p408
aVNFLX
p409
asS'04162015'
p410
(lp411
VHUM
p412
aVLMT
p413
aVAYI
p414
aVHON
p415
aVAMP
p416
aVPVH
p417
aVCXO
p418
aVCMG
p419
aVPRGO
p420
asS'05102016'
p421
(lp422
VPCLN
p423
aVAYI
p424
aVWHR
p425
aVULTA
p426
aVEW
p427
aVSHW
p428
aVPX
p429
aVPXD
p430
aVSWK
p431
aVHON
p432
aVROP
p433
aVSIG
p434
aVXEC
p435
aVGOOG
p436
aVFISV
p437
aVFB
p438
aVPSA
p439
aVESS
p440
aVICE
p441
asS'02232016'
p442
(lp443
VFB
p444
aVSHW
p445
aVPXD
p446
aVAET
p447
aVGOOG
p448
aVILMN
p449
aVAMG
p450
aVWHR
p451
aVAYI
p452
asS'02232015'
p453
(lp454
VCMG
p455
aVESS
p456
aVAMZN
p457
aVSIG
p458
aVAMP
p459
aVGOOGL
p460
aVCELG
p461
aVABC
p462
aVPRGO
p463
aVAVGO
p464
aVMNK
p465
aVSPGI
p466
aVHUM
p467
aVGS
p468
asS'08032016'
p469
(lp470
VPSA
p471
aVAYI
p472
aVSNA
p473
aVBA
p474
aVCME
p475
aVROP
p476
aVFB
p477
aVILMN
p478
aVPCLN
p479
aVBIIB
p480
asS'12212016'
p481
(lp482
VAMP
p483
aVURI
p484
aVGWW
p485
aVDIS
p486
aVNVDA
p487
aVILMN
p488
asS'12212015'
p489
(lp490
VSHW
p491
aVWHR
p492
aVAAPL
p493
aVTSO
p494
aVAYI
p495
aVAVGO
p496
aVUHS
p497
aVUNH
p498
aVAET
p499
asS'08032015'
p500
(lp501
VROK
p502
aVIBM
p503
aVAVGO
p504
aVUNH
p505
aVPVH
p506
aVHUM
p507
aVMNK
p508
aVEFX
p509
aVAVB
p510
aVLMT
p511
aVLH
p512
aVCXO
p513
aVNOC
p514
aVVRTX
p515
aVPRGO
p516
aVEXPE
p517
aVEQIX
p518
aVFFIV
p519
asS'07222016'
p520
(lp521
VSHW
p522
aVGPC
p523
aVESS
p524
aVPSA
p525
aVHON
p526
aVXEC
p527
aVMCK
p528
aVCME
p529
aVEW
p530
aVPPG
p531
aVFB
p532
aVAYI
p533
aVILMN
p534
aVALXN
p535
aVPCLN
p536
asS'11032015'
p537
(lp538
VSRCL
p539
aVANTM
p540
aVSTZ
p541
aVMLM
p542
aVAVGO
p543
aVGD
p544
aVHAR
p545
aVTSO
p546
aVNFLX
p547
aVPCLN
p548
asS'11032016'
p549
(lp550
VPCLN
p551
aVXEC
p552
aVCXO
p553
aVFB
p554
aVSTZ
p555
aVPVH
p556
aVADS
p557
aVROP
p558
aVILMN
p559
aVGWW
p560
aVBA
p561
aVAPD
p562
aVMLM
p563
asS'07222015'
p564
(lp565
VANTM
p566
aVCXO
p567
aVUNH
p568
aVHUM
p569
aVSRCL
p570
aVLH
p571
aVAVGO
p572
aVFFIV
p573
aVNOC
p574
aVVRTX
p575
aVLMT
p576
asS'12202016'
p577
(lp578
VAMP
p579
aVURI
p580
aVGWW
p581
aVNVDA
p582
aVILMN
p583
asS'02022016'
p584
(lp585
VREGN
p586
aVILMN
p587
aVAMZN
p588
aVAET
p589
aVAYI
p590
aVAMG
p591
aVWHR
p592
aVAVGO
p593
aVSHW
p594
aVPCLN
p595
asS'11132015'
p596
(lp597
VPCLN
p598
aVREGN
p599
aVGOOG
p600
aVULTA
p601
aVAYI
p602
aVGD
p603
aVGILD
p604
aVAVGO
p605
aVTSO
p606
aVSRCL
p607
aVMTB
p608
aVNFLX
p609
aVVMC
p610
aVMLM
p611
asS'08172015'
p612
(lp613
VAMGN
p614
aVGS
p615
aVLH
p616
aVAMP
p617
aVEQIX
p618
aVPVH
p619
aVIBM
p620
aVVRTX
p621
aVFFIV
p622
aVTSO
p623
aVAVGO
p624
aVEXPE
p625
aVSTZ
p626
aVHUM
p627
aVCXO
p628
aVMLM
p629
aVNFLX
p630
asS'10242016'
p631
(lp632
VILMN
p633
aVGWW
p634
aVPCLN
p635
aVROP
p636
aVPVH
p637
aVCXO
p638
aVXEC
p639
aVEW
p640
aVSTZ
p641
aVFB
p642
aVSNA
p643
asS'06012016'
p644
(lp645
VEW
p646
aVXEC
p647
aVSHW
p648
aVSWK
p649
aVFB
p650
aVHON
p651
aVPSA
p652
aVFISV
p653
aVMHK
p654
aVADBE
p655
aVAET
p656
aVMCK
p657
aVWHR
p658
aVHUM
p659
aVAAPL
p660
aVTDG
p661
aVPCLN
p662
aVULTA
p663
asS'06012015'
p664
(lp665
VNFLX
p666
aVSIG
p667
aVFFIV
p668
aVAMP
p669
aVEFX
p670
aVTDG
p671
aVLMT
p672
aVCXO
p673
aVSTZ
p674
aVLH
p675
aVANTM
p676
aVEW
p677
aVSWKS
p678
aVAVGO
p679
aVHUM
p680
asS'12292016'
p681
(lp682
VURI
p683
aVCXO
p684
aVCMI
p685
aVEOG
p686
aVRTN
p687
aVCVX
p688
aVSTZ
p689
aVNVDA
p690
asS'12292015'
p691
(lp692
VAAPL
p693
aVTSO
p694
aVREGN
p695
aVAVGO
p696
aVALXN
p697
aVGILD
p698
aVWHR
p699
aVUHS
p700
aVCI
p701
asS'04182016'
p702
(lp703
VESS
p704
aVEQIX
p705
aVFB
p706
aVSPG
p707
aVAAPL
p708
aVWHR
p709
aVACN
p710
aVHON
p711
aVSWK
p712
aVULTA
p713
aVMCK
p714
aVAYI
p715
aVPCLN
p716
asS'03112015'
p717
(lp718
VNFLX
p719
aVTDG
p720
aVMMM
p721
aVLMT
p722
aVAMP
p723
aVAYI
p724
aVKSU
p725
aVCMG
p726
aVCELG
p727
aVHON
p728
aVEW
p729
aVAVGO
p730
aVSIG
p731
aVPRGO
p732
asS'03112016'
p733
(lp734
VAET
p735
aVSPG
p736
aVSHW
p737
aVBA
p738
aVAMG
p739
aVPCLN
p740
aVGOOG
p741
asS'08212015'
p742
(lp743
VPCLN
p744
aVHAR
p745
aVVRTX
p746
aVFFIV
p747
aVMLM
p748
aVTSO
p749
aVAVGO
p750
aVLMT
p751
aVEXPE
p752
aVLLL
p753
aVCXO
p754
aVPRGO
p755
aVPVH
p756
aVSTZ
p757
aVHUM
p758
aVAET
p759
aVNFLX
p760
asS'08172016'
p761
(lp762
VADS
p763
aVBIIB
p764
aVPSA
p765
aVMCK
p766
aVESS
p767
aVSNA
p768
aVFB
p769
aVVRTX
p770
aVILMN
p771
aVCME
p772
aVWYNN
p773
aVPX
p774
aVAYI
p775
asS'01132016'
p776
(lp777
VREGN
p778
aVAYI
p779
aVALXN
p780
aVAVGO
p781
aVSHW
p782
aVWHR
p783
aVTSO
p784
asS'01132017'
p785
(lp786
VNVDA
p787
aVCVX
p788
aVWHR
p789
aVSLG
p790
aVBA
p791
aVCXO
p792
aVAPD
p793
aVLRCX
p794
aVAMP
p795
aVBIIB
p796
aVILMN
p797
asS'05202016'
p798
(lp799
VPCLN
p800
aVWHR
p801
aVAYI
p802
aVSHW
p803
aVPXD
p804
aVPSA
p805
aVFB
p806
aVHON
p807
aVVMC
p808
aVFISV
p809
aVXEC
p810
aVSIG
p811
aVGOOG
p812
aVMCK
p813
aVCMG
p814
asS'05202015'
p815
(lp816
VCXO
p817
aVHAR
p818
aVSIG
p819
aVEFX
p820
aVPRGO
p821
aVLH
p822
aVROK
p823
aVANTM
p824
aVUHS
p825
aVSWKS
p826
aVEW
p827
aVHUM
p828
aVAVGO
p829
aVNFLX
p830
asS'07092015'
p831
(lp832
VCI
p833
aVAVGO
p834
aVGS
p835
aVCXO
p836
aVFFIV
p837
aVPRGO
p838
aVAMP
p839
aVPVH
p840
aVSTZ
p841
aVLH
p842
aVNOC
p843
aVEQIX
p844
aVMNK
p845
asS'04012015'
p846
(lp847
VAGN
p848
aVAMZN
p849
aVPRGO
p850
aVEW
p851
aVSWKS
p852
aVAMP
p853
aVHUM
p854
aVLMT
p855
aVHON
p856
aVTDG
p857
asS'04012016'
p858
(lp859
VPCLN
p860
aVCXO
p861
aVSHW
p862
aVBA
p863
aVAYI
p864
aVAET
p865
aVHON
p866
aVWHR
p867
aVFISV
p868
aVFB
p869
aVSPG
p870
aVULTA
p871
aVESS
p872
aVGOOG
p873
asS'11282016'
p874
(lp875
VPCLN
p876
aVROK
p877
aVBA
p878
aVPVH
p879
aVCVX
p880
aVSNA
p881
aVCXO
p882
aVFB
p883
aVROP
p884
aVWHR
p885
aVAMP
p886
aVILMN
p887
aVAYI
p888
aVWYNN
p889
aVSHW
p890
asS'12092015'
p891
(lp892
VREGN
p893
aVGOOG
p894
aVWHR
p895
aVTSO
p896
aVAYI
p897
aVGD
p898
aVEW
p899
aVEXPE
p900
aVAET
p901
aVANTM
p902
aVAVGO
p903
asS'12092016'
p904
(lp905
VAYI
p906
aVILMN
p907
aVPH
p908
aVAMP
p909
aVROP
p910
aVSNA
p911
aVSHW
p912
aVADS
p913
aVURI
p914
aVSLG
p915
aVCXO
p916
aVWHR
p917
aVXEC
p918
asS'10232015'
p919
(lp920
VMLM
p921
aVSTZ
p922
aVLH
p923
aVMTB
p924
aVCOST
p925
aVAVGO
p926
aVPCLN
p927
asS'03042016'
p928
(lp929
VAET
p930
aVANTM
p931
aVSHW
p932
aVAMG
p933
aVAYI
p934
aVPCLN
p935
asS'03042015'
p936
(lp937
VAYI
p938
aVAMP
p939
aVLMT
p940
aVCELG
p941
aVCMG
p942
aVTDG
p943
aVABC
p944
aVHUM
p945
aVGS
p946
aVSIG
p947
aVUHS
p948
aVPRGO
p949
asS'05142015'
p950
(lp951
VCXO
p952
aVHAR
p953
aVSIG
p954
aVPRGO
p955
aVLH
p956
aVMCO
p957
aVSTZ
p958
aVMPC
p959
aVAMP
p960
aVHON
p961
aVANTM
p962
aVMMM
p963
aVROK
p964
asS'03162016'
p965
(lp966
VSPG
p967
aVAET
p968
aVAMG
p969
aVSHW
p970
aVPCLN
p971
asS'07012015'
p972
(lp973
VHUM
p974
aVAVGO
p975
aVCXO
p976
aVGS
p977
aVFFIV
p978
aVSTZ
p979
aVMNK
p980
aVAMP
p981
aVSIG
p982
aVEXPE
p983
aVPRGO
p984
aVAGN
p985
aVPVH
p986
aVLH
p987
aVCELG
p988
aVCI
p989
aVUHS
p990
asS'11082016'
p991
(lp992
VXEC
p993
aVFB
p994
aVCXO
p995
aVSHW
p996
aVPVH
p997
aVADS
p998
aVSNA
p999
aVPH
p1000
aVILMN
p1001
aVGWW
p1002
aVPCLN
p1003
asS'11092016'
p1004
(lp1005
VXEC
p1006
aVFB
p1007
aVCXO
p1008
aVBA
p1009
aVADS
p1010
aVILMN
p1011
aVSHW
p1012
aVPH
p1013
aVGWW
p1014
aVPCLN
p1015
asS'11092015'
p1016
(lp1017
VPCLN
p1018
aVANTM
p1019
aVSRCL
p1020
aVGD
p1021
aVLLL
p1022
aVGILD
p1023
aVWHR
p1024
aVFB
p1025
aVAVGO
p1026
aVTSO
p1027
aVMLM
p1028
aVVMC
p1029
aVREGN
p1030
aVNFLX
p1031
aVGOOG
p1032
asS'06132016'
p1033
(lp1034
VESS
p1035
aVXEC
p1036
aVMHK
p1037
aVFISV
p1038
aVHON
p1039
aVORLY
p1040
aVDLR
p1041
aVWYNN
p1042
aVULTA
p1043
aVPCLN
p1044
asS'04062016'
p1045
(lp1046
VPCLN
p1047
aVBA
p1048
aVROP
p1049
aVAET
p1050
aVWHR
p1051
aVULTA
p1052
aVSHW
p1053
aVFB
p1054
aVHON
p1055
aVFISV
p1056
aVSPG
p1057
aVANTM
p1058
aVMKC
p1059
aVAAPL
p1060
asS'04062015'
p1061
(lp1062
VAGN
p1063
aVNFLX
p1064
aVEW
p1065
aVESS
p1066
aVPRGO
p1067
aVHUM
p1068
aVAMP
p1069
aVLMT
p1070
aVULTA
p1071
aVDNB
p1072
aVSTZ
p1073
aVTDG
p1074
asS'11272015'
p1075
(lp1076
VPCLN
p1077
aVGOOG
p1078
aVORLY
p1079
aVTSO
p1080
aVGD
p1081
aVVMC
p1082
aVEFX
p1083
aVULTA
p1084
aVEW
p1085
aVMNST
p1086
aVMLM
p1087
asS'08302016'
p1088
(lp1089
VILMN
p1090
aVAYI
p1091
aVCXO
p1092
aVPH
p1093
aVEFX
p1094
aVXEC
p1095
aVSNA
p1096
aVPSA
p1097
aVPPG
p1098
asS'08232016'
p1099
(lp1100
VBIIB
p1101
aVESS
p1102
aVJNJ
p1103
aVFB
p1104
aVILMN
p1105
aVPSA
p1106
aVSNA
p1107
aVPH
p1108
aVAYI
p1109
aVPCLN
p1110
asS'09162015'
p1111
(lp1112
VMNST
p1113
aVPVH
p1114
aVFFIV
p1115
aVPRGO
p1116
aVAMGN
p1117
aVCOST
p1118
aVVRTX
p1119
aVNOC
p1120
aVHUM
p1121
aVREGN
p1122
aVPCLN
p1123
asS'04282015'
p1124
(lp1125
VPRGO
p1126
aVEW
p1127
aVPVH
p1128
aVLMT
p1129
aVSIG
p1130
aVSTZ
p1131
aVCXO
p1132
aVAMP
p1133
aVNFLX
p1134
asS'09162016'
p1135
(lp1136
VAYI
p1137
aVBIIB
p1138
aVXEC
p1139
aVCXO
p1140
aVSLG
p1141
aVSHW
p1142
aVUTX
p1143
aVPPG
p1144
aVFFIV
p1145
aVBA
p1146
aVPH
p1147
aVSNA
p1148
aVPSA
p1149
aVEW
p1150
aVILMN
p1151
aVPCLN
p1152
aVAAPL
p1153
aVADS
p1154
aVWYNN
p1155
asS'02082016'
p1156
(lp1157
VAMZN
p1158
aVILMN
p1159
aVREGN
p1160
aVGOOG
p1161
aVPCLN
p1162
aVAYI
p1163
aVAET
p1164
aVAVGO
p1165
aVSHW
p1166
aVWHR
p1167
asS'08022016'
p1168
(lp1169
VPSA
p1170
aVAYI
p1171
aVSHW
p1172
aVSNA
p1173
aVPPG
p1174
aVDLR
p1175
aVGPC
p1176
aVAPD
p1177
aVCME
p1178
aVROP
p1179
aVFB
p1180
aVAMG
p1181
aVAAPL
p1182
aVPCLN
p1183
aVALXN
p1184
aVILMN
p1185
aVBIIB
p1186
asS'02182015'
p1187
(lp1188
VCMG
p1189
aVREGN
p1190
aVNFLX
p1191
aVSIG
p1192
aVPRGO
p1193
aVABC
p1194
aVAVGO
p1195
aVAMP
p1196
aVMNK
p1197
aVAAPL
p1198
aVSPGI
p1199
aVAMZN
p1200
aVGS
p1201
aVGOOGL
p1202
aVDNB
p1203
asS'02182016'
p1204
(lp1205
VGOOG
p1206
aVFB
p1207
aVAET
p1208
aVCB
p1209
aVSHW
p1210
aVWHR
p1211
aVILMN
p1212
aVAYI
p1213
asS'01192016'
p1214
(lp1215
VREGN
p1216
aVGOOG
p1217
aVALXN
p1218
aVAVGO
p1219
aVWHR
p1220
aVAET
p1221
asS'01192017'
p1222
(lp1223
VNVDA
p1224
aVBIIB
p1225
aVCVX
p1226
aVWHR
p1227
aVADP
p1228
aVBA
p1229
aVCXO
p1230
aVLMT
p1231
aVILMN
p1232
asS'11232015'
p1233
(lp1234
VPCLN
p1235
aVORLY
p1236
aVGOOGL
p1237
aVANTM
p1238
aVGD
p1239
aVGOOG
p1240
aVTSO
p1241
aVEW
p1242
aVMNST
p1243
aVEFX
p1244
aVUHS
p1245
aVSRCL
p1246
aVVMC
p1247
asS'02092016'
p1248
(lp1249
VREGN
p1250
aVGOOG
p1251
aVPCLN
p1252
aVILMN
p1253
aVAYI
p1254
aVAMG
p1255
asS'07162015'
p1256
(lp1257
VANTM
p1258
aVCXO
p1259
aVAVGO
p1260
aVPVH
p1261
aVFFIV
p1262
aVROK
p1263
aVAMP
p1264
aVLH
p1265
aVORLY
p1266
aVVRTX
p1267
aVLMT
p1268
asS'05042015'
p1269
(lp1270
VPRGO
p1271
aVMNK
p1272
aVTDG
p1273
aVMMM
p1274
aVAVGO
p1275
aVSIG
p1276
aVNFLX
p1277
aVCXO
p1278
aVPVH
p1279
aVAMP
p1280
aVSTZ
p1281
aVHON
p1282
aVAYI
p1283
asS'05042016'
p1284
(lp1285
VPCLN
p1286
aVGOOG
p1287
aVAYI
p1288
aVWHR
p1289
aVSHW
p1290
aVPSA
p1291
aVEW
p1292
aVXEC
p1293
aVPX
p1294
aVULTA
p1295
aVSIG
p1296
aVHON
p1297
aVSWK
p1298
aVESS
p1299
aVPXD
p1300
asS'08182016'
p1301
(lp1302
VADS
p1303
aVBIIB
p1304
aVESS
p1305
aVMCK
p1306
aVPSA
p1307
aVFB
p1308
aVSNA
p1309
aVILMN
p1310
aVWYNN
p1311
aVCME
p1312
aVAYI
p1313
aVPVH
p1314
asS'07172015'
p1315
(lp1316
VANTM
p1317
aVCXO
p1318
aVFFIV
p1319
aVAVGO
p1320
aVLH
p1321
aVAMP
p1322
aVVRTX
p1323
aVLMT
p1324
asS'06102015'
p1325
(lp1326
VPRGO
p1327
aVMNK
p1328
aVSWKS
p1329
aVANTM
p1330
aVTDG
p1331
aVCELG
p1332
aVFFIV
p1333
aVSNA
p1334
aVSIG
p1335
aVMMM
p1336
aVNKE
p1337
aVUHS
p1338
aVAVGO
p1339
aVLMT
p1340
aVSTZ
p1341
aVAMP
p1342
aVLH
p1343
aVCXO
p1344
aVEW
p1345
aVHUM
p1346
asS'06102016'
p1347
(lp1348
VESS
p1349
aVALXN
p1350
aVAMG
p1351
aVXEC
p1352
aVAYI
p1353
aVFB
p1354
aVSWK
p1355
aVMCK
p1356
aVFISV
p1357
aVSHW
p1358
aVHON
p1359
aVDLR
p1360
aVWYNN
p1361
aVULTA
p1362
aVHUM
p1363
aVPCLN
p1364
asS'08182015'
p1365
(lp1366
VAMGN
p1367
aVGS
p1368
aVHAR
p1369
aVUHS
p1370
aVLMT
p1371
aVFFIV
p1372
aVNOC
p1373
aVIBM
p1374
aVEQIX
p1375
aVPVH
p1376
aVAVGO
p1377
aVTSO
p1378
aVVRTX
p1379
aVPRGO
p1380
aVCXO
p1381
aVSTZ
p1382
aVHUM
p1383
aVNFLX
p1384
asS'01242017'
p1385
(lp1386
VBIIB
p1387
aVAYI
p1388
aVCVX
p1389
aVWHR
p1390
aVCLX
p1391
aVCXO
p1392
aVMLM
p1393
aVILMN
p1394
asS'02252015'
p1395
(lp1396
VAMP
p1397
aVSIG
p1398
aVGOOGL
p1399
aVMTB
p1400
aVMNK
p1401
aVGILD
p1402
aVABC
p1403
aVAVGO
p1404
aVCELG
p1405
aVUHS
p1406
aVPRGO
p1407
aVGS
p1408
aVHUM
p1409
asS'02252016'
p1410
(lp1411
VSHW
p1412
aVAET
p1413
aVAMG
p1414
aVILMN
p1415
asS'09072016'
p1416
(lp1417
VPCLN
p1418
aVAYI
p1419
aVILMN
p1420
aVPH
p1421
aVBA
p1422
aVSLG
p1423
aVSNA
p1424
aVSHW
p1425
aVAMP
p1426
aVESS
p1427
aVFB
p1428
aVPSA
p1429
aVADS
p1430
asS'12132016'
p1431
(lp1432
VAYI
p1433
aVPVH
p1434
aVAMP
p1435
aVROK
p1436
aVILMN
p1437
aVADS
p1438
aVURI
p1439
aVCXO
p1440
aVADBE
p1441
aVSLG
p1442
aVSTZ
p1443
aVMCK
p1444
aVAMZN
p1445
asS'06242015'
p1446
(lp1447
VAVGO
p1448
aVMNK
p1449
aVPRGO
p1450
aVPVH
p1451
aVCXO
p1452
aVLH
p1453
aVGS
p1454
aVEFX
p1455
aVAET
p1456
aVCELG
p1457
asS'06242016'
p1458
(lp1459
VPCLN
p1460
aVBIIB
p1461
aVWYNN
p1462
aVPXD
p1463
aVWHR
p1464
aVSHW
p1465
aVMHK
p1466
aVAYI
p1467
aVFB
p1468
aVFISV
p1469
aVSWK
p1470
aVXEC
p1471
aVCMI
p1472
aVHON
p1473
aVMKC
p1474
asS'06072016'
p1475
(lp1476
VESS
p1477
aVXEC
p1478
aVSWK
p1479
aVCXO
p1480
aVSHW
p1481
aVFISV
p1482
aVALXN
p1483
aVITW
p1484
aVMHK
p1485
aVMCK
p1486
aVAMG
p1487
aVWHR
p1488
aVULTA
p1489
aVPCLN
p1490
asS'06032015'
p1491
(lp1492
VPRGO
p1493
aVSIG
p1494
aVFFIV
p1495
aVEFX
p1496
aVCELG
p1497
aVANTM
p1498
aVAMP
p1499
aVLH
p1500
aVLMT
p1501
aVCXO
p1502
aVUHS
p1503
aVAET
p1504
aVSWKS
p1505
aVAVGO
p1506
aVHUM
p1507
asS'02042016'
p1508
(lp1509
VAMZN
p1510
aVREGN
p1511
aVILMN
p1512
aVAET
p1513
aVAYI
p1514
aVAMG
p1515
aVWHR
p1516
aVAVGO
p1517
aVSHW
p1518
aVGOOG
p1519
aVPCLN
p1520
asS'07202015'
p1521
(lp1522
VANTM
p1523
aVCXO
p1524
aVUHS
p1525
aVPVH
p1526
aVFFIV
p1527
aVEFX
p1528
aVAVGO
p1529
aVLH
p1530
aVAMP
p1531
aVVRTX
p1532
aVTSO
p1533
asS'07202016'
p1534
(lp1535
VGPC
p1536
aVPSA
p1537
aVXEC
p1538
aVDIS
p1539
aVHON
p1540
aVCME
p1541
aVPPG
p1542
aVMCK
p1543
aVFB
p1544
aVAPD
p1545
aVSHW
p1546
aVILMN
p1547
aVAYI
p1548
aVALXN
p1549
aVPCLN
p1550
asS'05152015'
p1551
(lp1552
VCXO
p1553
aVHAR
p1554
aVSIG
p1555
aVPRGO
p1556
aVLH
p1557
aVNFLX
p1558
aVPVH
p1559
aVMCO
p1560
aVMPC
p1561
aVSTZ
p1562
aVAMP
p1563
aVANTM
p1564
aVHUM
p1565
aVROK
p1566
asS'10042016'
p1567
(lp1568
VBLK
p1569
aVALXN
p1570
aVFB
p1571
aVAAPL
p1572
aVSHW
p1573
aVAYI
p1574
aVPH
p1575
aVUTX
p1576
aVPSA
p1577
aVMNST
p1578
aVPVH
p1579
aVILMN
p1580
aVSNA
p1581
aVPX
p1582
aVPCLN
p1583
asS'07192016'
p1584
(lp1585
VHUM
p1586
aVPSA
p1587
aVXEC
p1588
aVHON
p1589
aVCME
p1590
aVFB
p1591
aVPPG
p1592
aVPXD
p1593
aVMCK
p1594
aVAPD
p1595
aVSHW
p1596
aVAYI
p1597
aVALXN
p1598
asS'08152016'
p1599
(lp1600
VPSA
p1601
aVBIIB
p1602
aVMCK
p1603
aVSNA
p1604
aVFB
p1605
aVCME
p1606
aVULTA
p1607
aVAPD
p1608
aVBA
p1609
aVWYNN
p1610
aVPH
p1611
aVAYI
p1612
asS'06172016'
p1613
(lp1614
VPXD
p1615
aVXEC
p1616
aVFB
p1617
aVSWK
p1618
aVFISV
p1619
aVITW
p1620
aVHON
p1621
aVWYNN
p1622
aVPCLN
p1623
aVESS
p1624
aVSPG
p1625
asS'06172015'
p1626
(lp1627
VHUM
p1628
aVMNK
p1629
aVAGN
p1630
aVAVGO
p1631
aVVRTX
p1632
aVSTZ
p1633
aVCELG
p1634
aVPVH
p1635
aVGS
p1636
aVSIG
p1637
aVLH
p1638
aVAET
p1639
aVCXO
p1640
aVEW
p1641
asS'05222015'
p1642
(lp1643
VMNST
p1644
aVHAR
p1645
aVSIG
p1646
aVCXO
p1647
aVROK
p1648
aVAMP
p1649
aVLH
p1650
aVTDG
p1651
aVANTM
p1652
aVCELG
p1653
aVNFLX
p1654
aVEW
p1655
aVHUM
p1656
aVAVGO
p1657
asS'12312015'
p1658
(lp1659
VAYI
p1660
aVSHW
p1661
aVAVGO
p1662
aVAAPL
p1663
aVTSO
p1664
aVGILD
p1665
aVALXN
p1666
aVAET
p1667
aVWHR
p1668
aVREGN
p1669
asS'05282015'
p1670
(lp1671
VMNST
p1672
aVSIG
p1673
aVFFIV
p1674
aVSNA
p1675
aVROK
p1676
aVCXO
p1677
aVMMM
p1678
aVAMP
p1679
aVTDG
p1680
aVANTM
p1681
aVCELG
p1682
aVLH
p1683
aVEW
p1684
aVEXPE
p1685
aVHUM
p1686
aVSWKS
p1687
aVAGN
p1688
aVAVGO
p1689
asS'07272015'
p1690
(lp1691
VIBM
p1692
aVANTM
p1693
aVROK
p1694
aVSWKS
p1695
aVPVH
p1696
aVAVGO
p1697
aVVRTX
p1698
aVNOC
p1699
aVHAR
p1700
aVCXO
p1701
aVHUM
p1702
aVAMP
p1703
aVLH
p1704
aVEFX
p1705
aVLMT
p1706
aVPRGO
p1707
aVFFIV
p1708
asS'08192015'
p1709
(lp1710
VPCLN
p1711
aVAMZN
p1712
aVHAR
p1713
aVGS
p1714
aVLLL
p1715
aVLH
p1716
aVLMT
p1717
aVTSO
p1718
aVAVGO
p1719
aVNOC
p1720
aVVRTX
p1721
aVPVH
p1722
aVMLM
p1723
aVCXO
p1724
aVPRGO
p1725
aVSTZ
p1726
aVHUM
p1727
aVNFLX
p1728
asS'06152015'
p1729
(lp1730
VAGN
p1731
aVMNK
p1732
aVAVGO
p1733
aVCELG
p1734
aVMMM
p1735
aVSTZ
p1736
aVMCO
p1737
aVUNH
p1738
aVSIG
p1739
aVAET
p1740
aVHUM
p1741
aVPVH
p1742
aVLH
p1743
aVAMP
p1744
aVMNST
p1745
aVEW
p1746
aVCXO
p1747
asS'06042015'
p1748
(lp1749
VPRGO
p1750
aVFFIV
p1751
aVSIG
p1752
aVIFF
p1753
aVTDG
p1754
aVANTM
p1755
aVCELG
p1756
aVMCO
p1757
aVAMP
p1758
aVNEE
p1759
aVUHS
p1760
aVCXO
p1761
aVAET
p1762
aVSWKS
p1763
aVLMT
p1764
aVLH
p1765
aVAVGO
p1766
aVHUM
p1767
asS'10202015'
p1768
(lp1769
VMLM
p1770
aVAVGO
p1771
aVCI
p1772
aVLH
p1773
aVSPG
p1774
aVPCLN
p1775
asS'10202016'
p1776
(lp1777
VILMN
p1778
aVPCLN
p1779
aVROP
p1780
aVEW
p1781
aVBLK
p1782
aVPVH
p1783
aVCXO
p1784
aVAAPL
p1785
aVMNST
p1786
aVPSA
p1787
aVSHW
p1788
asS'06232016'
p1789
(lp1790
VPXD
p1791
aVAYI
p1792
aVSHW
p1793
aVFB
p1794
aVFISV
p1795
aVWYNN
p1796
aVMHK
p1797
aVXEC
p1798
aVSWK
p1799
aVHON
p1800
aVMKC
p1801
aVWHR
p1802
aVPCLN
p1803
asS'11182015'
p1804
(lp1805
VPCLN
p1806
aVGOOGL
p1807
aVGOOG
p1808
aVGD
p1809
aVALXN
p1810
aVTSO
p1811
aVREGN
p1812
aVWHR
p1813
aVAVGO
p1814
aVANTM
p1815
aVSRCL
p1816
aVUHS
p1817
aVVMC
p1818
aVMLM
p1819
aVNFLX
p1820
asS'11182016'
p1821
(lp1822
VFB
p1823
aVPCLN
p1824
aVPX
p1825
aVBA
p1826
aVXEC
p1827
aVFFIV
p1828
aVAPD
p1829
aVILMN
p1830
aVROK
p1831
aVSNA
p1832
aVSLG
p1833
aVROP
p1834
aVPH
p1835
aVGWW
p1836
aVADS
p1837
aVSHW
p1838
aVAMP
p1839
aVBIIB
p1840
aVAYI
p1841
asS'06232015'
p1842
(lp1843
VHUM
p1844
aVAVGO
p1845
aVMNK
p1846
aVSTZ
p1847
aVPVH
p1848
aVLH
p1849
aVCXO
p1850
aVVRTX
p1851
aVAGN
p1852
aVORLY
p1853
aVAET
p1854
aVCELG
p1855
asS'12192016'
p1856
(lp1857
VAMP
p1858
aVURI
p1859
aVGWW
p1860
aVCXO
p1861
aVSNA
p1862
aVILMN
p1863
asS'06152016'
p1864
(lp1865
VXEC
p1866
aVMHK
p1867
aVFB
p1868
aVSWK
p1869
aVPXD
p1870
aVESS
p1871
aVSHW
p1872
aVHON
p1873
aVULTA
p1874
aVWYNN
p1875
aVHUM
p1876
aVPCLN
p1877
asS'10162015'
p1878
(lp1879
VMLM
p1880
aVMTB
p1881
aVAVGO
p1882
aVEW
p1883
aVCI
p1884
aVNFLX
p1885
aVPCLN
p1886
asS'04262016'
p1887
(lp1888
VGOOG
p1889
aVPSA
p1890
aVWHR
p1891
aVSPG
p1892
aVAAPL
p1893
aVAYI
p1894
aVEQIX
p1895
aVULTA
p1896
aVSHW
p1897
aVEW
p1898
aVXEC
p1899
aVSWK
p1900
aVCELG
p1901
aVPCLN
p1902
aVPXD
p1903
asS'08272015'
p1904
(lp1905
VPCLN
p1906
aVMLM
p1907
aVFFIV
p1908
aVNOC
p1909
aVVRTX
p1910
aVPRGO
p1911
aVLH
p1912
aVLLL
p1913
aVSTZ
p1914
aVHUM
p1915
aVPVH
p1916
aVNFLX
p1917
asS'05252016'
p1918
(lp1919
VPCLN
p1920
aVEW
p1921
aVPSA
p1922
aVSHW
p1923
aVFB
p1924
aVORLY
p1925
aVHON
p1926
aVFISV
p1927
aVXEC
p1928
aVWHR
p1929
aVVMC
p1930
aVBLK
p1931
aVSIG
p1932
aVMCK
p1933
asS'12242015'
p1934
(lp1935
VREGN
p1936
aVSHW
p1937
aVAAPL
p1938
aVTSO
p1939
aVAVGO
p1940
aVWHR
p1941
aVALXN
p1942
aVAYI
p1943
aVEQIX
p1944
aVGILD
p1945
aVAET
p1946
asS'04292016'
p1947
(lp1948
VGOOG
p1949
aVPSA
p1950
aVWHR
p1951
aVAYI
p1952
aVALXN
p1953
aVSHW
p1954
aVSPG
p1955
aVPCLN
p1956
aVSIG
p1957
aVMCK
p1958
aVXEC
p1959
aVSWK
p1960
aVAET
p1961
aVPXD
p1962
asS'05172016'
p1963
(lp1964
VPCLN
p1965
aVWHR
p1966
aVEW
p1967
aVAYI
p1968
aVPX
p1969
aVPXD
p1970
aVSIG
p1971
aVSHW
p1972
aVHON
p1973
aVESS
p1974
aVSWK
p1975
aVXEC
p1976
aVFISV
p1977
aVGOOG
p1978
asS'04292015'
p1979
(lp1980
VPRGO
p1981
aVHUM
p1982
aVTDG
p1983
aVPVH
p1984
aVSIG
p1985
aVSTZ
p1986
aVHON
p1987
aVAMP
p1988
aVCXO
p1989
aVNFLX
p1990
asS'11252015'
p1991
(lp1992
VPCLN
p1993
aVGOOGL
p1994
aVORLY
p1995
aVGOOG
p1996
aVLLL
p1997
aVANTM
p1998
aVGD
p1999
aVRL
p2000
aVTSO
p2001
aVULTA
p2002
aVVMC
p2003
aVEW
p2004
aVMLM
p2005
asS'11252016'
p2006
(lp2007
VBA
p2008
aVPVH
p2009
aVPX
p2010
aVFB
p2011
aVCVX
p2012
aVSNA
p2013
aVCXO
p2014
aVROP
p2015
aVWHR
p2016
aVILMN
p2017
aVAMP
p2018
aVAYI
p2019
aVSHW
p2020
asS'04052016'
p2021
(lp2022
VPCLN
p2023
aVCXO
p2024
aVBA
p2025
aVSHW
p2026
aVAET
p2027
aVWHR
p2028
aVHON
p2029
aVFB
p2030
aVULTA
p2031
aVFISV
p2032
aVGOOG
p2033
aVSPG
p2034
aVMKC
p2035
aVAAPL
p2036
asS'03062015'
p2037
(lp2038
VNFLX
p2039
aVAYI
p2040
aVLMT
p2041
aVAMP
p2042
aVHON
p2043
aVCMG
p2044
aVPH
p2045
aVHUM
p2046
aVMNK
p2047
aVSIG
p2048
aVPRGO
p2049
aVAVGO
p2050
asS'03082016'
p2051
(lp2052
VAET
p2053
aVANTM
p2054
aVALXN
p2055
aVSHW
p2056
aVAMG
p2057
aVAYI
p2058
aVPCLN
p2059
asS'07022015'
p2060
(lp2061
VCXO
p2062
aVAVGO
p2063
aVGS
p2064
aVFFIV
p2065
aVEQIX
p2066
aVSIG
p2067
aVAMP
p2068
aVSTZ
p2069
aVPRGO
p2070
aVMNK
p2071
aVPVH
p2072
aVLH
p2073
aVUHS
p2074
asS'09142015'
p2075
(lp2076
VMNST
p2077
aVFFIV
p2078
aVPVH
p2079
aVPRGO
p2080
aVNOC
p2081
aVVRTX
p2082
aVHUM
p2083
aVREGN
p2084
aVPCLN
p2085
asS'11042016'
p2086
(lp2087
VPCLN
p2088
aVXEC
p2089
aVCXO
p2090
aVFB
p2091
aVPVH
p2092
aVADS
p2093
aVROP
p2094
aVBA
p2095
aVILMN
p2096
aVGWW
p2097
aVAPD
p2098
asS'11042015'
p2099
(lp2100
VSRCL
p2101
aVFFIV
p2102
aVANTM
p2103
aVSTZ
p2104
aVEFX
p2105
aVMLM
p2106
aVGD
p2107
aVFB
p2108
aVAVGO
p2109
aVHAR
p2110
aVLLL
p2111
aVTSO
p2112
aVNFLX
p2113
aVGOOG
p2114
aVPCLN
p2115
asS'07152015'
p2116
(lp2117
VANTM
p2118
aVAVGO
p2119
aVCXO
p2120
aVFFIV
p2121
aVPVH
p2122
aVROK
p2123
aVGS
p2124
aVSTZ
p2125
aVAMP
p2126
aVLH
p2127
aVVRTX
p2128
aVORLY
p2129
aVMNST
p2130
aVLMT
p2131
asS'07152016'
p2132
(lp2133
VHUM
p2134
aVXEC
p2135
aVPSA
p2136
aVHON
p2137
aVFB
p2138
aVROP
p2139
aVPXD
p2140
aVPPG
p2141
aVAPD
p2142
aVILMN
p2143
aVMCK
p2144
aVALXN
p2145
aVAYI
p2146
aVPCLN
p2147
asS'08142015'
p2148
(lp2149
VMNK
p2150
aVGS
p2151
aVREGN
p2152
aVPCLN
p2153
aVLH
p2154
aVAMP
p2155
aVIBM
p2156
aVANTM
p2157
aVEQIX
p2158
aVBF-B
p2159
aVNOC
p2160
aVAVGO
p2161
aVVRTX
p2162
aVFFIV
p2163
aVPRGO
p2164
aVTSO
p2165
aVEXPE
p2166
aVHUM
p2167
aVSTZ
p2168
aVMLM
p2169
aVCXO
p2170
aVNFLX
p2171
asS'01262016'
p2172
(lp2173
VAYI
p2174
aVALXN
p2175
aVGOOG
p2176
aVAVGO
p2177
aVAET
p2178
aVREGN
p2179
aVICE
p2180
aVILMN
p2181
aVWHR
p2182
aVAAPL
p2183
aVSHW
p2184
asS'01262017'
p2185
(lp2186
VBIIB
p2187
aVWHR
p2188
aVADP
p2189
aVCVX
p2190
aVNVDA
p2191
aVBLK
p2192
aVAYI
p2193
aVILMN
p2194
aVCXO
p2195
asS'09062016'
p2196
(lp2197
VPCLN
p2198
aVILMN
p2199
aVAYI
p2200
aVPH
p2201
aVSLG
p2202
aVSHW
p2203
aVSNA
p2204
aVCME
p2205
aVFB
p2206
aVPSA
p2207
aVADS
p2208
asS'03292016'
p2209
(lp2210
VPCLN
p2211
aVSHW
p2212
aVCXO
p2213
aVHON
p2214
aVSPG
p2215
aVWHR
p2216
aVESS
p2217
aVULTA
p2218
aVGOOG
p2219
asS'02112016'
p2220
(lp2221
VREGN
p2222
aVILMN
p2223
aVSHW
p2224
asS'01042016'
p2225
(lp2226
VREGN
p2227
aVSHW
p2228
aVAYI
p2229
aVAVGO
p2230
aVALXN
p2231
aVAAPL
p2232
aVGILD
p2233
aVWHR
p2234
aVTSO
p2235
asS'01042017'
p2236
(lp2237
VBLK
p2238
aVFDX
p2239
aVGWW
p2240
aVNVDA
p2241
aVCXO
p2242
aVEOG
p2243
aVCVX
p2244
aVRTN
p2245
aVILMN
p2246
aVBIIB
p2247
asS'12162015'
p2248
(lp2249
VGOOG
p2250
aVTSO
p2251
aVWHR
p2252
aVAAPL
p2253
aVREGN
p2254
aVGD
p2255
aVUHS
p2256
aVAYI
p2257
aVAVGO
p2258
aVUNH
p2259
aVAET
p2260
asS'12162016'
p2261
(lp2262
VPVH
p2263
aVAMP
p2264
aVURI
p2265
aVGWW
p2266
aVCXO
p2267
aVSHW
p2268
aVEOG
p2269
aVNEE
p2270
aVILMN
p2271
asS'07272016'
p2272
(lp2273
VSHW
p2274
aVPCLN
p2275
aVPSA
p2276
aVHON
p2277
aVGPC
p2278
aVROP
p2279
aVAYI
p2280
aVPXD
p2281
aVUHS
p2282
aVPPG
p2283
aVCME
p2284
aVFB
p2285
aVILMN
p2286
aVBIIB
p2287
asS'01052017'
p2288
(lp2289
VBLK
p2290
aVGWW
p2291
aVNVDA
p2292
aVCVX
p2293
aVEOG
p2294
aVADS
p2295
aVSTZ
p2296
aVILMN
p2297
aVBIIB
p2298
asS'01052016'
p2299
(lp2300
VSHW
p2301
aVAYI
p2302
aVALXN
p2303
aVAAPL
p2304
aVGILD
p2305
aVWHR
p2306
aVTSO
p2307
asS'03172016'
p2308
(lp2309
VAET
p2310
aVHON
p2311
aVSPG
p2312
aVAYI
p2313
aVESS
p2314
aVSIG
p2315
aVAMG
p2316
aVAMZN
p2317
aVPCLN
p2318
asS'03172015'
p2319
(lp2320
VNFLX
p2321
aVTDG
p2322
aVAYI
p2323
aVAMP
p2324
aVCELG
p2325
aVSIG
p2326
aVHUM
p2327
aVPRGO
p2328
aVCMG
p2329
asS'05092016'
p2330
(lp2331
VPCLN
p2332
aVAYI
p2333
aVGOOG
p2334
aVWHR
p2335
aVSHW
p2336
aVEW
p2337
aVPXD
p2338
aVSWK
p2339
aVHON
p2340
aVXEC
p2341
aVAET
p2342
aVSPG
p2343
aVESS
p2344
aVICE
p2345
asS'05292015'
p2346
(lp2347
VNFLX
p2348
aVSIG
p2349
aVFFIV
p2350
aVEFX
p2351
aVAMP
p2352
aVTDG
p2353
aVCXO
p2354
aVLMT
p2355
aVCELG
p2356
aVLH
p2357
aVANTM
p2358
aVAVGO
p2359
aVHUM
p2360
asS'07122016'
p2361
(lp2362
VFISV
p2363
aVPXD
p2364
aVROP
p2365
aVPPG
p2366
aVFB
p2367
aVAPD
p2368
aVWHR
p2369
aVPSA
p2370
aVMCK
p2371
aVSHW
p2372
aVISRG
p2373
aVAYI
p2374
aVPCLN
p2375
asS'06202016'
p2376
(lp2377
VAYI
p2378
aVPXD
p2379
aVXEC
p2380
aVFB
p2381
aVULTA
p2382
aVSHW
p2383
aVFISV
p2384
aVITW
p2385
aVSWK
p2386
aVHON
p2387
aVWYNN
p2388
aVPCLN
p2389
asS'03282016'
p2390
(lp2391
VPCLN
p2392
aVSHW
p2393
aVCXO
p2394
aVSPG
p2395
aVFISV
p2396
aVHON
p2397
aVWHR
p2398
aVESS
p2399
aVBA
p2400
aVULTA
p2401
aVGOOG
p2402
asS'01282016'
p2403
(lp2404
VREGN
p2405
aVAYI
p2406
aVALXN
p2407
aVILMN
p2408
aVAET
p2409
aVAVGO
p2410
aVWHR
p2411
asS'04212016'
p2412
(lp2413
VEQIX
p2414
aVSPG
p2415
aVAAPL
p2416
aVWHR
p2417
aVFISV
p2418
aVSHW
p2419
aVHON
p2420
aVSWK
p2421
aVGOOG
p2422
aVPXD
p2423
aVXEC
p2424
aVAYI
p2425
aVCMG
p2426
aVPCLN
p2427
asS'04092015'
p2428
(lp2429
VAGN
p2430
aVCMG
p2431
aVEW
p2432
aVHUM
p2433
aVAMP
p2434
aVLMT
p2435
aVORLY
p2436
aVWAT
p2437
aVHON
p2438
aVPVH
p2439
aVCXO
p2440
aVNFLX
p2441
aVPRGO
p2442
asS'08162016'
p2443
(lp2444
VISRG
p2445
aVBIIB
p2446
aVPSA
p2447
aVMCK
p2448
aVSNA
p2449
aVFB
p2450
aVEXPE
p2451
aVCME
p2452
aVILMN
p2453
aVALXN
p2454
aVAPD
p2455
aVPX
p2456
aVAYI
p2457
asS'09232015'
p2458
(lp2459
VMLM
p2460
aVPRGO
p2461
aVPVH
p2462
aVFFIV
p2463
aVSTZ
p2464
aVAVGO
p2465
aVHUM
p2466
aVCOST
p2467
aVNFLX
p2468
asS'09232016'
p2469
(lp2470
VXEC
p2471
aVPVH
p2472
aVPH
p2473
aVFB
p2474
aVSLG
p2475
aVWYNN
p2476
aVALXN
p2477
aVAAPL
p2478
aVPCLN
p2479
aVSNA
p2480
aVILMN
p2481
aVSHW
p2482
aVPSA
p2483
asS'11112016'
p2484
(lp2485
VFB
p2486
aVXEC
p2487
aVADBE
p2488
aVCXO
p2489
aVPX
p2490
aVBA
p2491
aVPVH
p2492
aVFFIV
p2493
aVILMN
p2494
aVADS
p2495
aVROP
p2496
aVCME
p2497
aVPH
p2498
aVSHW
p2499
aVAMP
p2500
aVGWW
p2501
aVPCLN
p2502
asS'07242015'
p2503
(lp2504
VANTM
p2505
aVIBM
p2506
aVPVH
p2507
aVHUM
p2508
aVCXO
p2509
aVNOC
p2510
aVVRTX
p2511
aVLH
p2512
aVPRGO
p2513
aVLMT
p2514
aVMLM
p2515
aVFFIV
p2516
asS'02162016'
p2517
(lp2518
VGOOG
p2519
aVREGN
p2520
aVFB
p2521
aVILMN
p2522
aVAYI
p2523
aVWHR
p2524
aVCB
p2525
aVSHW
p2526
asS'10152015'
p2527
(lp2528
VMLM
p2529
aVAVGO
p2530
aVCI
p2531
aVSTZ
p2532
aVNFLX
p2533
aVPCLN
p2534
asS'06142016'
p2535
(lp2536
VAYI
p2537
aVESS
p2538
aVXEC
p2539
aVFB
p2540
aVPXD
p2541
aVSWK
p2542
aVFISV
p2543
aVHON
p2544
aVORLY
p2545
aVDLR
p2546
aVWYNN
p2547
aVULTA
p2548
aVHUM
p2549
aVPCLN
p2550
asS'10082015'
p2551
(lp2552
VAVGO
p2553
aVREGN
p2554
aVANTM
p2555
aVMLM
p2556
aVNOC
p2557
aVPCLN
p2558
aVNFLX
p2559
asS'06282016'
p2560
(lp2561
VPCLN
p2562
aVALXN
p2563
aVMHK
p2564
aVPXD
p2565
aVIBM
p2566
aVSWK
p2567
aVITW
p2568
aVPPG
p2569
aVXEC
p2570
aVFB
p2571
aVHON
p2572
aVILMN
p2573
aVROP
p2574
aVMKC
p2575
aVPSA
p2576
aVORLY
p2577
asS'11292016'
p2578
(lp2579
VBIIB
p2580
aVPCLN
p2581
aVROK
p2582
aVCXO
p2583
aVPVH
p2584
aVSNA
p2585
aVCVX
p2586
aVBA
p2587
aVXEC
p2588
aVROP
p2589
aVFB
p2590
aVAMP
p2591
aVWHR
p2592
aVAYI
p2593
aVILMN
p2594
aVWYNN
p2595
aVSHW
p2596
asS'05012015'
p2597
(lp2598
VPRGO
p2599
aVMNK
p2600
aVTDG
p2601
aVLMT
p2602
aVMMM
p2603
aVAVGO
p2604
aVSIG
p2605
aVPVH
p2606
aVCXO
p2607
aVAMP
p2608
aVSTZ
p2609
aVHON
p2610
asS'05132015'
p2611
(lp2612
VMNST
p2613
aVGOOGL
p2614
aVCXO
p2615
aVHAR
p2616
aVLH
p2617
aVPRGO
p2618
aVSIG
p2619
aVMCO
p2620
aVHUM
p2621
aVUHS
p2622
aVAMP
p2623
aVEXPE
p2624
aVROK
p2625
asS'05132016'
p2626
(lp2627
VPCLN
p2628
aVWHR
p2629
aVAYI
p2630
aVEW
p2631
aVSPG
p2632
aVPX
p2633
aVSIG
p2634
aVPXD
p2635
aVSHW
p2636
aVHON
p2637
aVSWK
p2638
aVROP
p2639
aVXEC
p2640
aVESS
p2641
aVFB
p2642
aVFISV
p2643
aVGOOG
p2644
asS'07062015'
p2645
(lp2646
VCXO
p2647
aVAVGO
p2648
aVGS
p2649
aVFFIV
p2650
aVAET
p2651
aVEQIX
p2652
aVAMP
p2653
aVSIG
p2654
aVSTZ
p2655
aVPRGO
p2656
aVMNK
p2657
aVPVH
p2658
aVLH
p2659
aVORLY
p2660
aVUHS
p2661
asS'07062016'
p2662
(lp2663
VPCLN
p2664
aVPXD
p2665
aVAPD
p2666
aVPPG
p2667
aVROP
p2668
aVALXN
p2669
aVFB
p2670
aVDLR
p2671
aVWAT
p2672
aVMCK
p2673
aVPSA
p2674
asS'05262015'
p2675
(lp2676
VMNST
p2677
aVNFLX
p2678
aVHAR
p2679
aVSIG
p2680
aVEFX
p2681
aVCXO
p2682
aVROK
p2683
aVAMP
p2684
aVTDG
p2685
aVANTM
p2686
aVCELG
p2687
aVLH
p2688
aVEW
p2689
aVEXPE
p2690
aVHUM
p2691
asS'05262016'
p2692
(lp2693
VEW
p2694
aVSHW
p2695
aVROP
p2696
aVPSA
p2697
aVFB
p2698
aVSIG
p2699
aVPCLN
p2700
aVEXPE
p2701
aVSWK
p2702
aVXEC
p2703
aVULTA
p2704
aVVMC
p2705
aVAYI
p2706
aVAET
p2707
aVWHR
p2708
aVORLY
p2709
aVMCK
p2710
aVTDG
p2711
asS'03032015'
p2712
(lp2713
VAMP
p2714
aVCELG
p2715
aVHON
p2716
aVCMG
p2717
aVLMT
p2718
aVABC
p2719
aVGILD
p2720
aVGS
p2721
aVSIG
p2722
aVHUM
p2723
aVUHS
p2724
aVPRGO
p2725
asS'03032016'
p2726
(lp2727
VAET
p2728
aVSHW
p2729
aVAMG
p2730
aVPCLN
p2731
asS'11112015'
p2732
(lp2733
VPCLN
p2734
aVANTM
p2735
aVGD
p2736
aVEXPE
p2737
aVLLL
p2738
aVSRCL
p2739
aVREGN
p2740
aVWHR
p2741
aVTSO
p2742
aVGOOG
p2743
aVVMC
p2744
aVPRGO
p2745
aVMLM
p2746
aVNFLX
p2747
asS'04212015'
p2748
(lp2749
VHUM
p2750
aVPVH
p2751
aVLMT
p2752
aVSTZ
p2753
aVEW
p2754
aVAYI
p2755
aVHON
p2756
aVAMP
p2757
aVCXO
p2758
aVPRGO
p2759
aVNFLX
p2760
asS'12042015'
p2761
(lp2762
VREGN
p2763
aVTSO
p2764
aVGOOG
p2765
aVWHR
p2766
aVGD
p2767
aVAET
p2768
asS'09032015'
p2769
(lp2770
VPCLN
p2771
aVPRGO
p2772
aVMNST
p2773
aVFFIV
p2774
aVVRTX
p2775
aVNOC
p2776
aVEQIX
p2777
aVLH
p2778
aVLLL
p2779
aVMLM
p2780
aVANTM
p2781
aVHUM
p2782
aVPVH
p2783
aVCXO
p2784
aVNFLX
p2785
asS'09022016'
p2786
(lp2787
VPCLN
p2788
aVBIIB
p2789
aVILMN
p2790
aVAYI
p2791
aVCXO
p2792
aVPH
p2793
aVBLK
p2794
aVSHW
p2795
aVZBH
p2796
aVFB
p2797
aVSNA
p2798
aVCME
p2799
aVAMP
p2800
aVADS
p2801
aVPSA
p2802
asS'09022015'
p2803
(lp2804
VPCLN
p2805
aVEQIX
p2806
aVPRGO
p2807
aVFFIV
p2808
aVNOC
p2809
aVVRTX
p2810
aVLH
p2811
aVLLL
p2812
aVMLM
p2813
aVANTM
p2814
aVCXO
p2815
aVPVH
p2816
aVNFLX
p2817
asS'09092015'
p2818
(lp2819
VPRGO
p2820
aVMNST
p2821
aVFFIV
p2822
aVLH
p2823
aVSTZ
p2824
aVNOC
p2825
aVVRTX
p2826
aVHUM
p2827
aVEQIX
p2828
asS'09092016'
p2829
(lp2830
VBIIB
p2831
aVPCLN
p2832
aVAYI
p2833
aVISRG
p2834
aVBLK
p2835
aVILMN
p2836
aVFFIV
p2837
aVAAPL
p2838
aVPH
p2839
aVCXO
p2840
aVSNA
p2841
aVFB
p2842
aVPSA
p2843
aVADS
p2844
asS'05112016'
p2845
(lp2846
VPCLN
p2847
aVWHR
p2848
aVAYI
p2849
aVEW
p2850
aVSHW
p2851
aVPXD
p2852
aVORLY
p2853
aVSIG
p2854
aVHON
p2855
aVSWK
p2856
aVROP
p2857
aVXEC
p2858
aVSPG
p2859
aVFB
p2860
aVFISV
p2861
aVGOOG
p2862
aVESS
p2863
aVPSA
p2864
aVICE
p2865
asS'04222015'
p2866
(lp2867
VBIIB
p2868
aVSIG
p2869
aVPVH
p2870
aVHUM
p2871
aVSTZ
p2872
aVLMT
p2873
aVEW
p2874
aVHON
p2875
aVCXO
p2876
aVPRGO
p2877
aVNFLX
p2878
asS'12052016'
p2879
(lp2880
VPCLN
p2881
aVSNA
p2882
aVPVH
p2883
aVAMP
p2884
aVROP
p2885
aVAYI
p2886
aVILMN
p2887
aVROK
p2888
aVCVX
p2889
aVSHW
p2890
aVURI
p2891
aVCXO
p2892
aVMCK
p2893
aVXEC
p2894
asS'06162016'
p2895
(lp2896
VXEC
p2897
aVPXD
p2898
aVMHK
p2899
aVFB
p2900
aVSWK
p2901
aVSHW
p2902
aVFISV
p2903
aVEW
p2904
aVULTA
p2905
aVHON
p2906
aVESS
p2907
aVWYNN
p2908
aVPCLN
p2909
asS'06162015'
p2910
(lp2911
VHUM
p2912
aVMNK
p2913
aVAGN
p2914
aVAVGO
p2915
aVMON
p2916
aVSTZ
p2917
aVCELG
p2918
aVSIG
p2919
aVGS
p2920
aVLH
p2921
aVAET
p2922
aVCXO
p2923
aVEW
p2924
asS'04132015'
p2925
(lp2926
VAGN
p2927
aVHUM
p2928
aVAMP
p2929
aVEW
p2930
aVHON
p2931
aVTDG
p2932
aVPVH
p2933
aVCXO
p2934
aVPRGO
p2935
asS'04132016'
p2936
(lp2937
VPCLN
p2938
aVEQIX
p2939
aVGOOG
p2940
aVWHR
p2941
aVSPG
p2942
aVHON
p2943
aVAAPL
p2944
aVPXD
p2945
aVSWK
p2946
aVRTN
p2947
aVSHW
p2948
aVULTA
p2949
aVCELG
p2950
asS'08062015'
p2951
(lp2952
VMNK
p2953
aVIBM
p2954
aVAVGO
p2955
aVTMO
p2956
aVAMP
p2957
aVPRGO
p2958
aVPVH
p2959
aVHUM
p2960
aVLH
p2961
aVEFX
p2962
aVLMT
p2963
aVNOC
p2964
aVEQIX
p2965
aVBF-B
p2966
aVCXO
p2967
aVMLM
p2968
aVVRTX
p2969
aVEXPE
p2970
aVPCLN
p2971
asS'09302016'
p2972
(lp2973
VALXN
p2974
aVWYNN
p2975
aVFB
p2976
aVADS
p2977
aVBIIB
p2978
aVPH
p2979
aVILMN
p2980
aVAYI
p2981
aVSNA
p2982
aVSHW
p2983
aVPSA
p2984
asS'06082016'
p2985
(lp2986
VESS
p2987
aVALXN
p2988
aVSWK
p2989
aVXEC
p2990
aVFISV
p2991
aVAMG
p2992
aVMCK
p2993
aVITW
p2994
aVMHK
p2995
aVWHR
p2996
aVULTA
p2997
aVPCLN
p2998
asS'06082015'
p2999
(lp3000
VPRGO
p3001
aVANTM
p3002
aVFFIV
p3003
aVTDG
p3004
aVMNK
p3005
aVCELG
p3006
aVSIG
p3007
aVSWKS
p3008
aVMMM
p3009
aVNKE
p3010
aVAET
p3011
aVAMP
p3012
aVLMT
p3013
aVCXO
p3014
aVLH
p3015
aVAVGO
p3016
aVHUM
p3017
asS'10282015'
p3018
(lp3019
VEXPE
p3020
aVSTZ
p3021
aVANTM
p3022
aVMLM
p3023
aVDNB
p3024
aVEFX
p3025
aVTSO
p3026
aVAET
p3027
aVSPG
p3028
aVNFLX
p3029
aVFB
p3030
aVAVGO
p3031
aVPCLN
p3032
asS'10282016'
p3033
(lp3034
VSHW
p3035
aVCXO
p3036
aVXEC
p3037
aVPVH
p3038
aVILMN
p3039
aVROP
p3040
aVADS
p3041
aVPCLN
p3042
aVSTZ
p3043
aVFB
p3044
aVSNA
p3045
aVAPD
p3046
asS'05312016'
p3047
(lp3048
VPXD
p3049
aVROP
p3050
aVSHW
p3051
aVXEC
p3052
aVSWK
p3053
aVEXPE
p3054
aVFB
p3055
aVPSA
p3056
aVVMC
p3057
aVHON
p3058
aVCXO
p3059
aVCMG
p3060
aVAET
p3061
aVMCK
p3062
aVWHR
p3063
aVORLY
p3064
aVTDG
p3065
aVPCLN
p3066
aVAAPL
p3067
aVULTA
p3068
asS'01232017'
p3069
(lp3070
VBIIB
p3071
aVCVX
p3072
aVWHR
p3073
aVCXO
p3074
aVMLM
p3075
aVILMN
p3076
asS'09112015'
p3077
(lp3078
VMNST
p3079
aVPRGO
p3080
aVFFIV
p3081
aVSTZ
p3082
aVPVH
p3083
aVCXO
p3084
aVNOC
p3085
aVVRTX
p3086
aVHUM
p3087
asS'12282016'
p3088
(lp3089
VAMP
p3090
aVURI
p3091
aVCXO
p3092
aVEOG
p3093
aVCVX
p3094
aVVMC
p3095
aVSTZ
p3096
aVNVDA
p3097
asS'07302015'
p3098
(lp3099
VIBM
p3100
aVROK
p3101
aVAVGO
p3102
aVUNH
p3103
aVANTM
p3104
aVPVH
p3105
aVMNK
p3106
aVHUM
p3107
aVVRTX
p3108
aVAMP
p3109
aVMLM
p3110
aVLH
p3111
aVEFX
p3112
aVCXO
p3113
aVNOC
p3114
aVLMT
p3115
aVPRGO
p3116
aVEQIX
p3117
asS'12282015'
p3118
(lp3119
VREGN
p3120
aVAAPL
p3121
aVTSO
p3122
aVWHR
p3123
aVGILD
p3124
aVEQIX
p3125
asS'02202015'
p3126
(lp3127
VCMG
p3128
aVCELG
p3129
aVSIG
p3130
aVAMP
p3131
aVPRGO
p3132
aVHUM
p3133
aVABC
p3134
aVAVGO
p3135
aVMNK
p3136
aVAMZN
p3137
aVSPGI
p3138
aVLMT
p3139
aVGOOGL
p3140
aVGS
p3141
aVDNB
p3142
asS'07282015'
p3143
(lp3144
VIBM
p3145
aVROK
p3146
aVANTM
p3147
aVNOC
p3148
aVAVGO
p3149
aVVRTX
p3150
aVCXO
p3151
aVHAR
p3152
aVHUM
p3153
aVAMP
p3154
aVLH
p3155
aVSTZ
p3156
aVEFX
p3157
aVLMT
p3158
aVAZO
p3159
aVPRGO
p3160
asS'07282016'
p3161
(lp3162
VSHW
p3163
aVPSA
p3164
aVPCLN
p3165
aVXEC
p3166
aVSNA
p3167
aVHON
p3168
aVAYI
p3169
aVGPC
p3170
aVROP
p3171
aVPPG
p3172
aVPX
p3173
aVCME
p3174
aVFB
p3175
aVAMG
p3176
aVWYNN
p3177
aVILMN
p3178
aVBIIB
p3179
asS'11162016'
p3180
(lp3181
VFB
p3182
aVCLX
p3183
aVCXO
p3184
aVPX
p3185
aVXEC
p3186
aVPVH
p3187
aVCVX
p3188
aVBA
p3189
aVFFIV
p3190
aVAPD
p3191
aVILMN
p3192
aVADS
p3193
aVSNA
p3194
aVPCLN
p3195
aVROP
p3196
aVPH
p3197
aVGWW
p3198
aVSHW
p3199
aVAMP
p3200
aVAYI
p3201
asS'11162015'
p3202
(lp3203
VPCLN
p3204
aVREGN
p3205
aVGOOG
p3206
aVALXN
p3207
aVFFIV
p3208
aVGD
p3209
aVEW
p3210
aVLLL
p3211
aVAVGO
p3212
aVWHR
p3213
aVANTM
p3214
aVTSO
p3215
aVSRCL
p3216
aVNFLX
p3217
aVMLM
p3218
asS'08222016'
p3219
(lp3220
VBIIB
p3221
aVSHW
p3222
aVESS
p3223
aVJNJ
p3224
aVFB
p3225
aVPSA
p3226
aVSNA
p3227
aVILMN
p3228
aVIFF
p3229
aVPH
p3230
aVAYI
p3231
asS'08122015'
p3232
(lp3233
VMNK
p3234
aVTMO
p3235
aVLLL
p3236
aVIBM
p3237
aVPVH
p3238
aVPRGO
p3239
aVANTM
p3240
aVNOC
p3241
aVAVGO
p3242
aVROK
p3243
aVBF-B
p3244
aVFFIV
p3245
aVVRTX
p3246
aVHUM
p3247
aVEXPE
p3248
aVSTZ
p3249
aVHAR
p3250
aVTSO
p3251
aVMLM
p3252
aVCXO
p3253
aVAZO
p3254
aVPCLN
p3255
asS'08122016'
p3256
(lp3257
VPSA
p3258
aVSHW
p3259
aVSNA
p3260
aVAPD
p3261
aVBA
p3262
aVCME
p3263
aVULTA
p3264
aVILMN
p3265
aVBIIB
p3266
aVROP
p3267
aVAYI
p3268
aVPH
p3269
asS'01082016'
p3270
(lp3271
VREGN
p3272
aVAVGO
p3273
aVAYI
p3274
aVSHW
p3275
aVALXN
p3276
aVAAPL
p3277
aVWHR
p3278
aVWAT
p3279
aVUHS
p3280
aVGILD
p3281
aVAET
p3282
aVTSO
p3283
asS'12302015'
p3284
(lp3285
VNFLX
p3286
aVSHW
p3287
aVAAPL
p3288
aVAVGO
p3289
aVTSO
p3290
aVGILD
p3291
aVREGN
p3292
aVWHR
p3293
aVAET
p3294
aVUHS
p3295
aVCI
p3296
aVGOOG
p3297
asS'09292016'
p3298
(lp3299
VBLK
p3300
aVALXN
p3301
aVWYNN
p3302
aVSLG
p3303
aVFB
p3304
aVAAPL
p3305
aVPH
p3306
aVILMN
p3307
aVSNA
p3308
aVSHW
p3309
aVPSA
p3310
asS'09292015'
p3311
(lp3312
VPCLN
p3313
aVREGN
p3314
aVMLM
p3315
aVPVH
p3316
aVHUM
p3317
aVAVGO
p3318
aVNOC
p3319
aVFFIV
p3320
aVCOST
p3321
aVTSO
p3322
aVNFLX
p3323
asS'04142016'
p3324
(lp3325
VEQIX
p3326
aVPCLN
p3327
aVWHR
p3328
aVFISV
p3329
aVAPD
p3330
aVGOOG
p3331
aVHON
p3332
aVAAPL
p3333
aVSWK
p3334
aVSHW
p3335
aVULTA
p3336
aVCELG
p3337
aVAYI
p3338
asS'10172016'
p3339
(lp3340
VPCLN
p3341
aVILMN
p3342
aVROP
p3343
aVADS
p3344
aVBLK
p3345
aVSYK
p3346
aVFB
p3347
aVSNA
p3348
aVPH
p3349
aVSHW
p3350
aVSLG
p3351
aVCXO
p3352
aVMNST
p3353
aVPSA
p3354
aVXEC
p3355
asS'09132016'
p3356
(lp3357
VPCLN
p3358
aVBIIB
p3359
aVAYI
p3360
aVISRG
p3361
aVXEC
p3362
aVCXO
p3363
aVFFIV
p3364
aVILMN
p3365
aVSLG
p3366
aVSNA
p3367
aVPH
p3368
aVPSA
p3369
asS'04142015'
p3370
(lp3371
VAGN
p3372
aVHUM
p3373
aVLMT
p3374
aVAMP
p3375
aVEW
p3376
aVMPC
p3377
aVSTZ
p3378
aVTDG
p3379
aVPVH
p3380
aVCXO
p3381
aVCMG
p3382
aVPRGO
p3383
asS'09212016'
p3384
(lp3385
VSLG
p3386
aVPH
p3387
aVBA
p3388
aVSHW
p3389
aVFB
p3390
aVSNA
p3391
aVPSA
p3392
aVILMN
p3393
aVANTM
p3394
aVPCLN
p3395
aVAAPL
p3396
aVWYNN
p3397
asS'08092016'
p3398
(lp3399
VPSA
p3400
aVULTA
p3401
aVSNA
p3402
aVBA
p3403
aVCME
p3404
aVFB
p3405
aVAYI
p3406
aVALXN
p3407
aVBIIB
p3408
asS'09192016'
p3409
(lp3410
VAYI
p3411
aVBIIB
p3412
aVXEC
p3413
aVCXO
p3414
aVSLG
p3415
aVSHW
p3416
aVPPG
p3417
aVBA
p3418
aVPH
p3419
aVSNA
p3420
aVPSA
p3421
aVPCLN
p3422
aVILMN
p3423
aVAAPL
p3424
aVADS
p3425
aVWYNN
p3426
asS'07112016'
p3427
(lp3428
VXEC
p3429
aVPXD
p3430
aVPPG
p3431
aVAPD
p3432
aVROP
p3433
aVFB
p3434
aVWAT
p3435
aVMCK
p3436
aVPSA
p3437
aVALXN
p3438
aVSHW
p3439
aVAYI
p3440
aVPCLN
p3441
asS'10032016'
p3442
(lp3443
VBLK
p3444
aVALXN
p3445
aVWYNN
p3446
aVSLG
p3447
aVFB
p3448
aVADS
p3449
aVPH
p3450
aVMNST
p3451
aVPX
p3452
aVILMN
p3453
aVSNA
p3454
aVSHW
p3455
aVAYI
p3456
aVPSA
p3457
aVPCLN
p3458
asS'06272016'
p3459
(lp3460
VPCLN
p3461
aVALXN
p3462
aVBIIB
p3463
aVWHR
p3464
aVMHK
p3465
aVWYNN
p3466
aVPXD
p3467
aVSWK
p3468
aVITW
p3469
aVXEC
p3470
aVPPG
p3471
aVFB
p3472
aVFISV
p3473
aVHON
p3474
aVAAP
p3475
aVMKC
p3476
aVPSA
p3477
aVORLY
p3478
asS'08072015'
p3479
(lp3480
VMNK
p3481
aVIBM
p3482
aVAVGO
p3483
aVTMO
p3484
aVAMP
p3485
aVPVH
p3486
aVPRGO
p3487
aVANTM
p3488
aVSRE
p3489
aVLH
p3490
aVEFX
p3491
aVFFIV
p3492
aVBF-B
p3493
aVSTZ
p3494
aVCXO
p3495
aVVRTX
p3496
aVEXPE
p3497
aVPCLN
p3498
asS'03252015'
p3499
(lp3500
VNFLX
p3501
aVAVGO
p3502
aVTDG
p3503
aVPRGO
p3504
aVAGN
p3505
aVLMT
p3506
aVSWKS
p3507
aVMPC
p3508
aVEW
p3509
aVANTM
p3510
aVESS
p3511
aVHUM
p3512
aVCMG
p3513
asS'05062016'
p3514
(lp3515
VPCLN
p3516
aVGOOG
p3517
aVAYI
p3518
aVWHR
p3519
aVSHW
p3520
aVEW
p3521
aVULTA
p3522
aVPX
p3523
aVORLY
p3524
aVROP
p3525
aVPXD
p3526
aVSWK
p3527
aVHON
p3528
aVXEC
p3529
aVSIG
p3530
aVPSA
p3531
aVSPG
p3532
aVESS
p3533
asS'05062015'
p3534
(lp3535
VHUM
p3536
aVPRGO
p3537
aVNFLX
p3538
aVEW
p3539
aVCXO
p3540
aVAVGO
p3541
aVSIG
p3542
aVTDG
p3543
aVMNK
p3544
aVMMM
p3545
aVAMP
p3546
aVPVH
p3547
aVMPC
p3548
asS'01062016'
p3549
(lp3550
VREGN
p3551
aVAVGO
p3552
aVSHW
p3553
aVAYI
p3554
aVALXN
p3555
aVAAPL
p3556
aVWAT
p3557
aVWHR
p3558
aVUHS
p3559
aVTSO
p3560
asS'11212016'
p3561
(lp3562
VFB
p3563
aVBA
p3564
aVPX
p3565
aVPVH
p3566
aVFFIV
p3567
aVCVX
p3568
aVXEC
p3569
aVROK
p3570
aVAPD
p3571
aVSNA
p3572
aVPH
p3573
aVROP
p3574
aVILMN
p3575
aVGWW
p3576
aVAMP
p3577
aVSHW
p3578
aVHUM
p3579
aVADS
p3580
aVBIIB
p3581
aVAYI
p3582
asS'12232015'
p3583
(lp3584
VPXD
p3585
aVREGN
p3586
aVSHW
p3587
aVAAPL
p3588
aVTSO
p3589
aVWHR
p3590
aVAVGO
p3591
aVNKE
p3592
aVAYI
p3593
aVWAT
p3594
aVGILD
p3595
aVAET
p3596
asS'12232016'
p3597
(lp3598
VAMP
p3599
aVURI
p3600
aVBA
p3601
aVSTZ
p3602
aVPSA
p3603
aVILMN
p3604
aVNVDA
p3605
asS'01032017'
p3606
(lp3607
VFDX
p3608
aVGWW
p3609
aVURI
p3610
aVCMI
p3611
aVCVX
p3612
aVNVDA
p3613
aVALXN
p3614
aVILMN
p3615
aVBIIB
p3616
asS'11202015'
p3617
(lp3618
VPCLN
p3619
aVORLY
p3620
aVGOOG
p3621
aVEW
p3622
aVTSO
p3623
aVGD
p3624
aVEFX
p3625
aVSRCL
p3626
aVWHR
p3627
aVVMC
p3628
asS'07132016'
p3629
(lp3630
VROP
p3631
aVFB
p3632
aVGPC
p3633
aVPX
p3634
aVPPG
p3635
aVPSA
p3636
aVMHK
p3637
aVALXN
p3638
aVSHW
p3639
aVAYI
p3640
aVPCLN
p3641
asS'07132015'
p3642
(lp3643
VAVGO
p3644
aVHUM
p3645
aVFFIV
p3646
aVGS
p3647
aVCXO
p3648
aVVRTX
p3649
aVROK
p3650
aVPVH
p3651
aVPRGO
p3652
aVAMP
p3653
aVSTZ
p3654
aVGPN
p3655
aVLH
p3656
aVMNK
p3657
aVAGN
p3658
asS'09252015'
p3659
(lp3660
VREGN
p3661
aVMLM
p3662
aVPRGO
p3663
aVPVH
p3664
aVAVGO
p3665
aVSTZ
p3666
aVHUM
p3667
aVFFIV
p3668
aVCOST
p3669
asS'11152016'
p3670
(lp3671
VFB
p3672
aVADBE
p3673
aVXEC
p3674
aVCXO
p3675
aVPX
p3676
aVPVH
p3677
aVCVX
p3678
aVBA
p3679
aVFFIV
p3680
aVILMN
p3681
aVADS
p3682
aVROP
p3683
aVSNA
p3684
aVPH
p3685
aVGWW
p3686
aVSHW
p3687
aVPCLN
p3688
aVAMP
p3689
aVAYI
p3690
asS'12082015'
p3691
(lp3692
VREGN
p3693
aVGOOG
p3694
aVTSO
p3695
aVWHR
p3696
aVAYI
p3697
aVEW
p3698
aVGD
p3699
aVEXPE
p3700
aVANTM
p3701
aVAVGO
p3702
asS'12082016'
p3703
(lp3704
VAYI
p3705
aVVMC
p3706
aVILMN
p3707
aVSNA
p3708
aVROP
p3709
aVAMP
p3710
aVROK
p3711
aVPVH
p3712
aVSHW
p3713
aVADS
p3714
aVURI
p3715
aVCXO
p3716
aVWHR
p3717
aVXEC
p3718
aVAMZN
p3719
asS'03072016'
p3720
(lp3721
VAET
p3722
aVANTM
p3723
aVSHW
p3724
aVAMG
p3725
aVAYI
p3726
aVPCLN
p3727
asS'06252015'
p3728
(lp3729
VCXO
p3730
aVMNK
p3731
aVGS
p3732
aVPVH
p3733
aVPRGO
p3734
aVLH
p3735
aVEFX
p3736
aVCELG
p3737
aVAET
p3738
asS'03222016'
p3739
(lp3740
VPCLN
p3741
aVSHW
p3742
aVAET
p3743
aVAYI
p3744
aVSPG
p3745
aVHON
p3746
aVESS
p3747
aVWHR
p3748
aVGOOG
p3749
asS'08052015'
p3750
(lp3751
VIBM
p3752
aVAVGO
p3753
aVAMP
p3754
aVPVH
p3755
aVHUM
p3756
aVPRGO
p3757
aVEFX
p3758
aVLMT
p3759
aVLH
p3760
aVNOC
p3761
aVCXO
p3762
aVMLM
p3763
aVEQIX
p3764
aVVRTX
p3765
aVPCLN
p3766
asS'08052016'
p3767
(lp3768
VPSA
p3769
aVISRG
p3770
aVSNA
p3771
aVBA
p3772
aVAYI
p3773
aVGPC
p3774
aVCME
p3775
aVROP
p3776
aVFB
p3777
aVALXN
p3778
aVBIIB
p3779
asS'09302015'
p3780
(lp3781
VPCLN
p3782
aVREGN
p3783
aVMLM
p3784
aVPVH
p3785
aVHUM
p3786
aVAVGO
p3787
aVSTZ
p3788
aVNOC
p3789
aVFFIV
p3790
aVCOST
p3791
asS'04222016'
p3792
(lp3793
VPSA
p3794
aVGOOG
p3795
aVEQIX
p3796
aVESS
p3797
aVAAPL
p3798
aVWHR
p3799
aVFB
p3800
aVSHW
p3801
aVSWK
p3802
aVAYI
p3803
aVXEC
p3804
aVPXD
p3805
aVPCLN
p3806
asS'04172015'
p3807
(lp3808
VHUM
p3809
aVLMT
p3810
aVSHW
p3811
aVSTZ
p3812
aVPVH
p3813
aVAMP
p3814
aVCXO
p3815
aVPRGO
p3816
asS'09142016'
p3817
(lp3818
VPCLN
p3819
aVBIIB
p3820
aVAYI
p3821
aVXEC
p3822
aVCXO
p3823
aVSHW
p3824
aVFFIV
p3825
aVSLG
p3826
aVPH
p3827
aVSNA
p3828
aVILMN
p3829
aVBA
p3830
aVPSA
p3831
aVADS
p3832
aVWYNN
p3833
asS'02012016'
p3834
(lp3835
VREGN
p3836
aVILMN
p3837
aVAYI
p3838
aVPCLN
p3839
aVWHR
p3840
aVAMG
p3841
aVAVGO
p3842
asS'02012017'
p3843
(lp3844
VCVX
p3845
aVILMN
p3846
aVEOG
p3847
aVDIS
p3848
aVNVDA
p3849
aVLRCX
p3850
asS'03152016'
p3851
(lp3852
VAET
p3853
aVSPG
p3854
aVSHW
p3855
aVAMG
p3856
aVPCLN
p3857
asS'03182015'
p3858
(lp3859
VNFLX
p3860
aVTDG
p3861
aVMMM
p3862
aVAVGO
p3863
aVHON
p3864
aVLMT
p3865
aVAYI
p3866
aVSIG
p3867
aVHUM
p3868
aVPRGO
p3869
aVCMG
p3870
asS'03182016'
p3871
(lp3872
VAET
p3873
aVAMZN
p3874
aVSPG
p3875
aVAYI
p3876
aVSHW
p3877
aVPCLN
p3878
aVESS
p3879
asS'05162016'
p3880
(lp3881
VPCLN
p3882
aVWHR
p3883
aVEW
p3884
aVAYI
p3885
aVPX
p3886
aVAET
p3887
aVSIG
p3888
aVPXD
p3889
aVHON
p3890
aVSWK
p3891
aVSHW
p3892
aVXEC
p3893
aVFB
p3894
aVESS
p3895
aVFISV
p3896
aVGOOG
p3897
asS'09172015'
p3898
(lp3899
VPVH
p3900
aVFFIV
p3901
aVMNST
p3902
aVAZO
p3903
aVPRGO
p3904
aVAMGN
p3905
aVCOST
p3906
aVVRTX
p3907
aVMLM
p3908
aVNOC
p3909
aVHUM
p3910
aVPCLN
p3911
asS'10132015'
p3912
(lp3913
VAVGO
p3914
aVANTM
p3915
aVLLL
p3916
aVNFLX
p3917
aVREGN
p3918
aVPCLN
p3919
asS'05192016'
p3920
(lp3921
VPCLN
p3922
aVWHR
p3923
aVAYI
p3924
aVMHK
p3925
aVPXD
p3926
aVSHW
p3927
aVHON
p3928
aVFB
p3929
aVVMC
p3930
aVFISV
p3931
aVXEC
p3932
aVSIG
p3933
aVMCK
p3934
aVTDG
p3935
asS'05192015'
p3936
(lp3937
VCXO
p3938
aVHAR
p3939
aVSIG
p3940
aVLH
p3941
aVPVH
p3942
aVPRGO
p3943
aVROK
p3944
aVUHS
p3945
aVEW
p3946
aVHUM
p3947
aVNFLX
p3948
aVAVGO
p3949
asS'10252016'
p3950
(lp3951
VILMN
p3952
aVGWW
p3953
aVADS
p3954
aVROP
p3955
aVCXO
p3956
aVPVH
p3957
aVXEC
p3958
aVEW
p3959
aVPCLN
p3960
aVSTZ
p3961
aVCLX
p3962
aVPSA
p3963
aVHUM
p3964
aVFB
p3965
aVAPD
p3966
aVMNST
p3967
aVSNA
p3968
asS'07072015'
p3969
(lp3970
VAET
p3971
aVCXO
p3972
aVAVGO
p3973
aVGS
p3974
aVFFIV
p3975
aVSIG
p3976
aVAMP
p3977
aVNOC
p3978
aVPRGO
p3979
aVEQIX
p3980
aVSTZ
p3981
aVPVH
p3982
aVMNK
p3983
aVLH
p3984
aVCLX
p3985
aVORLY
p3986
aVUHS
p3987
asS'03102016'
p3988
(lp3989
VALXN
p3990
aVAET
p3991
aVEQIX
p3992
aVSPG
p3993
aVSHW
p3994
aVBA
p3995
aVGOOG
p3996
aVAYI
p3997
aVPCLN
p3998
aVAMG
p3999
asS'11062015'
p4000
(lp4001
VSRCL
p4002
aVANTM
p4003
aVSTZ
p4004
aVEFX
p4005
aVGD
p4006
aVLLL
p4007
aVFB
p4008
aVAVGO
p4009
aVMLM
p4010
aVTSO
p4011
aVNFLX
p4012
aVGOOG
p4013
aVPCLN
p4014
asS'08252015'
p4015
(lp4016
VEQIX
p4017
aVMLM
p4018
aVVRTX
p4019
aVMNST
p4020
aVFFIV
p4021
aVPRGO
p4022
aVCXO
p4023
aVAVGO
p4024
aVUHS
p4025
aVLH
p4026
aVLLL
p4027
aVHUM
p4028
aVSTZ
p4029
aVNFLX
p4030
asS'06212016'
p4031
(lp4032
VPXD
p4033
aVAYI
p4034
aVFB
p4035
aVSHW
p4036
aVXEC
p4037
aVFISV
p4038
aVITW
p4039
aVAPD
p4040
aVSWK
p4041
aVWYNN
p4042
aVESS
p4043
aVPCLN
p4044
asS'01252016'
p4045
(lp4046
VAYI
p4047
aVALXN
p4048
aVGOOG
p4049
aVAVGO
p4050
aVREGN
p4051
aVAMG
p4052
aVAET
p4053
aVWHR
p4054
aVSHW
p4055
asS'02122016'
p4056
(lp4057
VGOOG
p4058
aVREGN
p4059
aVILMN
p4060
aVAYI
p4061
aVSHW
p4062
asS'12032015'
p4063
(lp4064
VREGN
p4065
aVGOOG
p4066
aVTSO
p4067
aVPCLN
p4068
aVGD
p4069
aVPPG
p4070
aVANTM
p4071
asS'09242015'
p4072
(lp4073
VMLM
p4074
aVPRGO
p4075
aVPVH
p4076
aVAVGO
p4077
aVSTZ
p4078
aVFFIV
p4079
aVNOC
p4080
aVCXO
p4081
aVHUM
p4082
aVREGN
p4083
aVCOST
p4084
asS'06092016'
p4085
(lp4086
VESS
p4087
aVALXN
p4088
aVAMG
p4089
aVSWK
p4090
aVXEC
p4091
aVFISV
p4092
aVCXO
p4093
aVMCK
p4094
aVSHW
p4095
aVMHK
p4096
aVITW
p4097
aVWYNN
p4098
aVULTA
p4099
aVPCLN
p4100
asS'06092015'
p4101
(lp4102
VPRGO
p4103
aVMNK
p4104
aVSWKS
p4105
aVANTM
p4106
aVFFIV
p4107
aVTDG
p4108
aVSNA
p4109
aVCELG
p4110
aVMMM
p4111
aVSIG
p4112
aVNKE
p4113
aVAET
p4114
aVLMT
p4115
aVAMP
p4116
aVAVGO
p4117
aVSTZ
p4118
aVCXO
p4119
aVXEC
p4120
aVHUM
p4121
asS'04112016'
p4122
(lp4123
VPCLN
p4124
aVFB
p4125
aVWHR
p4126
aVBA
p4127
aVFISV
p4128
aVSPG
p4129
aVHON
p4130
aVPXD
p4131
aVAAPL
p4132
aVSWK
p4133
aVSHW
p4134
aVCELG
p4135
aVAYI
p4136
asS'08282015'
p4137
(lp4138
VPCLN
p4139
aVMLM
p4140
aVFFIV
p4141
aVPRGO
p4142
aVVRTX
p4143
aVLLL
p4144
aVLH
p4145
aVHUM
p4146
aVPVH
p4147
aVNFLX
p4148
asS'07182016'
p4149
(lp4150
VPSA
p4151
aVXEC
p4152
aVHON
p4153
aVCME
p4154
aVPPG
p4155
aVPXD
p4156
aVAPD
p4157
aVSHW
p4158
aVAYI
p4159
aVALXN
p4160
aVPCLN
p4161
asS'07082015'
p4162
(lp4163
VCI
p4164
aVAVGO
p4165
aVCXO
p4166
aVGS
p4167
aVFFIV
p4168
aVSIG
p4169
aVAMP
p4170
aVPRGO
p4171
aVPVH
p4172
aVNOC
p4173
aVSTZ
p4174
aVEQIX
p4175
aVLH
p4176
aVMNK
p4177
asS'03102015'
p4178
(lp4179
VNFLX
p4180
aVTDG
p4181
aVCMG
p4182
aVLMT
p4183
aVAYI
p4184
aVAMP
p4185
aVCELG
p4186
aVEW
p4187
aVSIG
p4188
aVAVGO
p4189
aVPRGO
p4190
asS'01302017'
p4191
(lp4192
VWHR
p4193
aVCVX
p4194
aVILMN
p4195
aVLRCX
p4196
aVCXO
p4197
asS'10072015'
p4198
(lp4199
VREGN
p4200
aVAVGO
p4201
aVANTM
p4202
aVMLM
p4203
aVEXPE
p4204
aVNOC
p4205
aVPCLN
p4206
aVNFLX
p4207
asS'02262016'
p4208
(lp4209
VAET
p4210
aVSHW
p4211
aVAMG
p4212
aVILMN
p4213
aVGOOG
p4214
aVPCLN
p4215
asS'02262015'
p4216
(lp4217
VCMG
p4218
aVHON
p4219
aVSIG
p4220
aVABC
p4221
aVGILD
p4222
aVCELG
p4223
aVLMT
p4224
aVUHS
p4225
aVGS
p4226
aVGOOGL
p4227
aVHUM
p4228
aVAVGO
p4229
asS'02192016'
p4230
(lp4231
VGOOG
p4232
aVCB
p4233
aVSHW
p4234
aVAET
p4235
aVILMN
p4236
aVAMG
p4237
aVAYI
p4238
asS'08252016'
p4239
(lp4240
VPCLN
p4241
aVSHW
p4242
aVCELG
p4243
aVILMN
p4244
aVFB
p4245
aVAYI
p4246
aVPH
p4247
aVCXO
p4248
aVPSA
p4249
aVSNA
p4250
aVXEC
p4251
aVPVH
p4252
asS'08312015'
p4253
(lp4254
VPCLN
p4255
aVEQIX
p4256
aVNOC
p4257
aVMLM
p4258
aVPRGO
p4259
aVVRTX
p4260
aVLLL
p4261
aVLH
p4262
aVUHS
p4263
aVHUM
p4264
aVPVH
p4265
aVNFLX
p4266
asS'08312016'
p4267
(lp4268
VILMN
p4269
aVCXO
p4270
aVSHW
p4271
aVAYI
p4272
aVPH
p4273
aVBLK
p4274
aVXEC
p4275
aVFB
p4276
aVCME
p4277
aVSNA
p4278
aVAMG
p4279
aVPPG
p4280
aVPSA
p4281
asS'10222015'
p4282
(lp4283
VMLM
p4284
aVCI
p4285
aVMTB
p4286
aVSTZ
p4287
aVLH
p4288
aVAVGO
p4289
aVPCLN
p4290
asS'06222016'
p4291
(lp4292
VAYI
p4293
aVPXD
p4294
aVFB
p4295
aVSHW
p4296
aVFISV
p4297
aVMHK
p4298
aVXEC
p4299
aVWYNN
p4300
aVSWK
p4301
aVCMI
p4302
aVPCLN
p4303
asS'06222015'
p4304
(lp4305
VHUM
p4306
aVAVGO
p4307
aVMNK
p4308
aVEXPE
p4309
aVPVH
p4310
aVCXO
p4311
aVVRTX
p4312
aVORLY
p4313
aVAET
p4314
aVCELG
p4315
asS'03212016'
p4316
(lp4317
VSHW
p4318
aVAET
p4319
aVPCLN
p4320
aVHON
p4321
aVSPG
p4322
aVAYI
p4323
aVACN
p4324
aVESS
p4325
aVWHR
p4326
aVGOOG
p4327
asS'11012016'
p4328
(lp4329
VCXO
p4330
aVXEC
p4331
aVPCLN
p4332
aVPVH
p4333
aVSTZ
p4334
aVADS
p4335
aVILMN
p4336
aVROP
p4337
aVFB
p4338
aVSNA
p4339
aVAPD
p4340
aVBA
p4341
asS'07012016'
p4342
(lp4343
VPCLN
p4344
aVPXD
p4345
aVPPG
p4346
aVITW
p4347
aVSWK
p4348
aVHON
p4349
aVFB
p4350
aVXEC
p4351
aVROP
p4352
aVFISV
p4353
aVMCK
p4354
aVDLR
p4355
aVMKC
p4356
aVORLY
p4357
aVPSA
p4358
asS'06192015'
p4359
(lp4360
VHUM
p4361
aVMNK
p4362
aVAVGO
p4363
aVAGN
p4364
aVSTZ
p4365
aVEXPE
p4366
aVPVH
p4367
aVSWKS
p4368
aVVRTX
p4369
aVLH
p4370
aVSIG
p4371
aVCXO
p4372
aVORLY
p4373
aVAET
p4374
asS'03302016'
p4375
(lp4376
VPCLN
p4377
aVSHW
p4378
aVCXO
p4379
aVWHR
p4380
aVHON
p4381
aVSPG
p4382
aVESS
p4383
aVULTA
p4384
aVGOOG
p4385
asS'02022017'
p4386
(lp4387
VCVX
p4388
aVEOG
p4389
aVILMN
p4390
aVMLM
p4391
aVVMC
p4392
aVLRCX
p4393
aVNVDA
p4394
asS'10182016'
p4395
(lp4396
VPCLN
p4397
aVILMN
p4398
aVROP
p4399
aVPVH
p4400
aVPH
p4401
aVFB
p4402
aVCXO
p4403
aVBLK
p4404
aVSNA
p4405
aVSHW
p4406
aVSLG
p4407
aVAAPL
p4408
aVMNST
p4409
aVPSA
p4410
asS'04082015'
p4411
(lp4412
VAGN
p4413
aVEW
p4414
aVHUM
p4415
aVAMP
p4416
aVLMT
p4417
aVWAT
p4418
aVMMM
p4419
aVTDG
p4420
aVPRGO
p4421
aVCXO
p4422
aVNFLX
p4423
asS'04082016'
p4424
(lp4425
VPCLN
p4426
aVGOOG
p4427
aVBA
p4428
aVWHR
p4429
aVFB
p4430
aVCXO
p4431
aVESS
p4432
aVHON
p4433
aVFISV
p4434
aVSPG
p4435
aVPXD
p4436
aVSWK
p4437
aVAAPL
p4438
aVSHW
p4439
aVCELG
p4440
aVAYI
p4441
asS'08012016'
p4442
(lp4443
VPSA
p4444
aVSHW
p4445
aVAYI
p4446
aVSNA
p4447
aVHON
p4448
aVPPG
p4449
aVACN
p4450
aVIFF
p4451
aVCME
p4452
aVROP
p4453
aVESS
p4454
aVSWK
p4455
aVWYNN
p4456
aVAMG
p4457
aVPCLN
p4458
aVILMN
p4459
aVBIIB
p4460
asS'01122017'
p4461
(lp4462
VNVDA
p4463
aVCVX
p4464
aVGWW
p4465
aVWHR
p4466
aVVMC
p4467
aVSLG
p4468
aVCXO
p4469
aVAPD
p4470
aVLRCX
p4471
aVEOG
p4472
aVCMI
p4473
aVAMP
p4474
aVILMN
p4475
asS'01122016'
p4476
(lp4477
VREGN
p4478
aVAYI
p4479
aVALXN
p4480
aVAVGO
p4481
aVSHW
p4482
aVWHR
p4483
aVTSO
p4484
asS'01172017'
p4485
(lp4486
VNVDA
p4487
aVCVX
p4488
aVWHR
p4489
aVBIIB
p4490
aVCMI
p4491
aVLMT
p4492
aVILMN
p4493
asS'03302015'
p4494
(lp4495
VNFLX
p4496
aVAGN
p4497
aVAMP
p4498
aVPRGO
p4499
aVEW
p4500
aVULTA
p4501
aVANTM
p4502
aVTDG
p4503
aVHON
p4504
aVMPC
p4505
aVLMT
p4506
aVHUM
p4507
aVAYI
p4508
asS'04282016'
p4509
(lp4510
VGOOG
p4511
aVPSA
p4512
aVWHR
p4513
aVAAPL
p4514
aVAYI
p4515
aVALXN
p4516
aVSHW
p4517
aVPCLN
p4518
aVSPG
p4519
aVEW
p4520
aVULTA
p4521
aVCELG
p4522
aVXEC
p4523
aVSWK
p4524
aVPXD
p4525
asS'02102016'
p4526
(lp4527
VREGN
p4528
aVGOOG
p4529
aVTDG
p4530
aVILMN
p4531
aVAYI
p4532
aVPCLN
p4533
aVSHW
p4534
asS'02102017'
p4535
(lp4536
VILMN
p4537
aVLRCX
p4538
aVURI
p4539
aVNVDA
p4540
asS'04072016'
p4541
(lp4542
VPCLN
p4543
aVBA
p4544
aVGOOG
p4545
aVWHR
p4546
aVULTA
p4547
aVHON
p4548
aVFISV
p4549
aVSPG
p4550
aVSWK
p4551
aVSHW
p4552
aVAAPL
p4553
asS'04302015'
p4554
(lp4555
VPRGO
p4556
aVHUM
p4557
aVEW
p4558
aVTDG
p4559
aVSIG
p4560
aVPVH
p4561
aVUHS
p4562
aVAYI
p4563
aVSTZ
p4564
aVHON
p4565
aVAMP
p4566
aVWAT
p4567
aVCXO
p4568
aVNFLX
p4569
asS'09262016'
p4570
(lp4571
VXEC
p4572
aVPCLN
p4573
aVPVH
p4574
aVAMP
p4575
aVPH
p4576
aVFB
p4577
aVALXN
p4578
aVWYNN
p4579
aVSTZ
p4580
aVSNA
p4581
aVILMN
p4582
aVSHW
p4583
aVPSA
p4584
asS'04072015'
p4585
(lp4586
VAGN
p4587
aVESS
p4588
aVEW
p4589
aVPRGO
p4590
aVHUM
p4591
aVANTM
p4592
aVAMP
p4593
aVULTA
p4594
aVLMT
p4595
aVHON
p4596
aVWAT
p4597
aVTDG
p4598
asS'05052015'
p4599
(lp4600
VPRGO
p4601
aVHUM
p4602
aVEW
p4603
aVTDG
p4604
aVMNK
p4605
aVCXO
p4606
aVAVGO
p4607
aVMMM
p4608
aVSIG
p4609
aVAMP
p4610
aVNKE
p4611
aVPVH
p4612
aVMPC
p4613
asS'05052016'
p4614
(lp4615
VPCLN
p4616
aVGOOG
p4617
aVAYI
p4618
aVWHR
p4619
aVSHW
p4620
aVEW
p4621
aVULTA
p4622
aVORLY
p4623
aVSWK
p4624
aVPSA
p4625
aVHON
p4626
aVXEC
p4627
aVPXD
p4628
aVESS
p4629
aVICE
p4630
asS'03092016'
p4631
(lp4632
VAET
p4633
aVSHW
p4634
aVBA
p4635
aVAYI
p4636
aVAMG
p4637
aVPCLN
p4638
asS'03092015'
p4639
(lp4640
VNFLX
p4641
aVLLL
p4642
aVAYI
p4643
aVLMT
p4644
aVAMP
p4645
aVPH
p4646
aVCMG
p4647
aVSIG
p4648
aVAVGO
p4649
aVPRGO
p4650
asS'04202016'
p4651
(lp4652
VESS
p4653
aVEQIX
p4654
aVSPG
p4655
aVAAPL
p4656
aVWHR
p4657
aVFISV
p4658
aVSWK
p4659
aVHON
p4660
aVGOOG
p4661
aVPXD
p4662
aVAYI
p4663
aVCMG
p4664
aVMCK
p4665
aVPCLN
p4666
asS'04202015'
p4667
(lp4668
VHUM
p4669
aVLMT
p4670
aVPVH
p4671
aVSTZ
p4672
aVEW
p4673
aVIFF
p4674
aVAAP
p4675
aVCXO
p4676
aVPRGO
p4677
aVNFLX
p4678
asS'06112015'
p4679
(lp4680
VPRGO
p4681
aVMNK
p4682
aVSWKS
p4683
aVANTM
p4684
aVTDG
p4685
aVFFIV
p4686
aVCELG
p4687
aVAVGO
p4688
aVSNA
p4689
aVSIG
p4690
aVAET
p4691
aVNKE
p4692
aVUHS
p4693
aVSTZ
p4694
aVAMP
p4695
aVLH
p4696
aVCXO
p4697
aVEW
p4698
aVHUM
p4699
asS'10102016'
p4700
(lp4701
VAYI
p4702
aVAPD
p4703
aVHON
p4704
aVADS
p4705
aVPSA
p4706
aVBLK
p4707
aVSLG
p4708
aVSHW
p4709
aVPCLN
p4710
aVROP
p4711
aVFB
p4712
aVUTX
p4713
aVPX
p4714
aVPH
p4715
aVSNA
p4716
aVILMN
p4717
aVMNST
p4718
aVPVH
p4719
aVXEC
p4720
aVCXO
p4721
asS'03012016'
p4722
(lp4723
VAET
p4724
aVMLM
p4725
aVILMN
p4726
aVSHW
p4727
aVAMG
p4728
aVPCLN
p4729
asS'01072016'
p4730
(lp4731
VREGN
p4732
aVAVGO
p4733
aVSHW
p4734
aVALXN
p4735
aVAAPL
p4736
aVWHR
p4737
aVWAT
p4738
aVUHS
p4739
aVHUM
p4740
aVAET
p4741
aVTSO
p4742
asS'11122015'
p4743
(lp4744
VPCLN
p4745
aVREGN
p4746
aVGD
p4747
aVLLL
p4748
aVANTM
p4749
aVGILD
p4750
aVAVGO
p4751
aVSRCL
p4752
aVWHR
p4753
aVGOOG
p4754
aVTSO
p4755
aVFB
p4756
aVVMC
p4757
aVMLM
p4758
asS'01102017'
p4759
(lp4760
VBLK
p4761
aVGWW
p4762
aVNVDA
p4763
aVCVX
p4764
aVWHR
p4765
aVEOG
p4766
aVSLG
p4767
aVLRCX
p4768
aVAMP
p4769
aVILMN
p4770
asS'01312017'
p4771
(lp4772
VCVX
p4773
aVILMN
p4774
aVNVDA
p4775
aVLRCX
p4776
asS'07212015'
p4777
(lp4778
VANTM
p4779
aVCXO
p4780
aVFFIV
p4781
aVLH
p4782
aVAVGO
p4783
aVNOC
p4784
aVTSO
p4785
aVVRTX
p4786
aVEQIX
p4787
asS'09202016'
p4788
(lp4789
VAYI
p4790
aVULTA
p4791
aVXEC
p4792
aVCXO
p4793
aVBIIB
p4794
aVSLG
p4795
aVSHW
p4796
aVPPG
p4797
aVBA
p4798
aVPH
p4799
aVPCLN
p4800
aVFB
p4801
aVSNA
p4802
aVPSA
p4803
aVILMN
p4804
aVAAPL
p4805
aVISRG
p4806
aVADS
p4807
aVWYNN
p4808
asS'07212016'
p4809
(lp4810
VPSA
p4811
aVSHW
p4812
aVXEC
p4813
aVHON
p4814
aVCME
p4815
aVPXD
p4816
aVMCK
p4817
aVEW
p4818
aVPX
p4819
aVPPG
p4820
aVFB
p4821
aVAPD
p4822
aVAYI
p4823
aVALXN
p4824
aVPCLN
p4825
asS'03272015'
p4826
(lp4827
VNFLX
p4828
aVAGN
p4829
aVAMP
p4830
aVPRGO
p4831
aVTDG
p4832
aVEW
p4833
aVANTM
p4834
aVMPC
p4835
aVHUM
p4836
aVCXO
p4837
asS'10192015'
p4838
(lp4839
VMLM
p4840
aVMTB
p4841
aVAVGO
p4842
aVNFLX
p4843
aVCI
p4844
aVPCLN
p4845
asS'06022015'
p4846
(lp4847
VNFLX
p4848
aVSIG
p4849
aVAYI
p4850
aVFFIV
p4851
aVEFX
p4852
aVAMG
p4853
aVTDG
p4854
aVAMP
p4855
aVCELG
p4856
aVDNB
p4857
aVLMT
p4858
aVLH
p4859
aVANTM
p4860
aVCXO
p4861
aVUHS
p4862
aVSWKS
p4863
aVAVGO
p4864
aVHUM
p4865
asS'01142016'
p4866
(lp4867
VREGN
p4868
aVAYI
p4869
aVALXN
p4870
aVAVGO
p4871
aVSHW
p4872
aVWHR
p4873
aVNFLX
p4874
aVTSO
p4875
asS'06022016'
p4876
(lp4877
VXEC
p4878
aVVMC
p4879
aVSWK
p4880
aVSHW
p4881
aVHON
p4882
aVFISV
p4883
aVPSA
p4884
aVMHK
p4885
aVMCK
p4886
aVAET
p4887
aVWHR
p4888
aVULTA
p4889
aVPCLN
p4890
asS'08292016'
p4891
(lp4892
VPCLN
p4893
aVILMN
p4894
aVSHW
p4895
aVAYI
p4896
aVBLK
p4897
aVPH
p4898
aVCXO
p4899
aVFB
p4900
aVCME
p4901
aVXEC
p4902
aVSNA
p4903
aVPSA
p4904
aVPVH
p4905
asS'10192016'
p4906
(lp4907
VPCLN
p4908
aVILMN
p4909
aVROP
p4910
aVPVH
p4911
aVCXO
p4912
aVFB
p4913
aVSNA
p4914
aVAAPL
p4915
aVSHW
p4916
aVPSA
p4917
asS'04102015'
p4918
(lp4919
VAGN
p4920
aVHUM
p4921
aVEW
p4922
aVAMP
p4923
aVLMT
p4924
aVWAT
p4925
aVHON
p4926
aVSIG
p4927
aVTDG
p4928
aVCMG
p4929
aVPVH
p4930
aVCXO
p4931
aVPRGO
p4932
asS'01152016'
p4933
(lp4934
VREGN
p4935
aVAYI
p4936
aVALXN
p4937
aVAVGO
p4938
aVSHW
p4939
aVWHR
p4940
aVAET
p4941
asS'12012015'
p4942
(lp4943
VREGN
p4944
aVGOOG
p4945
aVTSO
p4946
aVLH
p4947
aVGD
p4948
aVANTM
p4949
aVMLM
p4950
aVAVGO
p4951
asS'10092015'
p4952
(lp4953
VAVGO
p4954
aVANTM
p4955
aVMLM
p4956
aVCELG
p4957
aVREGN
p4958
aVNFLX
p4959
aVPCLN
p4960
asS'12012016'
p4961
(lp4962
VPCLN
p4963
aVBIIB
p4964
aVSNA
p4965
aVPVH
p4966
aVROP
p4967
aVBA
p4968
aVCVX
p4969
aVAYI
p4970
aVILMN
p4971
aVCXO
p4972
aVSHW
p4973
aVXEC
p4974
asS'07082016'
p4975
(lp4976
VPXD
p4977
aVXEC
p4978
aVPPG
p4979
aVAPD
p4980
aVHON
p4981
aVDLR
p4982
aVROP
p4983
aVFISV
p4984
aVFB
p4985
aVGS
p4986
aVWAT
p4987
aVMCK
p4988
aVALXN
p4989
aVAYI
p4990
aVPSA
p4991
aVSHW
p4992
aVPCLN
p4993
asS'12302016'
p4994
(lp4995
VGWW
p4996
aVURI
p4997
aVCXO
p4998
aVCMI
p4999
aVEOG
p5000
aVRTN
p5001
aVCVX
p5002
aVSTZ
p5003
aVNVDA
p5004
aVBIIB
p5005
aVILMN
p5006
asS'11192015'
p5007
(lp5008
VPCLN
p5009
aVGOOGL
p5010
aVGOOG
p5011
aVEW
p5012
aVGD
p5013
aVTSO
p5014
aVALXN
p5015
aVEFX
p5016
aVWHR
p5017
aVUHS
p5018
aVAVGO
p5019
aVSRCL
p5020
aVREGN
p5021
aVVMC
p5022
aVMLM
p5023
asS'08192016'
p5024
(lp5025
VBIIB
p5026
aVESS
p5027
aVMCK
p5028
aVPSA
p5029
aVFB
p5030
aVWYNN
p5031
aVSNA
p5032
aVILMN
p5033
aVIFF
p5034
aVACN
p5035
aVCME
p5036
aVAYI
p5037
aVPVH
p5038
asS'06032016'
p5039
(lp5040
VPXD
p5041
aVESS
p5042
aVXEC
p5043
aVVMC
p5044
aVSWK
p5045
aVSHW
p5046
aVHON
p5047
aVADBE
p5048
aVFISV
p5049
aVMHK
p5050
aVAMG
p5051
aVPSA
p5052
aVMCK
p5053
aVALXN
p5054
aVULTA
p5055
aVPCLN
p5056
asS'05232016'
p5057
(lp5058
VPCLN
p5059
aVESS
p5060
aVWHR
p5061
aVPSA
p5062
aVAYI
p5063
aVSHW
p5064
aVFB
p5065
aVHON
p5066
aVFISV
p5067
aVVMC
p5068
aVXEC
p5069
aVSIG
p5070
aVMCK
p5071
asS'10212015'
p5072
(lp5073
VMLM
p5074
aVMTB
p5075
aVTSO
p5076
aVNFLX
p5077
aVHUM
p5078
aVAET
p5079
aVAVGO
p5080
aVCI
p5081
aVLH
p5082
aVPCLN
p5083
asS'04242015'
p5084
(lp5085
VPVH
p5086
aVSTZ
p5087
aVEW
p5088
aVSIG
p5089
aVLMT
p5090
aVPRGO
p5091
aVHUM
p5092
aVHON
p5093
aVCXO
p5094
aVNFLX
p5095
asS'10212016'
p5096
(lp5097
VILMN
p5098
aVPCLN
p5099
aVADS
p5100
aVROP
p5101
aVBLK
p5102
aVPVH
p5103
aVEW
p5104
aVCXO
p5105
aVXEC
p5106
aVAAPL
p5107
aVFB
p5108
aVMNST
p5109
aVSHW
p5110
aVSNA
p5111
asS'11022015'
p5112
(lp5113
VSTZ
p5114
aVANTM
p5115
aVEFX
p5116
aVFB
p5117
aVTSO
p5118
aVGD
p5119
aVMLM
p5120
aVAET
p5121
aVNFLX
p5122
aVPCLN
p5123
asS'10302015'
p5124
(lp5125
VSTZ
p5126
aVANTM
p5127
aVEFX
p5128
aVAVGO
p5129
aVMLM
p5130
aVFB
p5131
aVGD
p5132
aVREGN
p5133
aVPCLN
p5134
asS'11022016'
p5135
(lp5136
VPCLN
p5137
aVCXO
p5138
aVXEC
p5139
aVSTZ
p5140
aVADS
p5141
aVPVH
p5142
aVFB
p5143
aVROP
p5144
aVILMN
p5145
aVGWW
p5146
aVBA
p5147
aVAPD
p5148
aVMLM
p5149
asS'07292015'
p5150
(lp5151
VIBM
p5152
aVROK
p5153
aVVRTX
p5154
aVANTM
p5155
aVAVGO
p5156
aVHUM
p5157
aVHAR
p5158
aVAMP
p5159
aVNOC
p5160
aVMNK
p5161
aVSTZ
p5162
aVLH
p5163
aVLMT
p5164
aVPRGO
p5165
asS'07292016'
p5166
(lp5167
VPSA
p5168
aVSHW
p5169
aVAYI
p5170
aVSNA
p5171
aVESS
p5172
aVHON
p5173
aVPPG
p5174
aVXEC
p5175
aVGPC
p5176
aVPX
p5177
aVACN
p5178
aVROP
p5179
aVCME
p5180
aVIFF
p5181
aVPCLN
p5182
aVFB
p5183
aVWYNN
p5184
aVILMN
p5185
aVADS
p5186
aVBIIB
p5187
asS'02242015'
p5188
(lp5189
VCMG
p5190
aVAMZN
p5191
aVAMP
p5192
aVSIG
p5193
aVGILD
p5194
aVCELG
p5195
aVAVGO
p5196
aVUHS
p5197
aVMNK
p5198
aVSPGI
p5199
aVPRGO
p5200
aVHUM
p5201
aVGS
p5202
asS'02242016'
p5203
(lp5204
VSHW
p5205
aVAET
p5206
aVGOOG
p5207
aVILMN
p5208
aVAMG
p5209
aVAYI
p5210
asS'05082015'
p5211
(lp5212
VNFLX
p5213
aVHUM
p5214
aVCXO
p5215
aVPRGO
p5216
aVEW
p5217
aVSIG
p5218
aVSTZ
p5219
aVAMP
p5220
aVHON
p5221
aVMMM
p5222
aVTDG
p5223
aVAVGO
p5224
aVMPC
p5225
aVAYI
p5226
asS'12122016'
p5227
(lp5228
VAYI
p5229
aVILMN
p5230
aVPVH
p5231
aVAMP
p5232
aVROK
p5233
aVROP
p5234
aVADS
p5235
aVSNA
p5236
aVSHW
p5237
aVADBE
p5238
aVURI
p5239
aVCXO
p5240
aVGWW
p5241
aVSLG
p5242
aVMCK
p5243
aVXEC
p5244
aVAMZN
p5245
asS'12172015'
p5246
(lp5247
VGOOG
p5248
aVSHW
p5249
aVWHR
p5250
aVTSO
p5251
aVAAPL
p5252
aVGD
p5253
aVREGN
p5254
aVAYI
p5255
aVUHS
p5256
aVAVGO
p5257
aVALXN
p5258
aVUNH
p5259
aVSRCL
p5260
aVAET
p5261
asS'03142016'
p5262
(lp5263
VCB
p5264
aVAAPL
p5265
aVAET
p5266
aVSPG
p5267
aVSHW
p5268
aVBA
p5269
aVPCLN
p5270
asS'11102015'
p5271
(lp5272
VPCLN
p5273
aVANTM
p5274
aVGD
p5275
aVSRCL
p5276
aVHAR
p5277
aVLLL
p5278
aVALXN
p5279
aVGILD
p5280
aVAVGO
p5281
aVWHR
p5282
aVFB
p5283
aVREGN
p5284
aVTSO
p5285
aVMLM
p5286
aVVMC
p5287
aVPRGO
p5288
aVGOOG
p5289
aVNFLX
p5290
asS'11102016'
p5291
(lp5292
VXEC
p5293
aVFB
p5294
aVCXO
p5295
aVBA
p5296
aVADS
p5297
aVILMN
p5298
aVROP
p5299
aVPH
p5300
aVSHW
p5301
aVGWW
p5302
aVPCLN
p5303
asS'07262016'
p5304
(lp5305
VSHW
p5306
aVPSA
p5307
aVHON
p5308
aVROP
p5309
aVPXD
p5310
aVPCLN
p5311
aVAYI
p5312
aVPPG
p5313
aVCME
p5314
aVPX
p5315
aVFB
p5316
aVILMN
p5317
aVALXN
p5318
asS'08262015'
p5319
(lp5320
VEQIX
p5321
aVMLM
p5322
aVMNST
p5323
aVVRTX
p5324
aVFFIV
p5325
aVPRGO
p5326
aVLH
p5327
aVLLL
p5328
aVAVGO
p5329
aVHUM
p5330
aVSTZ
p5331
aVPVH
p5332
asS'08262016'
p5333
(lp5334
VPCLN
p5335
aVSHW
p5336
aVILMN
p5337
aVAYI
p5338
aVFB
p5339
aVPH
p5340
aVPSA
p5341
aVXEC
p5342
aVSNA
p5343
aVPVH
p5344
asS'02172016'
p5345
(lp5346
VGOOG
p5347
aVFB
p5348
aVWHR
p5349
aVILMN
p5350
aVAYI
p5351
aVSHW
p5352
asS'02172015'
p5353
(lp5354
VCMG
p5355
aVREGN
p5356
aVNFLX
p5357
aVSIG
p5358
aVPRGO
p5359
aVAVGO
p5360
aVLMT
p5361
aVISRG
p5362
aVMNK
p5363
aVAMP
p5364
aVSPGI
p5365
aVAAPL
p5366
aVROP
p5367
aVDNB
p5368
aVGOOGL
p5369
aVAMZN
p5370
asS'04042016'
p5371
(lp5372
VPCLN
p5373
aVCXO
p5374
aVBA
p5375
aVAYI
p5376
aVSHW
p5377
aVWHR
p5378
aVFB
p5379
aVULTA
p5380
aVFISV
p5381
aVSWK
p5382
aVSPG
p5383
aVAAPL
p5384
aVGOOG
p5385
asS'06052015'
p5386
(lp5387
VPRGO
p5388
aVFFIV
p5389
aVANTM
p5390
aVCELG
p5391
aVTDG
p5392
aVSIG
p5393
aVMMM
p5394
aVSWKS
p5395
aVCXO
p5396
aVAMP
p5397
aVAET
p5398
aVLMT
p5399
aVLH
p5400
aVAVGO
p5401
aVHUM
p5402
asS'09082015'
p5403
(lp5404
VPRGO
p5405
aVFFIV
p5406
aVNOC
p5407
aVLH
p5408
aVVRTX
p5409
aVEQIX
p5410
aVPVH
p5411
aVNFLX
p5412
asS'09082016'
p5413
(lp5414
VBIIB
p5415
aVAYI
p5416
aVILMN
p5417
aVPCLN
p5418
aVFFIV
p5419
aVBLK
p5420
aVAAPL
p5421
aVPH
p5422
aVSNA
p5423
aVBA
p5424
aVPPG
p5425
aVEXPE
p5426
aVAMP
p5427
aVNFLX
p5428
aVFB
p5429
aVPSA
p5430
aVADS
p5431
asS'10012015'
p5432
(lp5433
VPCLN
p5434
aVREGN
p5435
aVMLM
p5436
aVHUM
p5437
aVAVGO
p5438
aVSTZ
p5439
aVNOC
p5440
aVCOST
p5441
aVFFIV
p5442
asS'09122016'
p5443
(lp5444
VBIIB
p5445
aVPCLN
p5446
aVAYI
p5447
aVILMN
p5448
aVFFIV
p5449
aVSNA
p5450
aVCXO
p5451
aVPH
p5452
aVPSA
p5453
aVFB
p5454
asS'09222015'
p5455
(lp5456
VPRGO
p5457
aVFFIV
p5458
aVPVH
p5459
aVAVGO
p5460
aVCOST
p5461
aVHUM
p5462
aVNFLX
p5463
asS'09222016'
p5464
(lp5465
VXEC
p5466
aVSLG
p5467
aVPH
p5468
aVFB
p5469
aVBIIB
p5470
aVSHW
p5471
aVSNA
p5472
aVWYNN
p5473
aVILMN
p5474
aVPSA
p5475
aVPCLN
p5476
asS'12072016'
p5477
(lp5478
VILMN
p5479
aVSNA
p5480
aVAMP
p5481
aVAYI
p5482
aVROP
p5483
aVADS
p5484
aVPVH
p5485
aVSHW
p5486
aVROK
p5487
aVSLG
p5488
aVURI
p5489
aVCXO
p5490
aVXEC
p5491
asS'12072015'
p5492
(lp5493
VREGN
p5494
aVTSO
p5495
aVGOOG
p5496
aVAYI
p5497
aVWHR
p5498
aVEW
p5499
aVGD
p5500
aVAET
p5501
asS'06292015'
p5502
(lp5503
VAVGO
p5504
aVCXO
p5505
aVMNK
p5506
aVFFIV
p5507
aVSTZ
p5508
aVAMP
p5509
aVPVH
p5510
aVSIG
p5511
aVPRGO
p5512
aVLH
p5513
aVCELG
p5514
aVAET
p5515
aVMNST
p5516
asS'12102015'
p5517
(lp5518
VGOOG
p5519
aVREGN
p5520
aVWHR
p5521
aVTSO
p5522
aVGD
p5523
aVAYI
p5524
aVEW
p5525
aVABC
p5526
aVAET
p5527
aVUNH
p5528
aVANTM
p5529
aVAVGO
p5530
asS'03202015'
p5531
(lp5532
VNFLX
p5533
aVMMM
p5534
aVAVGO
p5535
aVGS
p5536
aVPXD
p5537
aVAYI
p5538
aVEW
p5539
aVPRGO
p5540
aVAGN
p5541
aVHUM
p5542
aVCMG
p5543
asS'05242016'
p5544
(lp5545
VPCLN
p5546
aVESS
p5547
aVORLY
p5548
aVPSA
p5549
aVSHW
p5550
aVFB
p5551
aVMHK
p5552
aVBLK
p5553
aVWHR
p5554
aVAYI
p5555
aVHON
p5556
aVFISV
p5557
aVXEC
p5558
aVVMC
p5559
aVSIG
p5560
asS'07072016'
p5561
(lp5562
VPCLN
p5563
aVPXD
p5564
aVAPD
p5565
aVPPG
p5566
aVROP
p5567
aVPX
p5568
aVIBM
p5569
aVILMN
p5570
aVDLR
p5571
aVFB
p5572
aVGS
p5573
aVAYI
p5574
aVWAT
p5575
aVMCK
p5576
aVSHW
p5577
aVPSA
p5578
asS'10062015'
p5579
(lp5580
VREGN
p5581
aVPCLN
p5582
aVAVGO
p5583
aVMLM
p5584
aVANTM
p5585
aVSTZ
p5586
aVNOC
p5587
aVNFLX
p5588
asS'05072015'
p5589
(lp5590
VNFLX
p5591
aVHUM
p5592
aVPRGO
p5593
aVEW
p5594
aVCXO
p5595
aVSIG
p5596
aVAMP
p5597
aVSTZ
p5598
aVAVGO
p5599
aVTDG
p5600
aVMPC
p5601
aVAYI
p5602
asS'07142015'
p5603
(lp5604
VAVGO
p5605
aVANTM
p5606
aVFFIV
p5607
aVGS
p5608
aVPVH
p5609
aVROK
p5610
aVPX
p5611
aVUHS
p5612
aVAMP
p5613
aVVRTX
p5614
aVSTZ
p5615
aVLH
p5616
aVCELG
p5617
aVMNK
p5618
aVORLY
p5619
asS'08112015'
p5620
(lp5621
VMNK
p5622
aVTMO
p5623
aVIBM
p5624
aVGS
p5625
aVAMP
p5626
aVPVH
p5627
aVAVGO
p5628
aVROK
p5629
aVPRGO
p5630
aVNOC
p5631
aVFFIV
p5632
aVVRTX
p5633
aVHUM
p5634
aVSTZ
p5635
aVTSO
p5636
aVEXPE
p5637
aVHAR
p5638
aVCXO
p5639
aVPCLN
p5640
asS'10272015'
p5641
(lp5642
VMLM
p5643
aVAET
p5644
aVSTZ
p5645
aVANTM
p5646
aVNFLX
p5647
aVAVGO
p5648
aVFB
p5649
aVPCLN
p5650
asS'07142016'
p5651
(lp5652
VXEC
p5653
aVHON
p5654
aVDIS
p5655
aVGPC
p5656
aVFB
p5657
aVROP
p5658
aVPPG
p5659
aVPSA
p5660
aVAPD
p5661
aVMHK
p5662
aVALXN
p5663
aVSHW
p5664
aVAYI
p5665
aVPCLN
p5666
asS'08102016'
p5667
(lp5668
VPSA
p5669
aVBA
p5670
aVAPD
p5671
aVSNA
p5672
aVPPG
p5673
aVCME
p5674
aVFB
p5675
aVWYNN
p5676
aVAYI
p5677
aVALXN
p5678
aVPH
p5679
aVBIIB
p5680
asS'12142016'
p5681
(lp5682
VAYI
p5683
aVRL
p5684
aVPVH
p5685
aVAMP
p5686
aVROK
p5687
aVADS
p5688
aVURI
p5689
aVCXO
p5690
aVILMN
p5691
aVADBE
p5692
aVMCK
p5693
asS'12142015'
p5694
(lp5695
VGOOG
p5696
aVREGN
p5697
aVWHR
p5698
aVTSO
p5699
aVGD
p5700
aVAAPL
p5701
aVGILD
p5702
aVAYI
p5703
aVUHS
p5704
aVABC
p5705
aVAET
p5706
aVANTM
p5707
aVAVGO
p5708
asS'08102015'
p5709
(lp5710
VIBM
p5711
aVTMO
p5712
aVGS
p5713
aVAVGO
p5714
aVAMP
p5715
aVPVH
p5716
aVLH
p5717
aVAON
p5718
aVPRGO
p5719
aVTSO
p5720
aVFFIV
p5721
aVBF-B
p5722
aVSTZ
p5723
aVVRTX
p5724
aVCXO
p5725
aVEXPE
p5726
aVHAR
p5727
aVPCLN
p5728
asS'11142016'
p5729
(lp5730
VFB
p5731
aVADBE
p5732
aVXEC
p5733
aVCXO
p5734
aVPX
p5735
aVPVH
p5736
aVBA
p5737
aVUTX
p5738
aVFFIV
p5739
aVILMN
p5740
aVROP
p5741
aVADS
p5742
aVSNA
p5743
aVCME
p5744
aVPH
p5745
aVSHW
p5746
aVGWW
p5747
aVAMP
p5748
aVAYI
p5749
aVPCLN
p5750
asS'03262015'
p5751
(lp5752
VAGN
p5753
aVAMP
p5754
aVPRGO
p5755
aVSWKS
p5756
aVLMT
p5757
aVEW
p5758
aVMPC
p5759
aVCMG
p5760
aVHUM
p5761
aVESS
p5762
asS'12152016'
p5763
(lp5764
VRL
p5765
aVAYI
p5766
aVPVH
p5767
aVAMP
p5768
aVROK
p5769
aVADS
p5770
aVURI
p5771
aVCXO
p5772
aVMCK
p5773
aVILMN
p5774
asS'11232016'
p5775
(lp5776
VFFIV
p5777
aVBA
p5778
aVPX
p5779
aVPVH
p5780
aVFB
p5781
aVROK
p5782
aVCVX
p5783
aVSNA
p5784
aVAPD
p5785
aVXEC
p5786
aVWHR
p5787
aVILMN
p5788
aVROP
p5789
aVCXO
p5790
aVGWW
p5791
aVAMP
p5792
aVAYI
p5793
aVSHW
p5794
aVADS
p5795
asS'12152015'
p5796
(lp5797
VEW
p5798
aVGOOG
p5799
aVWHR
p5800
aVTSO
p5801
aVREGN
p5802
aVAAPL
p5803
aVGD
p5804
aVGILD
p5805
aVAYI
p5806
aVUHS
p5807
aVABC
p5808
aVAVGO
p5809
aVAET
p5810
asS'06262015'
p5811
(lp5812
VAVGO
p5813
aVCXO
p5814
aVMON
p5815
aVMNK
p5816
aVSTZ
p5817
aVFFIV
p5818
aVPVH
p5819
aVSIG
p5820
aVLH
p5821
aVPRGO
p5822
aVCELG
p5823
aVAET
p5824
asS'02052016'
p5825
(lp5826
VAMZN
p5827
aVILMN
p5828
aVREGN
p5829
aVGOOG
p5830
aVAET
p5831
aVAYI
p5832
aVAMG
p5833
aVPCLN
p5834
aVAVGO
p5835
aVWHR
p5836
aVSHW
p5837
asS'02222016'
p5838
(lp5839
VFB
p5840
aVCB
p5841
aVSHW
p5842
aVAET
p5843
aVBF-B
p5844
aVPXD
p5845
aVGOOG
p5846
aVILMN
p5847
aVAMG
p5848
aVAYI
p5849
asS'04252016'
p5850
(lp5851
VGOOG
p5852
aVPSA
p5853
aVPRGO
p5854
aVSPG
p5855
aVEQIX
p5856
aVAAPL
p5857
aVWHR
p5858
aVAYI
p5859
aVSHW
p5860
aVXEC
p5861
aVSWK
p5862
aVPXD
p5863
aVCELG
p5864
aVPCLN
p5865
asS'03022015'
p5866
(lp5867
VAMP
p5868
aVCMG
p5869
aVCELG
p5870
aVABC
p5871
aVGILD
p5872
aVLMT
p5873
aVSIG
p5874
aVGS
p5875
aVHUM
p5876
aVPRGO
p5877
asS'03022016'
p5878
(lp5879
VAET
p5880
aVSHW
p5881
aVAMG
p5882
aVPCLN
p5883
asS'10312016'
p5884
(lp5885
VSHW
p5886
aVCXO
p5887
aVXEC
p5888
aVPVH
p5889
aVILMN
p5890
aVADS
p5891
aVROP
p5892
aVSTZ
p5893
aVPCLN
p5894
aVFB
p5895
aVSNA
p5896
aVAPD
p5897
asS'10062016'
p5898
(lp5899
VAYI
p5900
aVAPD
p5901
aVBLK
p5902
aVPSA
p5903
aVBIIB
p5904
aVFB
p5905
aVAAPL
p5906
aVSHW
p5907
aVUTX
p5908
aVAMP
p5909
aVMNST
p5910
aVPVH
p5911
aVPH
p5912
aVPX
p5913
aVSNA
p5914
aVILMN
p5915
aVCXO
p5916
aVPCLN
p5917
asS'04022015'
p5918
(lp5919
VAGN
p5920
aVNFLX
p5921
aVESS
p5922
aVPRGO
p5923
aVEW
p5924
aVHUM
p5925
aVULTA
p5926
aVAMP
p5927
aVLMT
p5928
aVHON
p5929
aVTDG
p5930
asS'03192015'
p5931
(lp5932
VNFLX
p5933
aVMMM
p5934
aVAVGO
p5935
aVHON
p5936
aVPXD
p5937
aVAYI
p5938
aVILMN
p5939
aVCELG
p5940
aVEW
p5941
aVHUM
p5942
aVPRGO
p5943
aVCMG
p5944
asS'11242015'
p5945
(lp5946
VPCLN
p5947
aVGOOGL
p5948
aVFB
p5949
aVGOOG
p5950
aVANTM
p5951
aVGD
p5952
aVLLL
p5953
aVTSO
p5954
aVVMC
p5955
aVUHS
p5956
aVAVGO
p5957
aVSRCL
p5958
aVMLM
p5959
asS'04122016'
p5960
(lp5961
VPCLN
p5962
aVGOOG
p5963
aVWHR
p5964
aVFISV
p5965
aVSPG
p5966
aVWAT
p5967
aVHON
p5968
aVAAPL
p5969
aVSWK
p5970
aVPXD
p5971
aVSHW
p5972
aVXEC
p5973
aVCELG
p5974
aVAYI
p5975
asS'06292016'
p5976
(lp5977
VPCLN
p5978
aVALXN
p5979
aVPXD
p5980
aVIBM
p5981
aVSWK
p5982
aVISRG
p5983
aVHON
p5984
aVXEC
p5985
aVILMN
p5986
aVFB
p5987
aVROP
p5988
aVMKC
p5989
aVDLR
p5990
aVESS
p5991
aVORLY
p5992
aVPSA
p5993
asS'10142015'
p5994
(lp5995
VAVGO
p5996
aVPVH
p5997
aVHUM
p5998
aVSTZ
p5999
aVCOST
p6000
aVLLL
p6001
aVNFLX
p6002
aVREGN
p6003
aVPCLN
p6004
asS'10142016'
p6005
(lp6006
VPCLN
p6007
aVILMN
p6008
aVROP
p6009
aVADS
p6010
aVBLK
p6011
aVSYK
p6012
aVSNA
p6013
aVSHW
p6014
aVFB
p6015
aVPH
p6016
aVSLG
p6017
aVPSA
p6018
aVMNST
p6019
aVXEC
p6020
asS'03312016'
p6021
(lp6022
VPCLN
p6023
aVSHW
p6024
aVCXO
p6025
aVWHR
p6026
aVHON
p6027
aVFISV
p6028
aVSPG
p6029
aVULTA
p6030
aVESS
p6031
aVGOOG
p6032
asS'03312015'
p6033
(lp6034
VNFLX
p6035
aVAGN
p6036
aVPRGO
p6037
aVAMP
p6038
aVEW
p6039
aVANTM
p6040
aVULTA
p6041
aVHUM
p6042
aVORLY
p6043
aVTDG
p6044
aVLMT
p6045
asS'11172016'
p6046
(lp6047
VFB
p6048
aVPX
p6049
aVCXO
p6050
aVBA
p6051
aVXEC
p6052
aVCVX
p6053
aVFFIV
p6054
aVPCLN
p6055
aVAPD
p6056
aVILMN
p6057
aVSNA
p6058
aVROK
p6059
aVROP
p6060
aVPH
p6061
aVADS
p6062
aVGWW
p6063
aVSHW
p6064
aVAMP
p6065
aVAYI
p6066
asS'11172015'
p6067
(lp6068
VPCLN
p6069
aVGOOGL
p6070
aVGOOG
p6071
aVREGN
p6072
aVALXN
p6073
aVGD
p6074
aVNOC
p6075
aVLLL
p6076
aVAVGO
p6077
aVWHR
p6078
aVTSO
p6079
aVANTM
p6080
aVSRCL
p6081
aVNFLX
p6082
aVMLM
p6083
asS'05032016'
p6084
(lp6085
VGOOG
p6086
aVAYI
p6087
aVWHR
p6088
aVSHW
p6089
aVPSA
p6090
aVEW
p6091
aVESS
p6092
aVXEC
p6093
aVULTA
p6094
aVSIG
p6095
aVSWK
p6096
aVPCLN
p6097
aVPXD
p6098
asS'07252016'
p6099
(lp6100
VSHW
p6101
aVXEC
p6102
aVHON
p6103
aVPSA
p6104
aVPXD
p6105
aVROP
p6106
aVMCK
p6107
aVBRK-B
p6108
aVCME
p6109
aVPPG
p6110
aVAYI
p6111
aVEW
p6112
aVFB
p6113
aVPCLN
p6114
aVILMN
p6115
aVALXN
p6116
asS'09212015'
p6117
(lp6118
VPVH
p6119
aVFFIV
p6120
aVPRGO
p6121
aVMLM
p6122
aVCOST
p6123
aVNOC
p6124
aVHUM
p6125
aVNFLX
p6126
asS'08112016'
p6127
(lp6128
VPSA
p6129
aVSHW
p6130
aVAPD
p6131
aVBA
p6132
aVCME
p6133
aVSNA
p6134
aVIFF
p6135
aVFB
p6136
aVUTX
p6137
aVWYNN
p6138
aVALXN
p6139
aVBIIB
p6140
aVAYI
p6141
aVPH
p6142
asS'03052015'
p6143
(lp6144
VAYI
p6145
aVLMT
p6146
aVAMP
p6147
aVHON
p6148
aVMNK
p6149
aVHUM
p6150
aVCMG
p6151
aVSIG
p6152
aVPRGO
p6153
aVAVGO
p6154
aVGOOGL
p6155
asS'06062016'
p6156
(lp6157
VESS
p6158
aVXEC
p6159
aVSWK
p6160
aVSHW
p6161
aVADBE
p6162
aVFISV
p6163
aVMHK
p6164
aVITW
p6165
aVMCK
p6166
aVAMG
p6167
aVALXN
p6168
aVHUM
p6169
aVULTA
p6170
aVPCLN
p6171
asS'08042015'
p6172
(lp6173
VMNK
p6174
aVIBM
p6175
aVROK
p6176
aVAVGO
p6177
aVPVH
p6178
aVHUM
p6179
aVAMP
p6180
aVAVB
p6181
aVEFX
p6182
aVNOC
p6183
aVPRGO
p6184
aVLH
p6185
aVLMT
p6186
aVCXO
p6187
aVVRTX
p6188
aVEQIX
p6189
aVFFIV
p6190
asS'08042016'
p6191
(lp6192
VPSA
p6193
aVDLR
p6194
aVAYI
p6195
aVBA
p6196
aVGPC
p6197
aVCME
p6198
aVROP
p6199
aVFB
p6200
aVILMN
p6201
aVPCLN
p6202
aVBIIB
p6203
asS'01272017'
p6204
(lp6205
VWHR
p6206
aVADP
p6207
aVCVX
p6208
aVILMN
p6209
aVNVDA
p6210
aVLRCX
p6211
aVCXO
p6212
asS'01272016'
p6213
(lp6214
VAYI
p6215
aVREGN
p6216
aVALXN
p6217
aVILMN
p6218
aVAVGO
p6219
aVAET
p6220
aVWHR
p6221
asS'09182015'
p6222
(lp6223
VPVH
p6224
aVFFIV
p6225
aVAZO
p6226
aVVRTX
p6227
aVCXO
p6228
aVMLM
p6229
aVCOST
p6230
aVNOC
p6231
aVHUM
p6232
aVNFLX
p6233
asS'01222016'
p6234
(lp6235
VAMZN
p6236
aVAYI
p6237
aVALXN
p6238
aVREGN
p6239
aVAVGO
p6240
aVAMG
p6241
aVAET
p6242
aVWHR
p6243
asS'04152016'
p6244
(lp6245
VESS
p6246
aVEQIX
p6247
aVFB
p6248
aVWHR
p6249
aVSPG
p6250
aVFISV
p6251
aVAPD
p6252
aVAAPL
p6253
aVHON
p6254
aVSHW
p6255
aVSWK
p6256
aVULTA
p6257
aVGOOG
p6258
aVPCLN
p6259
aVAYI
p6260
asS'04152015'
p6261
(lp6262
VHUM
p6263
aVAVGO
p6264
aVLMT
p6265
aVSIG
p6266
aVAYI
p6267
aVAMP
p6268
aVWAT
p6269
aVSTZ
p6270
aVTDG
p6271
aVPVH
p6272
aVCXO
p6273
aVCMG
p6274
aVPRGO
p6275
asS'04272015'
p6276
(lp6277
VPRGO
p6278
aVPVH
p6279
aVLMT
p6280
aVSTZ
p6281
aVSIG
p6282
aVHON
p6283
aVAMP
p6284
aVCXO
p6285
aVFFIV
p6286
aVNFLX
p6287
asS'04272016'
p6288
(lp6289
VGOOG
p6290
aVPSA
p6291
aVWHR
p6292
aVAAPL
p6293
aVAYI
p6294
aVSPG
p6295
aVSHW
p6296
aVACN
p6297
aVHON
p6298
aVULTA
p6299
aVMLM
p6300
aVCELG
p6301
aVSWK
p6302
aVXEC
p6303
aVAET
p6304
aVPCLN
p6305
aVPXD
p6306
asS'05122015'
p6307
(lp6308
VCXO
p6309
aVHAR
p6310
aVPRGO
p6311
aVLH
p6312
aVHUM
p6313
aVSIG
p6314
aVEW
p6315
aVAMP
p6316
aVAET
p6317
asS'05122016'
p6318
(lp6319
VPCLN
p6320
aVWHR
p6321
aVAYI
p6322
aVEW
p6323
aVSIG
p6324
aVAET
p6325
aVPXD
p6326
aVSHW
p6327
aVHON
p6328
aVSWK
p6329
aVSPG
p6330
aVROP
p6331
aVXEC
p6332
aVFB
p6333
aVESS
p6334
aVFISV
p6335
aVGOOG
p6336
aVPSA
p6337
aVICE
p6338
asS'02192015'
p6339
(lp6340
VCMG
p6341
aVSIG
p6342
aVPRGO
p6343
aVHUM
p6344
aVABC
p6345
aVEW
p6346
aVAVGO
p6347
aVAMP
p6348
aVMNK
p6349
aVLMT
p6350
aVAAPL
p6351
aVREGN
p6352
aVSPGI
p6353
aVGS
p6354
aVGOOGL
p6355
asS'05272015'
p6356
(lp6357
VNFLX
p6358
aVHAR
p6359
aVSPGI
p6360
aVEFX
p6361
aVBLK
p6362
aVCXO
p6363
aVROK
p6364
aVVRTX
p6365
aVAMP
p6366
aVANTM
p6367
aVTDG
p6368
aVCELG
p6369
aVLH
p6370
aVEXPE
p6371
aVHUM
p6372
aVAVGO
p6373
asS'05272016'
p6374
(lp6375
VSIG
p6376
aVSHW
p6377
aVSWK
p6378
aVPSA
p6379
aVFB
p6380
aVEXPE
p6381
aVXEC
p6382
aVHD
p6383
aVVMC
p6384
aVAET
p6385
aVWHR
p6386
aVMCK
p6387
aVTDG
p6388
aVPCLN
p6389
aVULTA
p6390
asS'08242016'
p6391
(lp6392
VBIIB
p6393
aVSHW
p6394
aVPCLN
p6395
aVJNJ
p6396
aVILMN
p6397
aVFB
p6398
aVPSA
p6399
aVPH
p6400
aVSNA
p6401
aVAYI
p6402
aVXEC
p6403
asS'08242015'
p6404
(lp6405
VEQIX
p6406
aVVRTX
p6407
aVMLM
p6408
aVFFIV
p6409
aVTSO
p6410
aVNOC
p6411
aVAVGO
p6412
aVPRGO
p6413
aVCXO
p6414
aVUHS
p6415
aVLH
p6416
aVLLL
p6417
aVSTZ
p6418
aVCI
p6419
aVNFLX
p6420
asS'11302016'
p6421
(lp6422
VPCLN
p6423
aVBIIB
p6424
aVSNA
p6425
aVPVH
p6426
aVBA
p6427
aVCVX
p6428
aVROP
p6429
aVAMP
p6430
aVWHR
p6431
aVCXO
p6432
aVAYI
p6433
aVXEC
p6434
aVILMN
p6435
aVWYNN
p6436
aVSHW
p6437
asS'01062017'
p6438
(lp6439
VBLK
p6440
aVNVDA
p6441
aVGWW
p6442
aVCVX
p6443
aVCXO
p6444
aVEOG
p6445
aVLRCX
p6446
aVAMP
p6447
aVBIIB
p6448
aVILMN
p6449
asS'11302015'
p6450
(lp6451
VPCLN
p6452
aVREGN
p6453
aVGOOG
p6454
aVTSO
p6455
aVVMC
p6456
aVAET
p6457
aVGD
p6458
aVULTA
p6459
aVEFX
p6460
aVEW
p6461
aVAVGO
p6462
asS'09042015'
p6463
(lp6464
VPCLN
p6465
aVPRGO
p6466
aVFFIV
p6467
aVNOC
p6468
aVVRTX
p6469
aVLH
p6470
aVEQIX
p6471
aVHUM
p6472
aVPVH
p6473
aVNFLX
p6474
asS'10072016'
p6475
(lp6476
VAYI
p6477
aVAPD
p6478
aVBLK
p6479
aVPSA
p6480
aVSHW
p6481
aVFB
p6482
aVAAPL
p6483
aVUTX
p6484
aVAMP
p6485
aVPH
p6486
aVMNST
p6487
aVSNA
p6488
aVILMN
p6489
aVPVH
p6490
aVPCLN
p6491
aVXEC
p6492
asS'10262016'
p6493
(lp6494
VEW
p6495
aVILMN
p6496
aVGWW
p6497
aVPVH
p6498
aVCXO
p6499
aVXEC
p6500
aVADS
p6501
aVROP
p6502
aVPCLN
p6503
aVPH
p6504
aVSTZ
p6505
aVHUM
p6506
aVFB
p6507
aVAPD
p6508
asS'10262015'
p6509
(lp6510
VMLM
p6511
aVANTM
p6512
aVSTZ
p6513
aVVNO
p6514
aVCOST
p6515
aVLH
p6516
aVMTB
p6517
aVSPG
p6518
aVAVGO
p6519
aVPCLN
p6520
asS'07052016'
p6521
(lp6522
VPCLN
p6523
aVPXD
p6524
aVULTA
p6525
aVAPD
p6526
aVPPG
p6527
aVSWK
p6528
aVFB
p6529
aVROP
p6530
aVILMN
p6531
aVFISV
p6532
aVDLR
p6533
aVMCK
p6534
aVORLY
p6535
aVPSA
p6536
asS'03122015'
p6537
(lp6538
VNFLX
p6539
aVTDG
p6540
aVLMT
p6541
aVAMP
p6542
aVAYI
p6543
aVCELG
p6544
aVKSU
p6545
aVHUM
p6546
aVEW
p6547
aVCMG
p6548
aVSIG
p6549
aVPRGO
p6550
asS'03132015'
p6551
(lp6552
VNFLX
p6553
aVTDG
p6554
aVLMT
p6555
aVAYI
p6556
aVCELG
p6557
aVAMP
p6558
aVKSU
p6559
aVAGN
p6560
aVANTM
p6561
aVHUM
p6562
aVSIG
p6563
aVCMG
p6564
aVPRGO
p6565
asS'01182017'
p6566
(lp6567
VNVDA
p6568
aVCVX
p6569
aVBIIB
p6570
aVWHR
p6571
aVCXO
p6572
aVILMN
p6573
asS'11222016'
p6574
(lp6575
VPX
p6576
aVFB
p6577
aVBA
p6578
aVFFIV
p6579
aVPVH
p6580
aVCVX
p6581
aVROK
p6582
aVXEC
p6583
aVAPD
p6584
aVSNA
p6585
aVCXO
p6586
aVWHR
p6587
aVILMN
p6588
aVROP
p6589
aVGWW
p6590
aVAMP
p6591
aVAYI
p6592
aVADS
p6593
asS'11052015'
p6594
(lp6595
VSRCL
p6596
aVANTM
p6597
aVSTZ
p6598
aVGD
p6599
aVAVGO
p6600
aVAET
p6601
aVHAR
p6602
aVMLM
p6603
aVAMGN
p6604
aVLLL
p6605
aVTSO
p6606
aVNFLX
p6607
aVPCLN
p6608
asS'01252017'
p6609
(lp6610
VBIIB
p6611
aVNVDA
p6612
aVCVX
p6613
aVAYI
p6614
aVWHR
p6615
aVBA
p6616
aVILMN
p6617
aVCXO
p6618
asS'10022015'
p6619
(lp6620
VREGN
p6621
aVPCLN
p6622
aVMLM
p6623
aVAVGO
p6624
aVHUM
p6625
aVNOC
p6626
aVFFIV
p6627
aVNFLX
p6628
asS'03162015'
p6629
(lp6630
VNFLX
p6631
aVTDG
p6632
aVLMT
p6633
aVAYI
p6634
aVKSU
p6635
aVCELG
p6636
aVAMP
p6637
aVHUM
p6638
aVSIG
p6639
aVPRGO
p6640
aVCMG
p6641
asS'01112016'
p6642
(lp6643
VREGN
p6644
aVAYI
p6645
aVALXN
p6646
aVAVGO
p6647
aVSHW
p6648
aVWHR
p6649
aVNFLX
p6650
aVAET
p6651
aVTSO
p6652
asS'01112017'
p6653
(lp6654
VNVDA
p6655
aVGWW
p6656
aVCVX
p6657
aVWHR
p6658
aVVMC
p6659
aVEOG
p6660
aVLRCX
p6661
aVAMP
p6662
aVAGN
p6663
aVILMN
p6664
asS'09102015'
p6665
(lp6666
VMNST
p6667
aVPRGO
p6668
aVFFIV
p6669
aVNOC
p6670
aVPVH
p6671
aVVRTX
p6672
aVHUM
p6673
asS'07232015'
p6674
(lp6675
VANTM
p6676
aVIBM
p6677
aVCXO
p6678
aVNOC
p6679
aVLH
p6680
aVAVGO
p6681
aVSWKS
p6682
aVVRTX
p6683
aVFFIV
p6684
aVPRGO
p6685
aVLMT
p6686
asS'09152016'
p6687
(lp6688
VBIIB
p6689
aVAYI
p6690
aVXEC
p6691
aVPCLN
p6692
aVCXO
p6693
aVSLG
p6694
aVSHW
p6695
aVFFIV
p6696
aVUTX
p6697
aVPH
p6698
aVSNA
p6699
aVPSA
p6700
aVILMN
p6701
aVADS
p6702
aVWYNN
p6703
asS'01212016'
p6704
(lp6705
VREGN
p6706
aVGOOG
p6707
aVALXN
p6708
aVAVGO
p6709
aVAET
p6710
aVWHR
p6711
asS'09152015'
p6712
(lp6713
VMNST
p6714
aVPVH
p6715
aVFFIV
p6716
aVPRGO
p6717
aVNOC
p6718
aVVRTX
p6719
aVHUM
p6720
aVREGN
p6721
aVPCLN
p6722
asS'06182015'
p6723
(lp6724
VHUM
p6725
aVMNK
p6726
aVAGN
p6727
aVAVGO
p6728
aVSTZ
p6729
aVANTM
p6730
aVGS
p6731
aVLH
p6732
aVCELG
p6733
aVAMP
p6734
aVORLY
p6735
aVCXO
p6736
aVAET
p6737
asS'02032016'
p6738
(lp6739
VAMZN
p6740
aVREGN
p6741
aVILMN
p6742
aVAET
p6743
aVAYI
p6744
aVWHR
p6745
aVAVGO
p6746
aVPCLN
p6747
aVSHW
p6748
aVGOOG
p6749
asS'02032017'
p6750
(lp6751
VILMN
p6752
aVEOG
p6753
aVCVX
p6754
aVMLM
p6755
aVLRCX
p6756
aVNVDA
p6757
asS'01202016'
p6758
(lp6759
VREGN
p6760
aVGOOG
p6761
aVALXN
p6762
aVAVGO
p6763
aVWHR
p6764
aVAET
p6765
asS'01202017'
p6766
(lp6767
VNVDA
p6768
aVBIIB
p6769
aVWHR
p6770
aVCVX
p6771
aVBA
p6772
aVLMT
p6773
aVILMN
p6774
asS'02132015'
p6775
(lp6776
VCMG
p6777
aVREGN
p6778
aVESS
p6779
aVNFLX
p6780
aVPRGO
p6781
aVSIG
p6782
aVISRG
p6783
aVUNP
p6784
aVAVGO
p6785
aVEW
p6786
aVMNK
p6787
aVLMT
p6788
aVROP
p6789
aVGS
p6790
aVGOOGL
p6791
aVAMZN
p6792
asS'10272016'
p6793
(lp6794
VEW
p6795
aVILMN
p6796
aVPCLN
p6797
aVCXO
p6798
aVPVH
p6799
aVXEC
p6800
aVROP
p6801
aVADS
p6802
aVGWW
p6803
aVPH
p6804
aVSTZ
p6805
aVFB
p6806
aVHUM
p6807
aVAPD
p6808
aVSNA
p6809
asS'03242015'
p6810
(lp6811
VNFLX
p6812
aVTDG
p6813
aVAVGO
p6814
aVMPC
p6815
aVLMT
p6816
aVPRGO
p6817
aVSWKS
p6818
aVANTM
p6819
aVEW
p6820
aVAGN
p6821
aVHUM
p6822
aVCMG
p6823
asS'03242016'
p6824
(lp6825
VPCLN
p6826
aVSHW
p6827
aVSPG
p6828
aVHON
p6829
aVWHR
p6830
aVESS
p6831
aVBA
p6832
aVGOOG
p6833
asS'01292016'
p6834
(lp6835
VREGN
p6836
aVILMN
p6837
aVAYI
p6838
aVAET
p6839
aVUHS
p6840
aVAVGO
p6841
aVWHR
p6842
asS'05022016'
p6843
(lp6844
VGOOG
p6845
aVAYI
p6846
aVPSA
p6847
aVWHR
p6848
aVALXN
p6849
aVSHW
p6850
aVEW
p6851
aVESS
p6852
aVSIG
p6853
aVACN
p6854
aVXEC
p6855
aVSWK
p6856
aVPCLN
p6857
aVAET
p6858
aVEXPE
p6859
aVPXD
p6860
asS'12222016'
p6861
(lp6862
VAMP
p6863
aVCMI
p6864
aVURI
p6865
aVDIS
p6866
aVILMN
p6867
aVNVDA
p6868
asS'10292015'
p6869
(lp6870
VFFIV
p6871
aVSTZ
p6872
aVANTM
p6873
aVEFX
p6874
aVMLM
p6875
aVAVGO
p6876
aVFB
p6877
aVNFLX
p6878
aVPCLN
p6879
asS'02292016'
p6880
(lp6881
VAET
p6882
aVGOOG
p6883
aVSHW
p6884
aVPCLN
p6885
asS'10112016'
p6886
(lp6887
VILMN
p6888
aVPCLN
p6889
aVAPD
p6890
aVHON
p6891
aVADS
p6892
aVBLK
p6893
aVPSA
p6894
aVSHW
p6895
aVSLG
p6896
aVSNA
p6897
aVFB
p6898
aVPH
p6899
aVPX
p6900
aVAAPL
p6901
aVMNST
p6902
aVPVH
p6903
aVXEC
p6904
aVCXO
p6905
asS'04192016'
p6906
(lp6907
VEQIX
p6908
aVESS
p6909
aVAAPL
p6910
aVWHR
p6911
aVSHW
p6912
aVULTA
p6913
aVSWK
p6914
aVHON
p6915
aVGOOG
p6916
aVMCK
p6917
aVAYI
p6918
aVPCLN
p6919
asS'08202015'
p6920
(lp6921
VPCLN
p6922
aVAMZN
p6923
aVHAR
p6924
aVFFIV
p6925
aVGS
p6926
aVAVGO
p6927
aVLLL
p6928
aVCOST
p6929
aVTSO
p6930
aVEXPE
p6931
aVMLM
p6932
aVCXO
p6933
aVPVH
p6934
aVPRGO
p6935
aVSTZ
p6936
aVHUM
p6937
aVAET
p6938
aVAZO
p6939
aVNFLX
p6940
asS'05212015'
p6941
(lp6942
VMNST
p6943
aVHAR
p6944
aVCXO
p6945
aVSIG
p6946
aVEFX
p6947
aVEXPE
p6948
aVLH
p6949
aVROK
p6950
aVAMP
p6951
aVMMM
p6952
aVANTM
p6953
aVEW
p6954
aVAVGO
p6955
aVNFLX
p6956
aVHUM
p6957
asS'10052016'
p6958
(lp6959
VAYI
p6960
aVBLK
p6961
aVPSA
p6962
aVALXN
p6963
aVFB
p6964
aVAAPL
p6965
aVSHW
p6966
aVUTX
p6967
aVAMP
p6968
aVMNST
p6969
aVPVH
p6970
aVPH
p6971
aVSNA
p6972
aVPX
p6973
aVILMN
p6974
aVXEC
p6975
aVPCLN
p6976
asS'10052015'
p6977
(lp6978
VREGN
p6979
aVPCLN
p6980
aVAVGO
p6981
aVMLM
p6982
aVNOC
p6983
aVNFLX
p6984
asS'05112015'
p6985
(lp6986
VCXO
p6987
aVHUM
p6988
aVHAR
p6989
aVNFLX
p6990
aVPRGO
p6991
aVEW
p6992
aVLH
p6993
aVSIG
p6994
aVMCO
p6995
aVSTZ
p6996
aVAMP
p6997
aVGS
p6998
aVPVH
p6999
aVMPC
p7000
aVREGN
p7001
aVANTM
p7002
asS'12272016'
p7003
(lp7004
VAMP
p7005
aVURI
p7006
aVSTZ
p7007
aVPSA
p7008
aVNVDA
p7009
asS'12222015'
p7010
(lp7011
VREGN
p7012
aVSHW
p7013
aVAAPL
p7014
aVWHR
p7015
aVTSO
p7016
aVAVGO
p7017
aVAYI
p7018
aVUHS
p7019
aVGILD
p7020
aVAET
p7021
asS'01092017'
p7022
(lp7023
VBLK
p7024
aVGS
p7025
aVGWW
p7026
aVNVDA
p7027
aVCVX
p7028
aVCXO
p7029
aVEOG
p7030
aVWHR
p7031
aVLRCX
p7032
aVAMP
p7033
aVBIIB
p7034
aVILMN
p7035
asS'07102015'
p7036
(lp7037
VAVGO
p7038
aVGS
p7039
aVCXO
p7040
aVFFIV
p7041
aVPRGO
p7042
aVPVH
p7043
aVAMP
p7044
aVSTZ
p7045
aVLH
p7046
aVAGN
p7047
aVNOC
p7048
aVMNK
p7049
as.