(dp1
S'12022016'
p2
(lp3
VNVDA
p4
aVSNA
p5
aVSWKS
p6
aVPFG
p7
aVUAL
p8
aVTEL
p9
aVLNC
p10
aVJEC
p11
aVILMN
p12
aVTIF
p13
aVDD
p14
aVDOV
p15
aVEQT
p16
aVSHW
p17
asS'03232016'
p18
(lp19
VPCLN
p20
aVKSU
p21
aVXOM
p22
aVHCN
p23
aVFISV
p24
aVADBE
p25
asS'03232015'
p26
(lp27
VADBE
p28
aVLNC
p29
aVMET
p30
aVVRSN
p31
aVAKAM
p32
aVPH
p33
aVAVY
p34
aVLB
p35
aVWBA
p36
aVEXPE
p37
aVAYI
p38
aVSWKS
p39
aVAAL
p40
asS'12022015'
p41
(lp42
VALK
p43
aVEW
p44
asS'09012015'
p45
(lp46
VNOC
p47
aVJPM
p48
aVKSS
p49
aVMYL
p50
aVNFLX
p51
asS'09012016'
p52
(lp53
VILMN
p54
aVWYNN
p55
aVAYI
p56
aVSHW
p57
aVCAT
p58
aVNVDA
p59
aVDOV
p60
aVHES
p61
aVTSN
p62
aVURI
p63
aVLEG
p64
aVSNA
p65
aVADS
p66
aVCME
p67
aVTIF
p68
aVQRVO
p69
aVSWKS
p70
aVEQT
p71
aVPSA
p72
asS'07312015'
p73
(lp74
VMYL
p75
aVTSO
p76
aVCNC
p77
aVKSS
p78
aVADBE
p79
aVSEE
p80
aVMNK
p81
aVPVH
p82
aVDLPH
p83
aVAKAM
p84
aVEQT
p85
aVNOC
p86
asS'08132015'
p87
(lp88
VPRGO
p89
aVADI
p90
aVDLPH
p91
aVHAR
p92
aVFIS
p93
aVEQT
p94
aVNFLX
p95
asS'11072016'
p96
(lp97
VXEC
p98
aVWYNN
p99
aVCAT
p100
aVSWKS
p101
aVURI
p102
aVNVDA
p103
aVQCOM
p104
aVCMA
p105
aVDOV
p106
aVJEC
p107
aVTIF
p108
aVEQT
p109
aVILMN
p110
asS'08082016'
p111
(lp112
VPSA
p113
aVQRVO
p114
aVAWK
p115
aVEQT
p116
aVDLPH
p117
aVWBA
p118
aVAYI
p119
aVNVDA
p120
aVADBE
p121
aVJPM
p122
aVROP
p123
aVHES
p124
aVRHT
p125
aVHAR
p126
asS'06302016'
p127
(lp128
VWYNN
p129
aVPXD
p130
aVRHT
p131
aVPPG
p132
aVDD
p133
aVADBE
p134
aVUNP
p135
aVEQT
p136
aVAPA
p137
aVXEC
p138
aVDLR
p139
aVMKC
p140
aVORLY
p141
aVPSA
p142
asS'06302015'
p143
(lp144
VGS
p145
aVFFIV
p146
aVSWKS
p147
aVR
aVKMX
p148
aVADI
p149
aVSTZ
p150
aVAKAM
p151
aVSTJ
p152
aVAXP
p153
aVEXPE
p154
aVEQT
p155
aVCHRW
p156
aVCNC
p157
aVADBE
p158
aVLH
p159
aVUHS
p160
asS'12062016'
p161
(lp162
VNVDA
p163
aVSNA
p164
aVSWKS
p165
aVUAL
p166
aVAMP
p167
aVAYI
p168
aVILMN
p169
aVLNC
p170
aVPFG
p171
aVTEL
p172
aVSHW
p173
aVROK
p174
aVDOV
p175
aVTIF
p176
aVEQT
p177
aVURI
p178
asS'02082017'
p179
(lp180
VCVX
p181
aVMET
p182
aVUAL
p183
aVSTT
p184
aVBA
p185
aVPNR
p186
aVJPM
p187
aVDTE
p188
aVAME
p189
aVLUV
p190
aVQRVO
p191
aVNVDA
p192
asS'10122016'
p193
(lp194
VILMN
p195
aVPCLN
p196
aVAPD
p197
aVWYNN
p198
aVPSA
p199
aVNVDA
p200
aVSNA
p201
aVPH
p202
aVTIF
p203
aVJWN
p204
aVSWKS
p205
aVURI
p206
asS'10122015'
p207
(lp208
VSWKS
p209
aVHES
p210
aVNFLX
p211
asS'09272016'
p212
(lp213
VPCLN
p214
aVWYNN
p215
aVSWKS
p216
aVTIF
p217
aVQRVO
p218
aVDOV
p219
aVNVDA
p220
aVSNA
p221
aVDLR
p222
aVILMN
p223
asS'04232015'
p224
(lp225
VSWKS
p226
aVALLE
p227
aVEW
p228
aVADBE
p229
asS'10132016'
p230
(lp231
VILMN
p232
aVPCLN
p233
aVAPD
p234
aVROP
p235
aVWYNN
p236
aVNVDA
p237
aVSNA
p238
aVEQT
p239
aVFB
p240
aVPSA
p241
aVDGX
p242
aVJEC
p243
aVTIF
p244
aVSWKS
p245
aVJWN
p246
aVURI
p247
asS'02092017'
p248
(lp249
VMET
p250
aVUAL
p251
aVBA
p252
aVPNR
p253
aVDTE
p254
aVAME
p255
aVQRVO
p256
aVAYI
p257
asS'06122015'
p258
(lp259
VADI
p260
aVADM
p261
aVALLE
p262
aVADBE
p263
aVSTJ
p264
aVAXP
p265
aVEMN
p266
aVVRSN
p267
aVR
aVLH
p268
aVLNC
p269
aVEW
p270
asS'12182015'
p271
(lp272
VGD
p273
aVFISV
p274
aVADI
p275
asS'05182016'
p276
(lp277
VAYI
p278
aVKSU
p279
aVR
aVDLPH
p280
aVCBS
p281
aVPXD
p282
aVESS
p283
aVSHW
p284
aVADSK
p285
aVGPC
p286
aVXOM
p287
aVVMC
p288
aVTSO
p289
aVXEC
p290
aVMKC
p291
asS'05182015'
p292
(lp293
VMYL
p294
aVCMCSA
p295
aVEQT
p296
aVR
aVBLL
p297
aVLNC
p298
aVMET
p299
aVSTJ
p300
aVKMX
p301
aVSTZ
p302
aVADM
p303
aVSWKS
p304
asS'02272015'
p305
(lp306
VBBBY
p307
aVBLL
p308
aVAPA
p309
aVHON
p310
aVLNC
p311
aVMCHP
p312
aVBWA
p313
aVCMCSA
p314
aVMET
p315
aVR
aVGILD
p316
aVVRSN
p317
aVSWKS
p318
aVTIF
p319
aVWBA
p320
aVGOOGL
p321
asS'12112015'
p322
(lp323
VREGN
p324
aVFISV
p325
aVMKC
p326
aVABC
p327
asS'09282016'
p328
(lp329
VPCLN
p330
aVWYNN
p331
aVEQT
p332
aVSWKS
p333
aVTIF
p334
aVQRVO
p335
aVSIG
p336
aVDOV
p337
aVNVDA
p338
aVSNA
p339
aVILMN
p340
aVDLR
p341
asS'09282015'
p342
(lp343
VCNC
p344
aVSTZ
p345
aVAVY
p346
aVNFLX
p347
asS'04162015'
p348
(lp349
VSWKS
p350
aVTSO
p351
aVALLE
p352
aVEFX
p353
aVLNC
p354
asS'05102016'
p355
(lp356
VPCLN
p357
aVAYI
p358
aVKSU
p359
aVDLPH
p360
aVTSO
p361
aVALK
p362
aVAPA
p363
aVPRU
p364
aVADSK
p365
aVHON
p366
aVROP
p367
aVSIG
p368
aVXEC
p369
aVADBE
p370
aVALB
p371
aVGPC
p372
aVXOM
p373
aVXRAY
p374
aVMKC
p375
aVDLR
p376
aVFB
p377
aVESS
p378
asS'02232016'
p379
(lp380
VED
p381
aVSCG
p382
aVFB
p383
aVAVY
p384
aVABC
p385
aVADBE
p386
aVKSU
p387
aVTSO
p388
aVILMN
p389
asS'02232015'
p390
(lp391
VCMG
p392
aVAXP
p393
aVSWKS
p394
aVMET
p395
aVLNC
p396
aVMYL
p397
aVVRSN
p398
aVTIF
p399
aVAKAM
p400
asS'08032016'
p401
(lp402
VPSA
p403
aVAYI
p404
aVEQT
p405
aVQRVO
p406
aVALB
p407
aVSIG
p408
aVWBA
p409
aVAN
p410
aVDLPH
p411
aVHES
p412
aVADBE
p413
aVNVDA
p414
aVDD
p415
aVURI
p416
aVWYNN
p417
aVRHT
p418
aVHAR
p419
aVILMN
p420
aVPCLN
p421
asS'12212016'
p422
(lp423
VPVH
p424
aVAMP
p425
aVEQT
p426
aVTIF
p427
aVJEC
p428
aVCAT
p429
aVLNC
p430
aVCMA
p431
aVPFG
p432
aVNTRS
p433
aVDOV
p434
aVJPM
p435
aVUAL
p436
aVAXP
p437
aVDD
p438
aVSWKS
p439
aVTSS
p440
aVILMN
p441
asS'12212015'
p442
(lp443
VAAPL
p444
aVADI
p445
aVEA
p446
asS'08032015'
p447
(lp448
VMYL
p449
aVTSO
p450
aVCNC
p451
aVKSS
p452
aVABBV
p453
aVPVH
p454
aVADBE
p455
aVDLPH
p456
aVFIS
p457
aVEQT
p458
aVNOC
p459
aVEXPE
p460
asS'07222016'
p461
(lp462
VSHW
p463
aVPSA
p464
aVWBA
p465
aVXEC
p466
aVRHT
p467
aVLEG
p468
aVNVDA
p469
aVSLB
p470
aVPPG
p471
aVAXP
p472
aVDD
p473
aVLYB
p474
aVAYI
p475
aVHAR
p476
aVURI
p477
aVPCLN
p478
asS'11032015'
p479
(lp480
VSTZ
p481
aVTSS
p482
aVHAR
p483
aVTSO
p484
aVNFLX
p485
asS'11032016'
p486
(lp487
VXEC
p488
aVFB
p489
aVSTZ
p490
aVCAT
p491
aVURI
p492
aVSWKS
p493
aVWYNN
p494
aVNVDA
p495
aVTIF
p496
aVCMA
p497
aVEQT
p498
aVILMN
p499
aVUAL
p500
aVJEC
p501
aVBA
p502
aVAPD
p503
asS'07222015'
p504
(lp505
VDLPH
p506
aVCNC
p507
aVSRCL
p508
aVADBE
p509
aVLNC
p510
aVFIS
p511
aVALLE
p512
aVNOC
p513
aVAKAM
p514
asS'12202016'
p515
(lp516
VPVH
p517
aVWYNN
p518
aVEQT
p519
aVTIF
p520
aVCAT
p521
aVJEC
p522
aVLNC
p523
aVGWW
p524
aVPFG
p525
aVJPM
p526
aVDOV
p527
aVUAL
p528
aVAXP
p529
aVSWKS
p530
aVNVDA
p531
aVILMN
p532
asS'02022016'
p533
(lp534
VREGN
p535
aVILMN
p536
aVADBE
p537
aVTEL
p538
aVED
p539
aVALB
p540
aVADI
p541
aVMKC
p542
aVOXY
p543
asS'11132015'
p544
(lp545
VULTA
p546
aVLRCX
p547
aVMET
p548
aVALK
p549
aVTSO
p550
asS'08172015'
p551
(lp552
VGS
p553
aVPKI
p554
aVAVGO
p555
aVTXN
p556
aVADI
p557
aVFIS
p558
aVSTZ
p559
aVHUM
p560
aVNFLX
p561
asS'10242016'
p562
(lp563
VILMN
p564
aVPCLN
p565
aVROP
p566
aVEQT
p567
aVAMP
p568
aVSWKS
p569
aVSTZ
p570
aVTEL
p571
aVWYNN
p572
aVTIF
p573
aVOKE
p574
aVJEC
p575
aVNVDA
p576
aVEMN
p577
aVSNA
p578
asS'06012016'
p579
(lp580
VSIG
p581
aVXEC
p582
aVSHW
p583
aVXOM
p584
aVAPA
p585
aVPSA
p586
aVGPC
p587
aVADBE
p588
aVAET
p589
aVTSO
p590
aVHUM
p591
asS'06012015'
p592
(lp593
VTSO
p594
aVLNC
p595
aVSTJ
p596
aVMET
p597
aVADM
p598
aVALLE
p599
aVPNR
p600
aVADBE
p601
aVSTZ
p602
aVADI
p603
aVEW
p604
aVHUM
p605
asS'12292016'
p606
(lp607
VTIF
p608
aVLNC
p609
aVUAL
p610
aVJEC
p611
aVAPA
p612
aVSTT
p613
aVCAT
p614
aVJPM
p615
aVDOV
p616
aVPFG
p617
aVAXP
p618
aVCVX
p619
aVSWKS
p620
aVSTZ
p621
asS'12292015'
p622
(lp623
VTSO
p624
aVREGN
p625
aVADI
p626
aVAME
p627
aVED
p628
asS'04182016'
p629
(lp630
VFB
p631
aVTSO
p632
aVWBA
p633
aVFISV
p634
aVACN
p635
aVSCG
p636
aVADBE
p637
aVALK
p638
aVXOM
p639
aVAPA
p640
aVKSU
p641
aVOXY
p642
aVPCLN
p643
asS'03112015'
p644
(lp645
VCMG
p646
aVCELG
p647
aVADBE
p648
aVMCHP
p649
aVKLAC
p650
aVAVY
p651
aVAKAM
p652
aVVRSN
p653
aVLNC
p654
aVABBV
p655
aVBBBY
p656
aVCMCSA
p657
aVDLR
p658
aVMET
p659
aVWBA
p660
aVAXP
p661
aVSWKS
p662
asS'03112016'
p663
(lp664
VTSN
p665
aVMKC
p666
aVXOM
p667
aVAEP
p668
aVTXN
p669
aVADBE
p670
aVAET
p671
aVPCLN
p672
asS'08212015'
p673
(lp674
VKSS
p675
aVAKAM
p676
aVLLL
p677
aVSTZ
p678
aVHUM
p679
aVAET
p680
aVNFLX
p681
asS'08172016'
p682
(lp683
VPSA
p684
aVURI
p685
aVTSN
p686
aVEQT
p687
aVHAR
p688
aVEMR
p689
aVCME
p690
aVAXP
p691
aVDOV
p692
aVWYNN
p693
aVNVDA
p694
asS'01132016'
p695
(lp696
VREGN
p697
aVADBE
p698
aVTSO
p699
aVAAPL
p700
aVOXY
p701
aVADI
p702
aVFISV
p703
asS'01132017'
p704
(lp705
VCVX
p706
aVOKE
p707
aVJPM
p708
aVLNC
p709
aVUAL
p710
aVBA
p711
aVOMC
p712
aVJEC
p713
aVPFG
p714
aVKSU
p715
aVAMP
p716
aVPNR
p717
aVTIF
p718
aVPVH
p719
aVILMN
p720
asS'05202016'
p721
(lp722
VAYI
p723
aVSHW
p724
aVPSA
p725
aVDLPH
p726
aVKSU
p727
aVADSK
p728
aVR
aVGPC
p729
aVOXY
p730
aVHON
p731
aVXOM
p732
aVMKC
p733
aVXEC
p734
aVTSO
p735
aVSIG
p736
aVCME
p737
asS'05202015'
p738
(lp739
VMYL
p740
aVLNC
p741
aVMET
p742
aVSTJ
p743
aVADM
p744
aVWBA
p745
aVKR
p746
aVUHS
p747
aVSWKS
p748
aVHUM
p749
asS'07092015'
p750
(lp751
VCNC
p752
aVGS
p753
aVADI
p754
aVAXP
p755
aVADBE
p756
aVSTZ
p757
aVR
aVAKAM
p758
aVNOC
p759
aVSTJ
p760
aVFIS
p761
asS'04012015'
p762
(lp763
VAGN
p764
aVSWKS
p765
aVAKAM
p766
aVADBE
p767
aVHUM
p768
aVAXP
p769
aVTSO
p770
aVLNC
p771
aVMET
p772
aVAAL
p773
aVHON
p774
aVVRSN
p775
aVTDG
p776
asS'04012016'
p777
(lp778
VPCLN
p779
aVSHW
p780
aVAYI
p781
aVKSU
p782
aVOXY
p783
aVAET
p784
aVXRAY
p785
aVGPC
p786
aVTXN
p787
aVHSY
p788
aVAEP
p789
aVFISV
p790
aVSPG
p791
aVADBE
p792
asS'11282016'
p793
(lp794
VPFG
p795
aVTIF
p796
aVBA
p797
aVPVH
p798
aVTEL
p799
aVMSI
p800
aVSWKS
p801
aVDD
p802
aVCVX
p803
aVDOV
p804
aVSNA
p805
aVCMA
p806
aVLNC
p807
aVAMP
p808
aVURI
p809
aVILMN
p810
aVNVDA
p811
aVWYNN
p812
aVSHW
p813
asS'12092015'
p814
(lp815
VWHR
p816
aVFISV
p817
aVEW
p818
aVABC
p819
aVQCOM
p820
aVALK
p821
asS'12092016'
p822
(lp823
VNVDA
p824
aVAYI
p825
aVILMN
p826
aVJEC
p827
aVPH
p828
aVLNC
p829
aVR
aVAMP
p830
aVAXP
p831
aVUAL
p832
aVSWKS
p833
aVSNA
p834
aVSHW
p835
aVADS
p836
aVTIF
p837
aVCMA
p838
aVDOV
p839
aVEQT
p840
asS'10232015'
p841
(lp842
VNFLX
p843
aVSTZ
p844
aVFISV
p845
aVPCLN
p846
asS'03042016'
p847
(lp848
VSCG
p849
aVAEP
p850
aVMKC
p851
aVGILD
p852
aVCVX
p853
aVKSU
p854
aVAET
p855
aVADBE
p856
aVSHW
p857
aVTSO
p858
aVPCLN
p859
asS'03042015'
p860
(lp861
VEOG
p862
aVBLL
p863
aVBBBY
p864
aVCELG
p865
aVDLR
p866
aVCMG
p867
aVR
aVLNC
p868
aVMCHP
p869
aVVRSN
p870
aVBWA
p871
aVCMCSA
p872
aVTIF
p873
aVSWKS
p874
aVAXP
p875
aVUHS
p876
asS'05142015'
p877
(lp878
VMYL
p879
aVR
aVCMCSA
p880
aVEQT
p881
aVSTJ
p882
aVSWKS
p883
aVTSO
p884
aVCNC
p885
asS'03162016'
p886
(lp887
VMKC
p888
aVXOM
p889
aVWMT
p890
aVAEP
p891
aVHCN
p892
aVADBE
p893
aVSPG
p894
aVAET
p895
aVSHW
p896
aVPCLN
p897
asS'07012015'
p898
(lp899
VGS
p900
aVFFIV
p901
aVR
aVKMX
p902
aVEXPE
p903
aVAKAM
p904
aVAXP
p905
aVSTJ
p906
aVEQT
p907
aVLNC
p908
aVAIG
p909
aVCHRW
p910
aVADBE
p911
aVCNC
p912
aVUHS
p913
asS'11082016'
p914
(lp915
VWYNN
p916
aVQRVO
p917
aVSWKS
p918
aVCAT
p919
aVSHW
p920
aVQCOM
p921
aVCMA
p922
aVNVDA
p923
aVURI
p924
aVUAL
p925
aVTEL
p926
aVSNA
p927
aVMSI
p928
aVILMN
p929
asS'11092016'
p930
(lp931
VXEC
p932
aVWYNN
p933
aVQRVO
p934
aVSWKS
p935
aVCAT
p936
aVUAL
p937
aVILMN
p938
aVAMP
p939
aVMSI
p940
aVIR
p941
aVSHW
p942
aVPH
p943
asS'11092015'
p944
(lp945
VGPN
p946
aVGD
p947
aVLRCX
p948
aVTSO
p949
aVNFLX
p950
asS'06132016'
p951
(lp952
VXEC
p953
aVAPA
p954
aVADBE
p955
aVJEC
p956
aVOXY
p957
aVVRTX
p958
aVFMC
p959
aVDD
p960
aVFISV
p961
aVRHT
p962
aVHAR
p963
aVURI
p964
aVDLPH
p965
aVEQT
p966
aVORLY
p967
aVDLR
p968
aVWYNN
p969
aVPCLN
p970
asS'04062016'
p971
(lp972
VPCLN
p973
aVCXO
p974
aVALK
p975
aVAET
p976
aVGPC
p977
aVSHW
p978
aVXRAY
p979
aVOXY
p980
aVAEP
p981
aVTXN
p982
aVSPG
p983
aVMKC
p984
aVADBE
p985
asS'04062015'
p986
(lp987
VSWKS
p988
aVHUM
p989
aVAAL
p990
aVAMP
p991
aVAKAM
p992
aVULTA
p993
aVLNC
p994
aVADBE
p995
aVMET
p996
aVVRSN
p997
aVALLE
p998
aVBLL
p999
aVTDG
p1000
asS'11272015'
p1001
(lp1002
VPCLN
p1003
aVEA
p1004
aVFISV
p1005
aVMET
p1006
aVBMY
p1007
aVALK
p1008
aVEFX
p1009
aVULTA
p1010
asS'08302016'
p1011
(lp1012
VWYNN
p1013
aVILMN
p1014
aVAYI
p1015
aVHAR
p1016
aVNVDA
p1017
aVCAT
p1018
aVTSN
p1019
aVDOV
p1020
aVAXP
p1021
aVJEC
p1022
aVEFX
p1023
aVURI
p1024
aVHES
p1025
aVNKE
p1026
aVGPN
p1027
aVQRVO
p1028
aVAMP
p1029
aVPSA
p1030
aVEQT
p1031
asS'08232016'
p1032
(lp1033
VWYNN
p1034
aVILMN
p1035
aVPRU
p1036
aVJEC
p1037
aVPSA
p1038
aVURI
p1039
aVNVDA
p1040
aVDOV
p1041
aVDLPH
p1042
aVHES
p1043
aVAYI
p1044
aVEQT
p1045
asS'09162015'
p1046
(lp1047
VABBV
p1048
aVHUM
p1049
aVNFLX
p1050
asS'04282015'
p1051
(lp1052
VEW
p1053
aVSWKS
p1054
aVDPS
p1055
aVEQT
p1056
aVLNC
p1057
aVAMP
p1058
aVAAL
p1059
aVAKAM
p1060
asS'09162016'
p1061
(lp1062
VAYI
p1063
aVXEC
p1064
aVURI
p1065
aVSHW
p1066
aVUTX
p1067
aVVTR
p1068
aVDOV
p1069
aVSNA
p1070
aVPSA
p1071
aVNVDA
p1072
aVEW
p1073
aVCAT
p1074
aVILMN
p1075
aVEQT
p1076
aVQRVO
p1077
aVTIF
p1078
aVSWKS
p1079
aVWYNN
p1080
asS'02082016'
p1081
(lp1082
VREGN
p1083
aVADBE
p1084
aVLLY
p1085
aVVRSK
p1086
aVGILD
p1087
aVED
p1088
aVFISV
p1089
asS'08022016'
p1090
(lp1091
VPSA
p1092
aVAYI
p1093
aVEQT
p1094
aVSHW
p1095
aVCBS
p1096
aVPPG
p1097
aVDLR
p1098
aVHES
p1099
aVWBA
p1100
aVALB
p1101
aVSIG
p1102
aVAN
p1103
aVADBE
p1104
aVJPM
p1105
aVNVDA
p1106
aVAXP
p1107
aVDD
p1108
aVRHT
p1109
aVHAR
p1110
aVWYNN
p1111
aVURI
p1112
aVPCLN
p1113
asS'02182015'
p1114
(lp1115
VCMG
p1116
aVDLR
p1117
aVSWKS
p1118
aVAXP
p1119
aVABBV
p1120
aVWBA
p1121
aVKMX
p1122
aVABC
p1123
aVTIF
p1124
aVLNC
p1125
aVSPGI
p1126
aVAKAM
p1127
aVAMZN
p1128
asS'02182016'
p1129
(lp1130
VED
p1131
aVAEP
p1132
aVADBE
p1133
aVVRSK
p1134
aVAVY
p1135
aVABC
p1136
aVGILD
p1137
aVILMN
p1138
aVAYI
p1139
asS'01192016'
p1140
(lp1141
VREGN
p1142
aVTSO
p1143
aVGILD
p1144
aVADBE
p1145
aVADI
p1146
asS'01192017'
p1147
(lp1148
VJPM
p1149
aVCVX
p1150
aVOKE
p1151
aVLNC
p1152
aVBA
p1153
aVCTSH
p1154
aVJEC
p1155
aVLVLT
p1156
aVKSU
p1157
asS'11232015'
p1158
(lp1159
VPCLN
p1160
aVGOOGL
p1161
aVEA
p1162
aVFISV
p1163
aVLRCX
p1164
aVGD
p1165
aVWBA
p1166
aVTSO
p1167
aVEW
p1168
aVMET
p1169
aVALK
p1170
asS'02092016'
p1171
(lp1172
VREGN
p1173
aVILMN
p1174
aVADBE
p1175
aVVRSK
p1176
aVGILD
p1177
aVSCG
p1178
aVED
p1179
asS'07162015'
p1180
(lp1181
VCNC
p1182
aVFIS
p1183
aVSTJ
p1184
aVTSO
p1185
asS'05042015'
p1186
(lp1187
VCNC
p1188
aVAMP
p1189
aVLNC
p1190
aVSWKS
p1191
aVSTJ
p1192
asS'05042016'
p1193
(lp1194
VPCLN
p1195
aVDLPH
p1196
aVADBE
p1197
aVKSU
p1198
aVSIG
p1199
aVSWK
p1200
aVGPC
p1201
aVALB
p1202
aVADSK
p1203
aVPXD
p1204
aVWBA
p1205
aVXOM
p1206
aVHCN
p1207
asS'08182016'
p1208
(lp1209
VPSA
p1210
aVURI
p1211
aVHAR
p1212
aVWYNN
p1213
aVCME
p1214
aVDOV
p1215
aVEQT
p1216
aVNVDA
p1217
asS'07172015'
p1218
(lp1219
VCNC
p1220
aVLNC
p1221
aVADBE
p1222
aVFIS
p1223
aVLH
p1224
aVAKAM
p1225
aVTSO
p1226
asS'06102015'
p1227
(lp1228
VMNK
p1229
aVSWKS
p1230
aVCELG
p1231
aVFFIV
p1232
aVADM
p1233
aVADBE
p1234
aVSTJ
p1235
aVNKE
p1236
aVUHS
p1237
aVADI
p1238
aVALLE
p1239
aVAXP
p1240
aVR
aVSTZ
p1241
aVLNC
p1242
aVLH
p1243
aVEW
p1244
asS'06102016'
p1245
(lp1246
VSIG
p1247
aVXEC
p1248
aVAPA
p1249
aVADBE
p1250
aVALB
p1251
aVJEC
p1252
aVMCK
p1253
aVFMC
p1254
aVRHT
p1255
aVSHW
p1256
aVVRTX
p1257
aVDLPH
p1258
aVEQT
p1259
aVHAR
p1260
aVSLB
p1261
aVURI
p1262
aVDLR
p1263
aVWYNN
p1264
asS'08182015'
p1265
(lp1266
VKSS
p1267
aVGS
p1268
aVPKI
p1269
aVHAR
p1270
aVSWKS
p1271
aVOMC
p1272
aVCME
p1273
aVTXN
p1274
aVFIS
p1275
aVSTZ
p1276
aVHUM
p1277
aVNFLX
p1278
asS'01242017'
p1279
(lp1280
VCVX
p1281
aVOKE
p1282
aVCTSH
p1283
aVAXP
p1284
aVCLX
p1285
aVAME
p1286
aVKSU
p1287
aVMLM
p1288
asS'02252015'
p1289
(lp1290
VCMCSA
p1291
aVWBA
p1292
aVLNC
p1293
aVSWKS
p1294
aVMET
p1295
aVMYL
p1296
aVGILD
p1297
aVVRSN
p1298
aVR
aVAKAM
p1299
aVTIF
p1300
asS'02252016'
p1301
(lp1302
VAEP
p1303
aVSCG
p1304
aVMKC
p1305
aVADBE
p1306
aVILMN
p1307
asS'09072016'
p1308
(lp1309
VAYI
p1310
aVILMN
p1311
aVHES
p1312
aVJEC
p1313
aVDOV
p1314
aVNVDA
p1315
aVTIF
p1316
aVCAT
p1317
aVSWKS
p1318
aVTSN
p1319
aVWYNN
p1320
aVURI
p1321
aVAXP
p1322
aVSHW
p1323
aVQRVO
p1324
aVVTR
p1325
aVAMP
p1326
aVPSA
p1327
asS'12132016'
p1328
(lp1329
VNVDA
p1330
aVWYNN
p1331
aVAMP
p1332
aVR
aVJEC
p1333
aVCAT
p1334
aVLNC
p1335
aVTWX
p1336
aVAXP
p1337
aVILMN
p1338
aVUAL
p1339
aVPFG
p1340
aVCMA
p1341
aVTIF
p1342
aVTEL
p1343
aVDD
p1344
aVDOV
p1345
aVADBE
p1346
aVSTZ
p1347
asS'06242015'
p1348
(lp1349
VKMX
p1350
aVAKAM
p1351
aVADI
p1352
aVADM
p1353
aVEQT
p1354
aVSTJ
p1355
aVLH
p1356
aVGS
p1357
aVAIG
p1358
aVCHRW
p1359
aVCNC
p1360
aVADBE
p1361
aVHES
p1362
asS'06242016'
p1363
(lp1364
VPCLN
p1365
aVVRTX
p1366
aVWYNN
p1367
aVADBE
p1368
aVURI
p1369
aVHAR
p1370
aVAAPL
p1371
aVRHT
p1372
aVXEC
p1373
aVCOL
p1374
aVUNP
p1375
aVDD
p1376
aVCAT
p1377
aVCME
p1378
aVAPA
p1379
aVEQT
p1380
aVMKC
p1381
aVWBA
p1382
asS'06072016'
p1383
(lp1384
VSIG
p1385
aVXEC
p1386
aVAPA
p1387
aVXOM
p1388
aVOXY
p1389
aVADBE
p1390
aVJEC
p1391
aVCXO
p1392
aVSHW
p1393
aVGPC
p1394
aVEQT
p1395
aVMCK
p1396
aVRHT
p1397
aVETR
p1398
aVTSO
p1399
aVURI
p1400
asS'06032015'
p1401
(lp1402
VFFIV
p1403
aVSTJ
p1404
aVADM
p1405
aVLNC
p1406
aVMET
p1407
aVALLE
p1408
aVLH
p1409
aVADI
p1410
aVUHS
p1411
aVHUM
p1412
asS'02042016'
p1413
(lp1414
VREGN
p1415
aVILMN
p1416
aVABC
p1417
aVAET
p1418
aVED
p1419
asS'07202015'
p1420
(lp1421
VDLPH
p1422
aVUHS
p1423
aVCNC
p1424
aVADBE
p1425
aVFIS
p1426
aVLH
p1427
aVAKAM
p1428
aVTSO
p1429
asS'07202016'
p1430
(lp1431
VPSA
p1432
aVAPA
p1433
aVXEC
p1434
aVRHT
p1435
aVSLB
p1436
aVLEG
p1437
aVFIS
p1438
aVURI
p1439
aVNVDA
p1440
aVADBE
p1441
aVEMR
p1442
aVDD
p1443
aVAXP
p1444
aVPPG
p1445
aVHAR
p1446
aVSIG
p1447
aVPCLN
p1448
asS'05152015'
p1449
(lp1450
VMYL
p1451
aVR
aVEQT
p1452
aVTROW
p1453
aVWDC
p1454
aVSTJ
p1455
aVSWKS
p1456
aVADM
p1457
asS'10042016'
p1458
(lp1459
VWYNN
p1460
aVTIF
p1461
aVSWKS
p1462
aVAYI
p1463
aVPH
p1464
aVUTX
p1465
aVPSA
p1466
aVILMN
p1467
aVSNA
p1468
aVSIG
p1469
aVNVDA
p1470
aVQCOM
p1471
aVDOV
p1472
aVPCLN
p1473
asS'07192016'
p1474
(lp1475
VHES
p1476
aVRHT
p1477
aVXEC
p1478
aVSLB
p1479
aVLEG
p1480
aVFIS
p1481
aVURI
p1482
aVWYNN
p1483
aVDD
p1484
aVEMR
p1485
aVAXP
p1486
aVHAR
p1487
aVSIG
p1488
asS'08152016'
p1489
(lp1490
VTRIP
p1491
aVPSA
p1492
aVAWK
p1493
aVEQT
p1494
aVTSN
p1495
aVHAR
p1496
aVTEL
p1497
aVDOV
p1498
aVNVDA
p1499
aVWYNN
p1500
asS'06172016'
p1501
(lp1502
VXEC
p1503
aVVRTX
p1504
aVURI
p1505
aVR
aVSIG
p1506
aVKSU
p1507
aVADBE
p1508
aVAPA
p1509
aVFISV
p1510
aVDD
p1511
aVRHT
p1512
aVOXY
p1513
aVXOM
p1514
aVEQT
p1515
aVEMR
p1516
aVWYNN
p1517
aVSPG
p1518
asS'06172015'
p1519
(lp1520
VMNK
p1521
aVAVGO
p1522
aVSTZ
p1523
aVADM
p1524
aVADBE
p1525
aVSTJ
p1526
aVR
aVEQT
p1527
aVAXP
p1528
aVGS
p1529
aVVRSN
p1530
aVAIG
p1531
aVKSS
p1532
aVLH
p1533
aVCNC
p1534
asS'05222015'
p1535
(lp1536
VMNST
p1537
aVMYL
p1538
aVEQT
p1539
aVR
aVALLE
p1540
aVSIG
p1541
aVLNC
p1542
aVMO
p1543
aVSTJ
p1544
aVMET
p1545
aVWBA
p1546
aVAMP
p1547
aVKR
p1548
aVHUM
p1549
asS'12312015'
p1550
(lp1551
VSHW
p1552
aVADI
p1553
aVTSO
p1554
aVAET
p1555
aVREGN
p1556
asS'05282015'
p1557
(lp1558
VEQT
p1559
aVMNST
p1560
aVFFIV
p1561
aVTSO
p1562
aVMYL
p1563
aVLNC
p1564
aVSTJ
p1565
aVALLE
p1566
aVMET
p1567
aVBF-B
p1568
aVAMP
p1569
aVCMCSA
p1570
aVCELG
p1571
aVEW
p1572
aVHUM
p1573
aVSWKS
p1574
asS'07272015'
p1575
(lp1576
VMYL
p1577
aVCNC
p1578
aVSWKS
p1579
aVHAR
p1580
aVEA
p1581
aVDLPH
p1582
aVADBE
p1583
aVMET
p1584
aVFIS
p1585
aVKSS
p1586
aVLH
p1587
aVEQT
p1588
aVCHRW
p1589
aVPRGO
p1590
asS'08192015'
p1591
(lp1592
VKSS
p1593
aVHAR
p1594
aVGS
p1595
aVLLL
p1596
aVPKI
p1597
aVOMC
p1598
aVNOC
p1599
aVPVH
p1600
aVFIS
p1601
aVSTZ
p1602
aVHUM
p1603
aVNFLX
p1604
asS'06152015'
p1605
(lp1606
VADM
p1607
aVADI
p1608
aVSTZ
p1609
aVAXP
p1610
aVEMN
p1611
aVR
aVLH
p1612
aVLNC
p1613
aVMNST
p1614
aVEW
p1615
asS'06042015'
p1616
(lp1617
VFFIV
p1618
aVADM
p1619
aVSTJ
p1620
aVR
aVLNC
p1621
aVALLE
p1622
aVUHS
p1623
aVADI
p1624
aVSWKS
p1625
aVLH
p1626
aVHUM
p1627
asS'10202015'
p1628
(lp1629
VNFLX
p1630
aVLRCX
p1631
aVPCLN
p1632
asS'10202016'
p1633
(lp1634
VILMN
p1635
aVPCLN
p1636
aVROP
p1637
aVEQT
p1638
aVWYNN
p1639
aVBLK
p1640
aVNVDA
p1641
aVSWKS
p1642
aVURI
p1643
aVTIF
p1644
aVJEC
p1645
aVSHW
p1646
asS'06232016'
p1647
(lp1648
VURI
p1649
aVADBE
p1650
aVAAPL
p1651
aVCOL
p1652
aVWYNN
p1653
aVXEC
p1654
aVRHT
p1655
aVDD
p1656
aVAPA
p1657
aVMKC
p1658
aVEQT
p1659
aVPCLN
p1660
asS'11182015'
p1661
(lp1662
VPCLN
p1663
aVEA
p1664
aVGD
p1665
aVFISV
p1666
aVLRCX
p1667
aVNFLX
p1668
asS'11182016'
p1669
(lp1670
VFB
p1671
aVQCOM
p1672
aVPCLN
p1673
aVBA
p1674
aVTIF
p1675
aVSWKS
p1676
aVQRVO
p1677
aVAXP
p1678
aVDOV
p1679
aVWYNN
p1680
aVMSI
p1681
aVCAT
p1682
aVILMN
p1683
aVPRU
p1684
aVLNC
p1685
aVSNA
p1686
aVPH
p1687
aVURI
p1688
aVADS
p1689
aVSHW
p1690
aVNVDA
p1691
aVAMP
p1692
asS'06232015'
p1693
(lp1694
VAKAM
p1695
aVMNK
p1696
aVEQT
p1697
aVSTZ
p1698
aVADM
p1699
aVADI
p1700
aVSTJ
p1701
aVAIG
p1702
aVCHRW
p1703
aVADBE
p1704
aVCNC
p1705
aVEMN
p1706
asS'12192016'
p1707
(lp1708
VPVH
p1709
aVAMP
p1710
aVWYNN
p1711
aVEQT
p1712
aVCAT
p1713
aVTIF
p1714
aVJEC
p1715
aVGWW
p1716
aVLNC
p1717
aVPFG
p1718
aVUAL
p1719
aVJPM
p1720
aVAXP
p1721
aVDOV
p1722
aVDD
p1723
aVSWKS
p1724
aVNVDA
p1725
aVILMN
p1726
asS'06152016'
p1727
(lp1728
VXEC
p1729
aVFB
p1730
aVAPA
p1731
aVADBE
p1732
aVVRTX
p1733
aVURI
p1734
aVDD
p1735
aVOXY
p1736
aVRHT
p1737
aVSHW
p1738
aVDLPH
p1739
aVEQT
p1740
aVWYNN
p1741
aVPCLN
p1742
asS'10162015'
p1743
(lp1744
VSWKS
p1745
aVLRCX
p1746
aVNFLX
p1747
asS'04262016'
p1748
(lp1749
VALK
p1750
aVAYI
p1751
aVSCG
p1752
aVXRAY
p1753
aVCME
p1754
aVXOM
p1755
aVCELG
p1756
aVPCLN
p1757
aVKSU
p1758
asS'08272015'
p1759
(lp1760
VHAR
p1761
aVLLL
p1762
aVAKAM
p1763
aVJPM
p1764
aVSTZ
p1765
aVNFLX
p1766
asS'05252016'
p1767
(lp1768
VPCLN
p1769
aVPSA
p1770
aVOXY
p1771
aVDLPH
p1772
aVORLY
p1773
aVXOM
p1774
aVGPC
p1775
aVHON
p1776
aVEXR
p1777
aVMKC
p1778
aVXEC
p1779
aVVMC
p1780
aVBLK
p1781
aVTSO
p1782
aVCME
p1783
aVSIG
p1784
asS'12242015'
p1785
(lp1786
VREGN
p1787
aVAAPL
p1788
aVTSO
p1789
aVADI
p1790
aVLLY
p1791
aVEQIX
p1792
aVAET
p1793
asS'04292016'
p1794
(lp1795
VALK
p1796
aVPCLN
p1797
aVMCK
p1798
aVADBE
p1799
aVXRAY
p1800
aVCME
p1801
aVKSU
p1802
aVAET
p1803
aVXOM
p1804
aVAIZ
p1805
aVPXD
p1806
asS'05172016'
p1807
(lp1808
VPCLN
p1809
aVKSU
p1810
aVAYI
p1811
aVDLPH
p1812
aVR
aVCBS
p1813
aVGPC
p1814
aVSIG
p1815
aVSHW
p1816
aVOXY
p1817
aVTSO
p1818
aVESS
p1819
aVXOM
p1820
aVXRAY
p1821
aVXEC
p1822
aVMKC
p1823
aVALB
p1824
asS'04292015'
p1825
(lp1826
VSWKS
p1827
aVCERN
p1828
aVAMP
p1829
aVLNC
p1830
aVEQT
p1831
aVAAL
p1832
aVSTJ
p1833
asS'11252015'
p1834
(lp1835
VFISV
p1836
aVLRCX
p1837
aVGD
p1838
aVALK
p1839
aVEW
p1840
asS'11252016'
p1841
(lp1842
VTIF
p1843
aVPFG
p1844
aVBA
p1845
aVTEL
p1846
aVDD
p1847
aVMSI
p1848
aVSWKS
p1849
aVCVX
p1850
aVDOV
p1851
aVCMA
p1852
aVLNC
p1853
aVSNA
p1854
aVCAT
p1855
aVEQT
p1856
aVWHR
p1857
aVILMN
p1858
aVAMP
p1859
aVURI
p1860
aVNVDA
p1861
aVWYNN
p1862
aVSHW
p1863
asS'04052016'
p1864
(lp1865
VPCLN
p1866
aVALK
p1867
aVSHW
p1868
aVAET
p1869
aVOXY
p1870
aVKSU
p1871
aVGPC
p1872
aVXRAY
p1873
aVTXN
p1874
aVAEP
p1875
aVSPG
p1876
aVADBE
p1877
aVMKC
p1878
asS'03062015'
p1879
(lp1880
VCNC
p1881
aVEOG
p1882
aVBLL
p1883
aVBBBY
p1884
aVHON
p1885
aVCMG
p1886
aVPH
p1887
aVTRIP
p1888
aVDLR
p1889
aVMCHP
p1890
aVBWA
p1891
aVAKAM
p1892
aVADBE
p1893
aVLNC
p1894
aVCMCSA
p1895
aVMET
p1896
aVAXP
p1897
aVWBA
p1898
aVSWKS
p1899
asS'03082016'
p1900
(lp1901
VOXY
p1902
aVTSN
p1903
aVMKC
p1904
aVAEP
p1905
aVXOM
p1906
aVAET
p1907
aVADBE
p1908
aVHCN
p1909
aVSHW
p1910
aVAYI
p1911
aVPCLN
p1912
asS'07022015'
p1913
(lp1914
VGS
p1915
aVFFIV
p1916
aVR
aVKMX
p1917
aVCNC
p1918
aVSTZ
p1919
aVSTJ
p1920
aVAXP
p1921
aVEQT
p1922
aVLNC
p1923
aVAKAM
p1924
aVALLE
p1925
aVAIG
p1926
aVFIS
p1927
aVCHRW
p1928
aVLH
p1929
aVUHS
p1930
asS'09142015'
p1931
(lp1932
VMNST
p1933
aVABBV
p1934
aVTSO
p1935
aVNOC
p1936
aVHUM
p1937
aVSWKS
p1938
aVNFLX
p1939
asS'11042016'
p1940
(lp1941
VXEC
p1942
aVCAT
p1943
aVURI
p1944
aVWYNN
p1945
aVSWKS
p1946
aVNVDA
p1947
aVQCOM
p1948
aVCMA
p1949
aVTIF
p1950
aVDOV
p1951
aVEQT
p1952
aVJEC
p1953
aVILMN
p1954
aVAXP
p1955
aVIR
p1956
asS'11042015'
p1957
(lp1958
VEFX
p1959
aVTSS
p1960
aVALK
p1961
aVLRCX
p1962
aVTSO
p1963
aVNFLX
p1964
asS'07152015'
p1965
(lp1966
VCNC
p1967
aVPVH
p1968
aVGS
p1969
aVADBE
p1970
aVAXP
p1971
aVEFX
p1972
aVFIS
p1973
aVSTJ
p1974
aVTSO
p1975
asS'07152016'
p1976
(lp1977
VEQT
p1978
aVAWK
p1979
aVWBA
p1980
aVRHT
p1981
aVXRAY
p1982
aVWYNN
p1983
aVLEG
p1984
aVDD
p1985
aVADBE
p1986
aVAN
p1987
aVCOL
p1988
aVNVDA
p1989
aVURI
p1990
aVEMR
p1991
aVAXP
p1992
aVUNP
p1993
aVPPG
p1994
aVHAR
p1995
aVSIG
p1996
aVPCLN
p1997
asS'08142015'
p1998
(lp1999
VGS
p2000
aVSTJ
p2001
aVJPM
p2002
aVAVGO
p2003
aVDLPH
p2004
aVADI
p2005
aVFIS
p2006
aVNFLX
p2007
asS'01262016'
p2008
(lp2009
VTSO
p2010
aVREGN
p2011
aVGILD
p2012
aVTEL
p2013
aVILMN
p2014
aVOXY
p2015
aVLB
p2016
asS'01262017'
p2017
(lp2018
VWHR
p2019
aVOKE
p2020
aVCVX
p2021
aVCTSH
p2022
aVBLK
p2023
aVAME
p2024
aVKSU
p2025
aVQRVO
p2026
asS'09062016'
p2027
(lp2028
VILMN
p2029
aVAYI
p2030
aVHES
p2031
aVWYNN
p2032
aVCAT
p2033
aVDOV
p2034
aVNVDA
p2035
aVURI
p2036
aVSHW
p2037
aVTSN
p2038
aVAXP
p2039
aVVTR
p2040
aVSWKS
p2041
aVQRVO
p2042
aVGPN
p2043
aVAMP
p2044
aVPSA
p2045
asS'03292016'
p2046
(lp2047
VPCLN
p2048
aVSHW
p2049
aVKSU
p2050
aVOXY
p2051
aVHSY
p2052
aVCME
p2053
aVGPC
p2054
aVALK
p2055
aVTXN
p2056
aVSPG
p2057
aVHCN
p2058
aVADBE
p2059
asS'02112016'
p2060
(lp2061
VREGN
p2062
aVILMN
p2063
aVADBE
p2064
aVFB
p2065
aVED
p2066
aVGILD
p2067
aVMKC
p2068
asS'01042016'
p2069
(lp2070
VREGN
p2071
aVLB
p2072
aVADI
p2073
aVTSO
p2074
asS'01042017'
p2075
(lp2076
VBLK
p2077
aVFDX
p2078
aVGWW
p2079
aVUAL
p2080
aVTIF
p2081
aVLNC
p2082
aVKSU
p2083
aVCVX
p2084
aVJPM
p2085
aVADI
p2086
aVJEC
p2087
aVSWKS
p2088
aVDOV
p2089
aVPFG
p2090
aVAXP
p2091
aVPNR
p2092
aVFIS
p2093
aVILMN
p2094
asS'12162015'
p2095
(lp2096
VREGN
p2097
aVFISV
p2098
aVMKC
p2099
asS'12162016'
p2100
(lp2101
VAMP
p2102
aVWYNN
p2103
aVEQT
p2104
aVCAT
p2105
aVJEC
p2106
aVTIF
p2107
aVLNC
p2108
aVPFG
p2109
aVCMA
p2110
aVSHW
p2111
aVUAL
p2112
aVJPM
p2113
aVNVDA
p2114
aVAXP
p2115
aVDOV
p2116
aVSWKS
p2117
aVDD
p2118
aVNEE
p2119
aVILMN
p2120
asS'07272016'
p2121
(lp2122
VSHW
p2123
aVPSA
p2124
aVCNC
p2125
aVHES
p2126
aVAYI
p2127
aVAWK
p2128
aVWBA
p2129
aVPXD
p2130
aVPPG
p2131
aVADBE
p2132
aVAN
p2133
aVNVDA
p2134
aVRHT
p2135
aVAXP
p2136
aVLYB
p2137
aVFIS
p2138
aVDD
p2139
aVNTRS
p2140
aVHAR
p2141
aVWYNN
p2142
aVURI
p2143
asS'01052017'
p2144
(lp2145
VBLK
p2146
aVGWW
p2147
aVUAL
p2148
aVTIF
p2149
aVLNC
p2150
aVADI
p2151
aVCVX
p2152
aVJPM
p2153
aVSWKS
p2154
aVJEC
p2155
aVDOV
p2156
aVAXP
p2157
aVPNR
p2158
aVSTZ
p2159
aVILMN
p2160
asS'01052016'
p2161
(lp2162
VFISV
p2163
aVEL
p2164
aVADI
p2165
aVED
p2166
aVOXY
p2167
aVTSO
p2168
asS'03172016'
p2169
(lp2170
VMKC
p2171
aVAEP
p2172
aVAET
p2173
aVHCN
p2174
aVTSCO
p2175
aVALK
p2176
aVADBE
p2177
aVPCLN
p2178
asS'03172015'
p2179
(lp2180
VAYI
p2181
aVVRSN
p2182
aVCMCSA
p2183
aVAVY
p2184
aVAKAM
p2185
aVADBE
p2186
aVEXPE
p2187
aVCELG
p2188
aVMET
p2189
aVDLR
p2190
aVBBBY
p2191
aVWBA
p2192
aVABBV
p2193
aVAXP
p2194
aVSWKS
p2195
asS'05092016'
p2196
(lp2197
VPCLN
p2198
aVAYI
p2199
aVTSO
p2200
aVKSU
p2201
aVVLO
p2202
aVAPA
p2203
aVPRU
p2204
aVHON
p2205
aVADBE
p2206
aVXEC
p2207
aVADSK
p2208
aVGPC
p2209
aVR
aVALB
p2210
aVAET
p2211
aVXOM
p2212
aVFISV
p2213
aVESS
p2214
aVICE
p2215
asS'05292015'
p2216
(lp2217
VFFIV
p2218
aVTSO
p2219
aVLNC
p2220
aVSTJ
p2221
aVMET
p2222
aVADM
p2223
aVALLE
p2224
aVWBA
p2225
aVCELG
p2226
aVHUM
p2227
asS'07122016'
p2228
(lp2229
VWBA
p2230
aVEQT
p2231
aVRHT
p2232
aVDD
p2233
aVWYNN
p2234
aVURI
p2235
aVMDT
p2236
aVADBE
p2237
aVFISV
p2238
aVPXD
p2239
aVKSU
p2240
aVNVDA
p2241
aVAPD
p2242
aVSIG
p2243
aVISRG
p2244
aVPCLN
p2245
asS'06202016'
p2246
(lp2247
VVRTX
p2248
aVXEC
p2249
aVR
aVADBE
p2250
aVKSU
p2251
aVAPA
p2252
aVHAR
p2253
aVSIG
p2254
aVDD
p2255
aVRHT
p2256
aVOXY
p2257
aVXOM
p2258
aVEMR
p2259
aVWYNN
p2260
aVPCLN
p2261
asS'03282016'
p2262
(lp2263
VPCLN
p2264
aVKSU
p2265
aVOXY
p2266
aVEL
p2267
aVSPG
p2268
aVGPC
p2269
aVALK
p2270
aVXOM
p2271
aVTXN
p2272
aVHCN
p2273
aVADBE
p2274
asS'01282016'
p2275
(lp2276
VREGN
p2277
aVTSO
p2278
aVADBE
p2279
aVGILD
p2280
aVLLY
p2281
aVSCG
p2282
aVTEL
p2283
aVOXY
p2284
asS'04212016'
p2285
(lp2286
VSCG
p2287
aVFISV
p2288
aVALK
p2289
aVADBE
p2290
aVXOM
p2291
aVAPA
p2292
aVAYI
p2293
aVKSU
p2294
aVCMG
p2295
asS'04092015'
p2296
(lp2297
VCMG
p2298
aVHUM
p2299
aVSWKS
p2300
aVAKAM
p2301
aVORLY
p2302
aVALLE
p2303
aVFIS
p2304
aVVRSN
p2305
aVWAT
p2306
aVWDC
p2307
aVRCL
p2308
asS'08162016'
p2309
(lp2310
VISRG
p2311
aVPSA
p2312
aVURI
p2313
aVEQT
p2314
aVTSN
p2315
aVCME
p2316
aVILMN
p2317
aVAXP
p2318
aVPRU
p2319
aVDOV
p2320
aVWYNN
p2321
aVNVDA
p2322
asS'09232015'
p2323
(lp2324
VSTZ
p2325
aVSTJ
p2326
aVAVGO
p2327
aVABBV
p2328
aVFL
p2329
aVNFLX
p2330
asS'09232016'
p2331
(lp2332
VXEC
p2333
aVPVH
p2334
aVLRCX
p2335
aVDOV
p2336
aVTIF
p2337
aVCAT
p2338
aVNVDA
p2339
aVSWKS
p2340
aVDLR
p2341
aVPCLN
p2342
aVSNA
p2343
aVILMN
p2344
aVSHW
p2345
aVPSA
p2346
asS'11112016'
p2347
(lp2348
VWYNN
p2349
aVADBE
p2350
aVQCOM
p2351
aVSWKS
p2352
aVALK
p2353
aVUAL
p2354
aVAXP
p2355
aVCMA
p2356
aVBA
p2357
aVDOV
p2358
aVPVH
p2359
aVTIF
p2360
aVRCL
p2361
aVMSI
p2362
aVCAT
p2363
aVLNC
p2364
aVILMN
p2365
aVADS
p2366
aVPH
p2367
aVURI
p2368
aVAMP
p2369
aVPCLN
p2370
asS'07242015'
p2371
(lp2372
VCNC
p2373
aVDLPH
p2374
aVEQT
p2375
aVFIS
p2376
aVALLE
p2377
aVEFX
p2378
aVCHRW
p2379
aVAKAM
p2380
aVPRGO
p2381
asS'02162016'
p2382
(lp2383
VADBE
p2384
aVREGN
p2385
aVFB
p2386
aVILMN
p2387
aVED
p2388
aVAEP
p2389
aVAVY
p2390
aVGILD
p2391
asS'10152015'
p2392
(lp2393
VHES
p2394
aVNFLX
p2395
asS'06142016'
p2396
(lp2397
VXEC
p2398
aVFB
p2399
aVAPA
p2400
aVADBE
p2401
aVOXY
p2402
aVURI
p2403
aVFISV
p2404
aVRHT
p2405
aVDLPH
p2406
aVEQT
p2407
aVAAPL
p2408
aVORLY
p2409
aVDLR
p2410
aVWYNN
p2411
aVPCLN
p2412
asS'10082015'
p2413
(lp2414
VSWKS
p2415
aVHES
p2416
asS'06282016'
p2417
(lp2418
VPCLN
p2419
aVWYNN
p2420
aVPXD
p2421
aVIBM
p2422
aVRHT
p2423
aVPPG
p2424
aVADBE
p2425
aVXEC
p2426
aVUNP
p2427
aVCOL
p2428
aVDD
p2429
aVKSU
p2430
aVEMR
p2431
aVWBA
p2432
aVCME
p2433
aVEQT
p2434
aVGPC
p2435
aVMKC
p2436
aVORLY
p2437
asS'11292016'
p2438
(lp2439
VROK
p2440
aVPFG
p2441
aVPVH
p2442
aVSNA
p2443
aVTEL
p2444
aVCVX
p2445
aVMSI
p2446
aVDOV
p2447
aVBA
p2448
aVLNC
p2449
aVTIF
p2450
aVDD
p2451
aVUAL
p2452
aVAMP
p2453
aVEQT
p2454
aVNVDA
p2455
aVILMN
p2456
aVWYNN
p2457
aVSHW
p2458
asS'05012015'
p2459
(lp2460
VCNC
p2461
aVDLTR
p2462
aVSIG
p2463
aVSWKS
p2464
aVAMP
p2465
aVALLE
p2466
aVSTJ
p2467
aVTSO
p2468
asS'05132015'
p2469
(lp2470
VCMCSA
p2471
aVSTJ
p2472
aVEQT
p2473
aVKMX
p2474
aVSWKS
p2475
aVTSO
p2476
aVADM
p2477
aVCNC
p2478
asS'05132016'
p2479
(lp2480
VPCLN
p2481
aVKSU
p2482
aVSPG
p2483
aVDLPH
p2484
aVSIG
p2485
aVTSO
p2486
aVPRU
p2487
aVR
aVAPA
p2488
aVSHW
p2489
aVHON
p2490
aVOXY
p2491
aVGPC
p2492
aVXOM
p2493
aVROP
p2494
aVPAYX
p2495
aVXEC
p2496
aVXRAY
p2497
aVMKC
p2498
asS'07062015'
p2499
(lp2500
VGS
p2501
aVCNC
p2502
aVR
aVAXP
p2503
aVSTJ
p2504
aVALLE
p2505
aVAKAM
p2506
aVFIS
p2507
aVLH
p2508
aVORLY
p2509
aVUHS
p2510
asS'07062016'
p2511
(lp2512
VPCLN
p2513
aVWYNN
p2514
aVURI
p2515
aVRHT
p2516
aVDD
p2517
aVPXD
p2518
aVEQT
p2519
aVCOL
p2520
aVWBA
p2521
aVADBE
p2522
aVSLB
p2523
aVDLR
p2524
asS'05262015'
p2525
(lp2526
VEQT
p2527
aVMYL
p2528
aVHP
p2529
aVLOW
p2530
aVR
aVALLE
p2531
aVSTJ
p2532
aVMET
p2533
aVWBA
p2534
aVAMP
p2535
aVKR
p2536
aVHUM
p2537
asS'05262016'
p2538
(lp2539
VROP
p2540
aVPSA
p2541
aVSIG
p2542
aVPCLN
p2543
aVDLPH
p2544
aVXOM
p2545
aVXEC
p2546
aVGPC
p2547
aVKSU
p2548
aVVMC
p2549
aVAET
p2550
aVTSO
p2551
aVADBE
p2552
aVCME
p2553
aVORLY
p2554
asS'03032015'
p2555
(lp2556
VBBBY
p2557
aVBLL
p2558
aVCELG
p2559
aVHON
p2560
aVCMG
p2561
aVMCHP
p2562
aVLNC
p2563
aVR
aVGILD
p2564
aVAKAM
p2565
aVVRSN
p2566
aVBWA
p2567
aVCMCSA
p2568
aVSWKS
p2569
aVTIF
p2570
asS'03032016'
p2571
(lp2572
VSCG
p2573
aVAEP
p2574
aVMKC
p2575
aVAET
p2576
aVHCN
p2577
aVTSO
p2578
aVPCLN
p2579
asS'11112015'
p2580
(lp2581
VGD
p2582
aVMET
p2583
aVLRCX
p2584
aVTSO
p2585
asS'04212015'
p2586
(lp2587
VSWKS
p2588
aVKSS
p2589
aVSTZ
p2590
aVALLE
p2591
aVADBE
p2592
aVLNC
p2593
aVR
asS'12042015'
p2594
(lp2595
VALK
p2596
asS'09032015'
p2597
(lp2598
VMNST
p2599
aVNOC
p2600
aVCNC
p2601
aVCXO
p2602
aVNFLX
p2603
asS'09022016'
p2604
(lp2605
VILMN
p2606
aVAYI
p2607
aVWYNN
p2608
aVCAT
p2609
aVHES
p2610
aVNVDA
p2611
aVDOV
p2612
aVSHW
p2613
aVURI
p2614
aVTSN
p2615
aVLEG
p2616
aVTIF
p2617
aVSNA
p2618
aVSWKS
p2619
aVQRVO
p2620
aVEQT
p2621
aVAMP
p2622
aVPSA
p2623
asS'09022015'
p2624
(lp2625
VNOC
p2626
aVLLL
p2627
aVNFLX
p2628
asS'09092015'
p2629
(lp2630
VMNST
p2631
aVSTZ
p2632
aVNOC
p2633
aVNFLX
p2634
asS'09092016'
p2635
(lp2636
VAYI
p2637
aVILMN
p2638
aVSWKS
p2639
aVHES
p2640
aVTIF
p2641
aVNVDA
p2642
aVDOV
p2643
aVSNA
p2644
aVTSN
p2645
aVURI
p2646
aVQRVO
p2647
aVCAT
p2648
aVLEG
p2649
aVTRIP
p2650
aVPSA
p2651
aVWYNN
p2652
asS'05112016'
p2653
(lp2654
VPCLN
p2655
aVAYI
p2656
aVKSU
p2657
aVDLPH
p2658
aVTSO
p2659
aVALK
p2660
aVORLY
p2661
aVAPA
p2662
aVSIG
p2663
aVADSK
p2664
aVHON
p2665
aVROP
p2666
aVOXY
p2667
aVGPC
p2668
aVADBE
p2669
aVXEC
p2670
aVXOM
p2671
aVCME
p2672
aVSPG
p2673
aVMKC
p2674
aVPSA
p2675
aVICE
p2676
asS'04222015'
p2677
(lp2678
VSWKS
p2679
aVKSS
p2680
aVSTZ
p2681
aVEW
p2682
aVALLE
p2683
aVADBE
p2684
aVLNC
p2685
aVAKAM
p2686
aVCNC
p2687
asS'12052016'
p2688
(lp2689
VNVDA
p2690
aVSNA
p2691
aVSWKS
p2692
aVUAL
p2693
aVAMP
p2694
aVLNC
p2695
aVPFG
p2696
aVJEC
p2697
aVILMN
p2698
aVTEL
p2699
aVROK
p2700
aVSHW
p2701
aVDOV
p2702
aVTIF
p2703
aVEQT
p2704
asS'06162016'
p2705
(lp2706
VXEC
p2707
aVSIG
p2708
aVR
aVFB
p2709
aVURI
p2710
aVKSU
p2711
aVAPA
p2712
aVVRTX
p2713
aVADBE
p2714
aVDD
p2715
aVSHW
p2716
aVOXY
p2717
aVRHT
p2718
aVFISV
p2719
aVEQT
p2720
aVEMR
p2721
aVXOM
p2722
aVWYNN
p2723
asS'06162015'
p2724
(lp2725
VAVGO
p2726
aVSTZ
p2727
aVADM
p2728
aVAXP
p2729
aVEMN
p2730
aVKSS
p2731
aVGS
p2732
aVAIG
p2733
aVLH
p2734
aVLNC
p2735
aVEW
p2736
asS'04132015'
p2737
(lp2738
VTSO
p2739
aVSWKS
p2740
aVAKAM
p2741
aVALLE
p2742
aVLNC
p2743
aVVRSN
p2744
aVADBE
p2745
asS'04132016'
p2746
(lp2747
VWBA
p2748
aVALK
p2749
aVFISV
p2750
aVGPC
p2751
aVADBE
p2752
aVSCG
p2753
aVDLPH
p2754
aVKSU
p2755
aVCELG
p2756
asS'08062015'
p2757
(lp2758
VMYL
p2759
aVTSO
p2760
aVTMO
p2761
aVAIG
p2762
aVKSS
p2763
aVPVH
p2764
aVCNC
p2765
aVEMN
p2766
aVEQT
p2767
aVDLPH
p2768
asS'09302016'
p2769
(lp2770
VWYNN
p2771
aVEQT
p2772
aVSWKS
p2773
aVTIF
p2774
aVSIG
p2775
aVPH
p2776
aVILMN
p2777
aVSNA
p2778
aVNVDA
p2779
aVDOV
p2780
aVDLR
p2781
asS'06082016'
p2782
(lp2783
VSIG
p2784
aVAPA
p2785
aVADBE
p2786
aVXOM
p2787
aVXEC
p2788
aVJEC
p2789
aVEQT
p2790
aVMCK
p2791
aVRHT
p2792
aVETR
p2793
aVSLB
p2794
aVURI
p2795
asS'06082015'
p2796
(lp2797
VFFIV
p2798
aVCELG
p2799
aVSWKS
p2800
aVADM
p2801
aVNKE
p2802
aVSTJ
p2803
aVADBE
p2804
aVAXP
p2805
aVADI
p2806
aVALLE
p2807
aVKMX
p2808
aVR
aVLNC
p2809
aVLH
p2810
aVHUM
p2811
asS'10282015'
p2812
(lp2813
VSTZ
p2814
aVEL
p2815
aVTSO
p2816
aVALK
p2817
aVVNO
p2818
aVNFLX
p2819
aVPCLN
p2820
asS'10282016'
p2821
(lp2822
VSHW
p2823
aVXEC
p2824
aVILMN
p2825
aVCAT
p2826
aVPCLN
p2827
aVSTZ
p2828
aVSWKS
p2829
aVURI
p2830
aVEQT
p2831
aVTIF
p2832
aVWYNN
p2833
aVJEC
p2834
aVFB
p2835
aVNVDA
p2836
aVSNA
p2837
aVAXP
p2838
asS'05312016'
p2839
(lp2840
VROP
p2841
aVSIG
p2842
aVSHW
p2843
aVXEC
p2844
aVXOM
p2845
aVPSA
p2846
aVVMC
p2847
aVEMR
p2848
aVGPC
p2849
aVAET
p2850
aVADBE
p2851
aVTSO
p2852
aVORLY
p2853
asS'01232017'
p2854
(lp2855
VCVX
p2856
aVOKE
p2857
aVLNC
p2858
aVAXP
p2859
aVCTSH
p2860
aVLVLT
p2861
aVAME
p2862
aVFMC
p2863
aVMLM
p2864
aVKSU
p2865
asS'09112015'
p2866
(lp2867
VMNST
p2868
aVABBV
p2869
aVSTZ
p2870
aVPVH
p2871
aVNOC
p2872
aVHUM
p2873
aVSWKS
p2874
aVNFLX
p2875
asS'12282016'
p2876
(lp2877
VAMP
p2878
aVTIF
p2879
aVJEC
p2880
aVLNC
p2881
aVUAL
p2882
aVCAT
p2883
aVPFG
p2884
aVDOV
p2885
aVJPM
p2886
aVAXP
p2887
aVVMC
p2888
aVKSU
p2889
aVSWKS
p2890
aVSTZ
p2891
asS'07302015'
p2892
(lp2893
VMYL
p2894
aVTSO
p2895
aVCNC
p2896
aVTSCO
p2897
aVADBE
p2898
aVAIG
p2899
aVDLPH
p2900
aVNOC
p2901
aVEQT
p2902
aVCHRW
p2903
asS'12282015'
p2904
(lp2905
VREGN
p2906
aVTSO
p2907
aVSWKS
p2908
aVADI
p2909
asS'02202015'
p2910
(lp2911
VCMG
p2912
aVDLR
p2913
aVAXP
p2914
aVSWKS
p2915
aVWBA
p2916
aVCELG
p2917
aVKMX
p2918
aVMYL
p2919
aVVRSN
p2920
aVTIF
p2921
aVSPGI
p2922
aVGOOGL
p2923
aVAKAM
p2924
asS'07282015'
p2925
(lp2926
VMYL
p2927
aVNOC
p2928
aVCNC
p2929
aVTSO
p2930
aVADBE
p2931
aVFIS
p2932
aVDLPH
p2933
aVABBV
p2934
aVLH
p2935
aVSTZ
p2936
aVCHRW
p2937
aVEQT
p2938
asS'07282016'
p2939
(lp2940
VSHW
p2941
aVPSA
p2942
aVHES
p2943
aVAPA
p2944
aVAYI
p2945
aVWBA
p2946
aVAWK
p2947
aVALB
p2948
aVPPG
p2949
aVCRM
p2950
aVAN
p2951
aVNVDA
p2952
aVAXP
p2953
aVRHT
p2954
aVLYB
p2955
aVFIS
p2956
aVHAR
p2957
aVURI
p2958
asS'11162016'
p2959
(lp2960
VFB
p2961
aVWYNN
p2962
aVQCOM
p2963
aVSWKS
p2964
aVQRVO
p2965
aVPX
p2966
aVPVH
p2967
aVBA
p2968
aVC
aVDOV
p2969
aVAXP
p2970
aVEQT
p2971
aVMSI
p2972
aVILMN
p2973
aVLNC
p2974
aVSNA
p2975
aVROP
p2976
aVPH
p2977
aVNVDA
p2978
aVURI
p2979
aVAMP
p2980
asS'11162015'
p2981
(lp2982
VGD
p2983
aVFISV
p2984
asS'08222016'
p2985
(lp2986
VWYNN
p2987
aVAWK
p2988
aVPSA
p2989
aVURI
p2990
aVSCG
p2991
aVDLPH
p2992
aVAXP
p2993
aVNVDA
p2994
aVDOV
p2995
aVHES
p2996
aVEQT
p2997
asS'08122015'
p2998
(lp2999
VTMO
p3000
aVLLL
p3001
aVPRGO
p3002
aVTSCO
p3003
aVNOC
p3004
aVKSS
p3005
aVTXN
p3006
aVADI
p3007
aVDLPH
p3008
aVFIS
p3009
aVEQT
p3010
aVHUM
p3011
aVHAR
p3012
asS'08122016'
p3013
(lp3014
VTRIP
p3015
aVPSA
p3016
aVSHW
p3017
aVAWK
p3018
aVEQT
p3019
aVEMR
p3020
aVURI
p3021
aVLLTC
p3022
aVTEL
p3023
aVHAR
p3024
aVWYNN
p3025
aVNVDA
p3026
asS'01082016'
p3027
(lp3028
VREGN
p3029
aVAAPL
p3030
aVADI
p3031
aVFISV
p3032
aVAET
p3033
aVTSO
p3034
aVED
p3035
asS'12302015'
p3036
(lp3037
VTSO
p3038
aVLLY
p3039
aVFISV
p3040
aVADI
p3041
aVMKC
p3042
aVREGN
p3043
aVED
p3044
aVAET
p3045
asS'09292016'
p3046
(lp3047
VWYNN
p3048
aVEQT
p3049
aVSWKS
p3050
aVTIF
p3051
aVILMN
p3052
aVDOV
p3053
aVSNA
p3054
aVNVDA
p3055
aVDLR
p3056
aVPSA
p3057
asS'09292015'
p3058
(lp3059
VCNC
p3060
aVAVY
p3061
aVNFLX
p3062
asS'04142016'
p3063
(lp3064
VWBA
p3065
aVFISV
p3066
aVGPC
p3067
aVAPD
p3068
aVADBE
p3069
aVALK
p3070
aVSCG
p3071
aVHON
p3072
aVXOM
p3073
aVAPA
p3074
aVJPM
p3075
aVKSU
p3076
aVOXY
p3077
aVCELG
p3078
asS'10172016'
p3079
(lp3080
VPCLN
p3081
aVILMN
p3082
aVROP
p3083
aVWYNN
p3084
aVEQT
p3085
aVNVDA
p3086
aVSYK
p3087
aVFB
p3088
aVURI
p3089
aVQCOM
p3090
aVTIF
p3091
aVSNA
p3092
aVDGX
p3093
aVSWKS
p3094
aVJEC
p3095
aVJWN
p3096
aVPSA
p3097
asS'09132016'
p3098
(lp3099
VAYI
p3100
aVSWKS
p3101
aVILMN
p3102
aVURI
p3103
aVSNA
p3104
aVVTR
p3105
aVNVDA
p3106
aVDOV
p3107
aVTIF
p3108
aVJEC
p3109
aVQRVO
p3110
aVCAT
p3111
aVPSA
p3112
aVAMP
p3113
aVWYNN
p3114
asS'04142015'
p3115
(lp3116
VTSO
p3117
aVSWKS
p3118
aVALLE
p3119
aVVRSN
p3120
aVADBE
p3121
asS'09212016'
p3122
(lp3123
VURI
p3124
aVDLR
p3125
aVDOV
p3126
aVSHW
p3127
aVTIF
p3128
aVNVDA
p3129
aVSNA
p3130
aVPSA
p3131
aVILMN
p3132
aVPCLN
p3133
asS'08092016'
p3134
(lp3135
VPSA
p3136
aVTRIP
p3137
aVAWK
p3138
aVEQT
p3139
aVDOW
p3140
aVWBA
p3141
aVURI
p3142
aVNVDA
p3143
aVVRSN
p3144
aVADBE
p3145
aVWYNN
p3146
aVHAR
p3147
asS'09192016'
p3148
(lp3149
VXEC
p3150
aVSHW
p3151
aVURI
p3152
aVDLR
p3153
aVVTR
p3154
aVDOV
p3155
aVJEC
p3156
aVSNA
p3157
aVPSA
p3158
aVNTRS
p3159
aVNVDA
p3160
aVCAT
p3161
aVPCLN
p3162
aVILMN
p3163
aVTIF
p3164
aVSWKS
p3165
aVWYNN
p3166
asS'07112016'
p3167
(lp3168
VWYNN
p3169
aVRHT
p3170
aVEQT
p3171
aVDD
p3172
aVWBA
p3173
aVURI
p3174
aVPXD
p3175
aVXOM
p3176
aVADBE
p3177
aVSHW
p3178
asS'10032016'
p3179
(lp3180
VWYNN
p3181
aVTIF
p3182
aVSWKS
p3183
aVJWN
p3184
aVSIG
p3185
aVPH
p3186
aVDLR
p3187
aVILMN
p3188
aVSNA
p3189
aVNVDA
p3190
aVDOV
p3191
aVPSA
p3192
aVPCLN
p3193
asS'06272016'
p3194
(lp3195
VPCLN
p3196
aVWYNN
p3197
aVPXD
p3198
aVADBE
p3199
aVRHT
p3200
aVXEC
p3201
aVCOL
p3202
aVAPA
p3203
aVVRSN
p3204
aVCME
p3205
aVWBA
p3206
aVEQT
p3207
aVCPB
p3208
aVMKC
p3209
aVORLY
p3210
asS'08072015'
p3211
(lp3212
VTMO
p3213
aVABBV
p3214
aVRHT
p3215
aVKSS
p3216
aVPVH
p3217
aVPRGO
p3218
aVEQT
p3219
aVTXN
p3220
aVCHRW
p3221
aVDLPH
p3222
asS'03252015'
p3223
(lp3224
VADBE
p3225
aVTDG
p3226
aVC
aVNDAQ
p3227
aVMET
p3228
aVVRSN
p3229
aVAVY
p3230
aVLB
p3231
aVSWKS
p3232
aVEXPE
p3233
asS'05062016'
p3234
(lp3235
VPCLN
p3236
aVAYI
p3237
aVTSO
p3238
aVORLY
p3239
aVVLO
p3240
aVROP
p3241
aVPRU
p3242
aVAPA
p3243
aVADBE
p3244
aVHON
p3245
aVXEC
p3246
aVADSK
p3247
aVSIG
p3248
aVR
aVOXY
p3249
aVALB
p3250
aVXOM
p3251
aVFISV
p3252
aVSPG
p3253
aVESS
p3254
asS'05062015'
p3255
(lp3256
VHCA
p3257
aVCMCSA
p3258
aVSWKS
p3259
aVSTJ
p3260
aVLNC
p3261
asS'01062016'
p3262
(lp3263
VREGN
p3264
aVENDP
p3265
aVFISV
p3266
aVADI
p3267
aVED
p3268
aVQCOM
p3269
aVTSO
p3270
asS'11212016'
p3271
(lp3272
VBA
p3273
aVTIF
p3274
aVPFG
p3275
aVSWKS
p3276
aVQRVO
p3277
aVMSI
p3278
aVDOV
p3279
aVCAT
p3280
aVCMA
p3281
aVROK
p3282
aVSNA
p3283
aVLNC
p3284
aVPH
p3285
aVUAL
p3286
aVILMN
p3287
aVURI
p3288
aVNVDA
p3289
aVSHW
p3290
asS'12232015'
p3291
(lp3292
VREGN
p3293
aVAAPL
p3294
aVADI
p3295
asS'12232016'
p3296
(lp3297
VKSS
p3298
aVAMP
p3299
aVTIF
p3300
aVEQT
p3301
aVJEC
p3302
aVLNC
p3303
aVCAT
p3304
aVUAL
p3305
aVPFG
p3306
aVDOV
p3307
aVJPM
p3308
aVBA
p3309
aVAXP
p3310
aVDD
p3311
aVKSU
p3312
aVSTZ
p3313
aVPSA
p3314
aVSWKS
p3315
aVILMN
p3316
aVNVDA
p3317
asS'01032017'
p3318
(lp3319
VFDX
p3320
aVGWW
p3321
aVUAL
p3322
aVKSS
p3323
aVTIF
p3324
aVLNC
p3325
aVCMA
p3326
aVJEC
p3327
aVJPM
p3328
aVCVX
p3329
aVKSU
p3330
aVDOV
p3331
aVPFG
p3332
aVAXP
p3333
aVSWKS
p3334
aVPNR
p3335
asS'11202015'
p3336
(lp3337
VPCLN
p3338
aVEA
p3339
aVFISV
p3340
aVMET
p3341
aVALK
p3342
asS'07132016'
p3343
(lp3344
VEQT
p3345
aVWBA
p3346
aVRHT
p3347
aVXRAY
p3348
aVDD
p3349
aVWYNN
p3350
aVMDT
p3351
aVCOL
p3352
aVURI
p3353
aVHAR
p3354
aVPSA
p3355
aVPCLN
p3356
asS'07132015'
p3357
(lp3358
VCNC
p3359
aVFFIV
p3360
aVGS
p3361
aVADI
p3362
aVADBE
p3363
aVAXP
p3364
aVAIG
p3365
aVGPN
p3366
aVFIS
p3367
aVAKAM
p3368
aVCHRW
p3369
aVR
aVTSO
p3370
asS'09252015'
p3371
(lp3372
VHUM
p3373
aVAVY
p3374
aVNFLX
p3375
asS'11152016'
p3376
(lp3377
VADBE
p3378
aVWYNN
p3379
aVV
aVQCOM
p3380
aVSWKS
p3381
aVXEC
p3382
aVQRVO
p3383
aVTIF
p3384
aVBA
p3385
aVC
aVAXP
p3386
aVDOV
p3387
aVCMA
p3388
aVMSI
p3389
aVILMN
p3390
aVCAT
p3391
aVLNC
p3392
aVSNA
p3393
aVNVDA
p3394
aVPH
p3395
aVURI
p3396
aVAMP
p3397
asS'12082015'
p3398
(lp3399
VWHR
p3400
aVEW
p3401
aVFISV
p3402
aVABC
p3403
aVEA
p3404
aVALK
p3405
asS'12082016'
p3406
(lp3407
VAYI
p3408
aVVMC
p3409
aVILMN
p3410
aVSNA
p3411
aVUAL
p3412
aVAMP
p3413
aVLNC
p3414
aVPFG
p3415
aVSWKS
p3416
aVROK
p3417
aVTEL
p3418
aVSHW
p3419
aVCMA
p3420
aVDOV
p3421
aVTIF
p3422
aVEQT
p3423
aVURI
p3424
aVAMZN
p3425
asS'03072016'
p3426
(lp3427
VTSN
p3428
aVAEP
p3429
aVMKC
p3430
aVAET
p3431
aVADBE
p3432
aVHCN
p3433
aVSHW
p3434
aVAYI
p3435
aVPCLN
p3436
asS'06252015'
p3437
(lp3438
VKMX
p3439
aVAKAM
p3440
aVADI
p3441
aVADM
p3442
aVSTJ
p3443
aVEQT
p3444
aVFIS
p3445
aVCNC
p3446
aVHES
p3447
aVKSS
p3448
aVADBE
p3449
asS'03222016'
p3450
(lp3451
VPCLN
p3452
aVHSY
p3453
aVKSU
p3454
aVAET
p3455
aVXOM
p3456
aVHCN
p3457
asS'08052015'
p3458
(lp3459
VTSO
p3460
aVAIG
p3461
aVKSS
p3462
aVCNC
p3463
aVEQT
p3464
aVTXN
p3465
aVDLPH
p3466
aVSEE
p3467
aVNOC
p3468
aVMLM
p3469
asS'08052016'
p3470
(lp3471
VPSA
p3472
aVISRG
p3473
aVEQT
p3474
aVAWK
p3475
aVAYI
p3476
aVSIG
p3477
aVWBA
p3478
aVNVDA
p3479
aVADBE
p3480
aVWYNN
p3481
aVHES
p3482
aVRHT
p3483
aVHAR
p3484
asS'09302015'
p3485
(lp3486
VCNC
p3487
aVAVY
p3488
asS'04222016'
p3489
(lp3490
VSCG
p3491
aVGPC
p3492
aVALK
p3493
aVFISV
p3494
aVFB
p3495
aVADBE
p3496
aVAYI
p3497
aVXOM
p3498
aVKSU
p3499
aVPCLN
p3500
asS'04172015'
p3501
(lp3502
VHUM
p3503
aVSWKS
p3504
aVKSS
p3505
aVTSO
p3506
aVSHW
p3507
aVALLE
p3508
aVAVY
p3509
aVLNC
p3510
aVCMCSA
p3511
asS'09142016'
p3512
(lp3513
VAYI
p3514
aVXEC
p3515
aVSHW
p3516
aVURI
p3517
aVVTR
p3518
aVDOV
p3519
aVSWKS
p3520
aVSNA
p3521
aVNVDA
p3522
aVILMN
p3523
aVJEC
p3524
aVTIF
p3525
aVPSA
p3526
aVCAT
p3527
aVQRVO
p3528
asS'02012016'
p3529
(lp3530
VREGN
p3531
aVILMN
p3532
aVGILD
p3533
aVADBE
p3534
aVTEL
p3535
aVALB
p3536
aVMKC
p3537
aVOXY
p3538
asS'02012017'
p3539
(lp3540
VCVX
p3541
aVCTSH
p3542
aVUAL
p3543
aVAXP
p3544
aVAME
p3545
aVPNR
p3546
aVLUV
p3547
aVQRVO
p3548
asS'03152016'
p3549
(lp3550
VMKC
p3551
aVXOM
p3552
aVADBE
p3553
aVHCN
p3554
aVAET
p3555
aVSHW
p3556
aVPCLN
p3557
asS'03182015'
p3558
(lp3559
VMO
p3560
aVBLL
p3561
aVVRSN
p3562
aVAVY
p3563
aVAKAM
p3564
aVEXPE
p3565
aVAYI
p3566
aVBBBY
p3567
aVWBA
p3568
aVAXP
p3569
aVABBV
p3570
aVSWKS
p3571
asS'03182016'
p3572
(lp3573
VXOM
p3574
aVAEP
p3575
aVAET
p3576
aVHCN
p3577
aVALK
p3578
aVADBE
p3579
aVPCLN
p3580
asS'05162016'
p3581
(lp3582
VPCLN
p3583
aVKSU
p3584
aVAYI
p3585
aVR
aVCBS
p3586
aVPRU
p3587
aVSIG
p3588
aVTSO
p3589
aVAPA
p3590
aVOXY
p3591
aVHON
p3592
aVVNO
p3593
aVSHW
p3594
aVXOM
p3595
aVXRAY
p3596
aVXEC
p3597
aVESS
p3598
aVMKC
p3599
asS'09172015'
p3600
(lp3601
VABBV
p3602
aVAZO
p3603
aVCNC
p3604
aVHUM
p3605
aVNFLX
p3606
asS'10132015'
p3607
(lp3608
VLRCX
p3609
aVHES
p3610
aVNFLX
p3611
asS'05192016'
p3612
(lp3613
VPCLN
p3614
aVAYI
p3615
aVPXD
p3616
aVKSU
p3617
aVCBS
p3618
aVR
aVGPC
p3619
aVHON
p3620
aVXOM
p3621
aVEXR
p3622
aVXEC
p3623
aVMKC
p3624
aVTSO
p3625
aVSIG
p3626
asS'05192015'
p3627
(lp3628
VMYL
p3629
aVR
aVWDC
p3630
aVMET
p3631
aVKMX
p3632
aVSTJ
p3633
aVADM
p3634
aVSWKS
p3635
aVUHS
p3636
asS'10252016'
p3637
(lp3638
VILMN
p3639
aVEQT
p3640
aVCAT
p3641
aVPCLN
p3642
aVRCL
p3643
aVAMP
p3644
aVSWKS
p3645
aVSTZ
p3646
aVOKE
p3647
aVCLX
p3648
aVTEL
p3649
aVTIF
p3650
aVWYNN
p3651
aVJEC
p3652
aVUAL
p3653
aVPSA
p3654
aVNVDA
p3655
aVSNA
p3656
asS'07072015'
p3657
(lp3658
VCNC
p3659
aVGS
p3660
aVR
aVAXP
p3661
aVSTJ
p3662
aVADBE
p3663
aVAIG
p3664
aVAKAM
p3665
aVFIS
p3666
aVLH
p3667
aVCLX
p3668
aVORLY
p3669
aVUHS
p3670
asS'03102016'
p3671
(lp3672
VTSN
p3673
aVMKC
p3674
aVXOM
p3675
aVAEP
p3676
aVADBE
p3677
aVSHW
p3678
aVPCLN
p3679
asS'11062015'
p3680
(lp3681
VMSI
p3682
aVEA
p3683
aVMET
p3684
aVLRCX
p3685
aVTSO
p3686
aVNFLX
p3687
asS'08252015'
p3688
(lp3689
VMNST
p3690
aVHAR
p3691
aVLLL
p3692
aVAKAM
p3693
aVKSS
p3694
aVSTZ
p3695
aVSTJ
p3696
aVMYL
p3697
aVNFLX
p3698
asS'06212016'
p3699
(lp3700
VFB
p3701
aVXEC
p3702
aVR
aVFISV
p3703
aVKSU
p3704
aVAPA
p3705
aVADBE
p3706
aVDD
p3707
aVXOM
p3708
aVWYNN
p3709
aVOXY
p3710
aVRHT
p3711
aVEMR
p3712
aVEQT
p3713
asS'01252016'
p3714
(lp3715
VTSO
p3716
aVREGN
p3717
aVGILD
p3718
aVTEL
p3719
asS'02122016'
p3720
(lp3721
VREGN
p3722
aVILMN
p3723
aVADBE
p3724
aVAEP
p3725
aVED
p3726
aVGILD
p3727
asS'12032015'
p3728
(lp3729
VPCLN
p3730
aVGD
p3731
aVXLNX
p3732
aVALK
p3733
asS'09242015'
p3734
(lp3735
VSTZ
p3736
aVSTJ
p3737
aVTEL
p3738
aVAVY
p3739
aVABBV
p3740
aVFL
p3741
aVCNC
p3742
aVNFLX
p3743
asS'06092016'
p3744
(lp3745
VSIG
p3746
aVAPA
p3747
aVADBE
p3748
aVALB
p3749
aVXEC
p3750
aVADSK
p3751
aVJEC
p3752
aVCXO
p3753
aVMCK
p3754
aVSHW
p3755
aVRHT
p3756
aVEQT
p3757
aVSLB
p3758
aVURI
p3759
aVHAR
p3760
asS'06092015'
p3761
(lp3762
VMNK
p3763
aVSWKS
p3764
aVFFIV
p3765
aVCELG
p3766
aVADM
p3767
aVNKE
p3768
aVADBE
p3769
aVSTJ
p3770
aVADI
p3771
aVAXP
p3772
aVALLE
p3773
aVR
aVSTZ
p3774
aVLNC
p3775
asS'04112016'
p3776
(lp3777
VPCLN
p3778
aVTSO
p3779
aVFB
p3780
aVBA
p3781
aVGPC
p3782
aVWBA
p3783
aVSPG
p3784
aVHON
p3785
aVXOM
p3786
aVCNC
p3787
aVADBE
p3788
aVMKC
p3789
aVKSU
p3790
aVEXR
p3791
aVSHW
p3792
aVCELG
p3793
asS'08282015'
p3794
(lp3795
VLLL
p3796
aVKSS
p3797
aVJPM
p3798
aVMYL
p3799
aVNFLX
p3800
asS'07182016'
p3801
(lp3802
VAWK
p3803
aVRHT
p3804
aVXEC
p3805
aVXOM
p3806
aVLEG
p3807
aVFIS
p3808
aVADBE
p3809
aVWYNN
p3810
aVAN
p3811
aVURI
p3812
aVDD
p3813
aVEMR
p3814
aVAXP
p3815
aVUNP
p3816
aVPPG
p3817
aVHAR
p3818
aVAPD
p3819
aVPCLN
p3820
asS'07082015'
p3821
(lp3822
VCNC
p3823
aVGS
p3824
aVADI
p3825
aVAXP
p3826
aVNOC
p3827
aVR
aVADBE
p3828
aVSTZ
p3829
aVSTJ
p3830
aVAKAM
p3831
aVLH
p3832
aVFIS
p3833
aVKR
p3834
asS'03102015'
p3835
(lp3836
VCMG
p3837
aVCELG
p3838
aVADBE
p3839
aVAKAM
p3840
aVAVY
p3841
aVVRSN
p3842
aVBBBY
p3843
aVLNC
p3844
aVDLR
p3845
aVMET
p3846
aVAXP
p3847
aVWBA
p3848
aVSWKS
p3849
asS'01302017'
p3850
(lp3851
VCVX
p3852
aVOKE
p3853
aVCTSH
p3854
aVUAL
p3855
aVAME
p3856
aVLUV
p3857
aVPNR
p3858
aVQRVO
p3859
asS'10072015'
p3860
(lp3861
VSWKS
p3862
asS'02262016'
p3863
(lp3864
VED
p3865
aVAEP
p3866
aVSCG
p3867
aVMKC
p3868
aVADBE
p3869
aVTSO
p3870
aVILMN
p3871
aVPCLN
p3872
asS'02262015'
p3873
(lp3874
VBBBY
p3875
aVCMG
p3876
aVHON
p3877
aVKSS
p3878
aVLNC
p3879
aVCMCSA
p3880
aVMET
p3881
aVMYL
p3882
aVGILD
p3883
aVSWKS
p3884
aVR
aVAXP
p3885
aVVRSN
p3886
aVAKAM
p3887
aVKLAC
p3888
aVTIF
p3889
asS'02192016'
p3890
(lp3891
VED
p3892
aVAEP
p3893
aVSCG
p3894
aVADBE
p3895
aVAVY
p3896
aVABC
p3897
aVGILD
p3898
aVILMN
p3899
asS'08252016'
p3900
(lp3901
VWYNN
p3902
aVSHW
p3903
aVILMN
p3904
aVAYI
p3905
aVNVDA
p3906
aVTSN
p3907
aVDOV
p3908
aVURI
p3909
aVAMP
p3910
aVPSA
p3911
aVBHI
p3912
aVHES
p3913
aVGPN
p3914
asS'08312015'
p3915
(lp3916
VNOC
p3917
aVLLL
p3918
aVHAR
p3919
aVKSS
p3920
aVJPM
p3921
aVMYL
p3922
aVSWKS
p3923
aVNFLX
p3924
asS'08312016'
p3925
(lp3926
VWYNN
p3927
aVILMN
p3928
aVSHW
p3929
aVAYI
p3930
aVNVDA
p3931
aVCAT
p3932
aVDOV
p3933
aVTSN
p3934
aVJEC
p3935
aVFIS
p3936
aVHES
p3937
aVURI
p3938
aVTRIP
p3939
aVCME
p3940
aVSNA
p3941
aVGPN
p3942
aVQRVO
p3943
aVTIF
p3944
aVAMP
p3945
aVPSA
p3946
aVEQT
p3947
asS'10222015'
p3948
(lp3949
VNFLX
p3950
aVLRCX
p3951
aVPCLN
p3952
asS'06222016'
p3953
(lp3954
VADBE
p3955
aVFISV
p3956
aVAAPL
p3957
aVXEC
p3958
aVHAR
p3959
aVHAS
p3960
aVKSU
p3961
aVWYNN
p3962
aVDD
p3963
aVAPA
p3964
aVCMI
p3965
aVXOM
p3966
aVRHT
p3967
aVEQT
p3968
asS'06222015'
p3969
(lp3970
VMNK
p3971
aVEQT
p3972
aVAKAM
p3973
aVADM
p3974
aVEXPE
p3975
aVADI
p3976
aVPVH
p3977
aVSTJ
p3978
aVAIG
p3979
aVR
aVADBE
p3980
aVKSS
p3981
aVEMN
p3982
aVCNC
p3983
asS'03212016'
p3984
(lp3985
VKSU
p3986
aVXOM
p3987
aVAET
p3988
aVHCN
p3989
aVPCLN
p3990
aVALK
p3991
aVSPG
p3992
aVACN
p3993
aVADBE
p3994
asS'11012016'
p3995
(lp3996
VXEC
p3997
aVCAT
p3998
aVPCLN
p3999
aVSTZ
p4000
aVSWKS
p4001
aVURI
p4002
aVILMN
p4003
aVEQT
p4004
aVUAL
p4005
aVSNA
p4006
aVNVDA
p4007
aVJEC
p4008
aVWYNN
p4009
aVAXP
p4010
aVAPD
p4011
asS'07012016'
p4012
(lp4013
VWYNN
p4014
aVPXD
p4015
aVRHT
p4016
aVDD
p4017
aVPPG
p4018
aVADBE
p4019
aVUNP
p4020
aVEQT
p4021
aVSLB
p4022
aVFISV
p4023
aVDLR
p4024
aVMKC
p4025
aVORLY
p4026
aVPSA
p4027
asS'06192015'
p4028
(lp4029
VMNK
p4030
aVAKAM
p4031
aVADM
p4032
aVSTZ
p4033
aVEXPE
p4034
aVADBE
p4035
aVADI
p4036
aVPVH
p4037
aVR
aVSTJ
p4038
aVAIG
p4039
aVSWKS
p4040
aVEMN
p4041
aVLH
p4042
aVKSS
p4043
aVCNC
p4044
asS'03302016'
p4045
(lp4046
VPCLN
p4047
aVSHW
p4048
aVKSU
p4049
aVGPC
p4050
aVTXN
p4051
aVSPG
p4052
aVHCN
p4053
aVADBE
p4054
asS'02022017'
p4055
(lp4056
VCVX
p4057
aVCTSH
p4058
aVUAL
p4059
aVOKE
p4060
aVAXP
p4061
aVPNR
p4062
aVAME
p4063
aVLNC
p4064
aVFL
p4065
aVQRVO
p4066
asS'10182016'
p4067
(lp4068
VPCLN
p4069
aVILMN
p4070
aVROP
p4071
aVWYNN
p4072
aVEQT
p4073
aVNVDA
p4074
aVURI
p4075
aVQCOM
p4076
aVFB
p4077
aVTIF
p4078
aVSWKS
p4079
aVDGX
p4080
aVOKE
p4081
aVSNA
p4082
aVSHW
p4083
aVPSA
p4084
asS'04082015'
p4085
(lp4086
VAGN
p4087
aVHUM
p4088
aVSWKS
p4089
aVAKAM
p4090
aVHCA
p4091
aVVRSN
p4092
aVMET
p4093
aVALLE
p4094
aVWAT
p4095
aVTDG
p4096
aVRCL
p4097
asS'04082016'
p4098
(lp4099
VPCLN
p4100
aVBA
p4101
aVALK
p4102
aVGPC
p4103
aVWBA
p4104
aVSPG
p4105
aVKSU
p4106
aVADBE
p4107
aVEXR
p4108
aVSHW
p4109
aVCELG
p4110
asS'08012016'
p4111
(lp4112
VPSA
p4113
aVSHW
p4114
aVAYI
p4115
aVEQT
p4116
aVHES
p4117
aVWBA
p4118
aVPPG
p4119
aVLYB
p4120
aVEMR
p4121
aVSIG
p4122
aVADBE
p4123
aVAN
p4124
aVFIS
p4125
aVNVDA
p4126
aVDD
p4127
aVRHT
p4128
aVHAR
p4129
aVWYNN
p4130
aVURI
p4131
aVPCLN
p4132
asS'01122017'
p4133
(lp4134
VCVX
p4135
aVVMC
p4136
aVJPM
p4137
aVLNC
p4138
aVUAL
p4139
aVTEL
p4140
aVJEC
p4141
aVKSU
p4142
aVOMC
p4143
aVPFG
p4144
aVTIF
p4145
aVAXP
p4146
aVAMP
p4147
aVDOV
p4148
aVPVH
p4149
aVILMN
p4150
asS'01122016'
p4151
(lp4152
VREGN
p4153
aVLLY
p4154
aVAAPL
p4155
aVOXY
p4156
aVFISV
p4157
aVSCG
p4158
aVTSO
p4159
asS'01172017'
p4160
(lp4161
VJPM
p4162
aVCVX
p4163
aVOKE
p4164
aVLNC
p4165
aVUAL
p4166
aVJEC
p4167
aVLVLT
p4168
aVAXP
p4169
aVSTT
p4170
aVAME
p4171
aVKSU
p4172
aVSWKS
p4173
aVPNR
p4174
aVPVH
p4175
asS'03302015'
p4176
(lp4177
VADBE
p4178
aVAKAM
p4179
aVC
aVSWKS
p4180
aVAXP
p4181
aVMET
p4182
aVULTA
p4183
aVABBV
p4184
aVAVY
p4185
aVVRSN
p4186
aVBBBY
p4187
aVAAL
p4188
aVAYI
p4189
asS'04282016'
p4190
(lp4191
VAYI
p4192
aVALK
p4193
aVPCLN
p4194
aVADBE
p4195
aVCME
p4196
aVXOM
p4197
aVKSU
p4198
aVPXD
p4199
asS'02102016'
p4200
(lp4201
VREGN
p4202
aVILMN
p4203
aVADBE
p4204
aVO
aVSCG
p4205
aVED
p4206
aVGILD
p4207
asS'02102017'
p4208
(lp4209
VMET
p4210
aVABBV
p4211
aVLNC
p4212
aVAME
p4213
aVQRVO
p4214
aVURI
p4215
asS'04072016'
p4216
(lp4217
VPCLN
p4218
aVALK
p4219
aVCXO
p4220
aVCME
p4221
aVKSU
p4222
aVSPG
p4223
aVSHW
p4224
aVOXY
p4225
aVADBE
p4226
aVMKC
p4227
asS'04302015'
p4228
(lp4229
VSWKS
p4230
aVSIG
p4231
aVDLTR
p4232
aVCNC
p4233
aVAMP
p4234
aVLNC
p4235
aVAAL
p4236
aVEQT
p4237
aVSTJ
p4238
aVTSO
p4239
asS'09262016'
p4240
(lp4241
VSWKS
p4242
aVTIF
p4243
aVDOV
p4244
aVWYNN
p4245
aVNVDA
p4246
aVSNA
p4247
aVILMN
p4248
aVPSA
p4249
asS'04072015'
p4250
(lp4251
VSWKS
p4252
aVHUM
p4253
aVAMP
p4254
aVULTA
p4255
aVAKAM
p4256
aVLOW
p4257
aVNDAQ
p4258
aVADBE
p4259
aVVRSN
p4260
aVHON
p4261
aVWAT
p4262
aVBLL
p4263
aVTDG
p4264
aVRCL
p4265
asS'05052015'
p4266
(lp4267
VSIG
p4268
aVAMP
p4269
aVNKE
p4270
aVSWKS
p4271
aVSTJ
p4272
aVLNC
p4273
asS'05052016'
p4274
(lp4275
VPCLN
p4276
aVAYI
p4277
aVDLPH
p4278
aVTSO
p4279
aVORLY
p4280
aVKSU
p4281
aVADBE
p4282
aVHON
p4283
aVXEC
p4284
aVR
aVALB
p4285
aVFISV
p4286
aVXOM
p4287
aVICE
p4288
asS'03092016'
p4289
(lp4290
VTSN
p4291
aVMKC
p4292
aVXOM
p4293
aVAEP
p4294
aVAET
p4295
aVADBE
p4296
aVSHW
p4297
aVPCLN
p4298
asS'03092015'
p4299
(lp4300
VLLL
p4301
aVEOG
p4302
aVPH
p4303
aVCMG
p4304
aVBBBY
p4305
aVAVY
p4306
aVAKAM
p4307
aVDLR
p4308
aVADBE
p4309
aVLNC
p4310
aVMET
p4311
aVAXP
p4312
aVWBA
p4313
aVSWKS
p4314
asS'04202016'
p4315
(lp4316
VWBA
p4317
aVSCG
p4318
aVADBE
p4319
aVALK
p4320
aVKSU
p4321
aVAYI
p4322
asS'04202015'
p4323
(lp4324
VHUM
p4325
aVSWKS
p4326
aVKSS
p4327
aVTSO
p4328
aVALLE
p4329
aVEW
p4330
aVADBE
p4331
aVR
aVAKAM
p4332
aVLNC
p4333
asS'06112015'
p4334
(lp4335
VMNK
p4336
aVSWKS
p4337
aVFFIV
p4338
aVADM
p4339
aVADBE
p4340
aVSIG
p4341
aVADI
p4342
aVSTJ
p4343
aVALLE
p4344
aVNKE
p4345
aVAXP
p4346
aVEMN
p4347
aVUHS
p4348
aVSTZ
p4349
aVCNC
p4350
aVR
aVLNC
p4351
aVAMP
p4352
aVLH
p4353
aVEW
p4354
asS'10102016'
p4355
(lp4356
VAYI
p4357
aVPSA
p4358
aVWYNN
p4359
aVPCLN
p4360
aVFB
p4361
aVNVDA
p4362
aVDOV
p4363
aVTEL
p4364
aVTIF
p4365
aVDGX
p4366
aVEQT
p4367
aVPH
p4368
aVSNA
p4369
aVJEC
p4370
aVILMN
p4371
aVSWKS
p4372
aVURI
p4373
asS'03012016'
p4374
(lp4375
VMKC
p4376
aVHCN
p4377
aVAET
p4378
aVTSO
p4379
aVILMN
p4380
aVPCLN
p4381
asS'01072016'
p4382
(lp4383
VREGN
p4384
aVADI
p4385
aVFISV
p4386
aVHUM
p4387
aVED
p4388
aVAET
p4389
aVTSO
p4390
asS'11122015'
p4391
(lp4392
VMET
p4393
aVTSS
p4394
aVALK
p4395
aVTSO
p4396
asS'01102017'
p4397
(lp4398
VBLK
p4399
aVGWW
p4400
aVCVX
p4401
aVUAL
p4402
aVJPM
p4403
aVLNC
p4404
aVADI
p4405
aVTIF
p4406
aVKSU
p4407
aVJEC
p4408
aVCTXS
p4409
aVSWKS
p4410
aVAME
p4411
aVAXP
p4412
aVILMN
p4413
asS'01312017'
p4414
(lp4415
VCVX
p4416
aVCTSH
p4417
aVUAL
p4418
aVOKE
p4419
aVAXP
p4420
aVAME
p4421
aVLUV
p4422
aVPNR
p4423
aVQRVO
p4424
asS'07212015'
p4425
(lp4426
VDLPH
p4427
aVCNC
p4428
aVLH
p4429
aVFIS
p4430
aVAKAM
p4431
asS'09202016'
p4432
(lp4433
VXEC
p4434
aVURI
p4435
aVSHW
p4436
aVDLR
p4437
aVDOV
p4438
aVVTR
p4439
aVPCLN
p4440
aVCAT
p4441
aVNVDA
p4442
aVSNA
p4443
aVPSA
p4444
aVTIF
p4445
aVQRVO
p4446
aVILMN
p4447
aVSWKS
p4448
aVWYNN
p4449
asS'07212016'
p4450
(lp4451
VPSA
p4452
aVSHW
p4453
aVXEC
p4454
aVRHT
p4455
aVLEG
p4456
aVSLB
p4457
aVNVDA
p4458
aVAXP
p4459
aVDD
p4460
aVVRTX
p4461
aVPPG
p4462
aVURI
p4463
aVAYI
p4464
aVSIG
p4465
aVHAR
p4466
aVPCLN
p4467
asS'03272015'
p4468
(lp4469
VADBE
p4470
aVSWKS
p4471
aVC
aVAKAM
p4472
aVLNC
p4473
aVTSO
p4474
aVVRSN
p4475
aVLB
p4476
aVAAL
p4477
asS'10192015'
p4478
(lp4479
VLRCX
p4480
aVNFLX
p4481
asS'06022015'
p4482
(lp4483
VTSO
p4484
aVFFIV
p4485
aVR
aVLNC
p4486
aVSTJ
p4487
aVMET
p4488
aVADM
p4489
aVLVLT
p4490
aVDNB
p4491
aVWBA
p4492
aVLH
p4493
aVUHS
p4494
aVHUM
p4495
asS'01142016'
p4496
(lp4497
VREGN
p4498
aVTSO
p4499
aVGILD
p4500
aVADBE
p4501
aVADI
p4502
aVAAPL
p4503
aVFISV
p4504
asS'06022016'
p4505
(lp4506
VSIG
p4507
aVXEC
p4508
aVVMC
p4509
aVXOM
p4510
aVOXY
p4511
aVSHW
p4512
aVAPA
p4513
aVDLR
p4514
aVDLPH
p4515
aVGPC
p4516
aVADBE
p4517
aVPSA
p4518
aVRHT
p4519
aVTSO
p4520
aVAET
p4521
asS'08292016'
p4522
(lp4523
VWYNN
p4524
aVILMN
p4525
aVSHW
p4526
aVAYI
p4527
aVNVDA
p4528
aVCAT
p4529
aVFIS
p4530
aVTSN
p4531
aVDOV
p4532
aVAXP
p4533
aVLEG
p4534
aVRHT
p4535
aVURI
p4536
aVHES
p4537
aVAMP
p4538
aVGPN
p4539
aVQRVO
p4540
aVPSA
p4541
aVTIF
p4542
asS'10192016'
p4543
(lp4544
VPCLN
p4545
aVILMN
p4546
aVROP
p4547
aVEQT
p4548
aVWYNN
p4549
aVURI
p4550
aVNVDA
p4551
aVSWKS
p4552
aVTIF
p4553
aVDGX
p4554
aVFB
p4555
aVSNA
p4556
aVRSG
p4557
aVSHW
p4558
aVPSA
p4559
asS'04102015'
p4560
(lp4561
VAGN
p4562
aVHUM
p4563
aVTSO
p4564
aVSWKS
p4565
aVAKAM
p4566
aVALLE
p4567
aVVRSN
p4568
aVWAT
p4569
aVCMG
p4570
asS'01152016'
p4571
(lp4572
VREGN
p4573
aVTSO
p4574
aVGILD
p4575
aVADBE
p4576
aVADI
p4577
aVFISV
p4578
asS'12012015'
p4579
(lp4580
VFISV
p4581
aVTSO
p4582
aVCCL
p4583
aVMET
p4584
aVALK
p4585
asS'10092015'
p4586
(lp4587
VSWKS
p4588
aVHES
p4589
aVNFLX
p4590
aVPCLN
p4591
asS'12012016'
p4592
(lp4593
VSNA
p4594
aVSWKS
p4595
aVPFG
p4596
aVTEL
p4597
aVUAL
p4598
aVLNC
p4599
aVBA
p4600
aVCOF
p4601
aVJEC
p4602
aVDOV
p4603
aVDD
p4604
aVTIF
p4605
aVILMN
p4606
aVEQT
p4607
aVSHW
p4608
asS'07082016'
p4609
(lp4610
VWYNN
p4611
aVRHT
p4612
aVDD
p4613
aVURI
p4614
aVEQT
p4615
aVWBA
p4616
aVPXD
p4617
aVADBE
p4618
aVEMR
p4619
aVKSU
p4620
aVDLR
p4621
aVFISV
p4622
aVGS
p4623
aVSHW
p4624
aVPCLN
p4625
asS'12302016'
p4626
(lp4627
VGWW
p4628
aVTIF
p4629
aVUAL
p4630
aVLNC
p4631
aVCMA
p4632
aVJEC
p4633
aVCAT
p4634
aVJPM
p4635
aVDOV
p4636
aVCVX
p4637
aVAXP
p4638
aVPFG
p4639
aVQRVO
p4640
aVSWKS
p4641
aVKSU
p4642
aVSTZ
p4643
asS'11192015'
p4644
(lp4645
VPCLN
p4646
aVEA
p4647
aVFISV
p4648
aVMET
p4649
aVAIZ
p4650
asS'08192016'
p4651
(lp4652
VPSA
p4653
aVWYNN
p4654
aVTSN
p4655
aVURI
p4656
aVSCG
p4657
aVDLPH
p4658
aVAXP
p4659
aVNVDA
p4660
aVDOV
p4661
aVEQT
p4662
asS'06032016'
p4663
(lp4664
VSIG
p4665
aVXEC
p4666
aVVMC
p4667
aVAPA
p4668
aVXOM
p4669
aVOXY
p4670
aVHON
p4671
aVADBE
p4672
aVDLR
p4673
aVGPC
p4674
aVDD
p4675
aVRHT
p4676
aVTSO
p4677
aVPSA
p4678
aVMCK
p4679
asS'05232016'
p4680
(lp4681
VESS
p4682
aVPSA
p4683
aVAYI
p4684
aVDLPH
p4685
aVADSK
p4686
aVGPC
p4687
aVR
aVHON
p4688
aVVMC
p4689
aVEXR
p4690
aVXOM
p4691
aVMKC
p4692
aVADBE
p4693
aVXEC
p4694
aVTSO
p4695
aVSIG
p4696
asS'10212015'
p4697
(lp4698
VTSO
p4699
aVNFLX
p4700
aVPCLN
p4701
asS'04242015'
p4702
(lp4703
VSWKS
p4704
aVALLE
p4705
aVDPS
p4706
aVEQT
p4707
aVLNC
p4708
aVBLL
p4709
aVADBE
p4710
aVCNC
p4711
asS'10212016'
p4712
(lp4713
VILMN
p4714
aVROP
p4715
aVEQT
p4716
aVWYNN
p4717
aVSWKS
p4718
aVNVDA
p4719
aVTIF
p4720
aVURI
p4721
aVDGX
p4722
aVJEC
p4723
aVOKE
p4724
aVMNST
p4725
aVSHW
p4726
aVSNA
p4727
asS'11022015'
p4728
(lp4729
VSTZ
p4730
aVEFX
p4731
aVAET
p4732
aVLRCX
p4733
aVNFLX
p4734
asS'10302015'
p4735
(lp4736
VSTZ
p4737
aVFISV
p4738
aVTSS
p4739
aVPCLN
p4740
asS'11022016'
p4741
(lp4742
VXEC
p4743
aVCAT
p4744
aVSTZ
p4745
aVURI
p4746
aVSWKS
p4747
aVILMN
p4748
aVNVDA
p4749
aVEQT
p4750
aVUAL
p4751
aVJEC
p4752
aVTEL
p4753
aVWYNN
p4754
aVAXP
p4755
aVAPD
p4756
asS'07292015'
p4757
(lp4758
VMYL
p4759
aVCNC
p4760
aVTSO
p4761
aVADBE
p4762
aVFIS
p4763
aVAIG
p4764
aVNOC
p4765
aVDLPH
p4766
aVSTZ
p4767
aVAKAM
p4768
aVEQT
p4769
asS'07292016'
p4770
(lp4771
VPSA
p4772
aVSHW
p4773
aVAYI
p4774
aVHES
p4775
aVWBA
p4776
aVPPG
p4777
aVAWK
p4778
aVLYB
p4779
aVADBE
p4780
aVSIG
p4781
aVAN
p4782
aVNVDA
p4783
aVAXP
p4784
aVPCLN
p4785
aVFIS
p4786
aVDOW
p4787
aVDD
p4788
aVRHT
p4789
aVHAR
p4790
aVWYNN
p4791
aVURI
p4792
asS'02242015'
p4793
(lp4794
VCMG
p4795
aVEOG
p4796
aVAXP
p4797
aVWBA
p4798
aVCMCSA
p4799
aVSWKS
p4800
aVMET
p4801
aVGILD
p4802
aVLNC
p4803
aVMYL
p4804
aVVRSN
p4805
aVR
aVTIF
p4806
aVAKAM
p4807
asS'02242016'
p4808
(lp4809
VED
p4810
aVAEP
p4811
aVFL
p4812
aVSCG
p4813
aVKSU
p4814
aVADBE
p4815
aVTSO
p4816
aVILMN
p4817
asS'05082015'
p4818
(lp4819
VNFLX
p4820
aVR
aVHCA
p4821
aVSTJ
p4822
aVSWKS
p4823
aVLNC
p4824
aVEA
p4825
aVTSO
p4826
asS'12122016'
p4827
(lp4828
VNVDA
p4829
aVWYNN
p4830
aVAYI
p4831
aVILMN
p4832
aVCAT
p4833
aVJEC
p4834
aVAMP
p4835
aVR
aVLNC
p4836
aVAXP
p4837
aVROK
p4838
aVPFG
p4839
aVUAL
p4840
aVSWKS
p4841
aVADS
p4842
aVJPM
p4843
aVTEL
p4844
aVSNA
p4845
aVSHW
p4846
aVADBE
p4847
aVCMA
p4848
aVTIF
p4849
aVDOV
p4850
asS'12172015'
p4851
(lp4852
VREGN
p4853
aVADI
p4854
aVFISV
p4855
asS'03142016'
p4856
(lp4857
VTSN
p4858
aVMKC
p4859
aVXOM
p4860
aVTXN
p4861
aVADBE
p4862
aVALB
p4863
aVHCN
p4864
aVAET
p4865
aVSHW
p4866
aVPCLN
p4867
asS'11102015'
p4868
(lp4869
VGD
p4870
aVTSS
p4871
aVLRCX
p4872
asS'11102016'
p4873
(lp4874
VWYNN
p4875
aVQRVO
p4876
aVEQT
p4877
aVCMA
p4878
aVAXP
p4879
aVUAL
p4880
aVDOV
p4881
aVMSI
p4882
aVCAT
p4883
aVILMN
p4884
aVPH
p4885
aVAMP
p4886
aVSHW
p4887
aVPCLN
p4888
asS'07262016'
p4889
(lp4890
VAPA
p4891
aVPSA
p4892
aVPXD
p4893
aVAWK
p4894
aVWBA
p4895
aVPPG
p4896
aVLEG
p4897
aVSLB
p4898
aVAN
p4899
aVRHT
p4900
aVNVDA
p4901
aVFIS
p4902
aVAXP
p4903
aVDD
p4904
aVLYB
p4905
aVHAR
p4906
aVWYNN
p4907
aVURI
p4908
asS'08262015'
p4909
(lp4910
VMNST
p4911
aVHAR
p4912
aVLLL
p4913
aVAKAM
p4914
aVKSS
p4915
aVSTZ
p4916
aVLEN
p4917
aVSTJ
p4918
aVNFLX
p4919
asS'08262016'
p4920
(lp4921
VWYNN
p4922
aVSHW
p4923
aVILMN
p4924
aVAYI
p4925
aVCAT
p4926
aVNVDA
p4927
aVAXP
p4928
aVDOV
p4929
aVURI
p4930
aVRHT
p4931
aVAMP
p4932
aVPSA
p4933
aVHES
p4934
aVGPN
p4935
aVQRVO
p4936
asS'02172016'
p4937
(lp4938
VFB
p4939
aVED
p4940
aVADBE
p4941
aVAEP
p4942
aVABC
p4943
aVAVY
p4944
aVCVX
p4945
aVILMN
p4946
aVAYI
p4947
asS'02172015'
p4948
(lp4949
VCMG
p4950
aVDLR
p4951
aVAXP
p4952
aVABBV
p4953
aVKMX
p4954
aVADI
p4955
aVLNC
p4956
aVAKAM
p4957
asS'04042016'
p4958
(lp4959
VPCLN
p4960
aVAYI
p4961
aVSHW
p4962
aVALK
p4963
aVKSU
p4964
aVTSN
p4965
aVOXY
p4966
aVGPC
p4967
aVXRAY
p4968
aVTXN
p4969
aVFB
p4970
aVHSY
p4971
aVAEP
p4972
aVSPG
p4973
aVADBE
p4974
asS'06052015'
p4975
(lp4976
VFFIV
p4977
aVADM
p4978
aVSTJ
p4979
aVADBE
p4980
aVSWKS
p4981
aVR
aVALLE
p4982
aVADI
p4983
aVLH
p4984
aVHUM
p4985
asS'09082015'
p4986
(lp4987
VNOC
p4988
aVNFLX
p4989
asS'09082016'
p4990
(lp4991
VAYI
p4992
aVILMN
p4993
aVHES
p4994
aVSWKS
p4995
aVTIF
p4996
aVJEC
p4997
aVNVDA
p4998
aVDOV
p4999
aVCAT
p5000
aVURI
p5001
aVLEG
p5002
aVAXP
p5003
aVGPN
p5004
aVWYNN
p5005
aVAMP
p5006
aVPSA
p5007
asS'10012015'
p5008
(lp5009
VCNC
p5010
aVSTZ
p5011
aVAVY
p5012
aVNFLX
p5013
asS'09122016'
p5014
(lp5015
VAYI
p5016
aVSWKS
p5017
aVILMN
p5018
aVDG
p5019
aVTIF
p5020
aVSNA
p5021
aVNVDA
p5022
aVURI
p5023
aVDOV
p5024
aVTSN
p5025
aVVTR
p5026
aVQRVO
p5027
aVLEG
p5028
aVPSA
p5029
aVWYNN
p5030
asS'09222015'
p5031
(lp5032
VSTJ
p5033
aVABBV
p5034
aVNFLX
p5035
asS'09222016'
p5036
(lp5037
VURI
p5038
aVDOV
p5039
aVTIF
p5040
aVCAT
p5041
aVQRVO
p5042
aVNVDA
p5043
aVDLR
p5044
aVSHW
p5045
aVSNA
p5046
aVILMN
p5047
aVPSA
p5048
aVPCLN
p5049
asS'12072016'
p5050
(lp5051
VNVDA
p5052
aVILMN
p5053
aVSNA
p5054
aVAMP
p5055
aVSWKS
p5056
aVUAL
p5057
aVAYI
p5058
aVLNC
p5059
aVPFG
p5060
aVSHW
p5061
aVROK
p5062
aVDD
p5063
aVJBHT
p5064
aVCMA
p5065
aVTIF
p5066
aVEQT
p5067
aVDOV
p5068
aVURI
p5069
asS'12072015'
p5070
(lp5071
VWHR
p5072
aVFISV
p5073
aVEW
p5074
aVALK
p5075
asS'06292015'
p5076
(lp5077
VKMX
p5078
aVR
aVSTZ
p5079
aVAKAM
p5080
aVAMP
p5081
aVSTJ
p5082
aVLNC
p5083
aVEQT
p5084
aVADBE
p5085
aVCELG
p5086
asS'12102015'
p5087
(lp5088
VREGN
p5089
aVWHR
p5090
aVFISV
p5091
aVEW
p5092
aVMKC
p5093
aVABC
p5094
aVALK
p5095
asS'03202015'
p5096
(lp5097
VADBE
p5098
aVVRSN
p5099
aVLNC
p5100
aVBLL
p5101
aVMET
p5102
aVAKAM
p5103
aVGS
p5104
aVEXPE
p5105
aVWBA
p5106
aVHCA
p5107
aVDLR
p5108
aVAYI
p5109
aVABBV
p5110
aVSWKS
p5111
asS'05242016'
p5112
(lp5113
VPCLN
p5114
aVORLY
p5115
aVPSA
p5116
aVBLK
p5117
aVDLPH
p5118
aVOXY
p5119
aVADSK
p5120
aVGPC
p5121
aVAYI
p5122
aVHON
p5123
aVXOM
p5124
aVEXR
p5125
aVMKC
p5126
aVXEC
p5127
aVVMC
p5128
aVTSO
p5129
aVSIG
p5130
aVCME
p5131
asS'07072016'
p5132
(lp5133
VWYNN
p5134
aVPCLN
p5135
aVRHT
p5136
aVURI
p5137
aVDD
p5138
aVPXD
p5139
aVEQT
p5140
aVWBA
p5141
aVSLB
p5142
aVADBE
p5143
aVEMR
p5144
aVIBM
p5145
aVDLR
p5146
aVSHW
p5147
asS'10062015'
p5148
(lp5149
VSTZ
p5150
aVNFLX
p5151
asS'05072015'
p5152
(lp5153
VHCA
p5154
aVSTJ
p5155
aVSWKS
p5156
aVLNC
p5157
asS'07142015'
p5158
(lp5159
VCNC
p5160
aVFFIV
p5161
aVADI
p5162
aVGS
p5163
aVUHS
p5164
aVADBE
p5165
aVAXP
p5166
aVFIS
p5167
aVAKAM
p5168
asS'08112015'
p5169
(lp5170
VTMO
p5171
aVSWKS
p5172
aVGS
p5173
aVABBV
p5174
aVMYL
p5175
aVKSS
p5176
aVFIS
p5177
aVTXN
p5178
aVEXR
p5179
aVEQT
p5180
aVDLPH
p5181
aVHAR
p5182
asS'10272015'
p5183
(lp5184
VSTZ
p5185
aVVNO
p5186
aVALK
p5187
aVNFLX
p5188
aVPCLN
p5189
asS'07142016'
p5190
(lp5191
VEQT
p5192
aVAWK
p5193
aVWBA
p5194
aVRHT
p5195
aVVRSN
p5196
aVWYNN
p5197
aVXEC
p5198
aVCOL
p5199
aVADBE
p5200
aVURI
p5201
aVNVDA
p5202
aVHAR
p5203
aVSIG
p5204
aVAYI
p5205
aVPCLN
p5206
asS'08102016'
p5207
(lp5208
VPSA
p5209
aVTRIP
p5210
aVAWK
p5211
aVEQT
p5212
aVEMR
p5213
aVSNA
p5214
aVPPG
p5215
aVURI
p5216
aVAIZ
p5217
aVDOW
p5218
aVNVDA
p5219
aVAXP
p5220
aVWYNN
p5221
aVWBA
p5222
aVRHT
p5223
aVADBE
p5224
aVHAR
p5225
asS'12142016'
p5226
(lp5227
VRL
p5228
aVWYNN
p5229
aVAMP
p5230
aVNVDA
p5231
aVR
aVCAT
p5232
aVJEC
p5233
aVROK
p5234
aVLNC
p5235
aVTWX
p5236
aVUAL
p5237
aVAXP
p5238
aVSWKS
p5239
aVCMA
p5240
aVTIF
p5241
aVILMN
p5242
aVQRVO
p5243
aVDD
p5244
aVTEL
p5245
aVDOV
p5246
aVADBE
p5247
asS'12142015'
p5248
(lp5249
VREGN
p5250
aVFISV
p5251
aVALK
p5252
aVABC
p5253
asS'08102015'
p5254
(lp5255
VSWKS
p5256
aVTMO
p5257
aVGS
p5258
aVABBV
p5259
aVRHT
p5260
aVPVH
p5261
aVKSS
p5262
aVADI
p5263
aVDLPH
p5264
aVHAR
p5265
asS'11142016'
p5266
(lp5267
VFB
p5268
aVWYNN
p5269
aVADBE
p5270
aVXEC
p5271
aVCXO
p5272
aVQCOM
p5273
aVSWKS
p5274
aVQRVO
p5275
aVALK
p5276
aVUAL
p5277
aVDOV
p5278
aVCMA
p5279
aVMSI
p5280
aVUTX
p5281
aVILMN
p5282
aVCAT
p5283
aVNVDA
p5284
aVSNA
p5285
aVPH
p5286
aVURI
p5287
aVAMP
p5288
asS'03262015'
p5289
(lp5290
VADBE
p5291
aVSWKS
p5292
aVAKAM
p5293
aVMET
p5294
aVVRSN
p5295
aVAVY
p5296
aVTSO
p5297
aVLB
p5298
aVPKI
p5299
asS'12152016'
p5300
(lp5301
VRL
p5302
aVWYNN
p5303
aVAMP
p5304
aVEQT
p5305
aVJEC
p5306
aVCAT
p5307
aVROK
p5308
aVNVDA
p5309
aVLNC
p5310
aVTIF
p5311
aVPFG
p5312
aVCMA
p5313
aVUAL
p5314
aVAXP
p5315
aVJPM
p5316
aVDD
p5317
aVDOV
p5318
aVILMN
p5319
asS'11232016'
p5320
(lp5321
VFFIV
p5322
aVTIF
p5323
aVBA
p5324
aVPFG
p5325
aVDD
p5326
aVMSI
p5327
aVROK
p5328
aVCVX
p5329
aVSWKS
p5330
aVDOV
p5331
aVKSU
p5332
aVCMA
p5333
aVCAT
p5334
aVLNC
p5335
aVOKE
p5336
aVSNA
p5337
aVUAL
p5338
aVILMN
p5339
aVURI
p5340
aVAMP
p5341
aVNVDA
p5342
aVWYNN
p5343
aVSHW
p5344
asS'12152015'
p5345
(lp5346
VREGN
p5347
aVFISV
p5348
aVABC
p5349
asS'06262015'
p5350
(lp5351
VKMX
p5352
aVR
aVSTZ
p5353
aVFFIV
p5354
aVADI
p5355
aVAKAM
p5356
aVADM
p5357
aVSTJ
p5358
aVCHRW
p5359
aVCNC
p5360
aVHES
p5361
aVADBE
p5362
aVCELG
p5363
asS'02052016'
p5364
(lp5365
VILMN
p5366
aVREGN
p5367
aVLLY
p5368
aVGILD
p5369
aVWYN
p5370
aVED
p5371
asS'02222016'
p5372
(lp5373
VED
p5374
aVSCG
p5375
aVFB
p5376
aVAVY
p5377
aVADBE
p5378
aVABC
p5379
aVGILD
p5380
aVILMN
p5381
asS'04252016'
p5382
(lp5383
VALK
p5384
aVSCG
p5385
aVGPC
p5386
aVADBE
p5387
aVCME
p5388
aVXOM
p5389
aVCELG
p5390
aVKSU
p5391
aVPCLN
p5392
asS'03022015'
p5393
(lp5394
VBBBY
p5395
aVBLL
p5396
aVLNC
p5397
aVMCHP
p5398
aVCMCSA
p5399
aVGILD
p5400
aVMET
p5401
aVVRSN
p5402
aVSWKS
p5403
aVTIF
p5404
aVWBA
p5405
asS'03022016'
p5406
(lp5407
VSCG
p5408
aVAEP
p5409
aVMKC
p5410
aVAET
p5411
aVHCN
p5412
aVTSO
p5413
aVPCLN
p5414
asS'10312016'
p5415
(lp5416
VSHW
p5417
aVXEC
p5418
aVILMN
p5419
aVCAT
p5420
aVSWKS
p5421
aVSTZ
p5422
aVPCLN
p5423
aVURI
p5424
aVTIF
p5425
aVEQT
p5426
aVWYNN
p5427
aVFB
p5428
aVNVDA
p5429
aVSNA
p5430
aVAPD
p5431
aVAXP
p5432
asS'10062016'
p5433
(lp5434
VAYI
p5435
aVAPD
p5436
aVWYNN
p5437
aVPSA
p5438
aVDLR
p5439
aVTIF
p5440
aVDGX
p5441
aVTEL
p5442
aVEQT
p5443
aVNVDA
p5444
aVUTX
p5445
aVDE
p5446
aVSWKS
p5447
aVAMP
p5448
aVPH
p5449
aVSNA
p5450
aVILMN
p5451
aVDOV
p5452
aVURI
p5453
aVPCLN
p5454
asS'04022015'
p5455
(lp5456
VSWKS
p5457
aVULTA
p5458
aVAKAM
p5459
aVADBE
p5460
aVAXP
p5461
aVMET
p5462
aVHON
p5463
aVVRSN
p5464
aVDLR
p5465
aVTDG
p5466
asS'03192015'
p5467
(lp5468
VBLL
p5469
aVVRSN
p5470
aVMET
p5471
aVAKAM
p5472
aVAVY
p5473
aVKMX
p5474
aVEXPE
p5475
aVBBBY
p5476
aVAYI
p5477
aVWBA
p5478
aVAXP
p5479
aVSWKS
p5480
asS'11242015'
p5481
(lp5482
VFISV
p5483
aVMRK
p5484
aVGD
p5485
aVAPH
p5486
aVEL
p5487
aVTSO
p5488
aVALK
p5489
asS'04122016'
p5490
(lp5491
VPCLN
p5492
aVTSO
p5493
aVGPC
p5494
aVWBA
p5495
aVSPG
p5496
aVADBE
p5497
aVXOM
p5498
aVTXN
p5499
aVKSU
p5500
aVSHW
p5501
aVCELG
p5502
asS'06292016'
p5503
(lp5504
VPCLN
p5505
aVWYNN
p5506
aVPXD
p5507
aVRHT
p5508
aVPPG
p5509
aVADBE
p5510
aVDD
p5511
aVUNP
p5512
aVCOL
p5513
aVXEC
p5514
aVAPA
p5515
aVEQT
p5516
aVGPC
p5517
aVMKC
p5518
aVDLR
p5519
aVORLY
p5520
asS'10142015'
p5521
(lp5522
VLRCX
p5523
aVSTZ
p5524
aVHES
p5525
aVNFLX
p5526
aVPCLN
p5527
asS'10142016'
p5528
(lp5529
VPCLN
p5530
aVILMN
p5531
aVROP
p5532
aVWYNN
p5533
aVEQT
p5534
aVSYK
p5535
aVNVDA
p5536
aVSNA
p5537
aVFB
p5538
aVQCOM
p5539
aVDGX
p5540
aVJEC
p5541
aVURI
p5542
aVTIF
p5543
aVSWKS
p5544
aVPSA
p5545
aVJWN
p5546
asS'03312016'
p5547
(lp5548
VPCLN
p5549
aVSHW
p5550
aVCXO
p5551
aVKSU
p5552
aVTSN
p5553
aVOXY
p5554
aVXRAY
p5555
aVGPC
p5556
aVTXN
p5557
aVAEP
p5558
aVHCN
p5559
aVFISV
p5560
aVSPG
p5561
aVMKC
p5562
aVADBE
p5563
asS'03312015'
p5564
(lp5565
VADBE
p5566
aVAKAM
p5567
aVSWKS
p5568
aVC
aVAXP
p5569
aVLNC
p5570
aVTSO
p5571
aVMET
p5572
aVABBV
p5573
aVORLY
p5574
aVVRSN
p5575
aVBBBY
p5576
aVDLR
p5577
asS'11172016'
p5578
(lp5579
VFB
p5580
aVQCOM
p5581
aVWYNN
p5582
aVSWKS
p5583
aVBA
p5584
aVDOV
p5585
aVMSI
p5586
aVCMA
p5587
aVCAT
p5588
aVILMN
p5589
aVLNC
p5590
aVSNA
p5591
aVPH
p5592
aVURI
p5593
aVNVDA
p5594
aVSHW
p5595
aVAMP
p5596
asS'11172015'
p5597
(lp5598
VPCLN
p5599
aVGD
p5600
aVFISV
p5601
aVNFLX
p5602
asS'05032016'
p5603
(lp5604
VDLPH
p5605
aVADBE
p5606
aVSIG
p5607
aVKSU
p5608
aVWBA
p5609
aVSCG
p5610
aVCME
p5611
aVXOM
p5612
aVPCLN
p5613
aVPXD
p5614
asS'07252016'
p5615
(lp5616
VAPA
p5617
aVPSA
p5618
aVAWK
p5619
aVWBA
p5620
aVPXD
p5621
aVUNP
p5622
aVLEG
p5623
aVADBE
p5624
aVRHT
p5625
aVFIS
p5626
aVSLB
p5627
aVAYI
p5628
aVNVDA
p5629
aVAN
p5630
aVAXP
p5631
aVDD
p5632
aVHAR
p5633
aVPCLN
p5634
aVURI
p5635
asS'09212015'
p5636
(lp5637
VABBV
p5638
aVFISV
p5639
aVNFLX
p5640
asS'08112016'
p5641
(lp5642
VPSA
p5643
aVTRIP
p5644
aVAWK
p5645
aVSHW
p5646
aVEQT
p5647
aVEMR
p5648
aVCME
p5649
aVSNA
p5650
aVAIZ
p5651
aVNVDA
p5652
aVWYNN
p5653
aVADBE
p5654
aVPH
p5655
asS'03052015'
p5656
(lp5657
VEOG
p5658
aVBLL
p5659
aVBBBY
p5660
aVHON
p5661
aVDLR
p5662
aVAVY
p5663
aVMCHP
p5664
aVLNC
p5665
aVBWA
p5666
aVAKAM
p5667
aVTRIP
p5668
aVCMCSA
p5669
aVCMG
p5670
aVAXP
p5671
aVSWKS
p5672
asS'06062016'
p5673
(lp5674
VSIG
p5675
aVXEC
p5676
aVAPA
p5677
aVXOM
p5678
aVOXY
p5679
aVSHW
p5680
aVJEC
p5681
aVALB
p5682
aVADSK
p5683
aVADBE
p5684
aVGPC
p5685
aVTSO
p5686
aVMCK
p5687
aVURI
p5688
asS'08042015'
p5689
(lp5690
VMYL
p5691
aVTSO
p5692
aVAIG
p5693
aVABBV
p5694
aVKSS
p5695
aVPVH
p5696
aVCNC
p5697
aVFIS
p5698
aVDLPH
p5699
aVEQT
p5700
aVNOC
p5701
asS'08042016'
p5702
(lp5703
VPSA
p5704
aVAYI
p5705
aVALB
p5706
aVEQT
p5707
aVTEL
p5708
aVSIG
p5709
aVWBA
p5710
aVADBE
p5711
aVHES
p5712
aVNVDA
p5713
aVWYNN
p5714
aVRHT
p5715
aVHAR
p5716
aVILMN
p5717
aVPCLN
p5718
asS'01272017'
p5719
(lp5720
VWHR
p5721
aVADP
p5722
aVOKE
p5723
aVCVX
p5724
aVAXP
p5725
aVAME
p5726
aVQRVO
p5727
asS'01272016'
p5728
(lp5729
VREGN
p5730
aVTSO
p5731
aVILMN
p5732
aVADBE
p5733
aVGILD
p5734
aVTEL
p5735
aVOXY
p5736
asS'09182015'
p5737
(lp5738
VABBV
p5739
aVFISV
p5740
aVNFLX
p5741
asS'01222016'
p5742
(lp5743
VAMZN
p5744
aVREGN
p5745
aVTSO
p5746
aVGILD
p5747
aVTEL
p5748
asS'04152016'
p5749
(lp5750
VFB
p5751
aVTSO
p5752
aVWBA
p5753
aVFISV
p5754
aVSCG
p5755
aVALK
p5756
aVHON
p5757
aVXOM
p5758
aVAPA
p5759
aVKSU
p5760
aVOXY
p5761
aVPCLN
p5762
asS'04152015'
p5763
(lp5764
VTSO
p5765
aVSWKS
p5766
aVALLE
p5767
aVAMP
p5768
aVWAT
p5769
aVSTZ
p5770
aVVRSN
p5771
aVLNC
p5772
asS'04272015'
p5773
(lp5774
VSWKS
p5775
aVALLE
p5776
aVDPS
p5777
aVLNC
p5778
aVPFG
p5779
aVAAL
p5780
asS'04272016'
p5781
(lp5782
VALK
p5783
aVAYI
p5784
aVSCG
p5785
aVACN
p5786
aVHON
p5787
aVXRAY
p5788
aVXOM
p5789
aVCME
p5790
aVAET
p5791
aVKSU
p5792
aVPCLN
p5793
asS'05122015'
p5794
(lp5795
VPRGO
p5796
aVR
aVCMCSA
p5797
aVSTJ
p5798
aVKMX
p5799
aVEQT
p5800
aVSWKS
p5801
aVLNC
p5802
aVCNC
p5803
aVADM
p5804
aVLOW
p5805
asS'05122016'
p5806
(lp5807
VPCLN
p5808
aVKSU
p5809
aVDLPH
p5810
aVTSO
p5811
aVSIG
p5812
aVPRU
p5813
aVAPA
p5814
aVSHW
p5815
aVXOM
p5816
aVXEC
p5817
aVXRAY
p5818
aVCME
p5819
aVMKC
p5820
aVICE
p5821
asS'02192015'
p5822
(lp5823
VCMG
p5824
aVDLR
p5825
aVAXP
p5826
aVSWKS
p5827
aVWBA
p5828
aVABBV
p5829
aVMCHP
p5830
aVKMX
p5831
aVLNC
p5832
aVTIF
p5833
aVSPGI
p5834
aVAKAM
p5835
asS'05272015'
p5836
(lp5837
VEQT
p5838
aVMYL
p5839
aVTSO
p5840
aVLOW
p5841
aVR
aVALLE
p5842
aVSTJ
p5843
aVBWA
p5844
aVMET
p5845
aVAMP
p5846
aVHUM
p5847
asS'05272016'
p5848
(lp5849
VSIG
p5850
aVSHW
p5851
aVPSA
p5852
aVXOM
p5853
aVJEC
p5854
aVXEC
p5855
aVVMC
p5856
aVGPC
p5857
aVAET
p5858
aVTSO
p5859
aVADBE
p5860
aVCME
p5861
aVWYNN
p5862
aVPCLN
p5863
asS'08242016'
p5864
(lp5865
VWYNN
p5866
aVSHW
p5867
aVILMN
p5868
aVHAR
p5869
aVTSN
p5870
aVNVDA
p5871
aVPRU
p5872
aVPSA
p5873
aVURI
p5874
aVDOV
p5875
aVAYI
p5876
aVGPN
p5877
aVHES
p5878
aVBHI
p5879
aVDLPH
p5880
aVEQT
p5881
asS'08242015'
p5882
(lp5883
VLLL
p5884
aVAKAM
p5885
aVKSS
p5886
aVSTZ
p5887
aVSTJ
p5888
aVCI
p5889
aVNFLX
p5890
asS'11302016'
p5891
(lp5892
VSNA
p5893
aVPVH
p5894
aVPFG
p5895
aVMSI
p5896
aVBHI
p5897
aVSWKS
p5898
aVTEL
p5899
aVLNC
p5900
aVBA
p5901
aVCVX
p5902
aVDOV
p5903
aVUAL
p5904
aVAMP
p5905
aVDD
p5906
aVTIF
p5907
aVNVDA
p5908
aVEQT
p5909
aVILMN
p5910
aVWYNN
p5911
aVSHW
p5912
asS'01062017'
p5913
(lp5914
VBLK
p5915
aVGWW
p5916
aVKSS
p5917
aVUAL
p5918
aVCVX
p5919
aVADI
p5920
aVJPM
p5921
aVLNC
p5922
aVSWKS
p5923
aVKSU
p5924
aVAXP
p5925
aVAMP
p5926
aVDOV
p5927
aVBIIB
p5928
asS'11302015'
p5929
(lp5930
VFISV
p5931
aVTSO
p5932
aVMET
p5933
aVULTA
p5934
aVALK
p5935
aVEFX
p5936
aVEW
p5937
asS'09042015'
p5938
(lp5939
VNOC
p5940
aVCNC
p5941
aVNFLX
p5942
asS'10072016'
p5943
(lp5944
VAYI
p5945
aVAPD
p5946
aVWYNN
p5947
aVPSA
p5948
aVDGX
p5949
aVNVDA
p5950
aVEQT
p5951
aVUTX
p5952
aVAMP
p5953
aVPH
p5954
aVSNA
p5955
aVSWKS
p5956
aVILMN
p5957
aVDOV
p5958
aVURI
p5959
aVPCLN
p5960
asS'10262016'
p5961
(lp5962
VILMN
p5963
aVAMP
p5964
aVCAT
p5965
aVEQT
p5966
aVSWKS
p5967
aVURI
p5968
aVOKE
p5969
aVJWN
p5970
aVTIF
p5971
aVUAL
p5972
aVJEC
p5973
aVWYNN
p5974
aVFB
p5975
aVNVDA
p5976
asS'10262015'
p5977
(lp5978
VSTJ
p5979
aVSTZ
p5980
aVNFLX
p5981
aVTSS
p5982
aVVNO
p5983
aVPCLN
p5984
asS'07052016'
p5985
(lp5986
VWYNN
p5987
aVRHT
p5988
aVURI
p5989
aVPXD
p5990
aVDD
p5991
aVCOL
p5992
aVADBE
p5993
aVEQT
p5994
aVUNP
p5995
aVEMR
p5996
aVWBA
p5997
aVSLB
p5998
aVFISV
p5999
aVDLR
p6000
aVORLY
p6001
aVPSA
p6002
asS'03122015'
p6003
(lp6004
VAYI
p6005
aVCELG
p6006
aVADBE
p6007
aVHUM
p6008
aVVRSN
p6009
aVAVY
p6010
aVAKAM
p6011
aVLNC
p6012
aVABBV
p6013
aVBBBY
p6014
aVDLR
p6015
aVMET
p6016
aVWBA
p6017
aVSWKS
p6018
aVAXP
p6019
aVCMG
p6020
asS'03132015'
p6021
(lp6022
VAYI
p6023
aVCELG
p6024
aVVRSN
p6025
aVAKAM
p6026
aVAVY
p6027
aVLNC
p6028
aVHUM
p6029
aVBBBY
p6030
aVMET
p6031
aVWBA
p6032
aVHCA
p6033
aVSWKS
p6034
aVAXP
p6035
aVCMG
p6036
asS'01182017'
p6037
(lp6038
VJPM
p6039
aVCVX
p6040
aVOKE
p6041
aVJEC
p6042
aVAXP
p6043
aVAME
p6044
aVKSU
p6045
asS'11222016'
p6046
(lp6047
VTIF
p6048
aVBA
p6049
aVDD
p6050
aVPFG
p6051
aVFFIV
p6052
aVMSI
p6053
aVCVX
p6054
aVSWKS
p6055
aVKSU
p6056
aVDOV
p6057
aVC
aVROK
p6058
aVOKE
p6059
aVCAT
p6060
aVCMA
p6061
aVKMX
p6062
aVLNC
p6063
aVSNA
p6064
aVUAL
p6065
aVILMN
p6066
aVAMP
p6067
aVNVDA
p6068
asS'11052015'
p6069
(lp6070
VWBA
p6071
aVEA
p6072
aVMET
p6073
aVALK
p6074
aVLRCX
p6075
aVTSO
p6076
aVNFLX
p6077
asS'01252017'
p6078
(lp6079
VNVDA
p6080
aVOKE
p6081
aVCVX
p6082
aVAXP
p6083
aVCTSH
p6084
aVLNC
p6085
aVOMC
p6086
aVAME
p6087
aVBA
p6088
aVPNR
p6089
aVKSU
p6090
asS'10022015'
p6091
(lp6092
VAVY
p6093
aVDLPH
p6094
aVNFLX
p6095
asS'03162015'
p6096
(lp6097
VAYI
p6098
aVVRSN
p6099
aVADBE
p6100
aVCELG
p6101
aVAVY
p6102
aVEXPE
p6103
aVDLR
p6104
aVHCA
p6105
aVBBBY
p6106
aVABBV
p6107
aVWBA
p6108
aVAXP
p6109
aVSWKS
p6110
asS'01112016'
p6111
(lp6112
VREGN
p6113
aVAAPL
p6114
aVADI
p6115
aVNFLX
p6116
aVFISV
p6117
aVAET
p6118
aVTSO
p6119
asS'01112017'
p6120
(lp6121
VGWW
p6122
aVCVX
p6123
aVVMC
p6124
aVUAL
p6125
aVJPM
p6126
aVLNC
p6127
aVTIF
p6128
aVKSU
p6129
aVAXP
p6130
aVAMP
p6131
aVSWKS
p6132
aVPVH
p6133
aVILMN
p6134
asS'09102015'
p6135
(lp6136
VMNST
p6137
aVNOC
p6138
aVPVH
p6139
aVTSO
p6140
aVSWKS
p6141
aVNFLX
p6142
asS'07232015'
p6143
(lp6144
VCNC
p6145
aVDLPH
p6146
aVADBE
p6147
aVFIS
p6148
aVALLE
p6149
aVSWKS
p6150
aVAKAM
p6151
aVPRGO
p6152
asS'09152016'
p6153
(lp6154
VAYI
p6155
aVXEC
p6156
aVPCLN
p6157
aVSHW
p6158
aVURI
p6159
aVVTR
p6160
aVDOV
p6161
aVPSA
p6162
aVNVDA
p6163
aVJEC
p6164
aVCAT
p6165
aVILMN
p6166
aVSWKS
p6167
aVQRVO
p6168
aVWYNN
p6169
asS'01212016'
p6170
(lp6171
VREGN
p6172
aVTSO
p6173
aVGILD
p6174
aVTEL
p6175
asS'09152015'
p6176
(lp6177
VMNST
p6178
aVABBV
p6179
aVTSO
p6180
aVHUM
p6181
aVNFLX
p6182
asS'06182015'
p6183
(lp6184
VAVGO
p6185
aVAKAM
p6186
aVADM
p6187
aVEQT
p6188
aVSTZ
p6189
aVALLE
p6190
aVADI
p6191
aVR
aVSTJ
p6192
aVAXP
p6193
aVGS
p6194
aVAIG
p6195
aVEMN
p6196
aVLH
p6197
aVVRSN
p6198
aVKSS
p6199
aVCNC
p6200
asS'02032016'
p6201
(lp6202
VREGN
p6203
aVILMN
p6204
aVLLY
p6205
aVABC
p6206
aVADBE
p6207
aVED
p6208
aVADI
p6209
asS'02032017'
p6210
(lp6211
VILMN
p6212
aVCTSH
p6213
aVCVX
p6214
aVUAL
p6215
aVMLM
p6216
aVPNR
p6217
aVAME
p6218
aVPFG
p6219
aVFL
p6220
aVQRVO
p6221
aVWDC
p6222
asS'01202016'
p6223
(lp6224
VREGN
p6225
aVTSO
p6226
aVGILD
p6227
aVTEL
p6228
asS'01202017'
p6229
(lp6230
VCVX
p6231
aVOKE
p6232
aVLNC
p6233
aVBA
p6234
aVLVLT
p6235
aVKSU
p6236
aVILMN
p6237
asS'02132015'
p6238
(lp6239
VCMG
p6240
aVDLR
p6241
aVSWKS
p6242
aVAXP
p6243
aVFIS
p6244
aVUNP
p6245
aVKMX
p6246
aVLNC
p6247
aVAKAM
p6248
aVBLL
p6249
aVGS
p6250
aVAMZN
p6251
asS'10272016'
p6252
(lp6253
VILMN
p6254
aVPCLN
p6255
aVAMP
p6256
aVCAT
p6257
aVSTZ
p6258
aVEQT
p6259
aVSWKS
p6260
aVURI
p6261
aVTIF
p6262
aVUAL
p6263
aVTEL
p6264
aVWYNN
p6265
aVJEC
p6266
aVFB
p6267
aVAPD
p6268
aVSNA
p6269
aVAXP
p6270
asS'03242015'
p6271
(lp6272
VTDG
p6273
aVADBE
p6274
aVMET
p6275
aVVRSN
p6276
aVLB
p6277
aVWBA
p6278
aVPKI
p6279
aVEXPE
p6280
aVSWKS
p6281
aVAAL
p6282
asS'03242016'
p6283
(lp6284
VPCLN
p6285
aVKSU
p6286
aVAPA
p6287
aVGPC
p6288
aVHCN
p6289
aVXOM
p6290
aVFISV
p6291
aVALK
p6292
aVTXN
p6293
aVADBE
p6294
asS'01292016'
p6295
(lp6296
VREGN
p6297
aVILMN
p6298
aVGILD
p6299
aVADBE
p6300
aVTEL
p6301
aVLB
p6302
aVMKC
p6303
aVOXY
p6304
asS'05022016'
p6305
(lp6306
VAYI
p6307
aVSIG
p6308
aVACN
p6309
aVADBE
p6310
aVXEC
p6311
aVKSU
p6312
aVPCLN
p6313
aVAET
p6314
aVXOM
p6315
aVPXD
p6316
asS'12222016'
p6317
(lp6318
VPVH
p6319
aVAMP
p6320
aVKSS
p6321
aVTIF
p6322
aVEQT
p6323
aVJEC
p6324
aVCAT
p6325
aVLNC
p6326
aVCMA
p6327
aVPFG
p6328
aVUAL
p6329
aVDOV
p6330
aVJPM
p6331
aVAXP
p6332
aVKSU
p6333
aVSWKS
p6334
aVILMN
p6335
asS'10292015'
p6336
(lp6337
VSTZ
p6338
aVALK
p6339
aVLRCX
p6340
aVPCLN
p6341
asS'02292016'
p6342
(lp6343
VAEP
p6344
aVMKC
p6345
aVGILD
p6346
aVAET
p6347
aVTSO
p6348
aVPCLN
p6349
asS'10112016'
p6350
(lp6351
VILMN
p6352
aVPCLN
p6353
aVAPD
p6354
aVPSA
p6355
aVWYNN
p6356
aVDOV
p6357
aVNVDA
p6358
aVTEL
p6359
aVSNA
p6360
aVFB
p6361
aVPH
p6362
aVEQT
p6363
aVTIF
p6364
aVJWN
p6365
aVSWKS
p6366
aVURI
p6367
asS'04192016'
p6368
(lp6369
VWBA
p6370
aVSCG
p6371
aVALK
p6372
aVAPA
p6373
aVOXY
p6374
aVKSU
p6375
aVPCLN
p6376
asS'08202015'
p6377
(lp6378
VHAR
p6379
aVKSS
p6380
aVGS
p6381
aVLLL
p6382
aVPKI
p6383
aVCME
p6384
aVSTJ
p6385
aVPVH
p6386
aVSTZ
p6387
aVHUM
p6388
aVAET
p6389
aVAZO
p6390
aVNFLX
p6391
asS'05212015'
p6392
(lp6393
VMNST
p6394
aVMYL
p6395
aVEQT
p6396
aVR
aVALLE
p6397
aVLNC
p6398
aVMET
p6399
aVSTJ
p6400
aVWBA
p6401
aVAMP
p6402
aVKR
p6403
aVHUM
p6404
asS'10052016'
p6405
(lp6406
VAYI
p6407
aVWYNN
p6408
aVPSA
p6409
aVDLR
p6410
aVFB
p6411
aVTIF
p6412
aVDGX
p6413
aVSWKS
p6414
aVUTX
p6415
aVAMP
p6416
aVALK
p6417
aVPH
p6418
aVNVDA
p6419
aVSNA
p6420
aVQCOM
p6421
aVILMN
p6422
aVDOV
p6423
aVPCLN
p6424
asS'10052015'
p6425
(lp6426
VNFLX
p6427
asS'05112015'
p6428
(lp6429
VR
aVCMCSA
p6430
aVEQT
p6431
aVSTJ
p6432
aVGS
p6433
aVSWKS
p6434
aVLNC
p6435
aVEA
p6436
asS'12272016'
p6437
(lp6438
VAMP
p6439
aVTIF
p6440
aVJEC
p6441
aVEQT
p6442
aVLNC
p6443
aVCAT
p6444
aVUAL
p6445
aVPFG
p6446
aVDOV
p6447
aVJPM
p6448
aVAXP
p6449
aVADI
p6450
aVSTZ
p6451
aVKSU
p6452
aVPSA
p6453
aVSWKS
p6454
asS'12222015'
p6455
(lp6456
VREGN
p6457
aVAAPL
p6458
aVADI
p6459
asS'01092017'
p6460
(lp6461
VBLK
p6462
aVGWW
p6463
aVUAL
p6464
aVCVX
p6465
aVJPM
p6466
aVADI
p6467
aVLNC
p6468
aVTIF
p6469
aVCAT
p6470
aVKSU
p6471
aVSWKS
p6472
aVAXP
p6473
aVDOV
p6474
aVAMP
p6475
aVBIIB
p6476
aVILMN
p6477
asS'07102015'
p6478
(lp6479
VCNC
p6480
aVGS
p6481
aVADI
p6482
aVAXP
p6483
aVADBE
p6484
aVSTZ
p6485
aVAIG
p6486
aVEL
p6487
aVAKAM
p6488
aVR
aVSTJ
p6489
aVFIS
p6490
aVNOC
p6491
as.