(dp1
S'12022016'
p2
(lp3
VPCLN
p4
aVBIIB
p5
aVMLM
p6
aVVMC
p7
aVMHK
p8
aVTDG
p9
aVSTZ
p10
aVADBE
p11
aVAMZN
p12
aVSNA
p13
aVLRCX
p14
aVPVH
p15
aVNFLX
p16
aVFISV
p17
aVINTU
p18
aVAMP
p19
aVAYI
p20
aVROP
p21
aVNEE
p22
aVILMN
p23
aVCVX
p24
aVEQIX
p25
aVCMI
p26
aVPX
p27
aVUNP
p28
aVIFF
p29
aVBXP
p30
aVAGN
p31
aVSHW
p32
aVAPD
p33
aVLLL
p34
aVORLY
p35
aVURI
p36
aVWYNN
p37
aVMCK
p38
aVXEC
p39
asS'03232016'
p40
(lp41
VPCLN
p42
aVAZO
p43
aVSJM
p44
aVAET
p45
aVPEP
p46
aVCVS
p47
aVSPG
p48
aVHON
p49
aVACN
p50
aVEFX
p51
aVPXD
p52
aVICE
p53
aVWHR
p54
aVAMG
p55
aVGOOG
p56
asS'03232015'
p57
(lp58
VPCLN
p59
aVBA
p60
aVMON
p61
aVXEC
p62
aVICE
p63
aVROP
p64
aVDIS
p65
aVAVGO
p66
aVPH
p67
aVAMP
p68
aVLLL
p69
aVFFIV
p70
aVHON
p71
aVHSY
p72
aVGWW
p73
aVUNH
p74
aVJNJ
p75
aVAYI
p76
aVPXD
p77
aVUHS
p78
aVAET
p79
aVPVH
p80
aVCELG
p81
aVMNK
p82
aVMCO
p83
aVTMO
p84
aVANTM
p85
aVSIG
p86
aVPRGO
p87
aVRL
p88
aVHUM
p89
aVCMG
p90
aVBIIB
p91
asS'12022015'
p92
(lp93
VREGN
p94
aVPCLN
p95
aVORLY
p96
aVDIS
p97
aVGOOG
p98
aVLLL
p99
aVTSO
p100
aVEXPE
p101
aVNOC
p102
aVWAT
p103
aVPRGO
p104
aVGILD
p105
aVAMGN
p106
aVIFF
p107
aVSRCL
p108
aVWHR
p109
aVEW
p110
aVAET
p111
aVUNH
p112
aVAVGO
p113
asS'09012015'
p114
(lp115
VPCLN
p116
aVCMG
p117
aVAMZN
p118
aVEQIX
p119
aVORLY
p120
aVNOC
p121
aVFFIV
p122
aVMNST
p123
aVPRGO
p124
aVVRTX
p125
aVRTN
p126
aVTMO
p127
aVUHS
p128
aVMLM
p129
aVGS
p130
aVSRCL
p131
aVGPN
p132
aVLLL
p133
aVLH
p134
aVUNH
p135
aVCVS
p136
aVHUM
p137
aVCXO
p138
aVPVH
p139
aVNFLX
p140
asS'09012016'
p141
(lp142
VPCLN
p143
aVBIIB
p144
aVORLY
p145
aVILMN
p146
aVCELG
p147
aVAYI
p148
aVNOC
p149
aVPH
p150
aVSHW
p151
aVTDG
p152
aVFFIV
p153
aVEW
p154
aVBLK
p155
aVZBH
p156
aVSTZ
p157
aVESS
p158
aVXEC
p159
aVAPD
p160
aVAMG
p161
aVSNA
p162
aVADBE
p163
aVCME
p164
aVFISV
p165
aVMCO
p166
aVAMP
p167
aVTAP
p168
aVPSA
p169
asS'07312015'
p170
(lp171
VLLL
p172
aVGS
p173
aVROK
p174
aVAVGO
p175
aVORLY
p176
aVUHS
p177
aVUNH
p178
aVMON
p179
aVANTM
p180
aVHUM
p181
aVMNK
p182
aVMLM
p183
aVPVH
p184
aVMTB
p185
aVACN
p186
aVHON
p187
aVHAR
p188
aVSTZ
p189
aVVRTX
p190
aVEFX
p191
aVBF-B
p192
aVLH
p193
aVNOC
p194
aVCXO
p195
aVEXPE
p196
aVPRGO
p197
aVFFIV
p198
asS'08132015'
p199
(lp200
VCMG
p201
aVAMZN
p202
aVMNK
p203
aVMNST
p204
aVTMO
p205
aVGS
p206
aVLLL
p207
aVLH
p208
aVCOST
p209
aVANTM
p210
aVACN
p211
aVPRGO
p212
aVUNH
p213
aVBF-B
p214
aVROK
p215
aVRTN
p216
aVAVGO
p217
aVVRTX
p218
aVMON
p219
aVEXPE
p220
aVHAR
p221
aVTSO
p222
aVHUM
p223
aVORLY
p224
aVSRCL
p225
aVAYI
p226
aVSTZ
p227
aVPXD
p228
aVCXO
p229
aVNFLX
p230
asS'11072016'
p231
(lp232
VAGN
p233
aVPCLN
p234
aVXEC
p235
aVSHW
p236
aVSTZ
p237
aVPVH
p238
aVADBE
p239
aVPX
p240
aVAYI
p241
aVNEE
p242
aVINTU
p243
aVBIIB
p244
aVTMO
p245
aVPH
p246
aVSNA
p247
aVROP
p248
aVGS
p249
aVCME
p250
aVILMN
p251
aVBDX
p252
aVMLM
p253
asS'08082016'
p254
(lp255
VPSA
p256
aVEQIX
p257
aVFISV
p258
aVISRG
p259
aVDLR
p260
aVEFX
p261
aVMCK
p262
aVSTZ
p263
aVBDX
p264
aVAMT
p265
aVHSY
p266
aVAGN
p267
aVSHW
p268
aVCTAS
p269
aVIFF
p270
aVAPD
p271
aVHON
p272
aVSPGI
p273
aVAON
p274
aVAYI
p275
aVCME
p276
aVEW
p277
aVCHD
p278
aVROP
p279
aVCELG
p280
aVILMN
p281
aVVRTX
p282
aVBLK
p283
aVPH
p284
aVAMZN
p285
aVBIIB
p286
asS'06302016'
p287
(lp288
VPCLN
p289
aVWHR
p290
aVPXD
p291
aVULTA
p292
aVPPG
p293
aVHON
p294
aVEQIX
p295
aVFB
p296
aVILMN
p297
aVXEC
p298
aVFISV
p299
aVROP
p300
aVPEP
p301
aVNOC
p302
aVDLR
p303
aVMKC
p304
aVISRG
p305
aVAAP
p306
aVORLY
p307
aVESS
p308
aVPSA
p309
asS'06302015'
p310
(lp311
VHUM
p312
aVAVGO
p313
aVCXO
p314
aVMON
p315
aVFFIV
p316
aVSWKS
p317
aVMNK
p318
aVAYI
p319
aVSTZ
p320
aVNOC
p321
aVAMP
p322
aVPXD
p323
aVBA
p324
aVHON
p325
aVSRCL
p326
aVSIG
p327
aVLLL
p328
aVPRGO
p329
aVMTB
p330
aVEXPE
p331
aVORLY
p332
aVPVH
p333
aVTMO
p334
aVLH
p335
aVCVS
p336
aVUNH
p337
aVCELG
p338
aVAET
p339
aVEW
p340
aVNKE
p341
aVUHS
p342
asS'12062016'
p343
(lp344
VBIIB
p345
aVMLM
p346
aVVMC
p347
aVRL
p348
aVMHK
p349
aVBDX
p350
aVISRG
p351
aVSTZ
p352
aVSNA
p353
aVPNC
p354
aVIBM
p355
aVTDG
p356
aVFISV
p357
aVPVH
p358
aVAMP
p359
aVAYI
p360
aVINTU
p361
aVILMN
p362
aVROP
p363
aVEQIX
p364
aVBA
p365
aVSHW
p366
aVCVX
p367
aVPH
p368
aVPX
p369
aVUNP
p370
aVNEE
p371
aVNFLX
p372
aVLLL
p373
aVBXP
p374
aVSLG
p375
aVIFF
p376
aVAPD
p377
aVAGN
p378
aVORLY
p379
aVURI
p380
aVAMZN
p381
aVMCK
p382
aVXEC
p383
asS'02082017'
p384
(lp385
VBIIB
p386
aVMLM
p387
aVILMN
p388
aVMA
p389
aVCVX
p390
aVFISV
p391
aVDLR
p392
aVBXP
p393
aVCXO
p394
aVPNC
p395
aVRTN
p396
aVLRCX
p397
aVMHK
p398
aVEXPE
p399
aVGD
p400
aVNVDA
p401
aVURI
p402
aVSPGI
p403
aVLLL
p404
aVAYI
p405
aVAGN
p406
aVISRG
p407
asS'10122016'
p408
(lp409
VILMN
p410
aVPCLN
p411
aVBIIB
p412
aVAYI
p413
aVAPD
p414
aVBLK
p415
aVCI
p416
aVROP
p417
aVSHW
p418
aVPSA
p419
aVTMO
p420
aVSLG
p421
aVCME
p422
aVSNA
p423
aVADBE
p424
aVPH
p425
aVAMP
p426
aVZBH
p427
aVAMT
p428
aVAMZN
p429
aVFISV
p430
aVPVH
p431
aVEQIX
p432
aVSTZ
p433
aVGOOG
p434
aVLRCX
p435
aVGS
p436
aVXEC
p437
asS'10122015'
p438
(lp439
VAVGO
p440
aVAZO
p441
aVHUM
p442
aVANTM
p443
aVUNH
p444
aVTDG
p445
aVVRTX
p446
aVCMG
p447
aVGPN
p448
aVNFLX
p449
aVPCLN
p450
asS'09272016'
p451
(lp452
VPCLN
p453
aVXEC
p454
aVGS
p455
aVCME
p456
aVPVH
p457
aVAYI
p458
aVPH
p459
aVWYNN
p460
aVSLG
p461
aVMCO
p462
aVAGN
p463
aVEQIX
p464
aVSTZ
p465
aVFISV
p466
aVAMT
p467
aVSNA
p468
aVILMN
p469
aVBIIB
p470
aVADBE
p471
aVGOOG
p472
aVSHW
p473
aVTMO
p474
aVPSA
p475
aVAMZN
p476
asS'04232015'
p477
(lp478
VCMG
p479
aVAZO
p480
aVMNK
p481
aVPVH
p482
aVBIIB
p483
aVSTZ
p484
aVPXD
p485
aVHUM
p486
aVUNH
p487
aVWAT
p488
aVAET
p489
aVHON
p490
aVCVS
p491
aVTDG
p492
aVNOC
p493
aVLLL
p494
aVUHS
p495
aVRL
p496
aVCXO
p497
aVGS
p498
aVORLY
p499
aVPRGO
p500
aVHAR
p501
aVFFIV
p502
aVGWW
p503
aVREGN
p504
asS'10132016'
p505
(lp506
VILMN
p507
aVPCLN
p508
aVBIIB
p509
aVIFF
p510
aVAPD
p511
aVAYI
p512
aVBLK
p513
aVAMZN
p514
aVBDX
p515
aVALXN
p516
aVSHW
p517
aVEW
p518
aVSNA
p519
aVMCO
p520
aVADBE
p521
aVCME
p522
aVPH
p523
aVPSA
p524
aVSLG
p525
aVPVH
p526
aVCVX
p527
aVGOOG
p528
aVNEE
p529
aVSTZ
p530
aVEQIX
p531
aVXEC
p532
asS'02092017'
p533
(lp534
VMLM
p535
aVBIIB
p536
aVILMN
p537
aVEOG
p538
aVMA
p539
aVCVX
p540
aVDLR
p541
aVFISV
p542
aVPSA
p543
aVCXO
p544
aVLRCX
p545
aVULTA
p546
aVPNC
p547
aVGD
p548
aVEXPE
p549
aVURI
p550
aVNVDA
p551
aVSPGI
p552
aVAMP
p553
aVLLL
p554
aVAYI
p555
aVISRG
p556
aVAGN
p557
aVTDG
p558
asS'06122015'
p559
(lp560
VPRGO
p561
aVMNK
p562
aVSWKS
p563
aVGWW
p564
aVTDG
p565
aVEXPE
p566
aVMON
p567
aVFFIV
p568
aVAET
p569
aVCELG
p570
aVINTU
p571
aVROK
p572
aVAMGN
p573
aVUNH
p574
aVHON
p575
aVSRCL
p576
aVUHS
p577
aVLLL
p578
aVCMG
p579
aVORLY
p580
aVNOC
p581
aVHAR
p582
aVPXD
p583
aVMNST
p584
aVLH
p585
aVPPG
p586
aVRL
p587
aVCXO
p588
asS'12182015'
p589
(lp590
VGOOG
p591
aVWHR
p592
aVLLL
p593
aVREGN
p594
aVACN
p595
aVSNA
p596
aVAVGO
p597
aVDIS
p598
aVUHS
p599
aVWAT
p600
aVGILD
p601
aVPEP
p602
aVMCD
p603
aVIBM
p604
aVAMGN
p605
aVABC
p606
aVPRGO
p607
aVGWW
p608
aVUNH
p609
aVSRCL
p610
aVAET
p611
aVANTM
p612
aVPCLN
p613
asS'05182016'
p614
(lp615
VPCLN
p616
aVBLK
p617
aVAZO
p618
aVWHR
p619
aVORLY
p620
aVEW
p621
aVAYI
p622
aVCMI
p623
aVMHK
p624
aVPXD
p625
aVHD
p626
aVESS
p627
aVMCD
p628
aVSHW
p629
aVPEP
p630
aVCXO
p631
aVHON
p632
aVBDX
p633
aVNOC
p634
aVVMC
p635
aVINTU
p636
aVXEC
p637
aVFISV
p638
aVTDG
p639
asS'05182015'
p640
(lp641
VPXD
p642
aVMNST
p643
aVCXO
p644
aVHAR
p645
aVGWW
p646
aVSIG
p647
aVRL
p648
aVDIS
p649
aVLH
p650
aVPRGO
p651
aVPVH
p652
aVFFIV
p653
aVSTZ
p654
aVAZO
p655
aVTMO
p656
aVMON
p657
aVBCR
p658
aVUHS
p659
aVROK
p660
aVHON
p661
aVLLL
p662
aVCELG
p663
aVHUM
p664
aVNFLX
p665
aVMNK
p666
asS'02272015'
p667
(lp668
VAMZN
p669
aVCXO
p670
aVHAR
p671
aVBA
p672
aVBIIB
p673
aVMON
p674
aVPXD
p675
aVHSY
p676
aVAMP
p677
aVISRG
p678
aVXEC
p679
aVHON
p680
aVROP
p681
aVMNK
p682
aVDNB
p683
aVWDC
p684
aVSIG
p685
aVZBH
p686
aVUNH
p687
aVGILD
p688
aVHD
p689
aVCELG
p690
aVICE
p691
aVPVH
p692
aVGWW
p693
aVPRGO
p694
aVUHS
p695
aVHUM
p696
aVREGN
p697
aVMNST
p698
aVPCLN
p699
asS'12112015'
p700
(lp701
VGOOG
p702
aVREGN
p703
aVWHR
p704
aVTSO
p705
aVTDG
p706
aVDIS
p707
aVNFLX
p708
aVAMGN
p709
aVTMO
p710
aVSNA
p711
aVWAT
p712
aVNOC
p713
aVEW
p714
aVGWW
p715
aVSRCL
p716
aVPRGO
p717
aVABC
p718
aVAET
p719
aVUNH
p720
aVAVGO
p721
aVPCLN
p722
asS'09282016'
p723
(lp724
VPCLN
p725
aVGS
p726
aVXEC
p727
aVCME
p728
aVALXN
p729
aVWYNN
p730
aVAYI
p731
aVPH
p732
aVSTZ
p733
aVFISV
p734
aVEQIX
p735
aVZBH
p736
aVAMT
p737
aVBIIB
p738
aVFFIV
p739
aVILMN
p740
aVGOOG
p741
aVADBE
p742
aVSHW
p743
aVTMO
p744
aVPSA
p745
aVAMZN
p746
asS'09282015'
p747
(lp748
VPCLN
p749
aVVRTX
p750
aVPRGO
p751
aVEQIX
p752
aVHUM
p753
aVTDG
p754
aVNOC
p755
aVUNH
p756
aVEW
p757
aVFFIV
p758
aVLLL
p759
aVORLY
p760
aVTSO
p761
aVNFLX
p762
asS'04162015'
p763
(lp764
VAZO
p765
aVHUM
p766
aVMNK
p767
aVBIIB
p768
aVSIG
p769
aVAVGO
p770
aVORLY
p771
aVEW
p772
aVTMO
p773
aVAET
p774
aVCVS
p775
aVSTZ
p776
aVRTN
p777
aVMCO
p778
aVWAT
p779
aVSHW
p780
aVLLL
p781
aVHON
p782
aVBA
p783
aVAMP
p784
aVHSY
p785
aVTDG
p786
aVHAR
p787
aVPVH
p788
aVKSU
p789
aVAMGN
p790
aVFFIV
p791
aVMON
p792
aVRL
p793
aVCXO
p794
aVPXD
p795
aVGWW
p796
aVCMG
p797
aVPRGO
p798
asS'05102016'
p799
(lp800
VPCLN
p801
aVAYI
p802
aVBLK
p803
aVWHR
p804
aVULTA
p805
aVEW
p806
aVMCK
p807
aVPXD
p808
aVCMI
p809
aVSPGI
p810
aVSWK
p811
aVHON
p812
aVROP
p813
aVSIG
p814
aVHUM
p815
aVXEC
p816
aVINTU
p817
aVACN
p818
aVHD
p819
aVGOOG
p820
aVPEP
p821
aVBDX
p822
aVFISV
p823
aVFB
p824
aVSPG
p825
aVEQIX
p826
aVNOC
p827
aVESS
p828
aVICE
p829
aVAMZN
p830
asS'02232016'
p831
(lp832
VFB
p833
aVICE
p834
aVLLL
p835
aVHON
p836
aVSHW
p837
aVUHS
p838
aVLMT
p839
aVTMO
p840
aVPXD
p841
aVAET
p842
aVEQIX
p843
aVGOOG
p844
aVBDX
p845
aVROP
p846
aVILMN
p847
aVAMG
p848
aVAYI
p849
aVAMZN
p850
aVPCLN
p851
asS'02232015'
p852
(lp853
VCMG
p854
aVHAR
p855
aVUNP
p856
aVAMZN
p857
aVSIG
p858
aVMNST
p859
aVAMP
p860
aVHD
p861
aVPXD
p862
aVGWW
p863
aVHON
p864
aVCELG
p865
aVDIS
p866
aVUNH
p867
aVBIIB
p868
aVROK
p869
aVMON
p870
aVBA
p871
aVUHS
p872
aVPRGO
p873
aVAVGO
p874
aVZBH
p875
aVANTM
p876
aVCMI
p877
aVCI
p878
aVROP
p879
aVMNK
p880
aVSPGI
p881
aVXEC
p882
aVPVH
p883
aVHUM
p884
aVWDC
p885
aVICE
p886
aVDNB
p887
aVREGN
p888
aVPCLN
p889
asS'08032016'
p890
(lp891
VPSA
p892
aVEQIX
p893
aVVMC
p894
aVMCK
p895
aVEFX
p896
aVINTU
p897
aVISRG
p898
aVAYI
p899
aVFISV
p900
aVDLR
p901
aVSTZ
p902
aVNOC
p903
aVAMT
p904
aVHSY
p905
aVPX
p906
aVSHW
p907
aVHON
p908
aVPEP
p909
aVIBM
p910
aVPM
p911
aVAPD
p912
aVTDG
p913
aVADS
p914
aVCTAS
p915
aVCME
p916
aVPH
p917
aVROP
p918
aVSPGI
p919
aVAGN
p920
aVEW
p921
aVAMZN
p922
aVAAPL
p923
aVBLK
p924
aVILMN
p925
aVPCLN
p926
aVBIIB
p927
asS'12212016'
p928
(lp929
VAYI
p930
aVCMI
p931
aVAMP
p932
aVLLL
p933
aVFDX
p934
aVCXO
p935
aVVMC
p936
aVXEC
p937
aVEOG
p938
aVPH
p939
aVPX
p940
aVSNA
p941
aVAPD
p942
aVMTB
p943
aVSHW
p944
aVBA
p945
aVPNC
p946
aVBXP
p947
aVINTU
p948
aVCVX
p949
aVFISV
p950
aVNFLX
p951
aVADBE
p952
aVSRE
p953
aVMHK
p954
aVSTZ
p955
aVBLK
p956
aVSYK
p957
aVWHR
p958
aVNVDA
p959
aVILMN
p960
aVAGN
p961
aVEQIX
p962
aVAMZN
p963
aVGOOGL
p964
asS'12212015'
p965
(lp966
VAZO
p967
aVGOOG
p968
aVREGN
p969
aVWHR
p970
aVLLL
p971
aVACN
p972
aVFDX
p973
aVAVGO
p974
aVWAT
p975
aVUHS
p976
aVPEP
p977
aVIBM
p978
aVMCD
p979
aVGILD
p980
aVABC
p981
aVUNH
p982
aVGWW
p983
aVSRCL
p984
aVAET
p985
aVPCLN
p986
asS'08032015'
p987
(lp988
VLLL
p989
aVGS
p990
aVROK
p991
aVAVGO
p992
aVUNH
p993
aVMTB
p994
aVMON
p995
aVANTM
p996
aVUHS
p997
aVPVH
p998
aVHUM
p999
aVMNK
p1000
aVCVS
p1001
aVHON
p1002
aVACN
p1003
aVEFX
p1004
aVHAR
p1005
aVSTZ
p1006
aVPXD
p1007
aVBF-B
p1008
aVLH
p1009
aVCXO
p1010
aVNOC
p1011
aVVRTX
p1012
aVPRGO
p1013
aVEXPE
p1014
aVFFIV
p1015
aVCMG
p1016
asS'07222016'
p1017
(lp1018
VEQIX
p1019
aVDLR
p1020
aVSHW
p1021
aVSJM
p1022
aVNOC
p1023
aVLLL
p1024
aVINTU
p1025
aVNEE
p1026
aVPSA
p1027
aVHON
p1028
aVXEC
p1029
aVFISV
p1030
aVULTA
p1031
aVPEP
p1032
aVAMT
p1033
aVSTZ
p1034
aVMCK
p1035
aVCME
p1036
aVPXD
p1037
aVSRCL
p1038
aVTDG
p1039
aVEW
p1040
aVPPG
p1041
aVPH
p1042
aVTMO
p1043
aVAPD
p1044
aVFB
p1045
aVAYI
p1046
aVCTAS
p1047
aVILMN
p1048
aVAGN
p1049
aVPCLN
p1050
aVBIIB
p1051
asS'11032015'
p1052
(lp1053
VGPN
p1054
aVSRCL
p1055
aVANTM
p1056
aVSTZ
p1057
aVACN
p1058
aVFB
p1059
aVHUM
p1060
aVHAR
p1061
aVAET
p1062
aVEW
p1063
aVGILD
p1064
aVTSO
p1065
aVWAT
p1066
aVLLL
p1067
aVNFLX
p1068
aVORLY
p1069
aVSHW
p1070
aVREGN
p1071
aVPCLN
p1072
asS'11032016'
p1073
(lp1074
VAMZN
p1075
aVPCLN
p1076
aVAGN
p1077
aVSHW
p1078
aVXEC
p1079
aVBIIB
p1080
aVAYI
p1081
aVCXO
p1082
aVFB
p1083
aVSTZ
p1084
aVPVH
p1085
aVTMO
p1086
aVADBE
p1087
aVPH
p1088
aVSNA
p1089
aVINTU
p1090
aVROP
p1091
aVBDX
p1092
aVILMN
p1093
aVNEE
p1094
aVGS
p1095
aVBA
p1096
aVMLM
p1097
asS'07222015'
p1098
(lp1099
VPXD
p1100
aVHAR
p1101
aVUHS
p1102
aVANTM
p1103
aVROK
p1104
aVCXO
p1105
aVUNH
p1106
aVHUM
p1107
aVSRCL
p1108
aVLH
p1109
aVSWKS
p1110
aVGPN
p1111
aVFFIV
p1112
aVMON
p1113
aVEXPE
p1114
aVACN
p1115
aVSTZ
p1116
aVNOC
p1117
aVCVS
p1118
aVIFF
p1119
aVHON
p1120
aVAMP
p1121
aVORLY
p1122
aVLLL
p1123
aVVRTX
p1124
aVMNK
p1125
aVMTB
p1126
aVPRGO
p1127
aVTMO
p1128
aVMNST
p1129
asS'12202016'
p1130
(lp1131
VAYI
p1132
aVCMI
p1133
aVAMP
p1134
aVGD
p1135
aVVMC
p1136
aVLLL
p1137
aVCXO
p1138
aVXEC
p1139
aVSHW
p1140
aVGWW
p1141
aVPH
p1142
aVFDX
p1143
aVSNA
p1144
aVEOG
p1145
aVBA
p1146
aVPX
p1147
aVAPD
p1148
aVPNC
p1149
aVSLG
p1150
aVBXP
p1151
aVINTU
p1152
aVCVX
p1153
aVMHK
p1154
aVFISV
p1155
aVADBE
p1156
aVWHR
p1157
aVSRE
p1158
aVNVDA
p1159
aVSYK
p1160
aVSTZ
p1161
aVTDG
p1162
aVBLK
p1163
aVILMN
p1164
aVAGN
p1165
aVAMZN
p1166
aVGOOGL
p1167
asS'02022016'
p1168
(lp1169
VREGN
p1170
aVILMN
p1171
aVAMZN
p1172
aVWAT
p1173
aVAET
p1174
aVAYI
p1175
aVNOC
p1176
aVAMG
p1177
aVACN
p1178
aVLLL
p1179
aVEQIX
p1180
aVGWW
p1181
aVAVGO
p1182
aVPCLN
p1183
aVGOOG
p1184
aVAZO
p1185
asS'11132015'
p1186
(lp1187
VPCLN
p1188
aVREGN
p1189
aVNOC
p1190
aVAYI
p1191
aVEXPE
p1192
aVHUM
p1193
aVAET
p1194
aVLLL
p1195
aVGILD
p1196
aVAVGO
p1197
aVEW
p1198
aVSTZ
p1199
aVWHR
p1200
aVPRGO
p1201
aVWAT
p1202
aVFB
p1203
aVTSO
p1204
aVSRCL
p1205
aVMTB
p1206
aVNFLX
p1207
aVVMC
p1208
asS'08172015'
p1209
(lp1210
VCMG
p1211
aVAMZN
p1212
aVMNST
p1213
aVTMO
p1214
aVGS
p1215
aVLH
p1216
aVLLL
p1217
aVACN
p1218
aVEQIX
p1219
aVNOC
p1220
aVRTN
p1221
aVHAR
p1222
aVANTM
p1223
aVFFIV
p1224
aVUNH
p1225
aVTSO
p1226
aVAVGO
p1227
aVEXPE
p1228
aVAYI
p1229
aVPRGO
p1230
aVSRCL
p1231
aVSTZ
p1232
aVHUM
p1233
aVCXO
p1234
aVORLY
p1235
aVSHW
p1236
aVTDG
p1237
aVAZO
p1238
aVNFLX
p1239
asS'10242016'
p1240
(lp1241
VAMZN
p1242
aVILMN
p1243
aVPCLN
p1244
aVBIIB
p1245
aVROP
p1246
aVFDX
p1247
aVPVH
p1248
aVPH
p1249
aVBDX
p1250
aVXEC
p1251
aVEW
p1252
aVFFIV
p1253
aVSTZ
p1254
aVVAR
p1255
aVCVX
p1256
aVAYI
p1257
aVADBE
p1258
aVAAPL
p1259
aVSLG
p1260
aVCME
p1261
aVPSA
p1262
aVINTU
p1263
aVNEE
p1264
aVMNST
p1265
aVSHW
p1266
aVSNA
p1267
aVGOOG
p1268
aVNFLX
p1269
asS'06012016'
p1270
(lp1271
VROP
p1272
aVNOC
p1273
aVEW
p1274
aVXEC
p1275
aVESS
p1276
aVSHW
p1277
aVBDX
p1278
aVSWK
p1279
aVVMC
p1280
aVPEP
p1281
aVAZO
p1282
aVACN
p1283
aVFISV
p1284
aVICE
p1285
aVITW
p1286
aVMHK
p1287
aVADBE
p1288
aVAON
p1289
aVAET
p1290
aVTRV
p1291
aVINTU
p1292
aVMCK
p1293
aVWHR
p1294
aVBLK
p1295
aVHUM
p1296
aVORLY
p1297
aVALXN
p1298
aVILMN
p1299
aVPCLN
p1300
aVULTA
p1301
aVGOOG
p1302
asS'06012015'
p1303
(lp1304
VGWW
p1305
aVPRGO
p1306
aVSIG
p1307
aVAYI
p1308
aVAMGN
p1309
aVFFIV
p1310
aVSNA
p1311
aVMNST
p1312
aVPXD
p1313
aVNKE
p1314
aVBA
p1315
aVROK
p1316
aVMON
p1317
aVAMG
p1318
aVGPN
p1319
aVEFX
p1320
aVHON
p1321
aVUTX
p1322
aVSJM
p1323
aVTMO
p1324
aVCXO
p1325
aVINTU
p1326
aVEXPE
p1327
aVSTZ
p1328
aVLLL
p1329
aVULTA
p1330
aVLH
p1331
aVAET
p1332
aVMNK
p1333
aVUHS
p1334
aVSWKS
p1335
aVHUM
p1336
asS'12292016'
p1337
(lp1338
VBLK
p1339
aVFDX
p1340
aVAYI
p1341
aVLLL
p1342
aVAMP
p1343
aVCXO
p1344
aVSLG
p1345
aVCMI
p1346
aVAPD
p1347
aVEOG
p1348
aVPH
p1349
aVPX
p1350
aVSNA
p1351
aVINTU
p1352
aVULTA
p1353
aVBA
p1354
aVPNC
p1355
aVRTN
p1356
aVUNP
p1357
aVCVX
p1358
aVORLY
p1359
aVFISV
p1360
aVSRE
p1361
aVNFLX
p1362
aVSHW
p1363
aVADBE
p1364
aVMHK
p1365
aVSTZ
p1366
aVSYK
p1367
aVWHR
p1368
aVEQIX
p1369
aVNVDA
p1370
aVAGN
p1371
asS'12292015'
p1372
(lp1373
VPXD
p1374
aVNFLX
p1375
aVDIS
p1376
aVREGN
p1377
aVAVGO
p1378
aVACN
p1379
aVLLL
p1380
aVJNJ
p1381
aVGOOG
p1382
aVEXPE
p1383
aVPEP
p1384
aVAMGN
p1385
aVUHS
p1386
aVAET
p1387
aVPCLN
p1388
asS'04182016'
p1389
(lp1390
VESS
p1391
aVEQIX
p1392
aVFB
p1393
aVSPG
p1394
aVAAPL
p1395
aVWHR
p1396
aVAPD
p1397
aVEFX
p1398
aVPEP
p1399
aVUHS
p1400
aVNOC
p1401
aVPXD
p1402
aVPH
p1403
aVLMT
p1404
aVSPGI
p1405
aVSWK
p1406
aVPRGO
p1407
aVTMO
p1408
aVCXO
p1409
aVULTA
p1410
aVWAT
p1411
aVBDX
p1412
aVILMN
p1413
aVREGN
p1414
asS'03112015'
p1415
(lp1416
VPCLN
p1417
aVAMZN
p1418
aVWHR
p1419
aVHAR
p1420
aVBIIB
p1421
aVDNB
p1422
aVWDC
p1423
aVBA
p1424
aVLLL
p1425
aVPXD
p1426
aVMON
p1427
aVPVH
p1428
aVAMP
p1429
aVROP
p1430
aVZBH
p1431
aVHSY
p1432
aVDIS
p1433
aVAYI
p1434
aVCMG
p1435
aVHD
p1436
aVCELG
p1437
aVHON
p1438
aVHUM
p1439
aVGWW
p1440
aVFFIV
p1441
aVTMO
p1442
aVUNH
p1443
aVMNK
p1444
aVAET
p1445
aVSIG
p1446
aVUHS
p1447
aVRL
p1448
aVPRGO
p1449
asS'03112016'
p1450
(lp1451
VFB
p1452
aVLMT
p1453
aVAPD
p1454
aVBDX
p1455
aVPEP
p1456
aVCVS
p1457
aVPH
p1458
aVHON
p1459
aVTRV
p1460
aVEFX
p1461
aVAET
p1462
aVACN
p1463
aVAZO
p1464
aVILMN
p1465
aVPXD
p1466
aVAYI
p1467
aVAMG
p1468
aVPCLN
p1469
aVGOOG
p1470
aVAMZN
p1471
asS'08212015'
p1472
(lp1473
VCMG
p1474
aVAMZN
p1475
aVGOOGL
p1476
aVAYI
p1477
aVMNST
p1478
aVHAR
p1479
aVGS
p1480
aVVRTX
p1481
aVTSO
p1482
aVTMO
p1483
aVEXPE
p1484
aVACN
p1485
aVORLY
p1486
aVLLL
p1487
aVLH
p1488
aVTDG
p1489
aVCXO
p1490
aVEFX
p1491
aVUNH
p1492
aVUPS
p1493
aVPRGO
p1494
aVGPN
p1495
aVMON
p1496
aVPVH
p1497
aVSRCL
p1498
aVHUM
p1499
aVAET
p1500
aVNFLX
p1501
asS'08172016'
p1502
(lp1503
VADS
p1504
aVISRG
p1505
aVBIIB
p1506
aVSHW
p1507
aVORLY
p1508
aVFISV
p1509
aVSJM
p1510
aVBLK
p1511
aVPSA
p1512
aVAGN
p1513
aVCELG
p1514
aVEQIX
p1515
aVBDX
p1516
aVEW
p1517
aVMCK
p1518
aVLLL
p1519
aVDLR
p1520
aVILMN
p1521
aVSTZ
p1522
aVALXN
p1523
aVCHD
p1524
aVCME
p1525
aVWYNN
p1526
aVAPD
p1527
aVCTAS
p1528
aVPH
p1529
aVAYI
p1530
asS'01132016'
p1531
(lp1532
VPCLN
p1533
aVAMZN
p1534
aVREGN
p1535
aVGOOG
p1536
aVBIIB
p1537
aVAVGO
p1538
aVAMG
p1539
aVGWW
p1540
aVFDX
p1541
aVHD
p1542
aVWAT
p1543
aVUNH
p1544
aVNOC
p1545
aVMCD
p1546
aVLLL
p1547
aVIFF
p1548
asS'01132017'
p1549
(lp1550
VAYI
p1551
aVNVDA
p1552
aVGS
p1553
aVPSA
p1554
aVMLM
p1555
aVLLL
p1556
aVFDX
p1557
aVCVX
p1558
aVCB
p1559
aVSLG
p1560
aVPNC
p1561
aVMHK
p1562
aVSTZ
p1563
aVADP
p1564
aVBA
p1565
aVAMT
p1566
aVCXO
p1567
aVAPD
p1568
aVPX
p1569
aVULTA
p1570
aVSRE
p1571
aVCMI
p1572
aVLRCX
p1573
aVAMP
p1574
aVBIIB
p1575
aVMA
p1576
aVADBE
p1577
aVSPGI
p1578
aVBCR
p1579
aVAGN
p1580
aVSHW
p1581
aVALXN
p1582
aVEQIX
p1583
aVILMN
p1584
aVAMZN
p1585
asS'05202016'
p1586
(lp1587
VPCLN
p1588
aVBLK
p1589
aVCMI
p1590
aVORLY
p1591
aVWHR
p1592
aVESS
p1593
aVMCD
p1594
aVAYI
p1595
aVSHW
p1596
aVPXD
p1597
aVMHK
p1598
aVPEP
p1599
aVNOC
p1600
aVHD
p1601
aVCXO
p1602
aVHON
p1603
aVSWK
p1604
aVVMC
p1605
aVHUM
p1606
aVSPGI
p1607
aVACN
p1608
aVFISV
p1609
aVXEC
p1610
aVINTU
p1611
aVICE
p1612
aVGOOG
p1613
aVILMN
p1614
aVMCK
p1615
aVTDG
p1616
asS'05202015'
p1617
(lp1618
VAMZN
p1619
aVPXD
p1620
aVMNST
p1621
aVGWW
p1622
aVCXO
p1623
aVHAR
p1624
aVSIG
p1625
aVRL
p1626
aVAMG
p1627
aVEFX
p1628
aVFFIV
p1629
aVPRGO
p1630
aVROST
p1631
aVLH
p1632
aVMON
p1633
aVEXPE
p1634
aVROK
p1635
aVTMO
p1636
aVHON
p1637
aVBCR
p1638
aVUNH
p1639
aVUHS
p1640
aVLLL
p1641
aVCELG
p1642
aVSWKS
p1643
aVHUM
p1644
aVMNK
p1645
asS'07092015'
p1646
(lp1647
VAVGO
p1648
aVHUM
p1649
aVSWKS
p1650
aVGS
p1651
aVCXO
p1652
aVFFIV
p1653
aVHAR
p1654
aVEXPE
p1655
aVPRGO
p1656
aVAMP
p1657
aVHON
p1658
aVSTZ
p1659
aVGPN
p1660
aVTMO
p1661
aVLH
p1662
aVEW
p1663
aVNOC
p1664
aVSRCL
p1665
aVEQIX
p1666
aVORLY
p1667
aVBDX
p1668
aVMNK
p1669
aVNKE
p1670
aVLLL
p1671
asS'04012015'
p1672
(lp1673
VPCLN
p1674
aVBIIB
p1675
aVCMG
p1676
aVAGN
p1677
aVAMZN
p1678
aVAVGO
p1679
aVMNK
p1680
aVBA
p1681
aVPRGO
p1682
aVHAR
p1683
aVUHS
p1684
aVSWKS
p1685
aVICE
p1686
aVAMP
p1687
aVAAPL
p1688
aVULTA
p1689
aVHUM
p1690
aVAET
p1691
aVUNH
p1692
aVROP
p1693
aVCVS
p1694
aVTMO
p1695
aVWAT
p1696
aVNKE
p1697
aVHON
p1698
aVMON
p1699
aVTDG
p1700
aVGWW
p1701
aVFFIV
p1702
aVAYI
p1703
aVPXD
p1704
aVXEC
p1705
aVRL
p1706
aVPVH
p1707
aVSIG
p1708
asS'04012016'
p1709
(lp1710
VPCLN
p1711
aVCXO
p1712
aVHUM
p1713
aVAYI
p1714
aVPXD
p1715
aVAZO
p1716
aVAET
p1717
aVHON
p1718
aVRTN
p1719
aVWHR
p1720
aVMHK
p1721
aVAMG
p1722
aVAON
p1723
aVPEP
p1724
aVCVS
p1725
aVBDX
p1726
aVSPG
p1727
aVEFX
p1728
aVAPD
p1729
aVULTA
p1730
aVICE
p1731
aVESS
p1732
aVACN
p1733
aVBIIB
p1734
aVEQIX
p1735
aVILMN
p1736
aVREGN
p1737
aVAMZN
p1738
asS'11282016'
p1739
(lp1740
VMLM
p1741
aVBIIB
p1742
aVNEE
p1743
aVADBE
p1744
aVBDX
p1745
aVBA
p1746
aVAGN
p1747
aVPVH
p1748
aVTDG
p1749
aVUTX
p1750
aVCVX
p1751
aVPH
p1752
aVPX
p1753
aVSNA
p1754
aVPNC
p1755
aVNSC
p1756
aVXEC
p1757
aVSTZ
p1758
aVROP
p1759
aVINTU
p1760
aVWHR
p1761
aVUNP
p1762
aVFISV
p1763
aVBXP
p1764
aVMHK
p1765
aVAMP
p1766
aVILMN
p1767
aVEQIX
p1768
aVLLL
p1769
aVAYI
p1770
aVHUM
p1771
aVWYNN
p1772
aVSHW
p1773
aVAMZN
p1774
asS'12092015'
p1775
(lp1776
VREGN
p1777
aVGOOG
p1778
aVWHR
p1779
aVTSO
p1780
aVDIS
p1781
aVWAT
p1782
aVTMO
p1783
aVAYI
p1784
aVLLL
p1785
aVAMGN
p1786
aVNOC
p1787
aVEW
p1788
aVSNA
p1789
aVNFLX
p1790
aVPEP
p1791
aVACN
p1792
aVSRCL
p1793
aVEXPE
p1794
aVAET
p1795
aVMHK
p1796
aVUNH
p1797
asS'12092016'
p1798
(lp1799
VISRG
p1800
aVAYI
p1801
aVWYNN
p1802
aVMLM
p1803
aVBDX
p1804
aVFISV
p1805
aVPNC
p1806
aVPH
p1807
aVAMP
p1808
aVPVH
p1809
aVINTU
p1810
aVROP
p1811
aVADBE
p1812
aVMHK
p1813
aVLLL
p1814
aVSNA
p1815
aVFDX
p1816
aVBA
p1817
aVSHW
p1818
aVCVX
p1819
aVSTZ
p1820
aVADS
p1821
aVNFLX
p1822
aVPX
p1823
aVSLG
p1824
aVORLY
p1825
aVCXO
p1826
aVAPD
p1827
aVBXP
p1828
aVAGN
p1829
aVXEC
p1830
aVPCLN
p1831
aVAMZN
p1832
asS'10232015'
p1833
(lp1834
VSRCL
p1835
aVHUM
p1836
aVAET
p1837
aVMLM
p1838
aVTSO
p1839
aVANTM
p1840
aVHAR
p1841
aVFFIV
p1842
aVGPN
p1843
aVACN
p1844
aVAYI
p1845
aVGOOG
p1846
aVPCLN
p1847
asS'03042016'
p1848
(lp1849
VICE
p1850
aVAPD
p1851
aVHON
p1852
aVTRV
p1853
aVLMT
p1854
aVAET
p1855
aVACN
p1856
aVBDX
p1857
aVEFX
p1858
aVANTM
p1859
aVPXD
p1860
aVTMO
p1861
aVBIIB
p1862
aVGOOG
p1863
aVAMG
p1864
aVAYI
p1865
aVAMZN
p1866
aVPCLN
p1867
asS'03042015'
p1868
(lp1869
VAMZN
p1870
aVCXO
p1871
aVXEC
p1872
aVWHR
p1873
aVHAR
p1874
aVBIIB
p1875
aVDNB
p1876
aVHSY
p1877
aVMNK
p1878
aVAMP
p1879
aVBA
p1880
aVROP
p1881
aVCELG
p1882
aVHON
p1883
aVCMG
p1884
aVZBH
p1885
aVUNH
p1886
aVHD
p1887
aVEW
p1888
aVHUM
p1889
aVAET
p1890
aVPVH
p1891
aVPXD
p1892
aVSIG
p1893
aVGWW
p1894
aVFFIV
p1895
aVROST
p1896
aVUHS
p1897
aVPRGO
p1898
aVMNST
p1899
aVPCLN
p1900
asS'05142015'
p1901
(lp1902
VPXD
p1903
aVNFLX
p1904
aVCXO
p1905
aVAZO
p1906
aVMNST
p1907
aVHAR
p1908
aVSIG
p1909
aVRL
p1910
aVPRGO
p1911
aVGWW
p1912
aVMCO
p1913
aVDIS
p1914
aVMPC
p1915
aVCVS
p1916
aVFFIV
p1917
aVUNH
p1918
aVHUM
p1919
aVEW
p1920
aVMON
p1921
aVAMP
p1922
aVLLL
p1923
aVHON
p1924
aVCELG
p1925
aVROK
p1926
aVCMG
p1927
aVMNK
p1928
asS'03162016'
p1929
(lp1930
VRTN
p1931
aVNOC
p1932
aVAPD
p1933
aVILMN
p1934
aVLMT
p1935
aVBDX
p1936
aVPEP
p1937
aVHON
p1938
aVPH
p1939
aVCVS
p1940
aVSPG
p1941
aVAET
p1942
aVEFX
p1943
aVACN
p1944
aVAMG
p1945
aVAYI
p1946
aVPXD
p1947
aVPCLN
p1948
aVAMZN
p1949
aVGOOG
p1950
asS'07012015'
p1951
(lp1952
VHUM
p1953
aVAVGO
p1954
aVCXO
p1955
aVFFIV
p1956
aVSWKS
p1957
aVMON
p1958
aVRL
p1959
aVSTZ
p1960
aVMNK
p1961
aVNOC
p1962
aVPXD
p1963
aVAMP
p1964
aVSIG
p1965
aVEXPE
p1966
aVHON
p1967
aVPRGO
p1968
aVSRCL
p1969
aVAYI
p1970
aVHAR
p1971
aVLLL
p1972
aVTMO
p1973
aVAET
p1974
aVLH
p1975
aVUNH
p1976
aVCELG
p1977
aVNKE
p1978
aVMNST
p1979
aVUHS
p1980
asS'11082016'
p1981
(lp1982
VAMZN
p1983
aVAGN
p1984
aVXEC
p1985
aVSTZ
p1986
aVADBE
p1987
aVSHW
p1988
aVPVH
p1989
aVNEE
p1990
aVPX
p1991
aVINTU
p1992
aVGS
p1993
aVSNA
p1994
aVSPGI
p1995
aVPH
p1996
aVROP
p1997
aVWHR
p1998
aVCME
p1999
aVITW
p2000
aVAYI
p2001
aVILMN
p2002
aVBIIB
p2003
aVMLM
p2004
aVPCLN
p2005
asS'11092016'
p2006
(lp2007
VAMZN
p2008
aVXEC
p2009
aVSTZ
p2010
aVAGN
p2011
aVISRG
p2012
aVCXO
p2013
aVADBE
p2014
aVPX
p2015
aVSPGI
p2016
aVCVX
p2017
aVRTN
p2018
aVILMN
p2019
aVROP
p2020
aVSHW
p2021
aVPH
p2022
aVCME
p2023
aVHUM
p2024
aVAYI
p2025
aVBIIB
p2026
aVMLM
p2027
aVPCLN
p2028
asS'11092015'
p2029
(lp2030
VPCLN
p2031
aVEQIX
p2032
aVSRCL
p2033
aVACN
p2034
aVNOC
p2035
aVHAR
p2036
aVEXPE
p2037
aVLLL
p2038
aVGILD
p2039
aVEW
p2040
aVFB
p2041
aVAVGO
p2042
aVWAT
p2043
aVTSO
p2044
aVPRGO
p2045
aVREGN
p2046
aVNFLX
p2047
asS'06132016'
p2048
(lp2049
VBIIB
p2050
aVAMZN
p2051
aVALXN
p2052
aVICE
p2053
aVESS
p2054
aVXEC
p2055
aVVMC
p2056
aVPXD
p2057
aVMHK
p2058
aVSTZ
p2059
aVSWK
p2060
aVMCK
p2061
aVACN
p2062
aVNOC
p2063
aVBDX
p2064
aVDHR
p2065
aVFISV
p2066
aVEW
p2067
aVHON
p2068
aVMKC
p2069
aVPEP
p2070
aVUTX
p2071
aVORLY
p2072
aVDLR
p2073
aVPX
p2074
aVWYNN
p2075
aVWHR
p2076
aVULTA
p2077
aVPCLN
p2078
asS'04062016'
p2079
(lp2080
VPCLN
p2081
aVAMG
p2082
aVCMI
p2083
aVROP
p2084
aVPXD
p2085
aVAET
p2086
aVWHR
p2087
aVULTA
p2088
aVMHK
p2089
aVSHW
p2090
aVMTB
p2091
aVAPD
p2092
aVSRE
p2093
aVFISV
p2094
aVCVS
p2095
aVSPG
p2096
aVESS
p2097
aVANTM
p2098
aVEFX
p2099
aVPEP
p2100
aVACN
p2101
aVTMO
p2102
aVAMT
p2103
aVUHS
p2104
aVNOC
p2105
aVILMN
p2106
aVREGN
p2107
asS'04062015'
p2108
(lp2109
VBIIB
p2110
aVPCLN
p2111
aVCMG
p2112
aVAVGO
p2113
aVMNK
p2114
aVAMGN
p2115
aVPRGO
p2116
aVHUM
p2117
aVANTM
p2118
aVUHS
p2119
aVHAR
p2120
aVAMP
p2121
aVDIS
p2122
aVULTA
p2123
aVUNH
p2124
aVAET
p2125
aVTMO
p2126
aVROP
p2127
aVCVS
p2128
aVFFIV
p2129
aVGWW
p2130
aVDNB
p2131
aVHON
p2132
aVGS
p2133
aVAYI
p2134
aVHSY
p2135
aVTDG
p2136
aVCVX
p2137
aVMON
p2138
aVPVH
p2139
aVSIG
p2140
aVPXD
p2141
aVRL
p2142
aVXEC
p2143
aVISRG
p2144
asS'11272015'
p2145
(lp2146
VPCLN
p2147
aVREGN
p2148
aVORLY
p2149
aVEXPE
p2150
aVFB
p2151
aVDIS
p2152
aVPRGO
p2153
aVLLL
p2154
aVNOC
p2155
aVWAT
p2156
aVHUM
p2157
aVACN
p2158
aVAET
p2159
aVGILD
p2160
aVTSO
p2161
aVUNH
p2162
aVVMC
p2163
aVIFF
p2164
aVSRCL
p2165
aVEW
p2166
aVWHR
p2167
asS'08302016'
p2168
(lp2169
VBIIB
p2170
aVSJM
p2171
aVORLY
p2172
aVILMN
p2173
aVNOC
p2174
aVSHW
p2175
aVESS
p2176
aVAYI
p2177
aVPH
p2178
aVTDG
p2179
aVEW
p2180
aVINTU
p2181
aVBLK
p2182
aVEFX
p2183
aVSTZ
p2184
aVXEC
p2185
aVFISV
p2186
aVAPD
p2187
aVPVH
p2188
aVEQIX
p2189
aVPSA
p2190
aVTAP
p2191
asS'08232016'
p2192
(lp2193
VBIIB
p2194
aVESS
p2195
aVSHW
p2196
aVORLY
p2197
aVLLL
p2198
aVCELG
p2199
aVBLK
p2200
aVTDG
p2201
aVEFX
p2202
aVAAPL
p2203
aVILMN
p2204
aVDLR
p2205
aVBDX
p2206
aVFISV
p2207
aVPSA
p2208
aVEQIX
p2209
aVSTZ
p2210
aVCME
p2211
aVEW
p2212
aVADBE
p2213
aVHON
p2214
aVINTU
p2215
aVPH
p2216
aVCTAS
p2217
aVAYI
p2218
aVPCLN
p2219
asS'09162015'
p2220
(lp2221
VSRCL
p2222
aVFFIV
p2223
aVAZO
p2224
aVTDG
p2225
aVCMG
p2226
aVRTN
p2227
aVGPN
p2228
aVPRGO
p2229
aVLLL
p2230
aVVRTX
p2231
aVNOC
p2232
aVCELG
p2233
aVHUM
p2234
aVUNH
p2235
aVORLY
p2236
aVANTM
p2237
aVEQIX
p2238
aVPCLN
p2239
asS'04282015'
p2240
(lp2241
VCMG
p2242
aVAZO
p2243
aVPRGO
p2244
aVMNK
p2245
aVPXD
p2246
aVAVGO
p2247
aVBA
p2248
aVPVH
p2249
aVSIG
p2250
aVSTZ
p2251
aVHUM
p2252
aVWAT
p2253
aVROST
p2254
aVLLL
p2255
aVAET
p2256
aVHON
p2257
aVNKE
p2258
aVRL
p2259
aVCXO
p2260
aVAMP
p2261
aVCVS
p2262
aVMCO
p2263
aVUHS
p2264
aVHAR
p2265
aVFFIV
p2266
aVGWW
p2267
aVPCLN
p2268
asS'09162016'
p2269
(lp2270
VULTA
p2271
aVAYI
p2272
aVBIIB
p2273
aVAPD
p2274
aVXEC
p2275
aVBLK
p2276
aVEQIX
p2277
aVSLG
p2278
aVSHW
p2279
aVUTX
p2280
aVGS
p2281
aVFFIV
p2282
aVPH
p2283
aVHUM
p2284
aVSNA
p2285
aVPSA
p2286
aVEW
p2287
aVBDX
p2288
aVSTZ
p2289
aVMCO
p2290
aVILMN
p2291
aVWYNN
p2292
asS'02082016'
p2293
(lp2294
VAMZN
p2295
aVILMN
p2296
aVREGN
p2297
aVGOOG
p2298
aVPCLN
p2299
aVTMO
p2300
aVAYI
p2301
aVWAT
p2302
aVAET
p2303
aVAMGN
p2304
aVUHS
p2305
aVAMG
p2306
aVLMT
p2307
aVLLL
p2308
aVPXD
p2309
asS'08022016'
p2310
(lp2311
VPSA
p2312
aVEQIX
p2313
aVMCK
p2314
aVINTU
p2315
aVAYI
p2316
aVEFX
p2317
aVSHW
p2318
aVSTZ
p2319
aVDLR
p2320
aVHON
p2321
aVAMT
p2322
aVFISV
p2323
aVISRG
p2324
aVPEP
p2325
aVPM
p2326
aVBDX
p2327
aVAPD
p2328
aVCME
p2329
aVPH
p2330
aVTDG
p2331
aVROP
p2332
aVCTAS
p2333
aVSPGI
p2334
aVAMG
p2335
aVAGN
p2336
aVEW
p2337
aVWHR
p2338
aVBLK
p2339
aVPCLN
p2340
aVAMZN
p2341
aVILMN
p2342
aVBIIB
p2343
asS'02182015'
p2344
(lp2345
VCMG
p2346
aVREGN
p2347
aVCELG
p2348
aVUNH
p2349
aVGWW
p2350
aVWAT
p2351
aVSIG
p2352
aVPRGO
p2353
aVPXD
p2354
aVBA
p2355
aVANTM
p2356
aVTRV
p2357
aVCXO
p2358
aVHON
p2359
aVHD
p2360
aVABC
p2361
aVHUM
p2362
aVZBH
p2363
aVDIS
p2364
aVAMP
p2365
aVXEC
p2366
aVMNK
p2367
aVROK
p2368
aVHAR
p2369
aVWDC
p2370
aVIFF
p2371
aVROP
p2372
aVSPGI
p2373
aVFFIV
p2374
aVAMZN
p2375
aVDNB
p2376
aVPCLN
p2377
asS'02182016'
p2378
(lp2379
VGOOG
p2380
aVUHS
p2381
aVLMT
p2382
aVTMO
p2383
aVHON
p2384
aVUNH
p2385
aVAET
p2386
aVBDX
p2387
aVAYI
p2388
aVAMG
p2389
aVREGN
p2390
aVAZO
p2391
asS'01192016'
p2392
(lp2393
VPCLN
p2394
aVAMZN
p2395
aVREGN
p2396
aVGOOG
p2397
aVBIIB
p2398
aVAVGO
p2399
aVAMG
p2400
aVFDX
p2401
aVGWW
p2402
aVAMGN
p2403
aVLLL
p2404
aVWAT
p2405
aVNOC
p2406
aVUNH
p2407
aVAET
p2408
aVCLX
p2409
aVACN
p2410
aVPRGO
p2411
asS'01192017'
p2412
(lp2413
VGS
p2414
aVAYI
p2415
aVNVDA
p2416
aVBIIB
p2417
aVAMG
p2418
aVFDX
p2419
aVCVX
p2420
aVADP
p2421
aVBA
p2422
aVLLL
p2423
aVAMP
p2424
aVMLM
p2425
aVAPD
p2426
aVAGN
p2427
aVCXO
p2428
aVPX
p2429
aVAMT
p2430
aVFISV
p2431
aVSYK
p2432
aVCMI
p2433
aVTDG
p2434
aVBCR
p2435
aVULTA
p2436
aVGOOG
p2437
aVSHW
p2438
aVSPGI
p2439
aVILMN
p2440
aVISRG
p2441
aVAMZN
p2442
asS'11232015'
p2443
(lp2444
VPCLN
p2445
aVAZO
p2446
aVEXPE
p2447
aVORLY
p2448
aVGOOGL
p2449
aVPRGO
p2450
aVCXO
p2451
aVFB
p2452
aVREGN
p2453
aVGILD
p2454
aVWAT
p2455
aVTSO
p2456
aVEW
p2457
aVACN
p2458
aVNOC
p2459
aVLLL
p2460
aVDIS
p2461
aVSRCL
p2462
aVVMC
p2463
aVWHR
p2464
aVNFLX
p2465
asS'02092016'
p2466
(lp2467
VAMZN
p2468
aVREGN
p2469
aVGOOG
p2470
aVAZO
p2471
aVPCLN
p2472
aVILMN
p2473
aVAYI
p2474
aVTMO
p2475
aVUHS
p2476
aVUNH
p2477
aVAMG
p2478
aVPXD
p2479
aVLMT
p2480
asS'07162015'
p2481
(lp2482
VHAR
p2483
aVHUM
p2484
aVCXO
p2485
aVAVGO
p2486
aVSWKS
p2487
aVFFIV
p2488
aVROK
p2489
aVPXD
p2490
aVEXPE
p2491
aVSTZ
p2492
aVHON
p2493
aVGPN
p2494
aVAMP
p2495
aVACN
p2496
aVUNH
p2497
aVLH
p2498
aVMON
p2499
aVCVS
p2500
aVPRGO
p2501
aVIFF
p2502
aVORLY
p2503
aVMNK
p2504
aVVRTX
p2505
aVNOC
p2506
aVLLL
p2507
asS'05042015'
p2508
(lp2509
VCMG
p2510
aVPRGO
p2511
aVHUM
p2512
aVHAR
p2513
aVPXD
p2514
aVMNK
p2515
aVLLL
p2516
aVBA
p2517
aVNOC
p2518
aVAMGN
p2519
aVTMO
p2520
aVUHS
p2521
aVAVGO
p2522
aVCXO
p2523
aVGS
p2524
aVPVH
p2525
aVAMP
p2526
aVSTZ
p2527
aVRL
p2528
aVMNST
p2529
aVHON
p2530
aVSNA
p2531
aVFFIV
p2532
aVGWW
p2533
aVPCLN
p2534
asS'05042016'
p2535
(lp2536
VGOOGL
p2537
aVGOOG
p2538
aVISRG
p2539
aVAYI
p2540
aVWHR
p2541
aVMCK
p2542
aVEW
p2543
aVXEC
p2544
aVPX
p2545
aVROP
p2546
aVULTA
p2547
aVTDG
p2548
aVSIG
p2549
aVHON
p2550
aVSWK
p2551
aVESS
p2552
aVHD
p2553
aVCMI
p2554
aVBDX
p2555
aVPEP
p2556
aVPXD
p2557
aVEQIX
p2558
aVHUM
p2559
aVLMT
p2560
aVICE
p2561
aVAMZN
p2562
asS'08182016'
p2563
(lp2564
VISRG
p2565
aVBIIB
p2566
aVSHW
p2567
aVORLY
p2568
aVEQIX
p2569
aVCELG
p2570
aVFISV
p2571
aVESS
p2572
aVAGN
p2573
aVBLK
p2574
aVMCK
p2575
aVPSA
p2576
aVSJM
p2577
aVBDX
p2578
aVEW
p2579
aVLLL
p2580
aVDLR
p2581
aVMNST
p2582
aVILMN
p2583
aVSTZ
p2584
aVWYNN
p2585
aVCME
p2586
aVAAPL
p2587
aVCTAS
p2588
aVPH
p2589
aVAYI
p2590
aVPVH
p2591
asS'07172015'
p2592
(lp2593
VHAR
p2594
aVANTM
p2595
aVUHS
p2596
aVCXO
p2597
aVHUM
p2598
aVPXD
p2599
aVFFIV
p2600
aVRL
p2601
aVROK
p2602
aVAVGO
p2603
aVSWKS
p2604
aVSTZ
p2605
aVGPN
p2606
aVEXPE
p2607
aVUNH
p2608
aVLH
p2609
aVHON
p2610
aVMON
p2611
aVAMP
p2612
aVCVS
p2613
aVPRGO
p2614
aVIFF
p2615
aVORLY
p2616
aVMNK
p2617
aVLLL
p2618
aVVRTX
p2619
asS'06102015'
p2620
(lp2621
VPRGO
p2622
aVMNK
p2623
aVSWKS
p2624
aVAYI
p2625
aVEXPE
p2626
aVGWW
p2627
aVCELG
p2628
aVFFIV
p2629
aVUNH
p2630
aVLLL
p2631
aVHON
p2632
aVNKE
p2633
aVROK
p2634
aVUHS
p2635
aVGPN
p2636
aVSRCL
p2637
aVUTX
p2638
aVNOC
p2639
aVAET
p2640
aVTMO
p2641
aVMNST
p2642
aVICE
p2643
aVSTZ
p2644
aVAMP
p2645
aVLH
p2646
aVPXD
p2647
aVCXO
p2648
aVHUM
p2649
asS'06102016'
p2650
(lp2651
VBIIB
p2652
aVAMZN
p2653
aVESS
p2654
aVICE
p2655
aVALXN
p2656
aVBLK
p2657
aVAMG
p2658
aVVMC
p2659
aVPXD
p2660
aVXEC
p2661
aVAYI
p2662
aVSTZ
p2663
aVSWK
p2664
aVBDX
p2665
aVNOC
p2666
aVMCK
p2667
aVMHK
p2668
aVFISV
p2669
aVIBM
p2670
aVSHW
p2671
aVEW
p2672
aVPEP
p2673
aVHON
p2674
aVILMN
p2675
aVORLY
p2676
aVPX
p2677
aVDLR
p2678
aVWYNN
p2679
aVWHR
p2680
aVULTA
p2681
aVSJM
p2682
aVPCLN
p2683
asS'08182015'
p2684
(lp2685
VCMG
p2686
aVAMZN
p2687
aVTMO
p2688
aVMNST
p2689
aVGS
p2690
aVBF-B
p2691
aVLH
p2692
aVLLL
p2693
aVACN
p2694
aVHAR
p2695
aVUHS
p2696
aVFFIV
p2697
aVNOC
p2698
aVAVGO
p2699
aVTSO
p2700
aVAYI
p2701
aVANTM
p2702
aVGPN
p2703
aVPRGO
p2704
aVSRCL
p2705
aVCXO
p2706
aVSTZ
p2707
aVORLY
p2708
aVHUM
p2709
aVAET
p2710
aVTDG
p2711
aVSHW
p2712
aVAZO
p2713
aVNFLX
p2714
asS'01242017'
p2715
(lp2716
VBIIB
p2717
aVALXN
p2718
aVAGN
p2719
aVAYI
p2720
aVCVX
p2721
aVEOG
p2722
aVAMP
p2723
aVGD
p2724
aVPH
p2725
aVNEE
p2726
aVCLX
p2727
aVSHW
p2728
aVLLL
p2729
aVAMT
p2730
aVLH
p2731
aVAPD
p2732
aVBXP
p2733
aVDLR
p2734
aVCI
p2735
aVSTZ
p2736
aVCXO
p2737
aVULTA
p2738
aVCMI
p2739
aVMLM
p2740
aVSPGI
p2741
aVILMN
p2742
aVISRG
p2743
aVGOOG
p2744
aVAMZN
p2745
asS'02252015'
p2746
(lp2747
VESS
p2748
aVAMZN
p2749
aVHAR
p2750
aVCXO
p2751
aVBIIB
p2752
aVAMP
p2753
aVUNP
p2754
aVBA
p2755
aVHON
p2756
aVSIG
p2757
aVMON
p2758
aVEW
p2759
aVPXD
p2760
aVMNK
p2761
aVAET
p2762
aVROP
p2763
aVGILD
p2764
aVZBH
p2765
aVMNST
p2766
aVUNH
p2767
aVHD
p2768
aVCELG
p2769
aVWDC
p2770
aVUHS
p2771
aVANTM
p2772
aVGWW
p2773
aVXEC
p2774
aVPRGO
p2775
aVDNB
p2776
aVICE
p2777
aVPVH
p2778
aVFFIV
p2779
aVHUM
p2780
aVREGN
p2781
aVPCLN
p2782
asS'02252016'
p2783
(lp2784
VHON
p2785
aVLLL
p2786
aVTRV
p2787
aVPXD
p2788
aVNOC
p2789
aVTMO
p2790
aVWAT
p2791
aVLMT
p2792
aVAET
p2793
aVBDX
p2794
aVROP
p2795
aVAMG
p2796
aVILMN
p2797
aVGOOG
p2798
aVISRG
p2799
aVAYI
p2800
aVPCLN
p2801
asS'09072016'
p2802
(lp2803
VULTA
p2804
aVBIIB
p2805
aVPCLN
p2806
aVAYI
p2807
aVILMN
p2808
aVISRG
p2809
aVPH
p2810
aVBLK
p2811
aVXEC
p2812
aVZBH
p2813
aVSTZ
p2814
aVCME
p2815
aVSHW
p2816
aVINTU
p2817
aVGS
p2818
aVADBE
p2819
aVAAP
p2820
aVFISV
p2821
aVAMP
p2822
aVPM
p2823
aVPSA
p2824
asS'12132016'
p2825
(lp2826
VRL
p2827
aVAYI
p2828
aVPVH
p2829
aVAMP
p2830
aVPH
p2831
aVLRCX
p2832
aVCMI
p2833
aVPNC
p2834
aVLLL
p2835
aVFISV
p2836
aVILMN
p2837
aVINTU
p2838
aVSNA
p2839
aVSHW
p2840
aVBDX
p2841
aVBA
p2842
aVMHK
p2843
aVFDX
p2844
aVCVX
p2845
aVNFLX
p2846
aVCXO
p2847
aVADBE
p2848
aVPX
p2849
aVAPD
p2850
aVSLG
p2851
aVNEE
p2852
aVIFF
p2853
aVISRG
p2854
aVSTZ
p2855
aVBXP
p2856
aVXEC
p2857
aVMCK
p2858
aVAGN
p2859
aVAMZN
p2860
asS'06242015'
p2861
(lp2862
VMNK
p2863
aVROK
p2864
aVGPN
p2865
aVPRGO
p2866
aVPVH
p2867
aVAYI
p2868
aVEXPE
p2869
aVCXO
p2870
aVHON
p2871
aVLH
p2872
aVSWK
p2873
aVTMO
p2874
aVEFX
p2875
aVUNH
p2876
aVMTB
p2877
aVSHW
p2878
aVNKE
p2879
aVRL
p2880
aVCVS
p2881
aVNOC
p2882
aVORLY
p2883
aVAET
p2884
aVCELG
p2885
aVMNST
p2886
aVEW
p2887
asS'06242016'
p2888
(lp2889
VAMZN
p2890
aVGOOG
p2891
aVPCLN
p2892
aVICE
p2893
aVMCK
p2894
aVWYNN
p2895
aVPXD
p2896
aVWHR
p2897
aVSHW
p2898
aVMHK
p2899
aVNOC
p2900
aVAYI
p2901
aVFB
p2902
aVFISV
p2903
aVAET
p2904
aVSWK
p2905
aVEQIX
p2906
aVXEC
p2907
aVBDX
p2908
aVCMI
p2909
aVINTU
p2910
aVPPG
p2911
aVHON
p2912
aVPEP
p2913
aVCVX
p2914
aVDLR
p2915
aVMKC
p2916
aVILMN
p2917
aVISRG
p2918
aVORLY
p2919
asS'06072016'
p2920
(lp2921
VESS
p2922
aVAMZN
p2923
aVVMC
p2924
aVNOC
p2925
aVBIIB
p2926
aVBCR
p2927
aVXEC
p2928
aVSWK
p2929
aVBLK
p2930
aVAYI
p2931
aVBDX
p2932
aVCXO
p2933
aVEW
p2934
aVPEP
p2935
aVSHW
p2936
aVFISV
p2937
aVALXN
p2938
aVTRV
p2939
aVORLY
p2940
aVINTU
p2941
aVIBM
p2942
aVMHK
p2943
aVMCK
p2944
aVSJM
p2945
aVSPG
p2946
aVAMG
p2947
aVWHR
p2948
aVILMN
p2949
aVULTA
p2950
aVPCLN
p2951
asS'06032015'
p2952
(lp2953
VCMG
p2954
aVGWW
p2955
aVPRGO
p2956
aVAYI
p2957
aVAMGN
p2958
aVSIG
p2959
aVFFIV
p2960
aVMNST
p2961
aVNKE
p2962
aVEFX
p2963
aVMCO
p2964
aVTDG
p2965
aVROK
p2966
aVSJM
p2967
aVHON
p2968
aVCELG
p2969
aVGPN
p2970
aVBA
p2971
aVUNH
p2972
aVTMO
p2973
aVUTX
p2974
aVLH
p2975
aVPXD
p2976
aVLLL
p2977
aVINTU
p2978
aVCXO
p2979
aVUHS
p2980
aVAET
p2981
aVMNK
p2982
aVSWKS
p2983
aVEW
p2984
aVPVH
p2985
aVHUM
p2986
asS'02042016'
p2987
(lp2988
VAMZN
p2989
aVREGN
p2990
aVILMN
p2991
aVWAT
p2992
aVAET
p2993
aVAYI
p2994
aVACN
p2995
aVUHS
p2996
aVAMG
p2997
aVLLL
p2998
aVPXD
p2999
aVGOOG
p3000
aVPCLN
p3001
asS'07202015'
p3002
(lp3003
VHAR
p3004
aVANTM
p3005
aVCXO
p3006
aVPXD
p3007
aVUHS
p3008
aVHUM
p3009
aVLYB
p3010
aVRL
p3011
aVFFIV
p3012
aVROK
p3013
aVSWKS
p3014
aVUNH
p3015
aVEFX
p3016
aVAVGO
p3017
aVEXPE
p3018
aVSTZ
p3019
aVACN
p3020
aVGPN
p3021
aVLH
p3022
aVMON
p3023
aVIFF
p3024
aVCVS
p3025
aVAMP
p3026
aVORLY
p3027
aVMNK
p3028
aVMNST
p3029
aVPRGO
p3030
aVLLL
p3031
aVNOC
p3032
aVVRTX
p3033
aVTSO
p3034
asS'07202016'
p3035
(lp3036
VEQIX
p3037
aVDLR
p3038
aVPSA
p3039
aVNOC
p3040
aVINTU
p3041
aVSTZ
p3042
aVXEC
p3043
aVFISV
p3044
aVULTA
p3045
aVPEP
p3046
aVAMT
p3047
aVHON
p3048
aVBRK-B
p3049
aVCME
p3050
aVPXD
p3051
aVEW
p3052
aVPH
p3053
aVPX
p3054
aVIFF
p3055
aVPPG
p3056
aVMCK
p3057
aVFB
p3058
aVIBM
p3059
aVTMO
p3060
aVAPD
p3061
aVAGN
p3062
aVSHW
p3063
aVILMN
p3064
aVAYI
p3065
aVISRG
p3066
aVALXN
p3067
aVBIIB
p3068
aVPCLN
p3069
asS'05152015'
p3070
(lp3071
VPXD
p3072
aVCXO
p3073
aVMNST
p3074
aVHAR
p3075
aVSIG
p3076
aVGWW
p3077
aVAZO
p3078
aVPRGO
p3079
aVRL
p3080
aVLH
p3081
aVDIS
p3082
aVNFLX
p3083
aVPVH
p3084
aVMCO
p3085
aVMPC
p3086
aVFFIV
p3087
aVEXPE
p3088
aVMON
p3089
aVAMP
p3090
aVLLL
p3091
aVHON
p3092
aVHUM
p3093
aVROK
p3094
aVCELG
p3095
aVMNK
p3096
asS'10042016'
p3097
(lp3098
VBLK
p3099
aVAPD
p3100
aVGS
p3101
aVALXN
p3102
aVCME
p3103
aVGOOG
p3104
aVEQIX
p3105
aVCI
p3106
aVSHW
p3107
aVINTU
p3108
aVAYI
p3109
aVPH
p3110
aVBIIB
p3111
aVSTZ
p3112
aVUTX
p3113
aVPSA
p3114
aVILMN
p3115
aVADBE
p3116
aVZBH
p3117
aVTMO
p3118
aVXEC
p3119
aVPCLN
p3120
asS'07192016'
p3121
(lp3122
VEQIX
p3123
aVDLR
p3124
aVSJM
p3125
aVORLY
p3126
aVCHD
p3127
aVPSA
p3128
aVNOC
p3129
aVSTZ
p3130
aVXEC
p3131
aVFISV
p3132
aVAON
p3133
aVHON
p3134
aVAMT
p3135
aVCXO
p3136
aVPEP
p3137
aVULTA
p3138
aVCME
p3139
aVEW
p3140
aVPPG
p3141
aVPXD
p3142
aVPX
p3143
aVIBM
p3144
aVMCK
p3145
aVAPD
p3146
aVILMN
p3147
aVSHW
p3148
aVICE
p3149
aVAYI
p3150
aVGS
p3151
aVBIIB
p3152
asS'08152016'
p3153
(lp3154
VISRG
p3155
aVPSA
p3156
aVFISV
p3157
aVSHW
p3158
aVEQIX
p3159
aVBIIB
p3160
aVORLY
p3161
aVEFX
p3162
aVSPGI
p3163
aVMCK
p3164
aVBDX
p3165
aVEW
p3166
aVCELG
p3167
aVCME
p3168
aVSTZ
p3169
aVHON
p3170
aVCHD
p3171
aVILMN
p3172
aVAAPL
p3173
aVWYNN
p3174
aVPH
p3175
aVAYI
p3176
asS'06172016'
p3177
(lp3178
VAMZN
p3179
aVBLK
p3180
aVICE
p3181
aVAYI
p3182
aVPXD
p3183
aVGS
p3184
aVXEC
p3185
aVMHK
p3186
aVILMN
p3187
aVFB
p3188
aVVMC
p3189
aVBDX
p3190
aVNOC
p3191
aVMTB
p3192
aVINTU
p3193
aVFISV
p3194
aVTRV
p3195
aVCMI
p3196
aVDLR
p3197
aVHON
p3198
aVWHR
p3199
aVORLY
p3200
aVPEP
p3201
aVWYNN
p3202
aVPCLN
p3203
aVSPG
p3204
asS'06172015'
p3205
(lp3206
VHUM
p3207
aVMNK
p3208
aVPRGO
p3209
aVAVGO
p3210
aVINTU
p3211
aVROK
p3212
aVVRTX
p3213
aVMON
p3214
aVSWKS
p3215
aVEXPE
p3216
aVSTZ
p3217
aVSRCL
p3218
aVGPN
p3219
aVFFIV
p3220
aVHON
p3221
aVTMO
p3222
aVAMGN
p3223
aVLLL
p3224
aVUNH
p3225
aVPXD
p3226
aVLH
p3227
aVCMG
p3228
aVHAR
p3229
aVAET
p3230
aVCXO
p3231
aVMNST
p3232
aVEW
p3233
asS'05222015'
p3234
(lp3235
VAMZN
p3236
aVMNST
p3237
aVGWW
p3238
aVPXD
p3239
aVHAR
p3240
aVFFIV
p3241
aVSIG
p3242
aVCXO
p3243
aVPRGO
p3244
aVMON
p3245
aVROK
p3246
aVHON
p3247
aVAMP
p3248
aVAYI
p3249
aVTMO
p3250
aVUNH
p3251
aVCELG
p3252
aVLLL
p3253
aVUHS
p3254
aVEXPE
p3255
aVSWKS
p3256
aVMNK
p3257
aVHUM
p3258
asS'12312015'
p3259
(lp3260
VNFLX
p3261
aVDIS
p3262
aVACN
p3263
aVLLL
p3264
aVGILD
p3265
aVPCLN
p3266
aVUNH
p3267
aVPEP
p3268
aVAMGN
p3269
aVPRGO
p3270
aVAET
p3271
aVREGN
p3272
aVWAT
p3273
aVTMO
p3274
aVUHS
p3275
aVRCL
p3276
aVGWW
p3277
asS'05282015'
p3278
(lp3279
VNFLX
p3280
aVAZO
p3281
aVGWW
p3282
aVPRGO
p3283
aVPXD
p3284
aVMNST
p3285
aVSIG
p3286
aVFFIV
p3287
aVAYI
p3288
aVHAR
p3289
aVSNA
p3290
aVNKE
p3291
aVGPN
p3292
aVBA
p3293
aVROK
p3294
aVCXO
p3295
aVDIS
p3296
aVJNJ
p3297
aVMON
p3298
aVUTX
p3299
aVPVH
p3300
aVSJM
p3301
aVAMP
p3302
aVTMO
p3303
aVTDG
p3304
aVLLL
p3305
aVCELG
p3306
aVAET
p3307
aVLH
p3308
aVEW
p3309
aVEXPE
p3310
aVHUM
p3311
aVMNK
p3312
aVSWKS
p3313
asS'07272015'
p3314
(lp3315
VANTM
p3316
aVROK
p3317
aVUNH
p3318
aVUHS
p3319
aVPXD
p3320
aVSWKS
p3321
aVNOC
p3322
aVHAR
p3323
aVCXO
p3324
aVEXPE
p3325
aVSRCL
p3326
aVMON
p3327
aVHUM
p3328
aVAMP
p3329
aVHON
p3330
aVEW
p3331
aVLH
p3332
aVCVS
p3333
aVACN
p3334
aVSTZ
p3335
aVEFX
p3336
aVORLY
p3337
aVMNK
p3338
aVMTB
p3339
aVPRGO
p3340
aVFFIV
p3341
aVCMG
p3342
asS'08192015'
p3343
(lp3344
VCMG
p3345
aVAMZN
p3346
aVTMO
p3347
aVMNST
p3348
aVHAR
p3349
aVMTB
p3350
aVGS
p3351
aVLLL
p3352
aVACN
p3353
aVLH
p3354
aVAYI
p3355
aVRTN
p3356
aVFFIV
p3357
aVTSO
p3358
aVAVGO
p3359
aVEXPE
p3360
aVEFX
p3361
aVPVH
p3362
aVUNH
p3363
aVGWW
p3364
aVCXO
p3365
aVGPN
p3366
aVPRGO
p3367
aVSRCL
p3368
aVSTZ
p3369
aVORLY
p3370
aVHUM
p3371
aVAET
p3372
aVTDG
p3373
aVAZO
p3374
aVNFLX
p3375
asS'06152015'
p3376
(lp3377
VPPG
p3378
aVPRGO
p3379
aVMNK
p3380
aVSWKS
p3381
aVAVGO
p3382
aVMON
p3383
aVINTU
p3384
aVEXPE
p3385
aVROK
p3386
aVFFIV
p3387
aVHON
p3388
aVMCO
p3389
aVUNH
p3390
aVLLL
p3391
aVAYI
p3392
aVAET
p3393
aVCMG
p3394
aVHUM
p3395
aVHAR
p3396
aVRL
p3397
aVLH
p3398
aVPXD
p3399
aVMNST
p3400
aVEW
p3401
aVCXO
p3402
asS'06042015'
p3403
(lp3404
VGWW
p3405
aVCMG
p3406
aVPRGO
p3407
aVAYI
p3408
aVMON
p3409
aVFFIV
p3410
aVSIG
p3411
aVAMGN
p3412
aVEXPE
p3413
aVNKE
p3414
aVCELG
p3415
aVMCO
p3416
aVROK
p3417
aVMNST
p3418
aVORLY
p3419
aVUNH
p3420
aVHON
p3421
aVGPN
p3422
aVMNK
p3423
aVUTX
p3424
aVTMO
p3425
aVUHS
p3426
aVLLL
p3427
aVCXO
p3428
aVPXD
p3429
aVAET
p3430
aVSWKS
p3431
aVLH
p3432
aVHUM
p3433
asS'10202015'
p3434
(lp3435
VACN
p3436
aVSTZ
p3437
aVUNH
p3438
aVAET
p3439
aVSRCL
p3440
aVGPN
p3441
aVHUM
p3442
aVWHR
p3443
aVANTM
p3444
aVAYI
p3445
aVPCLN
p3446
asS'10202016'
p3447
(lp3448
VAMZN
p3449
aVILMN
p3450
aVPCLN
p3451
aVIFF
p3452
aVBIIB
p3453
aVFDX
p3454
aVTMO
p3455
aVFFIV
p3456
aVEW
p3457
aVPH
p3458
aVBLK
p3459
aVPVH
p3460
aVSTZ
p3461
aVSYK
p3462
aVCME
p3463
aVAYI
p3464
aVCVX
p3465
aVAAPL
p3466
aVINTU
p3467
aVXEC
p3468
aVFISV
p3469
aVSLG
p3470
aVBA
p3471
aVMNST
p3472
aVPSA
p3473
aVSHW
p3474
aVSNA
p3475
aVNFLX
p3476
asS'06232016'
p3477
(lp3478
VGOOG
p3479
aVICE
p3480
aVMCK
p3481
aVNOC
p3482
aVPXD
p3483
aVAYI
p3484
aVSHW
p3485
aVFB
p3486
aVFISV
p3487
aVSPGI
p3488
aVAET
p3489
aVWYNN
p3490
aVTRV
p3491
aVACN
p3492
aVINTU
p3493
aVMHK
p3494
aVXEC
p3495
aVSWK
p3496
aVEQIX
p3497
aVHON
p3498
aVSTZ
p3499
aVCVX
p3500
aVDLR
p3501
aVPEP
p3502
aVMKC
p3503
aVAAP
p3504
aVILMN
p3505
aVORLY
p3506
aVPCLN
p3507
asS'11182015'
p3508
(lp3509
VPCLN
p3510
aVAZO
p3511
aVGOOG
p3512
aVEXPE
p3513
aVORLY
p3514
aVHUM
p3515
aVICE
p3516
aVEW
p3517
aVGILD
p3518
aVPRGO
p3519
aVFB
p3520
aVAET
p3521
aVNOC
p3522
aVWAT
p3523
aVTSO
p3524
aVLLL
p3525
aVREGN
p3526
aVWHR
p3527
aVUNH
p3528
aVAVGO
p3529
aVSRCL
p3530
aVMLM
p3531
aVNFLX
p3532
asS'11182016'
p3533
(lp3534
VTDG
p3535
aVAMZN
p3536
aVEQIX
p3537
aVNEE
p3538
aVFB
p3539
aVSTZ
p3540
aVIFF
p3541
aVADBE
p3542
aVAGN
p3543
aVPCLN
p3544
aVPX
p3545
aVBA
p3546
aVPVH
p3547
aVXEC
p3548
aVCVX
p3549
aVFFIV
p3550
aVFISV
p3551
aVILMN
p3552
aVINTU
p3553
aVCTAS
p3554
aVSNA
p3555
aVSLG
p3556
aVROP
p3557
aVWHR
p3558
aVPH
p3559
aVPNC
p3560
aVMLM
p3561
aVADS
p3562
aVSHW
p3563
aVAMP
p3564
aVHUM
p3565
aVBIIB
p3566
aVAYI
p3567
asS'06232015'
p3568
(lp3569
VPRGO
p3570
aVMNK
p3571
aVSTZ
p3572
aVMON
p3573
aVGPN
p3574
aVEXPE
p3575
aVPVH
p3576
aVULTA
p3577
aVTMO
p3578
aVHON
p3579
aVAYI
p3580
aVSWKS
p3581
aVCXO
p3582
aVMTB
p3583
aVUNH
p3584
aVCVS
p3585
aVRL
p3586
aVNOC
p3587
aVORLY
p3588
aVAET
p3589
aVMNST
p3590
aVEW
p3591
asS'12192016'
p3592
(lp3593
VAMP
p3594
aVAYI
p3595
aVVMC
p3596
aVGD
p3597
aVLLL
p3598
aVGWW
p3599
aVPH
p3600
aVCXO
p3601
aVSNA
p3602
aVFDX
p3603
aVPNC
p3604
aVBA
p3605
aVXEC
p3606
aVSHW
p3607
aVEOG
p3608
aVSPGI
p3609
aVPXD
p3610
aVBXP
p3611
aVAPD
p3612
aVMHK
p3613
aVINTU
p3614
aVFISV
p3615
aVCVX
p3616
aVADBE
p3617
aVWHR
p3618
aVBLK
p3619
aVTDG
p3620
aVILMN
p3621
aVSTZ
p3622
aVAGN
p3623
aVAMZN
p3624
aVGOOGL
p3625
asS'06152016'
p3626
(lp3627
VAMZN
p3628
aVALXN
p3629
aVICE
p3630
aVXEC
p3631
aVMCK
p3632
aVMHK
p3633
aVVMC
p3634
aVFB
p3635
aVSWK
p3636
aVPXD
p3637
aVBDX
p3638
aVTRV
p3639
aVNOC
p3640
aVFISV
p3641
aVSHW
p3642
aVHON
p3643
aVDLR
p3644
aVUTX
p3645
aVSTZ
p3646
aVULTA
p3647
aVPEP
p3648
aVORLY
p3649
aVWHR
p3650
aVWYNN
p3651
aVPCLN
p3652
asS'10162015'
p3653
(lp3654
VAZO
p3655
aVCMG
p3656
aVAVGO
p3657
aVACN
p3658
aVEXPE
p3659
aVSTZ
p3660
aVAET
p3661
aVHUM
p3662
aVWAT
p3663
aVCI
p3664
aVANTM
p3665
aVGPN
p3666
aVNFLX
p3667
aVAYI
p3668
aVPCLN
p3669
asS'04262016'
p3670
(lp3671
VGOOGL
p3672
aVGOOG
p3673
aVILMN
p3674
aVWHR
p3675
aVSPG
p3676
aVAAPL
p3677
aVAYI
p3678
aVSRE
p3679
aVSTZ
p3680
aVEQIX
p3681
aVFB
p3682
aVULTA
p3683
aVAMZN
p3684
aVPEP
p3685
aVNOC
p3686
aVHD
p3687
aVEW
p3688
aVHON
p3689
aVEFX
p3690
aVCVS
p3691
aVWAT
p3692
aVPH
p3693
aVBDX
p3694
aVLMT
p3695
aVXEC
p3696
aVSWK
p3697
aVPX
p3698
aVCELG
p3699
aVGILD
p3700
aVPCLN
p3701
aVICE
p3702
aVPXD
p3703
asS'08272015'
p3704
(lp3705
VPCLN
p3706
aVCMG
p3707
aVAMZN
p3708
aVEQIX
p3709
aVAYI
p3710
aVMLM
p3711
aVGS
p3712
aVBA
p3713
aVMNST
p3714
aVFFIV
p3715
aVTMO
p3716
aVVRTX
p3717
aVPRGO
p3718
aVGPN
p3719
aVRTN
p3720
aVSRCL
p3721
aVLH
p3722
aVLLL
p3723
aVHUM
p3724
aVNFLX
p3725
asS'05252016'
p3726
(lp3727
VPCLN
p3728
aVMCD
p3729
aVEW
p3730
aVCMI
p3731
aVNOC
p3732
aVESS
p3733
aVPEP
p3734
aVSHW
p3735
aVBDX
p3736
aVULTA
p3737
aVROP
p3738
aVHD
p3739
aVMHK
p3740
aVORLY
p3741
aVHON
p3742
aVFISV
p3743
aVXEC
p3744
aVWHR
p3745
aVACN
p3746
aVVMC
p3747
aVBLK
p3748
aVTRV
p3749
aVSIG
p3750
aVICE
p3751
aVTDG
p3752
aVMCK
p3753
aVGOOG
p3754
asS'12242015'
p3755
(lp3756
VGOOG
p3757
aVAMZN
p3758
aVREGN
p3759
aVNFLX
p3760
aVDIS
p3761
aVPCLN
p3762
aVAAPL
p3763
aVAVGO
p3764
aVLLL
p3765
aVWHR
p3766
aVSNA
p3767
aVEQIX
p3768
aVABC
p3769
aVGILD
p3770
aVAMGN
p3771
aVUHS
p3772
aVAET
p3773
aVSRCL
p3774
aVGWW
p3775
asS'04292016'
p3776
(lp3777
VGOOGL
p3778
aVGOOG
p3779
aVWHR
p3780
aVAYI
p3781
aVGILD
p3782
aVWAT
p3783
aVPCLN
p3784
aVIBM
p3785
aVEW
p3786
aVACN
p3787
aVULTA
p3788
aVMCK
p3789
aVHD
p3790
aVMCD
p3791
aVSRE
p3792
aVPEP
p3793
aVVMC
p3794
aVPX
p3795
aVAMZN
p3796
aVXEC
p3797
aVEQIX
p3798
aVSWK
p3799
aVBDX
p3800
aVAET
p3801
aVEFX
p3802
aVICE
p3803
aVFB
p3804
aVLMT
p3805
aVSPGI
p3806
aVUHS
p3807
aVEXPE
p3808
aVHUM
p3809
aVPXD
p3810
asS'05172016'
p3811
(lp3812
VPCLN
p3813
aVSPG
p3814
aVWHR
p3815
aVEW
p3816
aVAYI
p3817
aVCMI
p3818
aVMHK
p3819
aVHD
p3820
aVPXD
p3821
aVMCK
p3822
aVSPGI
p3823
aVMCD
p3824
aVCXO
p3825
aVSIG
p3826
aVSHW
p3827
aVHON
p3828
aVPEP
p3829
aVESS
p3830
aVSWK
p3831
aVACN
p3832
aVBDX
p3833
aVINTU
p3834
aVNOC
p3835
aVSJM
p3836
aVVMC
p3837
aVXEC
p3838
aVFISV
p3839
aVGOOG
p3840
asS'04292015'
p3841
(lp3842
VCMG
p3843
aVAZO
p3844
aVPRGO
p3845
aVMNK
p3846
aVHUM
p3847
aVPXD
p3848
aVBA
p3849
aVPVH
p3850
aVSTZ
p3851
aVRL
p3852
aVAET
p3853
aVUHS
p3854
aVGS
p3855
aVLLL
p3856
aVHON
p3857
aVWAT
p3858
aVNKE
p3859
aVCVS
p3860
aVMCO
p3861
aVAMP
p3862
aVMNST
p3863
aVCXO
p3864
aVHAR
p3865
aVFFIV
p3866
aVGWW
p3867
aVPCLN
p3868
asS'11252015'
p3869
(lp3870
VPCLN
p3871
aVREGN
p3872
aVGOOGL
p3873
aVEXPE
p3874
aVORLY
p3875
aVGOOG
p3876
aVFB
p3877
aVPRGO
p3878
aVLLL
p3879
aVHAR
p3880
aVWAT
p3881
aVDIS
p3882
aVGILD
p3883
aVNOC
p3884
aVSWK
p3885
aVACN
p3886
aVAET
p3887
aVUNH
p3888
aVTSO
p3889
aVVMC
p3890
aVEW
p3891
aVIFF
p3892
aVSRCL
p3893
aVAVGO
p3894
aVWHR
p3895
asS'11252016'
p3896
(lp3897
VNEE
p3898
aVTDG
p3899
aVMLM
p3900
aVADBE
p3901
aVBDX
p3902
aVAGN
p3903
aVBA
p3904
aVPVH
p3905
aVUTX
p3906
aVPX
p3907
aVSTZ
p3908
aVCVX
p3909
aVPH
p3910
aVSNA
p3911
aVXEC
p3912
aVINTU
p3913
aVFISV
p3914
aVEQIX
p3915
aVROP
p3916
aVUNP
p3917
aVWHR
p3918
aVMHK
p3919
aVILMN
p3920
aVAMP
p3921
aVCTAS
p3922
aVLLL
p3923
aVHUM
p3924
aVAYI
p3925
aVSHW
p3926
aVAMZN
p3927
asS'04052016'
p3928
(lp3929
VPCLN
p3930
aVCXO
p3931
aVBLK
p3932
aVHUM
p3933
aVPH
p3934
aVAMG
p3935
aVSHW
p3936
aVMHK
p3937
aVAET
p3938
aVWHR
p3939
aVULTA
p3940
aVAPD
p3941
aVFISV
p3942
aVSRE
p3943
aVCVS
p3944
aVSPG
p3945
aVEFX
p3946
aVPEP
p3947
aVAMT
p3948
aVRTN
p3949
aVESS
p3950
aVACN
p3951
aVUHS
p3952
aVICE
p3953
aVILMN
p3954
aVBIIB
p3955
aVREGN
p3956
asS'03062015'
p3957
(lp3958
VAMZN
p3959
aVWHR
p3960
aVHAR
p3961
aVDNB
p3962
aVXEC
p3963
aVLLL
p3964
aVHSY
p3965
aVBA
p3966
aVROP
p3967
aVAMP
p3968
aVZBH
p3969
aVCELG
p3970
aVHON
p3971
aVCMG
p3972
aVBIIB
p3973
aVHUM
p3974
aVABC
p3975
aVUNH
p3976
aVHD
p3977
aVMNK
p3978
aVEW
p3979
aVPXD
p3980
aVAET
p3981
aVGWW
p3982
aVSIG
p3983
aVFFIV
p3984
aVROST
p3985
aVUHS
p3986
aVPRGO
p3987
aVMNST
p3988
aVPCLN
p3989
asS'03082016'
p3990
(lp3991
VAZO
p3992
aVRTN
p3993
aVAPD
p3994
aVAET
p3995
aVHON
p3996
aVTRV
p3997
aVBDX
p3998
aVACN
p3999
aVEFX
p4000
aVGOOG
p4001
aVANTM
p4002
aVPXD
p4003
aVALXN
p4004
aVBIIB
p4005
aVILMN
p4006
aVAMG
p4007
aVAYI
p4008
aVAMZN
p4009
aVPCLN
p4010
asS'07022015'
p4011
(lp4012
VHUM
p4013
aVCXO
p4014
aVAVGO
p4015
aVFFIV
p4016
aVSWKS
p4017
aVRL
p4018
aVNOC
p4019
aVSIG
p4020
aVAMP
p4021
aVEXPE
p4022
aVSTZ
p4023
aVMON
p4024
aVPRGO
p4025
aVMNK
p4026
aVPXD
p4027
aVHON
p4028
aVHAR
p4029
aVSRCL
p4030
aVAET
p4031
aVEW
p4032
aVLLL
p4033
aVCVS
p4034
aVTMO
p4035
aVLH
p4036
aVUNH
p4037
aVUHS
p4038
asS'09142015'
p4039
(lp4040
VCMG
p4041
aVMNST
p4042
aVFFIV
p4043
aVTDG
p4044
aVPRGO
p4045
aVSTZ
p4046
aVGPN
p4047
aVRTN
p4048
aVLLL
p4049
aVNOC
p4050
aVUNH
p4051
aVHUM
p4052
aVANTM
p4053
aVPCLN
p4054
asS'11042016'
p4055
(lp4056
VPCLN
p4057
aVAGN
p4058
aVXEC
p4059
aVSHW
p4060
aVBIIB
p4061
aVSTZ
p4062
aVAYI
p4063
aVPVH
p4064
aVTMO
p4065
aVADBE
p4066
aVPH
p4067
aVINTU
p4068
aVNEE
p4069
aVSNA
p4070
aVROP
p4071
aVAVGO
p4072
aVCME
p4073
aVILMN
p4074
aVBDX
p4075
aVMLM
p4076
asS'11042015'
p4077
(lp4078
VGPN
p4079
aVSRCL
p4080
aVANTM
p4081
aVSTZ
p4082
aVEFX
p4083
aVACN
p4084
aVFB
p4085
aVHUM
p4086
aVAVGO
p4087
aVAET
p4088
aVHAR
p4089
aVEW
p4090
aVGILD
p4091
aVEXPE
p4092
aVLLL
p4093
aVTSO
p4094
aVWAT
p4095
aVWHR
p4096
aVNFLX
p4097
aVVRTX
p4098
aVGOOG
p4099
aVREGN
p4100
aVPCLN
p4101
asS'07152015'
p4102
(lp4103
VHUM
p4104
aVAVGO
p4105
aVHAR
p4106
aVSWKS
p4107
aVCXO
p4108
aVFFIV
p4109
aVPVH
p4110
aVROK
p4111
aVUHS
p4112
aVEXPE
p4113
aVGS
p4114
aVSTZ
p4115
aVAMP
p4116
aVGPN
p4117
aVHON
p4118
aVPXD
p4119
aVACN
p4120
aVLH
p4121
aVPRGO
p4122
aVMON
p4123
aVABC
p4124
aVVRTX
p4125
aVORLY
p4126
aVMNK
p4127
aVBA
p4128
aVNOC
p4129
aVLLL
p4130
asS'07152016'
p4131
(lp4132
VEQIX
p4133
aVDLR
p4134
aVMKC
p4135
aVTAP
p4136
aVSRE
p4137
aVSTZ
p4138
aVORLY
p4139
aVXEC
p4140
aVFISV
p4141
aVCXO
p4142
aVHON
p4143
aVAMT
p4144
aVULTA
p4145
aVINTU
p4146
aVISRG
p4147
aVPXD
p4148
aVPPG
p4149
aVPX
p4150
aVEW
p4151
aVIBM
p4152
aVAPD
p4153
aVAGN
p4154
aVILMN
p4155
aVMCK
p4156
aVICE
p4157
aVAYI
p4158
aVGS
p4159
aVPCLN
p4160
asS'08142015'
p4161
(lp4162
VCMG
p4163
aVAMZN
p4164
aVMNK
p4165
aVMNST
p4166
aVTMO
p4167
aVGS
p4168
aVLH
p4169
aVLLL
p4170
aVANTM
p4171
aVEQIX
p4172
aVBF-B
p4173
aVACN
p4174
aVUNH
p4175
aVNOC
p4176
aVAVGO
p4177
aVRTN
p4178
aVFFIV
p4179
aVHAR
p4180
aVPRGO
p4181
aVTSO
p4182
aVEXPE
p4183
aVMON
p4184
aVSRCL
p4185
aVAYI
p4186
aVHUM
p4187
aVSTZ
p4188
aVORLY
p4189
aVCXO
p4190
aVNFLX
p4191
asS'01262016'
p4192
(lp4193
VAYI
p4194
aVEQIX
p4195
aVPCLN
p4196
aVNOC
p4197
aVGOOG
p4198
aVIFF
p4199
aVAVGO
p4200
aVGWW
p4201
aVAMZN
p4202
aVFDX
p4203
aVWAT
p4204
aVLLL
p4205
aVREGN
p4206
aVUHS
p4207
aVMCD
p4208
aVACN
p4209
aVWHR
p4210
asS'01262017'
p4211
(lp4212
VTDG
p4213
aVALXN
p4214
aVBIIB
p4215
aVAGN
p4216
aVWHR
p4217
aVADP
p4218
aVFISV
p4219
aVEOG
p4220
aVGD
p4221
aVCVX
p4222
aVNVDA
p4223
aVBLK
p4224
aVAMT
p4225
aVAMP
p4226
aVLH
p4227
aVBXP
p4228
aVDLR
p4229
aVAPD
p4230
aVAYI
p4231
aVSTZ
p4232
aVILMN
p4233
aVLLL
p4234
aVCMI
p4235
aVCXO
p4236
aVSHW
p4237
aVISRG
p4238
aVAMZN
p4239
asS'09062016'
p4240
(lp4241
VULTA
p4242
aVPCLN
p4243
aVBIIB
p4244
aVGOOG
p4245
aVILMN
p4246
aVAYI
p4247
aVPH
p4248
aVTDG
p4249
aVEW
p4250
aVSHW
p4251
aVXEC
p4252
aVSTZ
p4253
aVECL
p4254
aVGS
p4255
aVCME
p4256
aVLLL
p4257
aVADBE
p4258
aVPM
p4259
aVFISV
p4260
aVPSA
p4261
aVAMZN
p4262
asS'03292016'
p4263
(lp4264
VPCLN
p4265
aVCXO
p4266
aVTMO
p4267
aVAZO
p4268
aVPXD
p4269
aVBDX
p4270
aVRTN
p4271
aVPEP
p4272
aVCVS
p4273
aVAMG
p4274
aVSPG
p4275
aVWHR
p4276
aVMHK
p4277
aVEFX
p4278
aVSWK
p4279
aVICE
p4280
aVILMN
p4281
aVREGN
p4282
aVACN
p4283
aVULTA
p4284
aVGOOG
p4285
asS'02112016'
p4286
(lp4287
VAMZN
p4288
aVREGN
p4289
aVGOOG
p4290
aVAZO
p4291
aVILMN
p4292
aVAYI
p4293
aVTMO
p4294
aVUHS
p4295
aVMHK
p4296
aVWAT
p4297
aVUNH
p4298
aVAMG
p4299
aVLMT
p4300
asS'01042016'
p4301
(lp4302
VPCLN
p4303
aVNFLX
p4304
aVULTA
p4305
aVDIS
p4306
aVEXPE
p4307
aVACN
p4308
aVAMGN
p4309
aVMCD
p4310
aVLLL
p4311
aVUNH
p4312
aVPEP
p4313
aVWAT
p4314
aVPRGO
p4315
aVTMO
p4316
aVUHS
p4317
aVTSO
p4318
aVRCL
p4319
aVTDG
p4320
aVGWW
p4321
asS'01042017'
p4322
(lp4323
VBLK
p4324
aVFDX
p4325
aVMLM
p4326
aVAPD
p4327
aVLLL
p4328
aVAMZN
p4329
aVNVDA
p4330
aVSNA
p4331
aVCXO
p4332
aVINTU
p4333
aVPH
p4334
aVORLY
p4335
aVEOG
p4336
aVAMP
p4337
aVCVX
p4338
aVAYI
p4339
aVULTA
p4340
aVBA
p4341
aVCMI
p4342
aVIBM
p4343
aVSLG
p4344
aVFISV
p4345
aVADBE
p4346
aVADP
p4347
aVNFLX
p4348
aVSPGI
p4349
aVWHR
p4350
aVAMT
p4351
aVBXP
p4352
aVPSA
p4353
aVISRG
p4354
aVEQIX
p4355
aVILMN
p4356
aVBIIB
p4357
aVAGN
p4358
asS'12162015'
p4359
(lp4360
VAMZN
p4361
aVGOOG
p4362
aVWHR
p4363
aVNFLX
p4364
aVLLL
p4365
aVREGN
p4366
aVSNA
p4367
aVDIS
p4368
aVUHS
p4369
aVNOC
p4370
aVACN
p4371
aVWAT
p4372
aVTMO
p4373
aVMCD
p4374
aVAMGN
p4375
aVGWW
p4376
aVABC
p4377
aVAVGO
p4378
aVPRGO
p4379
aVSRCL
p4380
aVAET
p4381
aVEXPE
p4382
aVPCLN
p4383
asS'12162016'
p4384
(lp4385
VPCLN
p4386
aVPVH
p4387
aVAYI
p4388
aVVMC
p4389
aVAMP
p4390
aVPH
p4391
aVLLL
p4392
aVCXO
p4393
aVPNC
p4394
aVSNA
p4395
aVBA
p4396
aVUNP
p4397
aVFDX
p4398
aVSHW
p4399
aVBXP
p4400
aVSPGI
p4401
aVMHK
p4402
aVXEC
p4403
aVINTU
p4404
aVEOG
p4405
aVSLG
p4406
aVIFF
p4407
aVAPD
p4408
aVFISV
p4409
aVORLY
p4410
aVCVX
p4411
aVPX
p4412
aVADBE
p4413
aVWHR
p4414
aVNEE
p4415
aVZBH
p4416
aVTDG
p4417
aVILMN
p4418
aVBLK
p4419
aVSTZ
p4420
aVAMZN
p4421
aVISRG
p4422
asS'07272016'
p4423
(lp4424
VEQIX
p4425
aVSHW
p4426
aVPCLN
p4427
aVDLR
p4428
aVXEC
p4429
aVNOC
p4430
aVPSA
p4431
aVINTU
p4432
aVHON
p4433
aVROP
p4434
aVCHD
p4435
aVAYI
p4436
aVNEE
p4437
aVMCK
p4438
aVBDX
p4439
aVSTZ
p4440
aVUHS
p4441
aVULTA
p4442
aVFISV
p4443
aVAMT
p4444
aVISRG
p4445
aVPPG
p4446
aVAON
p4447
aVSRCL
p4448
aVCME
p4449
aVPX
p4450
aVTDG
p4451
aVPH
p4452
aVFB
p4453
aVGS
p4454
aVEW
p4455
aVCTAS
p4456
aVILMN
p4457
aVAGN
p4458
aVBIIB
p4459
asS'01052017'
p4460
(lp4461
VBLK
p4462
aVFDX
p4463
aVNVDA
p4464
aVAPD
p4465
aVMLM
p4466
aVLLL
p4467
aVSNA
p4468
aVPH
p4469
aVCXO
p4470
aVINTU
p4471
aVCVX
p4472
aVPNC
p4473
aVORLY
p4474
aVEOG
p4475
aVCMI
p4476
aVAMP
p4477
aVBA
p4478
aVLRCX
p4479
aVIBM
p4480
aVADP
p4481
aVXEC
p4482
aVFISV
p4483
aVSLG
p4484
aVULTA
p4485
aVADBE
p4486
aVAYI
p4487
aVNEE
p4488
aVSTZ
p4489
aVMHK
p4490
aVAMT
p4491
aVWHR
p4492
aVNFLX
p4493
aVSPGI
p4494
aVPSA
p4495
aVAMZN
p4496
aVILMN
p4497
aVBIIB
p4498
aVAGN
p4499
asS'01052016'
p4500
(lp4501
VPCLN
p4502
aVGOOG
p4503
aVAVGO
p4504
aVEXPE
p4505
aVDIS
p4506
aVHD
p4507
aVACN
p4508
aVGILD
p4509
aVWAT
p4510
aVIFF
p4511
aVTMO
p4512
aVPRGO
p4513
aVFDX
p4514
aVIBM
p4515
aVRCL
p4516
aVUHS
p4517
aVHUM
p4518
aVSRCL
p4519
aVGWW
p4520
asS'03172016'
p4521
(lp4522
VRTN
p4523
aVBDX
p4524
aVNOC
p4525
aVUHS
p4526
aVSJM
p4527
aVLMT
p4528
aVCVS
p4529
aVPEP
p4530
aVAET
p4531
aVPH
p4532
aVICE
p4533
aVEFX
p4534
aVSPG
p4535
aVACN
p4536
aVAYI
p4537
aVAMG
p4538
aVPXD
p4539
aVAMZN
p4540
aVPCLN
p4541
aVGOOG
p4542
asS'03172015'
p4543
(lp4544
VPCLN
p4545
aVHAR
p4546
aVXEC
p4547
aVDNB
p4548
aVBA
p4549
aVZBH
p4550
aVMON
p4551
aVFFIV
p4552
aVPXD
p4553
aVLLL
p4554
aVAYI
p4555
aVROP
p4556
aVHON
p4557
aVCMI
p4558
aVGWW
p4559
aVAMP
p4560
aVCELG
p4561
aVTMO
p4562
aVUNH
p4563
aVUHS
p4564
aVAET
p4565
aVRL
p4566
aVMNK
p4567
aVSIG
p4568
aVHUM
p4569
aVEW
p4570
aVPRGO
p4571
aVCMG
p4572
asS'05092016'
p4573
(lp4574
VPCLN
p4575
aVAYI
p4576
aVGOOGL
p4577
aVGOOG
p4578
aVWHR
p4579
aVEW
p4580
aVPX
p4581
aVMCK
p4582
aVCMI
p4583
aVPXD
p4584
aVTDG
p4585
aVROP
p4586
aVSWK
p4587
aVSPGI
p4588
aVHON
p4589
aVXEC
p4590
aVINTU
p4591
aVHUM
p4592
aVHD
p4593
aVAET
p4594
aVMCD
p4595
aVPEP
p4596
aVBDX
p4597
aVSPG
p4598
aVFB
p4599
aVEQIX
p4600
aVESS
p4601
aVNOC
p4602
aVICE
p4603
aVAMZN
p4604
asS'05292015'
p4605
(lp4606
VGWW
p4607
aVPRGO
p4608
aVSIG
p4609
aVAYI
p4610
aVPXD
p4611
aVMNST
p4612
aVFFIV
p4613
aVBA
p4614
aVROK
p4615
aVMON
p4616
aVGPN
p4617
aVAMG
p4618
aVEFX
p4619
aVUTX
p4620
aVCXO
p4621
aVPVH
p4622
aVSJM
p4623
aVCELG
p4624
aVLLL
p4625
aVLH
p4626
aVEXPE
p4627
aVAET
p4628
aVEW
p4629
aVUHS
p4630
aVMNK
p4631
aVSWKS
p4632
aVHUM
p4633
asS'07122016'
p4634
(lp4635
VEQIX
p4636
aVDLR
p4637
aVSRE
p4638
aVXEC
p4639
aVHON
p4640
aVFISV
p4641
aVULTA
p4642
aVSRCL
p4643
aVIBM
p4644
aVAPD
p4645
aVVMC
p4646
aVINTU
p4647
aVWHR
p4648
aVILMN
p4649
aVORLY
p4650
aVICE
p4651
aVEW
p4652
aVMCK
p4653
aVSHW
p4654
aVISRG
p4655
aVBLK
p4656
aVAYI
p4657
aVAMZN
p4658
aVPCLN
p4659
asS'06202016'
p4660
(lp4661
VAMZN
p4662
aVICE
p4663
aVBLK
p4664
aVAYI
p4665
aVPXD
p4666
aVGS
p4667
aVXEC
p4668
aVFB
p4669
aVMHK
p4670
aVVMC
p4671
aVBDX
p4672
aVILMN
p4673
aVULTA
p4674
aVNOC
p4675
aVSHW
p4676
aVFISV
p4677
aVTRV
p4678
aVINTU
p4679
aVSWK
p4680
aVCMI
p4681
aVAPD
p4682
aVDLR
p4683
aVHON
p4684
aVWYNN
p4685
aVMKC
p4686
aVPEP
p4687
aVORLY
p4688
aVSRCL
p4689
aVSPG
p4690
aVPCLN
p4691
asS'03282016'
p4692
(lp4693
VPCLN
p4694
aVAYI
p4695
aVCXO
p4696
aVSPG
p4697
aVPEP
p4698
aVMHK
p4699
aVCVS
p4700
aVRTN
p4701
aVPXD
p4702
aVHON
p4703
aVAMG
p4704
aVAZO
p4705
aVEFX
p4706
aVWHR
p4707
aVUHS
p4708
aVICE
p4709
aVACN
p4710
aVULTA
p4711
aVGOOG
p4712
asS'01282016'
p4713
(lp4714
VPCLN
p4715
aVREGN
p4716
aVAYI
p4717
aVILMN
p4718
aVNOC
p4719
aVWAT
p4720
aVAET
p4721
aVEQIX
p4722
aVAVGO
p4723
aVLLL
p4724
aVGWW
p4725
aVACN
p4726
aVAMG
p4727
aVWHR
p4728
aVGOOG
p4729
aVAMZN
p4730
asS'04212016'
p4731
(lp4732
VEQIX
p4733
aVSPG
p4734
aVAAPL
p4735
aVTRV
p4736
aVWHR
p4737
aVNEE
p4738
aVSTZ
p4739
aVFISV
p4740
aVPEP
p4741
aVULTA
p4742
aVSJM
p4743
aVHD
p4744
aVCVS
p4745
aVLMT
p4746
aVFB
p4747
aVUHS
p4748
aVBDX
p4749
aVSWK
p4750
aVWAT
p4751
aVGOOG
p4752
aVPXD
p4753
aVXEC
p4754
aVAYI
p4755
aVICE
p4756
aVCMG
p4757
aVAMZN
p4758
aVPCLN
p4759
asS'04092015'
p4760
(lp4761
VBIIB
p4762
aVCMG
p4763
aVAVGO
p4764
aVHUM
p4765
aVMNK
p4766
aVAMP
p4767
aVAMGN
p4768
aVULTA
p4769
aVROP
p4770
aVAET
p4771
aVUNH
p4772
aVDIS
p4773
aVAYI
p4774
aVORLY
p4775
aVAAPL
p4776
aVLLL
p4777
aVWAT
p4778
aVHON
p4779
aVHSY
p4780
aVMCO
p4781
aVGWW
p4782
aVFFIV
p4783
aVTDG
p4784
aVGS
p4785
aVSIG
p4786
aVMON
p4787
aVAZO
p4788
aVPXD
p4789
aVPVH
p4790
aVCXO
p4791
aVISRG
p4792
aVPCLN
p4793
aVPRGO
p4794
asS'08162016'
p4795
(lp4796
VISRG
p4797
aVBIIB
p4798
aVSHW
p4799
aVFISV
p4800
aVPSA
p4801
aVORLY
p4802
aVAGN
p4803
aVEQIX
p4804
aVMCK
p4805
aVVMC
p4806
aVBDX
p4807
aVCELG
p4808
aVEW
p4809
aVSTZ
p4810
aVCME
p4811
aVCTAS
p4812
aVHON
p4813
aVILMN
p4814
aVCHD
p4815
aVALXN
p4816
aVAPD
p4817
aVPX
p4818
aVAAPL
p4819
aVPH
p4820
aVAYI
p4821
asS'09232015'
p4822
(lp4823
VVRTX
p4824
aVMLM
p4825
aVPRGO
p4826
aVFFIV
p4827
aVSRCL
p4828
aVAVGO
p4829
aVTDG
p4830
aVRTN
p4831
aVCMG
p4832
aVAET
p4833
aVHAR
p4834
aVLLL
p4835
aVORLY
p4836
aVHUM
p4837
aVUNH
p4838
aVNFLX
p4839
asS'09232016'
p4840
(lp4841
VXEC
p4842
aVAYI
p4843
aVGS
p4844
aVEQIX
p4845
aVPH
p4846
aVAMP
p4847
aVHUM
p4848
aVSLG
p4849
aVAMT
p4850
aVPM
p4851
aVLLL
p4852
aVFISV
p4853
aVWYNN
p4854
aVALXN
p4855
aVAAPL
p4856
aVPCLN
p4857
aVBIIB
p4858
aVSNA
p4859
aVILMN
p4860
aVADBE
p4861
aVSHW
p4862
aVPSA
p4863
aVTMO
p4864
aVGOOG
p4865
aVAMZN
p4866
asS'11112016'
p4867
(lp4868
VAMZN
p4869
aVSTZ
p4870
aVNEE
p4871
aVXEC
p4872
aVADBE
p4873
aVCXO
p4874
aVPX
p4875
aVCVX
p4876
aVINTU
p4877
aVBA
p4878
aVPVH
p4879
aVAGN
p4880
aVFFIV
p4881
aVPNC
p4882
aVADS
p4883
aVROP
p4884
aVSNA
p4885
aVCME
p4886
aVPH
p4887
aVSHW
p4888
aVAMP
p4889
aVGS
p4890
aVAYI
p4891
aVBIIB
p4892
aVMLM
p4893
aVPCLN
p4894
asS'07242015'
p4895
(lp4896
VANTM
p4897
aVROK
p4898
aVUHS
p4899
aVUNH
p4900
aVPXD
p4901
aVHUM
p4902
aVSRCL
p4903
aVHAR
p4904
aVCXO
p4905
aVNOC
p4906
aVGPN
p4907
aVEXPE
p4908
aVMON
p4909
aVVRTX
p4910
aVLH
p4911
aVHON
p4912
aVSTZ
p4913
aVCVS
p4914
aVACN
p4915
aVORLY
p4916
aVMNK
p4917
aVMTB
p4918
aVPRGO
p4919
aVTMO
p4920
aVMNST
p4921
aVFFIV
p4922
asS'02162016'
p4923
(lp4924
VGOOG
p4925
aVAMZN
p4926
aVREGN
p4927
aVFB
p4928
aVILMN
p4929
aVUHS
p4930
aVLMT
p4931
aVAYI
p4932
aVTMO
p4933
aVUNH
p4934
aVLLL
p4935
aVAZO
p4936
aVAMG
p4937
asS'10152015'
p4938
(lp4939
VORLY
p4940
aVAVGO
p4941
aVTSO
p4942
aVMTB
p4943
aVEW
p4944
aVCMG
p4945
aVHUM
p4946
aVCI
p4947
aVSTZ
p4948
aVUNH
p4949
aVANTM
p4950
aVLLL
p4951
aVWHR
p4952
aVGPN
p4953
aVVRTX
p4954
aVNFLX
p4955
aVPCLN
p4956
asS'06142016'
p4957
(lp4958
VBIIB
p4959
aVAMZN
p4960
aVICE
p4961
aVESS
p4962
aVXEC
p4963
aVMHK
p4964
aVVMC
p4965
aVFB
p4966
aVMCK
p4967
aVUHS
p4968
aVPXD
p4969
aVSWK
p4970
aVILMN
p4971
aVBDX
p4972
aVNOC
p4973
aVTRV
p4974
aVFISV
p4975
aVSTZ
p4976
aVHON
p4977
aVEW
p4978
aVUTX
p4979
aVORLY
p4980
aVPEP
p4981
aVDLR
p4982
aVPX
p4983
aVWHR
p4984
aVWYNN
p4985
aVULTA
p4986
aVPCLN
p4987
asS'10082015'
p4988
(lp4989
VAVGO
p4990
aVANTM
p4991
aVTDG
p4992
aVHUM
p4993
aVUNH
p4994
aVEXPE
p4995
aVVRTX
p4996
aVFFIV
p4997
aVKMB
p4998
aVAMZN
p4999
aVWHR
p5000
aVHAR
p5001
aVPCLN
p5002
aVNFLX
p5003
asS'06282016'
p5004
(lp5005
VPCLN
p5006
aVAMZN
p5007
aVGOOG
p5008
aVICE
p5009
aVISRG
p5010
aVPXD
p5011
aVMCK
p5012
aVEQIX
p5013
aVPPG
p5014
aVXEC
p5015
aVSHW
p5016
aVFB
p5017
aVNOC
p5018
aVHON
p5019
aVFISV
p5020
aVILMN
p5021
aVPEP
p5022
aVDLR
p5023
aVMKC
p5024
aVSTZ
p5025
aVPSA
p5026
aVORLY
p5027
asS'11292016'
p5028
(lp5029
VBIIB
p5030
aVMLM
p5031
aVVMC
p5032
aVPCLN
p5033
aVPVH
p5034
aVADBE
p5035
aVPH
p5036
aVPNC
p5037
aVSNA
p5038
aVCVX
p5039
aVBA
p5040
aVXEC
p5041
aVNEE
p5042
aVBDX
p5043
aVAGN
p5044
aVROP
p5045
aVTDG
p5046
aVIFF
p5047
aVSTZ
p5048
aVAMP
p5049
aVUNP
p5050
aVWHR
p5051
aVINTU
p5052
aVFISV
p5053
aVMHK
p5054
aVBXP
p5055
aVAYI
p5056
aVILMN
p5057
aVLLL
p5058
aVEQIX
p5059
aVHUM
p5060
aVWYNN
p5061
aVSHW
p5062
aVAMZN
p5063
asS'05012015'
p5064
(lp5065
VCMG
p5066
aVAZO
p5067
aVPRGO
p5068
aVHUM
p5069
aVHAR
p5070
aVMNK
p5071
aVPXD
p5072
aVBA
p5073
aVAMGN
p5074
aVLLL
p5075
aVUHS
p5076
aVSIG
p5077
aVPVH
p5078
aVCXO
p5079
aVAMP
p5080
aVSTZ
p5081
aVORLY
p5082
aVRL
p5083
aVCVS
p5084
aVHON
p5085
aVNKE
p5086
aVJNJ
p5087
aVESS
p5088
aVWAT
p5089
aVMPC
p5090
aVFFIV
p5091
aVGWW
p5092
aVPCLN
p5093
asS'05132015'
p5094
(lp5095
VPXD
p5096
aVAZO
p5097
aVNFLX
p5098
aVMNST
p5099
aVCXO
p5100
aVXEC
p5101
aVHAR
p5102
aVPRGO
p5103
aVRL
p5104
aVGWW
p5105
aVDIS
p5106
aVHUM
p5107
aVUHS
p5108
aVUNH
p5109
aVAET
p5110
aVAMP
p5111
aVLLL
p5112
aVMON
p5113
aVFFIV
p5114
aVHON
p5115
aVEXPE
p5116
aVCELG
p5117
aVCMG
p5118
aVROK
p5119
aVMNK
p5120
asS'05132016'
p5121
(lp5122
VPCLN
p5123
aVWHR
p5124
aVMCK
p5125
aVHUM
p5126
aVEW
p5127
aVSPG
p5128
aVCMI
p5129
aVAPD
p5130
aVUNH
p5131
aVSIG
p5132
aVPXD
p5133
aVCXO
p5134
aVMHK
p5135
aVSPGI
p5136
aVHD
p5137
aVSHW
p5138
aVHON
p5139
aVSWK
p5140
aVROP
p5141
aVINTU
p5142
aVXEC
p5143
aVPEP
p5144
aVBDX
p5145
aVNEE
p5146
aVESS
p5147
aVSJM
p5148
aVNOC
p5149
aVFISV
p5150
aVGOOG
p5151
asS'07062015'
p5152
(lp5153
VHUM
p5154
aVCXO
p5155
aVAVGO
p5156
aVFFIV
p5157
aVAET
p5158
aVSWKS
p5159
aVRL
p5160
aVEQIX
p5161
aVNOC
p5162
aVAMP
p5163
aVEXPE
p5164
aVPXD
p5165
aVSTZ
p5166
aVHAR
p5167
aVHON
p5168
aVPRGO
p5169
aVMON
p5170
aVMNK
p5171
aVSRCL
p5172
aVEW
p5173
aVCVS
p5174
aVPVH
p5175
aVLH
p5176
aVORLY
p5177
aVUNH
p5178
aVLLL
p5179
aVUHS
p5180
asS'07062016'
p5181
(lp5182
VPCLN
p5183
aVPXD
p5184
aVAPD
p5185
aVULTA
p5186
aVPPG
p5187
aVEQIX
p5188
aVHON
p5189
aVROP
p5190
aVPX
p5191
aVCHD
p5192
aVILMN
p5193
aVPEP
p5194
aVSRCL
p5195
aVFISV
p5196
aVVMC
p5197
aVDLR
p5198
aVNOC
p5199
aVMKC
p5200
aVMCK
p5201
aVSTZ
p5202
aVORLY
p5203
aVPSA
p5204
asS'05262015'
p5205
(lp5206
VAMZN
p5207
aVMNST
p5208
aVGWW
p5209
aVPXD
p5210
aVNFLX
p5211
aVHAR
p5212
aVFFIV
p5213
aVESS
p5214
aVSIG
p5215
aVEFX
p5216
aVSNA
p5217
aVPRGO
p5218
aVORLY
p5219
aVCXO
p5220
aVMON
p5221
aVROK
p5222
aVBA
p5223
aVUTX
p5224
aVBCR
p5225
aVHON
p5226
aVAYI
p5227
aVAMP
p5228
aVTDG
p5229
aVUNH
p5230
aVCELG
p5231
aVLLL
p5232
aVSWKS
p5233
aVEXPE
p5234
aVMNK
p5235
aVHUM
p5236
asS'05262016'
p5237
(lp5238
VPXD
p5239
aVEW
p5240
aVSHW
p5241
aVROP
p5242
aVNOC
p5243
aVPEP
p5244
aVBDX
p5245
aVCMI
p5246
aVESS
p5247
aVSIG
p5248
aVPCLN
p5249
aVSWK
p5250
aVHD
p5251
aVHON
p5252
aVXEC
p5253
aVULTA
p5254
aVFISV
p5255
aVACN
p5256
aVVMC
p5257
aVWHR
p5258
aVORLY
p5259
aVTRV
p5260
aVINTU
p5261
aVICE
p5262
aVBLK
p5263
aVMCK
p5264
aVTDG
p5265
aVBIIB
p5266
aVGOOG
p5267
asS'03032015'
p5268
(lp5269
VAMZN
p5270
aVCXO
p5271
aVXEC
p5272
aVHSY
p5273
aVBIIB
p5274
aVHAR
p5275
aVBA
p5276
aVAMP
p5277
aVMNK
p5278
aVDNB
p5279
aVROK
p5280
aVROP
p5281
aVPXD
p5282
aVCELG
p5283
aVHON
p5284
aVCMG
p5285
aVWDC
p5286
aVZBH
p5287
aVUNH
p5288
aVGILD
p5289
aVHD
p5290
aVPVH
p5291
aVSIG
p5292
aVHUM
p5293
aVGWW
p5294
aVFFIV
p5295
aVUHS
p5296
aVROST
p5297
aVPRGO
p5298
aVMNST
p5299
aVPCLN
p5300
asS'03032016'
p5301
(lp5302
VAPD
p5303
aVHON
p5304
aVLLL
p5305
aVTRV
p5306
aVLMT
p5307
aVACN
p5308
aVAET
p5309
aVEFX
p5310
aVBDX
p5311
aVAAP
p5312
aVPXD
p5313
aVTMO
p5314
aVBIIB
p5315
aVAMG
p5316
aVGOOG
p5317
aVAYI
p5318
aVPCLN
p5319
asS'11112015'
p5320
(lp5321
VPCLN
p5322
aVNOC
p5323
aVHAR
p5324
aVEXPE
p5325
aVACN
p5326
aVEQIX
p5327
aVAET
p5328
aVLLL
p5329
aVHUM
p5330
aVSRCL
p5331
aVGILD
p5332
aVSWK
p5333
aVEW
p5334
aVREGN
p5335
aVWHR
p5336
aVMCO
p5337
aVWAT
p5338
aVTSO
p5339
aVPRGO
p5340
aVNFLX
p5341
asS'04212015'
p5342
(lp5343
VAZO
p5344
aVBIIB
p5345
aVSIG
p5346
aVMNK
p5347
aVHUM
p5348
aVPVH
p5349
aVSTZ
p5350
aVEW
p5351
aVHON
p5352
aVAET
p5353
aVWAT
p5354
aVCVS
p5355
aVMCO
p5356
aVRTN
p5357
aVHSY
p5358
aVLLL
p5359
aVSNA
p5360
aVBA
p5361
aVUHS
p5362
aVPXD
p5363
aVRL
p5364
aVGS
p5365
aVAMP
p5366
aVCXO
p5367
aVFFIV
p5368
aVPRGO
p5369
aVPCLN
p5370
aVGWW
p5371
aVCMG
p5372
asS'12042015'
p5373
(lp5374
VREGN
p5375
aVTSO
p5376
aVDIS
p5377
aVGOOG
p5378
aVPX
p5379
aVWAT
p5380
aVLLL
p5381
aVNOC
p5382
aVRL
p5383
aVXEC
p5384
aVGILD
p5385
aVFB
p5386
aVPRGO
p5387
aVWHR
p5388
aVEXPE
p5389
aVEW
p5390
aVUHS
p5391
aVSRCL
p5392
aVACN
p5393
aVIFF
p5394
aVAET
p5395
aVUNH
p5396
asS'09032015'
p5397
(lp5398
VAMZN
p5399
aVORLY
p5400
aVPRGO
p5401
aVMNST
p5402
aVFFIV
p5403
aVTDG
p5404
aVVRTX
p5405
aVNOC
p5406
aVTMO
p5407
aVRTN
p5408
aVGPN
p5409
aVEQIX
p5410
aVLH
p5411
aVSRCL
p5412
aVUNH
p5413
aVGS
p5414
aVAET
p5415
aVLLL
p5416
aVMLM
p5417
aVHUM
p5418
aVCXO
p5419
aVNFLX
p5420
asS'09022016'
p5421
(lp5422
VPCLN
p5423
aVBIIB
p5424
aVILMN
p5425
aVCELG
p5426
aVISRG
p5427
aVORLY
p5428
aVAYI
p5429
aVPH
p5430
aVHUM
p5431
aVNOC
p5432
aVTDG
p5433
aVEW
p5434
aVBLK
p5435
aVSHW
p5436
aVZBH
p5437
aVSTZ
p5438
aVXEC
p5439
aVSNA
p5440
aVGS
p5441
aVCME
p5442
aVADBE
p5443
aVFISV
p5444
aVAMP
p5445
aVPSA
p5446
asS'09022015'
p5447
(lp5448
VCMG
p5449
aVAMZN
p5450
aVORLY
p5451
aVEQIX
p5452
aVMNST
p5453
aVPRGO
p5454
aVNOC
p5455
aVTDG
p5456
aVTMO
p5457
aVVRTX
p5458
aVRTN
p5459
aVGPN
p5460
aVGS
p5461
aVLH
p5462
aVSRCL
p5463
aVAET
p5464
aVLLL
p5465
aVUNH
p5466
aVHUM
p5467
aVCXO
p5468
aVPVH
p5469
aVNFLX
p5470
asS'09092015'
p5471
(lp5472
VPRGO
p5473
aVMNST
p5474
aVORLY
p5475
aVAZO
p5476
aVTDG
p5477
aVSRCL
p5478
aVFFIV
p5479
aVLH
p5480
aVSTZ
p5481
aVGPN
p5482
aVNOC
p5483
aVVRTX
p5484
aVUNH
p5485
aVRTN
p5486
aVLLL
p5487
aVHUM
p5488
aVANTM
p5489
aVEQIX
p5490
asS'09092016'
p5491
(lp5492
VULTA
p5493
aVBIIB
p5494
aVPCLN
p5495
aVGOOG
p5496
aVAYI
p5497
aVILMN
p5498
aVFFIV
p5499
aVSHW
p5500
aVPH
p5501
aVXEC
p5502
aVSNA
p5503
aVSTZ
p5504
aVEW
p5505
aVADBE
p5506
aVESS
p5507
aVROP
p5508
aVPM
p5509
aVFISV
p5510
aVAMP
p5511
aVPSA
p5512
asS'05112016'
p5513
(lp5514
VPCLN
p5515
aVWHR
p5516
aVULTA
p5517
aVAYI
p5518
aVEW
p5519
aVMCK
p5520
aVCMI
p5521
aVPXD
p5522
aVORLY
p5523
aVSIG
p5524
aVSPGI
p5525
aVHON
p5526
aVSWK
p5527
aVHD
p5528
aVINTU
p5529
aVACN
p5530
aVXEC
p5531
aVSPG
p5532
aVPEP
p5533
aVBDX
p5534
aVFB
p5535
aVFISV
p5536
aVGOOG
p5537
aVNOC
p5538
aVESS
p5539
aVPSA
p5540
aVICE
p5541
aVAMZN
p5542
asS'04222015'
p5543
(lp5544
VAZO
p5545
aVBIIB
p5546
aVMNK
p5547
aVSIG
p5548
aVPVH
p5549
aVHUM
p5550
aVSTZ
p5551
aVEW
p5552
aVPXD
p5553
aVHON
p5554
aVAET
p5555
aVWAT
p5556
aVCVS
p5557
aVLLL
p5558
aVMCO
p5559
aVTDG
p5560
aVRTN
p5561
aVUHS
p5562
aVAAPL
p5563
aVRL
p5564
aVCMG
p5565
aVCXO
p5566
aVPRGO
p5567
aVHAR
p5568
aVFFIV
p5569
aVGWW
p5570
aVWDC
p5571
aVPCLN
p5572
asS'12052016'
p5573
(lp5574
VPCLN
p5575
aVBIIB
p5576
aVMLM
p5577
aVVMC
p5578
aVMHK
p5579
aVTDG
p5580
aVBDX
p5581
aVSTZ
p5582
aVSNA
p5583
aVIBM
p5584
aVPVH
p5585
aVFISV
p5586
aVAMP
p5587
aVINTU
p5588
aVNFLX
p5589
aVROP
p5590
aVBRK-B
p5591
aVAYI
p5592
aVILMN
p5593
aVROK
p5594
aVEQIX
p5595
aVPH
p5596
aVCVX
p5597
aVNEE
p5598
aVAMZN
p5599
aVUNP
p5600
aVPX
p5601
aVSHW
p5602
aVISRG
p5603
aVBXP
p5604
aVSLG
p5605
aVIFF
p5606
aVLLL
p5607
aVAGN
p5608
aVAPD
p5609
aVORLY
p5610
aVURI
p5611
aVMCK
p5612
aVXEC
p5613
asS'06162016'
p5614
(lp5615
VBIIB
p5616
aVAMZN
p5617
aVBLK
p5618
aVAYI
p5619
aVGS
p5620
aVXEC
p5621
aVPXD
p5622
aVMHK
p5623
aVILMN
p5624
aVVMC
p5625
aVFB
p5626
aVINTU
p5627
aVCMI
p5628
aVTRV
p5629
aVNOC
p5630
aVSHW
p5631
aVFISV
p5632
aVEW
p5633
aVULTA
p5634
aVDLR
p5635
aVHON
p5636
aVUTX
p5637
aVWHR
p5638
aVORLY
p5639
aVPEP
p5640
aVWYNN
p5641
aVSPG
p5642
aVPCLN
p5643
asS'06162015'
p5644
(lp5645
VPPG
p5646
aVHUM
p5647
aVPRGO
p5648
aVMNK
p5649
aVAVGO
p5650
aVROK
p5651
aVMON
p5652
aVVRTX
p5653
aVSWKS
p5654
aVEXPE
p5655
aVSTZ
p5656
aVSRCL
p5657
aVFFIV
p5658
aVGPN
p5659
aVHON
p5660
aVAMGN
p5661
aVLLL
p5662
aVAYI
p5663
aVRL
p5664
aVUNH
p5665
aVLH
p5666
aVHAR
p5667
aVPXD
p5668
aVMTB
p5669
aVCXO
p5670
asS'04132015'
p5671
(lp5672
VBIIB
p5673
aVAVGO
p5674
aVHUM
p5675
aVAMP
p5676
aVULTA
p5677
aVAYI
p5678
aVAET
p5679
aVTMO
p5680
aVUHS
p5681
aVNKE
p5682
aVCVS
p5683
aVSIG
p5684
aVAMGN
p5685
aVHSY
p5686
aVHON
p5687
aVWAT
p5688
aVMCO
p5689
aVBA
p5690
aVHAR
p5691
aVGWW
p5692
aVSTZ
p5693
aVSHW
p5694
aVAZO
p5695
aVPXD
p5696
aVPVH
p5697
aVCXO
p5698
aVMON
p5699
aVRL
p5700
aVCMG
p5701
aVPCLN
p5702
aVISRG
p5703
aVPRGO
p5704
asS'04132016'
p5705
(lp5706
VPCLN
p5707
aVEQIX
p5708
aVESS
p5709
aVGOOG
p5710
aVGOOGL
p5711
aVCVS
p5712
aVTRV
p5713
aVWHR
p5714
aVAPD
p5715
aVUHS
p5716
aVAAPL
p5717
aVTMO
p5718
aVNOC
p5719
aVPXD
p5720
aVPEP
p5721
aVLMT
p5722
aVRTN
p5723
aVCXO
p5724
aVICE
p5725
aVULTA
p5726
aVCELG
p5727
aVXEC
p5728
aVILMN
p5729
aVEW
p5730
asS'08062015'
p5731
(lp5732
VMNK
p5733
aVLLL
p5734
aVAVGO
p5735
aVGS
p5736
aVCVS
p5737
aVTMO
p5738
aVMNST
p5739
aVMTB
p5740
aVUHS
p5741
aVPRGO
p5742
aVANTM
p5743
aVUNH
p5744
aVACN
p5745
aVHUM
p5746
aVLH
p5747
aVEFX
p5748
aVNOC
p5749
aVBF-B
p5750
aVSTZ
p5751
aVPXD
p5752
aVFFIV
p5753
aVCXO
p5754
aVSRCL
p5755
aVMLM
p5756
aVHAR
p5757
aVVRTX
p5758
aVEXPE
p5759
aVCMG
p5760
asS'09302016'
p5761
(lp5762
VGS
p5763
aVBLK
p5764
aVALXN
p5765
aVWYNN
p5766
aVFB
p5767
aVPCLN
p5768
aVUTX
p5769
aVSTZ
p5770
aVFISV
p5771
aVGOOG
p5772
aVBIIB
p5773
aVPH
p5774
aVPX
p5775
aVILMN
p5776
aVXEC
p5777
aVAYI
p5778
aVZBH
p5779
aVADBE
p5780
aVSHW
p5781
aVTMO
p5782
aVPSA
p5783
aVAMZN
p5784
asS'06082016'
p5785
(lp5786
VBIIB
p5787
aVESS
p5788
aVVMC
p5789
aVBLK
p5790
aVNOC
p5791
aVSWK
p5792
aVXEC
p5793
aVBDX
p5794
aVACN
p5795
aVPEP
p5796
aVEW
p5797
aVFISV
p5798
aVTRV
p5799
aVINTU
p5800
aVAMG
p5801
aVCXO
p5802
aVORLY
p5803
aVIBM
p5804
aVMCK
p5805
aVSJM
p5806
aVMHK
p5807
aVILMN
p5808
aVGOOG
p5809
aVWHR
p5810
aVULTA
p5811
aVPCLN
p5812
asS'06082015'
p5813
(lp5814
VPRGO
p5815
aVGWW
p5816
aVAYI
p5817
aVMON
p5818
aVFFIV
p5819
aVCMG
p5820
aVMNK
p5821
aVCELG
p5822
aVSWKS
p5823
aVUNH
p5824
aVUHS
p5825
aVNKE
p5826
aVHON
p5827
aVROK
p5828
aVGPN
p5829
aVLLL
p5830
aVMNST
p5831
aVUTX
p5832
aVTMO
p5833
aVNOC
p5834
aVAET
p5835
aVSRCL
p5836
aVCXO
p5837
aVPXD
p5838
aVLH
p5839
aVHUM
p5840
asS'10282015'
p5841
(lp5842
VSTZ
p5843
aVANTM
p5844
aVMLM
p5845
aVEFX
p5846
aVTSO
p5847
aVGPN
p5848
aVAET
p5849
aVHAR
p5850
aVFFIV
p5851
aVIFF
p5852
aVMHK
p5853
aVACN
p5854
aVNFLX
p5855
aVORLY
p5856
aVFB
p5857
aVGS
p5858
aVNOC
p5859
aVSHW
p5860
aVPCLN
p5861
asS'10282016'
p5862
(lp5863
VAMZN
p5864
aVSHW
p5865
aVAYI
p5866
aVXEC
p5867
aVPVH
p5868
aVILMN
p5869
aVROP
p5870
aVBDX
p5871
aVSTZ
p5872
aVADBE
p5873
aVCME
p5874
aVPH
p5875
aVCLX
p5876
aVFB
p5877
aVINTU
p5878
aVSNA
p5879
aVGS
p5880
aVFFIV
p5881
asS'05312016'
p5882
(lp5883
VROP
p5884
aVNOC
p5885
aVSHW
p5886
aVBDX
p5887
aVXEC
p5888
aVPEP
p5889
aVFB
p5890
aVVMC
p5891
aVHD
p5892
aVAZO
p5893
aVESS
p5894
aVCMI
p5895
aVCXO
p5896
aVFISV
p5897
aVMHK
p5898
aVCMG
p5899
aVACN
p5900
aVAET
p5901
aVTRV
p5902
aVICE
p5903
aVINTU
p5904
aVMCK
p5905
aVHUM
p5906
aVWHR
p5907
aVBLK
p5908
aVORLY
p5909
aVPCLN
p5910
aVILMN
p5911
aVULTA
p5912
aVGOOG
p5913
asS'01232017'
p5914
(lp5915
VTDG
p5916
aVBIIB
p5917
aVAYI
p5918
aVAGN
p5919
aVCVX
p5920
aVADP
p5921
aVAMP
p5922
aVEOG
p5923
aVSYK
p5924
aVFISV
p5925
aVGD
p5926
aVLLL
p5927
aVAPD
p5928
aVAMT
p5929
aVCXO
p5930
aVDLR
p5931
aVSTZ
p5932
aVMLM
p5933
aVCMI
p5934
aVCI
p5935
aVSHW
p5936
aVGOOG
p5937
aVSPGI
p5938
aVISRG
p5939
aVILMN
p5940
aVAMZN
p5941
asS'09112015'
p5942
(lp5943
VMNST
p5944
aVPRGO
p5945
aVSRCL
p5946
aVTDG
p5947
aVFFIV
p5948
aVSTZ
p5949
aVCXO
p5950
aVLH
p5951
aVGPN
p5952
aVRTN
p5953
aVLLL
p5954
aVAET
p5955
aVNOC
p5956
aVUNH
p5957
aVGS
p5958
aVHUM
p5959
aVANTM
p5960
asS'12282016'
p5961
(lp5962
VAYI
p5963
aVBLK
p5964
aVFDX
p5965
aVLLL
p5966
aVAMP
p5967
aVCMI
p5968
aVSLG
p5969
aVCXO
p5970
aVMLM
p5971
aVEOG
p5972
aVPX
p5973
aVAPD
p5974
aVPH
p5975
aVSNA
p5976
aVINTU
p5977
aVBA
p5978
aVIBM
p5979
aVPNC
p5980
aVCVX
p5981
aVVMC
p5982
aVSRE
p5983
aVSHW
p5984
aVFISV
p5985
aVPSA
p5986
aVADBE
p5987
aVNFLX
p5988
aVSTZ
p5989
aVGOOGL
p5990
aVMHK
p5991
aVSYK
p5992
aVWHR
p5993
aVTDG
p5994
aVEQIX
p5995
aVNVDA
p5996
aVAMZN
p5997
aVAGN
p5998
asS'07302015'
p5999
(lp6000
VROK
p6001
aVGS
p6002
aVUHS
p6003
aVLLL
p6004
aVAVGO
p6005
aVUNH
p6006
aVEXPE
p6007
aVORLY
p6008
aVMON
p6009
aVANTM
p6010
aVMNK
p6011
aVHUM
p6012
aVVRTX
p6013
aVAMP
p6014
aVACN
p6015
aVMLM
p6016
aVMTB
p6017
aVHON
p6018
aVHAR
p6019
aVCVS
p6020
aVLH
p6021
aVWAT
p6022
aVEFX
p6023
aVCXO
p6024
aVNOC
p6025
aVPRGO
p6026
aVMNST
p6027
aVFFIV
p6028
aVAMZN
p6029
asS'12282015'
p6030
(lp6031
VGOOG
p6032
aVREGN
p6033
aVPCLN
p6034
aVNFLX
p6035
aVAAPL
p6036
aVDIS
p6037
aVTSO
p6038
aVACN
p6039
aVLLL
p6040
aVIFF
p6041
aVEXPE
p6042
aVPEP
p6043
aVAMGN
p6044
aVPRGO
p6045
aVUHS
p6046
aVAET
p6047
aVSRCL
p6048
asS'02202015'
p6049
(lp6050
VCMG
p6051
aVUNH
p6052
aVMNST
p6053
aVCELG
p6054
aVSIG
p6055
aVUNP
p6056
aVHAR
p6057
aVHD
p6058
aVGWW
p6059
aVANTM
p6060
aVHON
p6061
aVAMP
p6062
aVPRGO
p6063
aVHUM
p6064
aVEW
p6065
aVUHS
p6066
aVPXD
p6067
aVDIS
p6068
aVAVGO
p6069
aVMON
p6070
aVZBH
p6071
aVROK
p6072
aVPVH
p6073
aVMNK
p6074
aVAMZN
p6075
aVROP
p6076
aVXEC
p6077
aVSPGI
p6078
aVWDC
p6079
aVISRG
p6080
aVDNB
p6081
aVREGN
p6082
aVPCLN
p6083
asS'07282015'
p6084
(lp6085
VROK
p6086
aVUHS
p6087
aVANTM
p6088
aVGS
p6089
aVNOC
p6090
aVUNH
p6091
aVVRTX
p6092
aVEXPE
p6093
aVMON
p6094
aVCXO
p6095
aVPX
p6096
aVHAR
p6097
aVSRCL
p6098
aVHUM
p6099
aVHON
p6100
aVLH
p6101
aVLLL
p6102
aVORLY
p6103
aVACN
p6104
aVCVS
p6105
aVSTZ
p6106
aVEFX
p6107
aVMTB
p6108
aVMNK
p6109
aVTMO
p6110
aVAZO
p6111
aVFFIV
p6112
asS'07282016'
p6113
(lp6114
VEQIX
p6115
aVSHW
p6116
aVPSA
p6117
aVPCLN
p6118
aVNOC
p6119
aVINTU
p6120
aVMCK
p6121
aVXEC
p6122
aVDLR
p6123
aVHON
p6124
aVAYI
p6125
aVSTZ
p6126
aVROP
p6127
aVBDX
p6128
aVAMT
p6129
aVPPG
p6130
aVROK
p6131
aVFISV
p6132
aVISRG
p6133
aVPX
p6134
aVSRCL
p6135
aVCME
p6136
aVPH
p6137
aVTDG
p6138
aVFB
p6139
aVEW
p6140
aVCTAS
p6141
aVAMG
p6142
aVWYNN
p6143
aVAGN
p6144
aVILMN
p6145
aVBIIB
p6146
asS'11162016'
p6147
(lp6148
VAMZN
p6149
aVEQIX
p6150
aVSTZ
p6151
aVNEE
p6152
aVFB
p6153
aVIFF
p6154
aVADBE
p6155
aVAGN
p6156
aVCXO
p6157
aVPX
p6158
aVXEC
p6159
aVPVH
p6160
aVCVX
p6161
aVBA
p6162
aVINTU
p6163
aVPSA
p6164
aVILMN
p6165
aVBXP
p6166
aVPNC
p6167
aVSNA
p6168
aVSLG
p6169
aVPCLN
p6170
aVPH
p6171
aVSHW
p6172
aVGS
p6173
aVAMP
p6174
aVHUM
p6175
aVMLM
p6176
aVAYI
p6177
asS'11162015'
p6178
(lp6179
VPCLN
p6180
aVREGN
p6181
aVEXPE
p6182
aVORLY
p6183
aVEQIX
p6184
aVHUM
p6185
aVNOC
p6186
aVPRGO
p6187
aVAET
p6188
aVGILD
p6189
aVEW
p6190
aVLLL
p6191
aVAVGO
p6192
aVWHR
p6193
aVFB
p6194
aVWAT
p6195
aVTSO
p6196
aVSRCL
p6197
aVNFLX
p6198
aVMLM
p6199
asS'08222016'
p6200
(lp6201
VISRG
p6202
aVBIIB
p6203
aVSHW
p6204
aVESS
p6205
aVORLY
p6206
aVMCK
p6207
aVCELG
p6208
aVBLK
p6209
aVFISV
p6210
aVPSA
p6211
aVEQIX
p6212
aVBDX
p6213
aVAAPL
p6214
aVDLR
p6215
aVILMN
p6216
aVSTZ
p6217
aVEW
p6218
aVINTU
p6219
aVHON
p6220
aVCME
p6221
aVADBE
p6222
aVPM
p6223
aVPH
p6224
aVCTAS
p6225
aVAYI
p6226
aVPX
p6227
aVPCLN
p6228
asS'08122015'
p6229
(lp6230
VAMZN
p6231
aVMNK
p6232
aVCMG
p6233
aVTMO
p6234
aVGS
p6235
aVLLL
p6236
aVPRGO
p6237
aVANTM
p6238
aVACN
p6239
aVUNH
p6240
aVAVGO
p6241
aVROK
p6242
aVBF-B
p6243
aVEFX
p6244
aVFFIV
p6245
aVORLY
p6246
aVVRTX
p6247
aVHUM
p6248
aVEXPE
p6249
aVSTZ
p6250
aVSRCL
p6251
aVHAR
p6252
aVAYI
p6253
aVTSO
p6254
aVPXD
p6255
aVCXO
p6256
asS'08122016'
p6257
(lp6258
VISRG
p6259
aVPSA
p6260
aVEQIX
p6261
aVFISV
p6262
aVAGN
p6263
aVSHW
p6264
aVBLK
p6265
aVSPGI
p6266
aVORLY
p6267
aVBDX
p6268
aVAPD
p6269
aVEW
p6270
aVCME
p6271
aVULTA
p6272
aVCELG
p6273
aVINTU
p6274
aVSTZ
p6275
aVILMN
p6276
aVAON
p6277
aVBIIB
p6278
aVCHD
p6279
aVTDG
p6280
aVAMZN
p6281
aVAYI
p6282
aVPH
p6283
asS'01082016'
p6284
(lp6285
VPCLN
p6286
aVAMZN
p6287
aVGOOG
p6288
aVREGN
p6289
aVAVGO
p6290
aVFDX
p6291
aVHD
p6292
aVSNA
p6293
aVUNH
p6294
aVWAT
p6295
aVDIS
p6296
aVACN
p6297
aVUHS
p6298
aVIBM
p6299
aVGILD
p6300
aVIFF
p6301
aVLLL
p6302
aVGWW
p6303
aVPRGO
p6304
aVAET
p6305
aVTDG
p6306
aVTSO
p6307
asS'12302015'
p6308
(lp6309
VNFLX
p6310
aVDIS
p6311
aVTSO
p6312
aVACN
p6313
aVLLL
p6314
aVGILD
p6315
aVAMGN
p6316
aVREGN
p6317
aVAET
p6318
aVUHS
p6319
aVTMO
p6320
aVGOOG
p6321
aVPCLN
p6322
aVRCL
p6323
asS'09292016'
p6324
(lp6325
VGS
p6326
aVALXN
p6327
aVWYNN
p6328
aVPCLN
p6329
aVXEC
p6330
aVBIIB
p6331
aVSTZ
p6332
aVPH
p6333
aVFISV
p6334
aVILMN
p6335
aVZBH
p6336
aVGOOG
p6337
aVAMT
p6338
aVADBE
p6339
aVSHW
p6340
aVTMO
p6341
aVPSA
p6342
aVAMZN
p6343
asS'09292015'
p6344
(lp6345
VPCLN
p6346
aVAMZN
p6347
aVVRTX
p6348
aVPRGO
p6349
aVEQIX
p6350
aVTDG
p6351
aVHUM
p6352
aVSTZ
p6353
aVUNH
p6354
aVNOC
p6355
aVAZO
p6356
aVTMO
p6357
aVLLL
p6358
aVORLY
p6359
aVFFIV
p6360
aVKMB
p6361
aVTSO
p6362
aVNFLX
p6363
asS'04142016'
p6364
(lp6365
VESS
p6366
aVEQIX
p6367
aVPCLN
p6368
aVFB
p6369
aVCVS
p6370
aVWHR
p6371
aVFISV
p6372
aVSPG
p6373
aVAPD
p6374
aVGOOG
p6375
aVEFX
p6376
aVPH
p6377
aVNOC
p6378
aVUHS
p6379
aVHON
p6380
aVPEP
p6381
aVAAPL
p6382
aVLMT
p6383
aVRTN
p6384
aVPXD
p6385
aVCXO
p6386
aVICE
p6387
aVBDX
p6388
aVULTA
p6389
aVCELG
p6390
aVILMN
p6391
aVAYI
p6392
asS'10172016'
p6393
(lp6394
VPCLN
p6395
aVILMN
p6396
aVAMZN
p6397
aVBIIB
p6398
aVIFF
p6399
aVAPD
p6400
aVBDX
p6401
aVFDX
p6402
aVEW
p6403
aVAYI
p6404
aVBLK
p6405
aVSYK
p6406
aVADBE
p6407
aVFB
p6408
aVGOOG
p6409
aVSNA
p6410
aVINTU
p6411
aVPH
p6412
aVSHW
p6413
aVCVX
p6414
aVSLG
p6415
aVSTZ
p6416
aVPSA
p6417
aVXEC
p6418
asS'09132016'
p6419
(lp6420
VPCLN
p6421
aVBIIB
p6422
aVULTA
p6423
aVAYI
p6424
aVBLK
p6425
aVXEC
p6426
aVFFIV
p6427
aVSHW
p6428
aVILMN
p6429
aVSNA
p6430
aVPH
p6431
aVBDX
p6432
aVEQIX
p6433
aVESS
p6434
aVSTZ
p6435
aVEW
p6436
aVGS
p6437
aVLLL
p6438
aVPSA
p6439
aVFISV
p6440
aVEFX
p6441
asS'04142015'
p6442
(lp6443
VBIIB
p6444
aVAVGO
p6445
aVHUM
p6446
aVMNK
p6447
aVAYI
p6448
aVULTA
p6449
aVAMP
p6450
aVSIG
p6451
aVEW
p6452
aVMPC
p6453
aVAET
p6454
aVTMO
p6455
aVUHS
p6456
aVDIS
p6457
aVWAT
p6458
aVHON
p6459
aVMCO
p6460
aVAZO
p6461
aVHSY
p6462
aVSTZ
p6463
aVHAR
p6464
aVBA
p6465
aVGWW
p6466
aVSHW
p6467
aVPVH
p6468
aVPXD
p6469
aVCXO
p6470
aVMON
p6471
aVRL
p6472
aVCMG
p6473
aVPRGO
p6474
asS'09212016'
p6475
(lp6476
VAYI
p6477
aVXEC
p6478
aVEQIX
p6479
aVGS
p6480
aVSLG
p6481
aVROP
p6482
aVBLK
p6483
aVBIIB
p6484
aVAMT
p6485
aVHUM
p6486
aVPH
p6487
aVSTZ
p6488
aVSHW
p6489
aVSNA
p6490
aVBDX
p6491
aVILMN
p6492
aVPCLN
p6493
aVAAPL
p6494
aVAMZN
p6495
aVWYNN
p6496
asS'08092016'
p6497
(lp6498
VEQIX
p6499
aVPSA
p6500
aVFISV
p6501
aVISRG
p6502
aVDLR
p6503
aVEFX
p6504
aVMCK
p6505
aVSHW
p6506
aVAGN
p6507
aVBDX
p6508
aVHSY
p6509
aVAMT
p6510
aVSTZ
p6511
aVINTU
p6512
aVCTAS
p6513
aVPEP
p6514
aVAPD
p6515
aVSPGI
p6516
aVHON
p6517
aVAON
p6518
aVEW
p6519
aVCME
p6520
aVFB
p6521
aVCHD
p6522
aVORLY
p6523
aVAYI
p6524
aVAMG
p6525
aVCELG
p6526
aVILMN
p6527
aVBLK
p6528
aVVRTX
p6529
aVAMZN
p6530
aVPH
p6531
aVALXN
p6532
aVBIIB
p6533
asS'09192016'
p6534
(lp6535
VULTA
p6536
aVAYI
p6537
aVBIIB
p6538
aVXEC
p6539
aVSLG
p6540
aVUTX
p6541
aVGS
p6542
aVSHW
p6543
aVROP
p6544
aVEQIX
p6545
aVHUM
p6546
aVPH
p6547
aVSTZ
p6548
aVSNA
p6549
aVPSA
p6550
aVAMP
p6551
aVBDX
p6552
aVPCLN
p6553
aVILMN
p6554
aVNEE
p6555
aVWYNN
p6556
asS'07112016'
p6557
(lp6558
VEQIX
p6559
aVXEC
p6560
aVCHD
p6561
aVDLR
p6562
aVSRE
p6563
aVULTA
p6564
aVHON
p6565
aVILMN
p6566
aVSRCL
p6567
aVFISV
p6568
aVAPD
p6569
aVNOC
p6570
aVVMC
p6571
aVICE
p6572
aVEW
p6573
aVSTZ
p6574
aVMCK
p6575
aVORLY
p6576
aVSHW
p6577
aVAYI
p6578
aVISRG
p6579
aVAMZN
p6580
aVPCLN
p6581
asS'10032016'
p6582
(lp6583
VGS
p6584
aVBLK
p6585
aVALXN
p6586
aVWYNN
p6587
aVGOOG
p6588
aVEQIX
p6589
aVINTU
p6590
aVSTZ
p6591
aVPH
p6592
aVPX
p6593
aVILMN
p6594
aVSHW
p6595
aVADBE
p6596
aVAYI
p6597
aVXEC
p6598
aVPSA
p6599
aVTMO
p6600
aVPCLN
p6601
aVAMZN
p6602
asS'06272016'
p6603
(lp6604
VPCLN
p6605
aVAMZN
p6606
aVGOOG
p6607
aVICE
p6608
aVWHR
p6609
aVWYNN
p6610
aVPXD
p6611
aVISRG
p6612
aVEQIX
p6613
aVSHW
p6614
aVXEC
p6615
aVAET
p6616
aVPPG
p6617
aVFB
p6618
aVNOC
p6619
aVFISV
p6620
aVHON
p6621
aVPX
p6622
aVDHR
p6623
aVILMN
p6624
aVVMC
p6625
aVSTZ
p6626
aVPEP
p6627
aVDLR
p6628
aVMKC
p6629
aVSRCL
p6630
aVORLY
p6631
asS'08072015'
p6632
(lp6633
VMNK
p6634
aVLLL
p6635
aVGS
p6636
aVAVGO
p6637
aVAMZN
p6638
aVMNST
p6639
aVTMO
p6640
aVMTB
p6641
aVMCO
p6642
aVAMG
p6643
aVPRGO
p6644
aVANTM
p6645
aVACN
p6646
aVUNH
p6647
aVLH
p6648
aVEFX
p6649
aVHUM
p6650
aVFFIV
p6651
aVPXD
p6652
aVSTZ
p6653
aVSRCL
p6654
aVCXO
p6655
aVVRTX
p6656
aVCMG
p6657
aVHAR
p6658
aVEXPE
p6659
asS'03252015'
p6660
(lp6661
VPCLN
p6662
aVBA
p6663
aVHAR
p6664
aVAVGO
p6665
aVDNB
p6666
aVMON
p6667
aVTDG
p6668
aVICE
p6669
aVGS
p6670
aVPRGO
p6671
aVLLL
p6672
aVCELG
p6673
aVUNH
p6674
aVMNK
p6675
aVROP
p6676
aVHON
p6677
aVFFIV
p6678
aVSWKS
p6679
aVSRCL
p6680
aVXEC
p6681
aVMPC
p6682
aVGWW
p6683
aVUHS
p6684
aVNKE
p6685
aVHSY
p6686
aVAET
p6687
aVEW
p6688
aVANTM
p6689
aVPXD
p6690
aVTMO
p6691
aVSIG
p6692
aVPVH
p6693
aVHUM
p6694
aVRL
p6695
aVCMG
p6696
aVBIIB
p6697
asS'05062016'
p6698
(lp6699
VPCLN
p6700
aVGOOG
p6701
aVAYI
p6702
aVWHR
p6703
aVEW
p6704
aVMCK
p6705
aVULTA
p6706
aVPX
p6707
aVORLY
p6708
aVTDG
p6709
aVCMI
p6710
aVROP
p6711
aVPXD
p6712
aVSWK
p6713
aVHON
p6714
aVXEC
p6715
aVSPGI
p6716
aVSIG
p6717
aVHD
p6718
aVPEP
p6719
aVBDX
p6720
aVSPG
p6721
aVBCR
p6722
aVEQIX
p6723
aVESS
p6724
aVLMT
p6725
aVICE
p6726
aVAMZN
p6727
asS'05062015'
p6728
(lp6729
VCMG
p6730
aVHAR
p6731
aVHUM
p6732
aVPXD
p6733
aVPRGO
p6734
aVNFLX
p6735
aVLLL
p6736
aVBA
p6737
aVCXO
p6738
aVUHS
p6739
aVORLY
p6740
aVUNH
p6741
aVAVGO
p6742
aVSIG
p6743
aVTDG
p6744
aVMNK
p6745
aVTMO
p6746
aVAMP
p6747
aVAET
p6748
aVRL
p6749
aVMNST
p6750
aVMON
p6751
aVPVH
p6752
aVMPC
p6753
aVGWW
p6754
aVFFIV
p6755
aVSWK
p6756
aVPCLN
p6757
asS'01062016'
p6758
(lp6759
VPCLN
p6760
aVAMZN
p6761
aVREGN
p6762
aVGOOG
p6763
aVAVGO
p6764
aVDIS
p6765
aVAMGN
p6766
aVHD
p6767
aVSNA
p6768
aVWAT
p6769
aVFDX
p6770
aVTMO
p6771
aVACN
p6772
aVIFF
p6773
aVUNH
p6774
aVLLL
p6775
aVIBM
p6776
aVNOC
p6777
aVPRGO
p6778
aVHUM
p6779
aVGWW
p6780
aVSRCL
p6781
asS'11212016'
p6782
(lp6783
VTDG
p6784
aVNEE
p6785
aVEQIX
p6786
aVIFF
p6787
aVAGN
p6788
aVSTZ
p6789
aVADBE
p6790
aVBA
p6791
aVPX
p6792
aVPVH
p6793
aVFFIV
p6794
aVCVX
p6795
aVUTX
p6796
aVPCLN
p6797
aVEFX
p6798
aVXEC
p6799
aVFISV
p6800
aVSNA
p6801
aVINTU
p6802
aVPH
p6803
aVCTAS
p6804
aVSLG
p6805
aVWHR
p6806
aVROP
p6807
aVILMN
p6808
aVMLM
p6809
aVPNC
p6810
aVAMZN
p6811
aVMHK
p6812
aVAMP
p6813
aVSHW
p6814
aVHUM
p6815
aVBIIB
p6816
aVAYI
p6817
asS'12232015'
p6818
(lp6819
VGOOG
p6820
aVAMZN
p6821
aVREGN
p6822
aVNFLX
p6823
aVAAPL
p6824
aVDIS
p6825
aVLLL
p6826
aVWHR
p6827
aVAVGO
p6828
aVLH
p6829
aVPCLN
p6830
aVWAT
p6831
aVAMGN
p6832
aVIBM
p6833
aVABC
p6834
aVEXPE
p6835
aVUHS
p6836
aVAET
p6837
aVSRCL
p6838
asS'12232016'
p6839
(lp6840
VAYI
p6841
aVFDX
p6842
aVLLL
p6843
aVAMP
p6844
aVCMI
p6845
aVCXO
p6846
aVBLK
p6847
aVPX
p6848
aVEOG
p6849
aVAPD
p6850
aVPH
p6851
aVSNA
p6852
aVINTU
p6853
aVPNC
p6854
aVBA
p6855
aVSHW
p6856
aVCVX
p6857
aVCI
p6858
aVSTZ
p6859
aVPSA
p6860
aVLRCX
p6861
aVFISV
p6862
aVADBE
p6863
aVMHK
p6864
aVSYK
p6865
aVWHR
p6866
aVTDG
p6867
aVNVDA
p6868
aVAMZN
p6869
aVEQIX
p6870
aVGOOGL
p6871
aVAGN
p6872
asS'01032017'
p6873
(lp6874
VBLK
p6875
aVFDX
p6876
aVAYI
p6877
aVAPD
p6878
aVLLL
p6879
aVAMP
p6880
aVSNA
p6881
aVCXO
p6882
aVAMZN
p6883
aVPH
p6884
aVULTA
p6885
aVPX
p6886
aVINTU
p6887
aVEOG
p6888
aVORLY
p6889
aVUNP
p6890
aVCMI
p6891
aVBA
p6892
aVSLG
p6893
aVIBM
p6894
aVCVX
p6895
aVNVDA
p6896
aVNOC
p6897
aVSPGI
p6898
aVFISV
p6899
aVLRCX
p6900
aVNFLX
p6901
aVADBE
p6902
aVMHK
p6903
aVADP
p6904
aVSYK
p6905
aVWHR
p6906
aVAMT
p6907
aVEQIX
p6908
aVILMN
p6909
aVBIIB
p6910
aVAGN
p6911
asS'11202015'
p6912
(lp6913
VPCLN
p6914
aVAZO
p6915
aVEXPE
p6916
aVORLY
p6917
aVCXO
p6918
aVAET
p6919
aVFB
p6920
aVEW
p6921
aVGILD
p6922
aVTSO
p6923
aVUNH
p6924
aVWAT
p6925
aVSWK
p6926
aVPRGO
p6927
aVACN
p6928
aVLLL
p6929
aVNOC
p6930
aVIFF
p6931
aVABC
p6932
aVSRCL
p6933
aVREGN
p6934
aVWHR
p6935
aVVMC
p6936
aVNFLX
p6937
asS'07132016'
p6938
(lp6939
VDLR
p6940
aVMKC
p6941
aVSRE
p6942
aVTAP
p6943
aVULTA
p6944
aVFISV
p6945
aVBRK-B
p6946
aVSRCL
p6947
aVSTZ
p6948
aVPEP
p6949
aVORLY
p6950
aVINTU
p6951
aVPX
p6952
aVPPG
p6953
aVVMC
p6954
aVILMN
p6955
aVEW
p6956
aVICE
p6957
aVMHK
p6958
aVMCK
p6959
aVISRG
p6960
aVSHW
p6961
aVAYI
p6962
aVAMZN
p6963
aVPCLN
p6964
asS'07132015'
p6965
(lp6966
VAVGO
p6967
aVHUM
p6968
aVFFIV
p6969
aVGS
p6970
aVCXO
p6971
aVHAR
p6972
aVVRTX
p6973
aVROK
p6974
aVPRGO
p6975
aVAMP
p6976
aVUHS
p6977
aVEXPE
p6978
aVSTZ
p6979
aVHON
p6980
aVGPN
p6981
aVSRCL
p6982
aVLH
p6983
aVTMO
p6984
aVCVS
p6985
aVNKE
p6986
aVEW
p6987
aVMON
p6988
aVEQIX
p6989
aVMNK
p6990
aVNOC
p6991
aVBA
p6992
aVAYI
p6993
aVLLL
p6994
asS'09252015'
p6995
(lp6996
VPCLN
p6997
aVVRTX
p6998
aVPRGO
p6999
aVTDG
p7000
aVAET
p7001
aVHUM
p7002
aVFFIV
p7003
aVNOC
p7004
aVRTN
p7005
aVLLL
p7006
aVUNH
p7007
aVTMO
p7008
aVORLY
p7009
aVAZO
p7010
asS'11152016'
p7011
(lp7012
VAMZN
p7013
aVEQIX
p7014
aVSTZ
p7015
aVIFF
p7016
aVADBE
p7017
aVXEC
p7018
aVCXO
p7019
aVSPGI
p7020
aVPX
p7021
aVAGN
p7022
aVPVH
p7023
aVCVX
p7024
aVINTU
p7025
aVBA
p7026
aVPSA
p7027
aVILMN
p7028
aVBXP
p7029
aVPNC
p7030
aVROP
p7031
aVSLG
p7032
aVSNA
p7033
aVPH
p7034
aVSHW
p7035
aVPCLN
p7036
aVAMP
p7037
aVGS
p7038
aVMLM
p7039
aVAYI
p7040
asS'12082015'
p7041
(lp7042
VREGN
p7043
aVGOOG
p7044
aVTSO
p7045
aVDIS
p7046
aVBIIB
p7047
aVWAT
p7048
aVWHR
p7049
aVAYI
p7050
aVAMGN
p7051
aVGILD
p7052
aVEW
p7053
aVFB
p7054
aVLLL
p7055
aVNOC
p7056
aVUHS
p7057
aVSRCL
p7058
aVACN
p7059
aVIFF
p7060
aVEXPE
p7061
aVUNH
p7062
aVPCLN
p7063
asS'12082016'
p7064
(lp7065
VISRG
p7066
aVMLM
p7067
aVBDX
p7068
aVAYI
p7069
aVVMC
p7070
aVILMN
p7071
aVPNC
p7072
aVFISV
p7073
aVWYNN
p7074
aVSNA
p7075
aVROP
p7076
aVADBE
p7077
aVAMP
p7078
aVSTZ
p7079
aVPH
p7080
aVIBM
p7081
aVMHK
p7082
aVINTU
p7083
aVBA
p7084
aVPVH
p7085
aVCVX
p7086
aVSHW
p7087
aVFDX
p7088
aVPCLN
p7089
aVUNP
p7090
aVLLL
p7091
aVPX
p7092
aVNFLX
p7093
aVSLG
p7094
aVAGN
p7095
aVURI
p7096
aVBXP
p7097
aVCXO
p7098
aVORLY
p7099
aVIFF
p7100
aVXEC
p7101
aVAMZN
p7102
asS'03072016'
p7103
(lp7104
VICE
p7105
aVRTN
p7106
aVAPD
p7107
aVTRV
p7108
aVHON
p7109
aVLMT
p7110
aVAET
p7111
aVACN
p7112
aVBDX
p7113
aVEFX
p7114
aVANTM
p7115
aVAZO
p7116
aVPXD
p7117
aVFDX
p7118
aVGOOG
p7119
aVTMO
p7120
aVBIIB
p7121
aVBLK
p7122
aVILMN
p7123
aVAMG
p7124
aVAYI
p7125
aVPCLN
p7126
asS'06252015'
p7127
(lp7128
VMON
p7129
aVMNK
p7130
aVROK
p7131
aVHON
p7132
aVEXPE
p7133
aVSWK
p7134
aVFFIV
p7135
aVPVH
p7136
aVPRGO
p7137
aVLH
p7138
aVEFX
p7139
aVRL
p7140
aVTMO
p7141
aVMTB
p7142
aVNKE
p7143
aVUNH
p7144
aVSHW
p7145
aVAET
p7146
aVEW
p7147
aVMNST
p7148
asS'03222016'
p7149
(lp7150
VPCLN
p7151
aVSJM
p7152
aVAET
p7153
aVPEP
p7154
aVRTN
p7155
aVCVS
p7156
aVPH
p7157
aVAAP
p7158
aVSPG
p7159
aVHON
p7160
aVACN
p7161
aVEFX
p7162
aVICE
p7163
aVPXD
p7164
aVWHR
p7165
aVAMG
p7166
aVGOOG
p7167
asS'08052015'
p7168
(lp7169
VLLL
p7170
aVGS
p7171
aVAVGO
p7172
aVCVS
p7173
aVMTB
p7174
aVTMO
p7175
aVUNH
p7176
aVANTM
p7177
aVHON
p7178
aVACN
p7179
aVHUM
p7180
aVPRGO
p7181
aVEFX
p7182
aVMNST
p7183
aVLH
p7184
aVNOC
p7185
aVPXD
p7186
aVCXO
p7187
aVMLM
p7188
aVAYI
p7189
aVFFIV
p7190
aVHAR
p7191
aVVRTX
p7192
aVEXPE
p7193
asS'08052016'
p7194
(lp7195
VPSA
p7196
aVEQIX
p7197
aVFISV
p7198
aVMCK
p7199
aVISRG
p7200
aVEFX
p7201
aVDLR
p7202
aVINTU
p7203
aVSTZ
p7204
aVBDX
p7205
aVAMT
p7206
aVHSY
p7207
aVAYI
p7208
aVNOC
p7209
aVHON
p7210
aVSHW
p7211
aVCTAS
p7212
aVAPD
p7213
aVSPGI
p7214
aVCME
p7215
aVEW
p7216
aVPH
p7217
aVVRTX
p7218
aVAMZN
p7219
aVBLK
p7220
aVCELG
p7221
aVILMN
p7222
aVBIIB
p7223
asS'09302015'
p7224
(lp7225
VPCLN
p7226
aVAMZN
p7227
aVPRGO
p7228
aVEQIX
p7229
aVCMG
p7230
aVTDG
p7231
aVHUM
p7232
aVAET
p7233
aVLH
p7234
aVUNH
p7235
aVNOC
p7236
aVGPN
p7237
aVTMO
p7238
aVLLL
p7239
aVFFIV
p7240
aVKMB
p7241
asS'04222016'
p7242
(lp7243
VILMN
p7244
aVGOOG
p7245
aVEQIX
p7246
aVSPG
p7247
aVESS
p7248
aVAAPL
p7249
aVTRV
p7250
aVWHR
p7251
aVSTZ
p7252
aVULTA
p7253
aVPEP
p7254
aVINTU
p7255
aVSJM
p7256
aVHD
p7257
aVFB
p7258
aVLMT
p7259
aVHUM
p7260
aVPH
p7261
aVRTN
p7262
aVBDX
p7263
aVUHS
p7264
aVSWK
p7265
aVAYI
p7266
aVXEC
p7267
aVPXD
p7268
aVGILD
p7269
aVICE
p7270
aVAMZN
p7271
aVBLK
p7272
aVPCLN
p7273
asS'04172015'
p7274
(lp7275
VAZO
p7276
aVBIIB
p7277
aVMNK
p7278
aVSIG
p7279
aVHUM
p7280
aVAVGO
p7281
aVORLY
p7282
aVSHW
p7283
aVEW
p7284
aVAET
p7285
aVCVS
p7286
aVMCO
p7287
aVLLL
p7288
aVRTN
p7289
aVPVH
p7290
aVTDG
p7291
aVUNH
p7292
aVUHS
p7293
aVROK
p7294
aVHSY
p7295
aVHAR
p7296
aVAMP
p7297
aVRL
p7298
aVMON
p7299
aVKSU
p7300
aVFFIV
p7301
aVGS
p7302
aVCXO
p7303
aVPXD
p7304
aVGWW
p7305
aVPRGO
p7306
aVCMG
p7307
asS'09142016'
p7308
(lp7309
VPCLN
p7310
aVBIIB
p7311
aVAYI
p7312
aVULTA
p7313
aVBLK
p7314
aVXEC
p7315
aVEQIX
p7316
aVSHW
p7317
aVFFIV
p7318
aVSLG
p7319
aVECL
p7320
aVPH
p7321
aVSNA
p7322
aVBDX
p7323
aVTMO
p7324
aVADBE
p7325
aVILMN
p7326
aVSTZ
p7327
aVHUM
p7328
aVGS
p7329
aVEW
p7330
aVPSA
p7331
aVFISV
p7332
aVPM
p7333
aVAMP
p7334
aVEFX
p7335
aVWYNN
p7336
asS'02012016'
p7337
(lp7338
VREGN
p7339
aVILMN
p7340
aVWAT
p7341
aVAYI
p7342
aVNOC
p7343
aVPCLN
p7344
aVHD
p7345
aVLLL
p7346
aVACN
p7347
aVAMG
p7348
aVAMZN
p7349
aVGWW
p7350
aVAVGO
p7351
aVRL
p7352
aVGOOG
p7353
asS'02012017'
p7354
(lp7355
VADP
p7356
aVCVX
p7357
aVILMN
p7358
aVEOG
p7359
aVFISV
p7360
aVMA
p7361
aVAMP
p7362
aVDLR
p7363
aVSYK
p7364
aVSTZ
p7365
aVBIIB
p7366
aVPNC
p7367
aVULTA
p7368
aVPX
p7369
aVAGN
p7370
aVGD
p7371
aVNVDA
p7372
aVLRCX
p7373
aVEXPE
p7374
aVCXO
p7375
aVCME
p7376
aVAYI
p7377
aVCMI
p7378
aVSPGI
p7379
aVLLL
p7380
aVISRG
p7381
asS'03152016'
p7382
(lp7383
VALXN
p7384
aVAPD
p7385
aVBDX
p7386
aVPH
p7387
aVHON
p7388
aVPEP
p7389
aVCVS
p7390
aVILMN
p7391
aVEFX
p7392
aVAET
p7393
aVSPG
p7394
aVMHK
p7395
aVACN
p7396
aVAYI
p7397
aVAMG
p7398
aVPXD
p7399
aVPCLN
p7400
aVGOOG
p7401
asS'03182015'
p7402
(lp7403
VPCLN
p7404
aVHAR
p7405
aVDNB
p7406
aVBA
p7407
aVXEC
p7408
aVMON
p7409
aVFFIV
p7410
aVZBH
p7411
aVAVGO
p7412
aVLLL
p7413
aVCMI
p7414
aVPXD
p7415
aVHON
p7416
aVHSY
p7417
aVJNJ
p7418
aVAYI
p7419
aVCELG
p7420
aVGWW
p7421
aVUHS
p7422
aVUNH
p7423
aVAET
p7424
aVRL
p7425
aVSIG
p7426
aVMNK
p7427
aVHUM
p7428
aVPRGO
p7429
aVCMG
p7430
asS'03182016'
p7431
(lp7432
VBDX
p7433
aVRTN
p7434
aVPEP
p7435
aVAET
p7436
aVCVS
p7437
aVUHS
p7438
aVAMZN
p7439
aVLMT
p7440
aVPH
p7441
aVAPD
p7442
aVEFX
p7443
aVACN
p7444
aVICE
p7445
aVSPG
p7446
aVAYI
p7447
aVPCLN
p7448
aVESS
p7449
aVAMG
p7450
aVPXD
p7451
asS'05162016'
p7452
(lp7453
VPCLN
p7454
aVWHR
p7455
aVEW
p7456
aVAYI
p7457
aVCMI
p7458
aVMCK
p7459
aVHUM
p7460
aVMHK
p7461
aVSIG
p7462
aVPXD
p7463
aVCXO
p7464
aVSPGI
p7465
aVHD
p7466
aVHON
p7467
aVMCD
p7468
aVSWK
p7469
aVSHW
p7470
aVPEP
p7471
aVACN
p7472
aVINTU
p7473
aVROP
p7474
aVXEC
p7475
aVBDX
p7476
aVESS
p7477
aVSJM
p7478
aVNOC
p7479
aVFISV
p7480
aVGOOG
p7481
asS'09172015'
p7482
(lp7483
VSRCL
p7484
aVPVH
p7485
aVFFIV
p7486
aVCMG
p7487
aVAZO
p7488
aVTDG
p7489
aVGPN
p7490
aVAET
p7491
aVPRGO
p7492
aVMCO
p7493
aVLLL
p7494
aVNOC
p7495
aVHUM
p7496
aVUNH
p7497
aVHAR
p7498
aVANTM
p7499
aVORLY
p7500
aVEQIX
p7501
aVPCLN
p7502
asS'10132015'
p7503
(lp7504
VAVGO
p7505
aVAZO
p7506
aVHUM
p7507
aVMTB
p7508
aVTDG
p7509
aVANTM
p7510
aVFFIV
p7511
aVSRCL
p7512
aVBA
p7513
aVGPN
p7514
aVCMG
p7515
aVNFLX
p7516
aVPCLN
p7517
asS'05192016'
p7518
(lp7519
VPCLN
p7520
aVBLK
p7521
aVEW
p7522
aVORLY
p7523
aVWHR
p7524
aVAYI
p7525
aVCMI
p7526
aVESS
p7527
aVMHK
p7528
aVPXD
p7529
aVMCD
p7530
aVHD
p7531
aVPEP
p7532
aVAET
p7533
aVNOC
p7534
aVAMT
p7535
aVBDX
p7536
aVHON
p7537
aVHUM
p7538
aVVMC
p7539
aVINTU
p7540
aVFISV
p7541
aVXEC
p7542
aVGOOG
p7543
aVMCK
p7544
aVTDG
p7545
asS'05192015'
p7546
(lp7547
VPXD
p7548
aVMNST
p7549
aVCXO
p7550
aVHAR
p7551
aVGWW
p7552
aVSIG
p7553
aVRL
p7554
aVLH
p7555
aVPVH
p7556
aVPRGO
p7557
aVFFIV
p7558
aVMON
p7559
aVTMO
p7560
aVBA
p7561
aVBCR
p7562
aVROK
p7563
aVHON
p7564
aVLLL
p7565
aVUHS
p7566
aVCELG
p7567
aVHUM
p7568
aVNFLX
p7569
aVMNK
p7570
aVCMG
p7571
asS'10252016'
p7572
(lp7573
VAMZN
p7574
aVILMN
p7575
aVBIIB
p7576
aVROP
p7577
aVPVH
p7578
aVXEC
p7579
aVEW
p7580
aVSHW
p7581
aVFDX
p7582
aVPH
p7583
aVPCLN
p7584
aVAYI
p7585
aVBDX
p7586
aVSLG
p7587
aVSTZ
p7588
aVCVX
p7589
aVADBE
p7590
aVCME
p7591
aVPX
p7592
aVPSA
p7593
aVINTU
p7594
aVHUM
p7595
aVFB
p7596
aVULTA
p7597
aVMNST
p7598
aVSNA
p7599
aVNFLX
p7600
asS'07072015'
p7601
(lp7602
VHUM
p7603
aVAET
p7604
aVCXO
p7605
aVAVGO
p7606
aVGS
p7607
aVSWKS
p7608
aVFFIV
p7609
aVGWW
p7610
aVAMP
p7611
aVEXPE
p7612
aVNOC
p7613
aVPXD
p7614
aVPRGO
p7615
aVEQIX
p7616
aVHAR
p7617
aVGPN
p7618
aVSTZ
p7619
aVHON
p7620
aVROK
p7621
aVPVH
p7622
aVMON
p7623
aVUNH
p7624
aVSWK
p7625
aVMNK
p7626
aVCVS
p7627
aVLH
p7628
aVSRCL
p7629
aVVRTX
p7630
aVORLY
p7631
aVLLL
p7632
aVMNST
p7633
aVNKE
p7634
aVUHS
p7635
asS'03102016'
p7636
(lp7637
VAPD
p7638
aVLMT
p7639
aVBDX
p7640
aVAZO
p7641
aVPH
p7642
aVHON
p7643
aVTRV
p7644
aVEFX
p7645
aVACN
p7646
aVPXD
p7647
aVSPG
p7648
aVGOOG
p7649
aVAYI
p7650
aVPCLN
p7651
aVAMG
p7652
asS'11062015'
p7653
(lp7654
VSRCL
p7655
aVANTM
p7656
aVEQIX
p7657
aVACN
p7658
aVAET
p7659
aVLB
p7660
aVNOC
p7661
aVHAR
p7662
aVGILD
p7663
aVHUM
p7664
aVLLL
p7665
aVFB
p7666
aVEXPE
p7667
aVEW
p7668
aVWHR
p7669
aVWAT
p7670
aVTSO
p7671
aVNFLX
p7672
aVREGN
p7673
aVPCLN
p7674
asS'08252015'
p7675
(lp7676
VPCLN
p7677
aVAMZN
p7678
aVCMG
p7679
aVEQIX
p7680
aVAYI
p7681
aVGS
p7682
aVMLM
p7683
aVVRTX
p7684
aVMNST
p7685
aVTMO
p7686
aVEXPE
p7687
aVPRGO
p7688
aVCXO
p7689
aVAVGO
p7690
aVUHS
p7691
aVLH
p7692
aVGPN
p7693
aVRTN
p7694
aVLLL
p7695
aVSRCL
p7696
aVANTM
p7697
aVHUM
p7698
aVNFLX
p7699
asS'06212016'
p7700
(lp7701
VAMZN
p7702
aVGOOG
p7703
aVICE
p7704
aVPXD
p7705
aVAYI
p7706
aVGS
p7707
aVULTA
p7708
aVFB
p7709
aVSHW
p7710
aVNOC
p7711
aVXEC
p7712
aVILMN
p7713
aVVMC
p7714
aVFISV
p7715
aVTRV
p7716
aVAPD
p7717
aVINTU
p7718
aVSWK
p7719
aVAET
p7720
aVWYNN
p7721
aVDLR
p7722
aVNEE
p7723
aVHON
p7724
aVMKC
p7725
aVWHR
p7726
aVPEP
p7727
aVORLY
p7728
aVAAP
p7729
aVSRCL
p7730
aVPCLN
p7731
asS'01252016'
p7732
(lp7733
VPCLN
p7734
aVAYI
p7735
aVAMZN
p7736
aVEQIX
p7737
aVGOOG
p7738
aVAVGO
p7739
aVGWW
p7740
aVNOC
p7741
aVIFF
p7742
aVFDX
p7743
aVREGN
p7744
aVLLL
p7745
aVUHS
p7746
aVAET
p7747
aVWAT
p7748
aVMCD
p7749
aVWHR
p7750
aVAZO
p7751
asS'02122016'
p7752
(lp7753
VAMZN
p7754
aVGOOG
p7755
aVREGN
p7756
aVAZO
p7757
aVILMN
p7758
aVAYI
p7759
aVPRGO
p7760
aVUHS
p7761
aVTMO
p7762
aVMHK
p7763
aVLMT
p7764
aVWAT
p7765
aVLLL
p7766
aVAMG
p7767
asS'12032015'
p7768
(lp7769
VREGN
p7770
aVORLY
p7771
aVDIS
p7772
aVTSO
p7773
aVPCLN
p7774
aVLLL
p7775
aVNOC
p7776
aVWAT
p7777
aVVMC
p7778
aVFB
p7779
aVAMGN
p7780
aVGILD
p7781
aVEXPE
p7782
aVPRGO
p7783
aVRL
p7784
aVACN
p7785
aVEW
p7786
aVWHR
p7787
aVSRCL
p7788
aVIFF
p7789
aVAET
p7790
aVUNH
p7791
asS'09242015'
p7792
(lp7793
VVRTX
p7794
aVMHK
p7795
aVPRGO
p7796
aVTDG
p7797
aVFFIV
p7798
aVSRCL
p7799
aVEQIX
p7800
aVCMG
p7801
aVRTN
p7802
aVNOC
p7803
aVCXO
p7804
aVLLL
p7805
aVHUM
p7806
aVREGN
p7807
aVUNH
p7808
asS'06092016'
p7809
(lp7810
VBIIB
p7811
aVESS
p7812
aVALXN
p7813
aVBLK
p7814
aVSTZ
p7815
aVAMG
p7816
aVPXD
p7817
aVSWK
p7818
aVXEC
p7819
aVNOC
p7820
aVACN
p7821
aVBDX
p7822
aVUHS
p7823
aVAYI
p7824
aVINTU
p7825
aVFISV
p7826
aVCXO
p7827
aVPEP
p7828
aVMCK
p7829
aVSHW
p7830
aVEW
p7831
aVIBM
p7832
aVMHK
p7833
aVORLY
p7834
aVPX
p7835
aVISRG
p7836
aVILMN
p7837
aVDLR
p7838
aVWYNN
p7839
aVGOOG
p7840
aVSJM
p7841
aVWHR
p7842
aVULTA
p7843
aVPCLN
p7844
asS'06092015'
p7845
(lp7846
VPRGO
p7847
aVMNK
p7848
aVEXPE
p7849
aVGWW
p7850
aVSWKS
p7851
aVAYI
p7852
aVCMG
p7853
aVFFIV
p7854
aVCELG
p7855
aVUHS
p7856
aVUNH
p7857
aVNKE
p7858
aVLLL
p7859
aVHON
p7860
aVROK
p7861
aVGPN
p7862
aVUTX
p7863
aVTMO
p7864
aVNOC
p7865
aVMNST
p7866
aVSRCL
p7867
aVAET
p7868
aVSTZ
p7869
aVPXD
p7870
aVCXO
p7871
aVXEC
p7872
aVLH
p7873
aVEW
p7874
aVHUM
p7875
asS'04112016'
p7876
(lp7877
VPCLN
p7878
aVGOOG
p7879
aVEQIX
p7880
aVFB
p7881
aVESS
p7882
aVWHR
p7883
aVAPD
p7884
aVCVS
p7885
aVFISV
p7886
aVSPG
p7887
aVWAT
p7888
aVHON
p7889
aVPXD
p7890
aVSRE
p7891
aVEFX
p7892
aVAAPL
p7893
aVCXO
p7894
aVUHS
p7895
aVMHK
p7896
aVTMO
p7897
aVULTA
p7898
aVICE
p7899
aVCLX
p7900
aVPEP
p7901
aVNOC
p7902
aVLMT
p7903
aVRTN
p7904
aVSHW
p7905
aVCELG
p7906
aVILMN
p7907
asS'08282015'
p7908
(lp7909
VPCLN
p7910
aVCMG
p7911
aVAMZN
p7912
aVEQIX
p7913
aVORLY
p7914
aVFFIV
p7915
aVGS
p7916
aVBA
p7917
aVTMO
p7918
aVPRGO
p7919
aVRTN
p7920
aVSRCL
p7921
aVVRTX
p7922
aVGPN
p7923
aVLLL
p7924
aVLH
p7925
aVTDG
p7926
aVUNH
p7927
aVHUM
p7928
aVNFLX
p7929
asS'07182016'
p7930
(lp7931
VEQIX
p7932
aVDLR
p7933
aVSJM
p7934
aVMKC
p7935
aVORLY
p7936
aVSTZ
p7937
aVPSA
p7938
aVAMZN
p7939
aVXEC
p7940
aVFISV
p7941
aVINTU
p7942
aVAMT
p7943
aVHON
p7944
aVAON
p7945
aVCXO
p7946
aVULTA
p7947
aVPEP
p7948
aVVMC
p7949
aVCME
p7950
aVEW
p7951
aVPPG
p7952
aVPXD
p7953
aVIBM
p7954
aVMCK
p7955
aVAPD
p7956
aVILMN
p7957
aVSHW
p7958
aVICE
p7959
aVAYI
p7960
aVGS
p7961
aVPCLN
p7962
asS'07082015'
p7963
(lp7964
VAET
p7965
aVHUM
p7966
aVAVGO
p7967
aVCXO
p7968
aVSWKS
p7969
aVGS
p7970
aVFFIV
p7971
aVHAR
p7972
aVAMP
p7973
aVEXPE
p7974
aVPRGO
p7975
aVROK
p7976
aVPVH
p7977
aVNOC
p7978
aVGPN
p7979
aVVRTX
p7980
aVHON
p7981
aVSTZ
p7982
aVEQIX
p7983
aVLH
p7984
aVMON
p7985
aVSRCL
p7986
aVMNK
p7987
aVMNST
p7988
aVNKE
p7989
aVLLL
p7990
asS'03102015'
p7991
(lp7992
VPCLN
p7993
aVHAR
p7994
aVWHR
p7995
aVDNB
p7996
aVBIIB
p7997
aVWDC
p7998
aVLLL
p7999
aVCMG
p8000
aVPXD
p8001
aVBA
p8002
aVZBH
p8003
aVAMP
p8004
aVROP
p8005
aVDIS
p8006
aVHUM
p8007
aVPVH
p8008
aVCELG
p8009
aVHON
p8010
aVHD
p8011
aVGWW
p8012
aVFFIV
p8013
aVAET
p8014
aVMNK
p8015
aVSIG
p8016
aVUHS
p8017
aVMNST
p8018
aVPRGO
p8019
asS'01302017'
p8020
(lp8021
VALXN
p8022
aVAGN
p8023
aVBIIB
p8024
aVPSA
p8025
aVCVX
p8026
aVEOG
p8027
aVAPD
p8028
aVADP
p8029
aVFISV
p8030
aVILMN
p8031
aVSYK
p8032
aVAMP
p8033
aVSTZ
p8034
aVDLR
p8035
aVBXP
p8036
aVMCD
p8037
aVGOOG
p8038
aVNEE
p8039
aVAYI
p8040
aVGD
p8041
aVULTA
p8042
aVLRCX
p8043
aVEXPE
p8044
aVCXO
p8045
aVCMI
p8046
aVLLL
p8047
aVSHW
p8048
aVISRG
p8049
asS'10072015'
p8050
(lp8051
VEQIX
p8052
aVAVGO
p8053
aVTDG
p8054
aVANTM
p8055
aVHUM
p8056
aVUNH
p8057
aVEXPE
p8058
aVVRTX
p8059
aVNOC
p8060
aVCELG
p8061
aVWHR
p8062
aVTMO
p8063
aVGPN
p8064
aVFFIV
p8065
aVPCLN
p8066
aVHAR
p8067
aVPXD
p8068
aVNFLX
p8069
asS'02262016'
p8070
(lp8071
VHON
p8072
aVPXD
p8073
aVTMO
p8074
aVLMT
p8075
aVEFX
p8076
aVAET
p8077
aVROP
p8078
aVAMG
p8079
aVGOOG
p8080
aVISRG
p8081
aVAZO
p8082
aVPCLN
p8083
asS'02262015'
p8084
(lp8085
VAMZN
p8086
aVHAR
p8087
aVCXO
p8088
aVCMG
p8089
aVHSY
p8090
aVBA
p8091
aVBIIB
p8092
aVMON
p8093
aVAMP
p8094
aVHON
p8095
aVPXD
p8096
aVSIG
p8097
aVROP
p8098
aVAET
p8099
aVEW
p8100
aVXEC
p8101
aVZBH
p8102
aVGILD
p8103
aVUNH
p8104
aVWDC
p8105
aVHD
p8106
aVMNST
p8107
aVCELG
p8108
aVDNB
p8109
aVGWW
p8110
aVUHS
p8111
aVICE
p8112
aVPVH
p8113
aVHUM
p8114
aVREGN
p8115
aVPCLN
p8116
asS'02192016'
p8117
(lp8118
VFRT
p8119
aVUHS
p8120
aVLLL
p8121
aVAPD
p8122
aVLMT
p8123
aVGOOG
p8124
aVHON
p8125
aVTMO
p8126
aVAET
p8127
aVPSA
p8128
aVBDX
p8129
aVPXD
p8130
aVILMN
p8131
aVAMG
p8132
aVAYI
p8133
aVREGN
p8134
aVAZO
p8135
aVAMZN
p8136
asS'08252016'
p8137
(lp8138
VBIIB
p8139
aVPCLN
p8140
aVSJM
p8141
aVORLY
p8142
aVSHW
p8143
aVESS
p8144
aVCELG
p8145
aVBLK
p8146
aVILMN
p8147
aVTDG
p8148
aVNOC
p8149
aVAMT
p8150
aVINTU
p8151
aVEW
p8152
aVAYI
p8153
aVPH
p8154
aVGS
p8155
aVCME
p8156
aVSTZ
p8157
aVPSA
p8158
aVPM
p8159
aVXEC
p8160
aVCTAS
p8161
aVPVH
p8162
asS'08312015'
p8163
(lp8164
VPCLN
p8165
aVAMZN
p8166
aVEQIX
p8167
aVORLY
p8168
aVFFIV
p8169
aVMNST
p8170
aVPRGO
p8171
aVTMO
p8172
aVRTN
p8173
aVVRTX
p8174
aVGS
p8175
aVSRCL
p8176
aVTDG
p8177
aVLLL
p8178
aVGPN
p8179
aVLH
p8180
aVUNH
p8181
aVCVS
p8182
aVAET
p8183
aVHUM
p8184
aVCXO
p8185
aVPVH
p8186
aVNFLX
p8187
asS'08312016'
p8188
(lp8189
VBIIB
p8190
aVCELG
p8191
aVILMN
p8192
aVSHW
p8193
aVAYI
p8194
aVNOC
p8195
aVTDG
p8196
aVPH
p8197
aVESS
p8198
aVBLK
p8199
aVSTZ
p8200
aVLLL
p8201
aVXEC
p8202
aVDLR
p8203
aVAPD
p8204
aVPVH
p8205
aVPM
p8206
aVCME
p8207
aVFISV
p8208
aVAMG
p8209
aVTAP
p8210
aVPSA
p8211
aVEQIX
p8212
asS'10222015'
p8213
(lp8214
VHUM
p8215
aVMLM
p8216
aVUNH
p8217
aVAET
p8218
aVTSO
p8219
aVORLY
p8220
aVHAR
p8221
aVACN
p8222
aVANTM
p8223
aVSRCL
p8224
aVGPN
p8225
aVREGN
p8226
aVPCLN
p8227
asS'06222016'
p8228
(lp8229
VAMZN
p8230
aVGOOG
p8231
aVICE
p8232
aVAYI
p8233
aVULTA
p8234
aVPXD
p8235
aVNOC
p8236
aVFB
p8237
aVSPGI
p8238
aVSHW
p8239
aVFISV
p8240
aVMHK
p8241
aVXEC
p8242
aVINTU
p8243
aVILMN
p8244
aVAET
p8245
aVWYNN
p8246
aVSWK
p8247
aVCMI
p8248
aVSTZ
p8249
aVHON
p8250
aVMKC
p8251
aVDLR
p8252
aVPX
p8253
aVPEP
p8254
aVAAP
p8255
aVWHR
p8256
aVORLY
p8257
aVPCLN
p8258
asS'06222015'
p8259
(lp8260
VPRGO
p8261
aVAVGO
p8262
aVMNK
p8263
aVINTU
p8264
aVEXPE
p8265
aVMON
p8266
aVGPN
p8267
aVPVH
p8268
aVTMO
p8269
aVHON
p8270
aVUNH
p8271
aVMTB
p8272
aVAMP
p8273
aVLH
p8274
aVBCR
p8275
aVLLL
p8276
aVTDG
p8277
aVAYI
p8278
aVCXO
p8279
aVAZO
p8280
aVCVS
p8281
aVRL
p8282
aVORLY
p8283
aVAET
p8284
aVCELG
p8285
aVMNST
p8286
aVEW
p8287
aVCMG
p8288
asS'03212016'
p8289
(lp8290
VAZO
p8291
aVAMZN
p8292
aVBDX
p8293
aVAET
p8294
aVRTN
p8295
aVPEP
p8296
aVCVS
p8297
aVUHS
p8298
aVPCLN
p8299
aVPH
p8300
aVSPG
p8301
aVAYI
p8302
aVEFX
p8303
aVACN
p8304
aVICE
p8305
aVESS
p8306
aVPXD
p8307
aVAMG
p8308
asS'11012016'
p8309
(lp8310
VAMZN
p8311
aVSHW
p8312
aVAYI
p8313
aVLLL
p8314
aVXEC
p8315
aVBIIB
p8316
aVBDX
p8317
aVPCLN
p8318
aVPVH
p8319
aVSTZ
p8320
aVADBE
p8321
aVPH
p8322
aVILMN
p8323
aVROP
p8324
aVMNST
p8325
aVFB
p8326
aVSNA
p8327
aVINTU
p8328
aVCVX
p8329
aVGS
p8330
asS'07012016'
p8331
(lp8332
VPCLN
p8333
aVAMZN
p8334
aVPXD
p8335
aVULTA
p8336
aVPPG
p8337
aVAPD
p8338
aVHON
p8339
aVFB
p8340
aVILMN
p8341
aVROP
p8342
aVFISV
p8343
aVPEP
p8344
aVMCK
p8345
aVDLR
p8346
aVNOC
p8347
aVMKC
p8348
aVAAP
p8349
aVSTZ
p8350
aVORLY
p8351
aVPSA
p8352
asS'06192015'
p8353
(lp8354
VMNK
p8355
aVPRGO
p8356
aVAVGO
p8357
aVROK
p8358
aVINTU
p8359
aVMON
p8360
aVSTZ
p8361
aVEXPE
p8362
aVFFIV
p8363
aVPVH
p8364
aVTMO
p8365
aVSRCL
p8366
aVHON
p8367
aVSWKS
p8368
aVVRTX
p8369
aVMCO
p8370
aVLLL
p8371
aVMTB
p8372
aVUNH
p8373
aVLH
p8374
aVCXO
p8375
aVAYI
p8376
aVCVS
p8377
aVAMGN
p8378
aVCELG
p8379
aVAET
p8380
aVBA
p8381
aVHAR
p8382
aVMNST
p8383
aVCMG
p8384
aVEW
p8385
asS'03302016'
p8386
(lp8387
VPCLN
p8388
aVCXO
p8389
aVPXD
p8390
aVWHR
p8391
aVAZO
p8392
aVHON
p8393
aVRTN
p8394
aVSJM
p8395
aVPEP
p8396
aVBDX
p8397
aVSPG
p8398
aVCVS
p8399
aVMHK
p8400
aVEFX
p8401
aVSWK
p8402
aVREGN
p8403
aVESS
p8404
aVULTA
p8405
aVACN
p8406
asS'02022017'
p8407
(lp8408
VADP
p8409
aVBIIB
p8410
aVCVX
p8411
aVEOG
p8412
aVILMN
p8413
aVFISV
p8414
aVDLR
p8415
aVMLM
p8416
aVBXP
p8417
aVSTZ
p8418
aVPNC
p8419
aVAMP
p8420
aVPX
p8421
aVULTA
p8422
aVGD
p8423
aVEXPE
p8424
aVCXO
p8425
aVLRCX
p8426
aVCME
p8427
aVNVDA
p8428
aVSPGI
p8429
aVAYI
p8430
aVAGN
p8431
aVLLL
p8432
aVAMZN
p8433
aVISRG
p8434
asS'10182016'
p8435
(lp8436
VPCLN
p8437
aVILMN
p8438
aVAMZN
p8439
aVBIIB
p8440
aVIFF
p8441
aVROP
p8442
aVTMO
p8443
aVFDX
p8444
aVEW
p8445
aVSYK
p8446
aVADBE
p8447
aVPVH
p8448
aVALXN
p8449
aVFB
p8450
aVAYI
p8451
aVINTU
p8452
aVBLK
p8453
aVSTZ
p8454
aVCME
p8455
aVSNA
p8456
aVCVX
p8457
aVSHW
p8458
aVSLG
p8459
aVXEC
p8460
aVFISV
p8461
aVAAPL
p8462
aVPSA
p8463
aVNFLX
p8464
asS'04082015'
p8465
(lp8466
VBIIB
p8467
aVAVGO
p8468
aVCMG
p8469
aVMNK
p8470
aVAMGN
p8471
aVHUM
p8472
aVANTM
p8473
aVULTA
p8474
aVAMP
p8475
aVAET
p8476
aVUNH
p8477
aVDIS
p8478
aVHAR
p8479
aVCVS
p8480
aVBA
p8481
aVAYI
p8482
aVFFIV
p8483
aVHON
p8484
aVWAT
p8485
aVGWW
p8486
aVMCO
p8487
aVHSY
p8488
aVGS
p8489
aVTDG
p8490
aVMON
p8491
aVSIG
p8492
aVPXD
p8493
aVPRGO
p8494
aVPCLN
p8495
aVPVH
p8496
aVAZO
p8497
aVISRG
p8498
asS'04082016'
p8499
(lp8500
VPCLN
p8501
aVWHR
p8502
aVAPD
p8503
aVCVS
p8504
aVCXO
p8505
aVESS
p8506
aVHON
p8507
aVACN
p8508
aVSPG
p8509
aVMHK
p8510
aVPXD
p8511
aVSRE
p8512
aVULTA
p8513
aVEFX
p8514
aVAAPL
p8515
aVTMO
p8516
aVUHS
p8517
aVKMB
p8518
aVAMT
p8519
aVPEP
p8520
aVSHW
p8521
aVNOC
p8522
aVRTN
p8523
aVCELG
p8524
aVILMN
p8525
asS'08012016'
p8526
(lp8527
VPSA
p8528
aVEQIX
p8529
aVSHW
p8530
aVMCK
p8531
aVINTU
p8532
aVNOC
p8533
aVAYI
p8534
aVEFX
p8535
aVSJM
p8536
aVSTZ
p8537
aVHSY
p8538
aVDLR
p8539
aVHON
p8540
aVPPG
p8541
aVAMT
p8542
aVPEP
p8543
aVFISV
p8544
aVBDX
p8545
aVCME
p8546
aVAPD
p8547
aVISRG
p8548
aVROP
p8549
aVPH
p8550
aVTDG
p8551
aVCTAS
p8552
aVSPGI
p8553
aVWYNN
p8554
aVAAPL
p8555
aVEW
p8556
aVAMG
p8557
aVAGN
p8558
aVAMZN
p8559
aVBLK
p8560
aVPCLN
p8561
aVILMN
p8562
aVBIIB
p8563
asS'01122017'
p8564
(lp8565
VAYI
p8566
aVBLK
p8567
aVGS
p8568
aVNVDA
p8569
aVMLM
p8570
aVLLL
p8571
aVCVX
p8572
aVFDX
p8573
aVWHR
p8574
aVCB
p8575
aVSLG
p8576
aVSTZ
p8577
aVPNC
p8578
aVIBM
p8579
aVADP
p8580
aVCXO
p8581
aVBA
p8582
aVAPD
p8583
aVAMT
p8584
aVPX
p8585
aVPH
p8586
aVINTU
p8587
aVLRCX
p8588
aVFISV
p8589
aVCMI
p8590
aVNEE
p8591
aVSRE
p8592
aVAMP
p8593
aVBXP
p8594
aVSNA
p8595
aVDLR
p8596
aVMA
p8597
aVADBE
p8598
aVSPGI
p8599
aVBIIB
p8600
aVEQIX
p8601
aVAGN
p8602
aVALXN
p8603
aVILMN
p8604
aVAMZN
p8605
asS'01122016'
p8606
(lp8607
VPCLN
p8608
aVAMZN
p8609
aVREGN
p8610
aVGOOG
p8611
aVBIIB
p8612
aVAVGO
p8613
aVAMG
p8614
aVGWW
p8615
aVFDX
p8616
aVHD
p8617
aVUNH
p8618
aVWAT
p8619
aVNOC
p8620
aVLLL
p8621
aVIFF
p8622
aVAET
p8623
aVPRGO
p8624
asS'01172017'
p8625
(lp8626
VAYI
p8627
aVBLK
p8628
aVGS
p8629
aVNVDA
p8630
aVMLM
p8631
aVLLL
p8632
aVPNC
p8633
aVFDX
p8634
aVCVX
p8635
aVBA
p8636
aVBIIB
p8637
aVSLG
p8638
aVAMP
p8639
aVAPD
p8640
aVAMT
p8641
aVCXO
p8642
aVULTA
p8643
aVCMI
p8644
aVPH
p8645
aVSTZ
p8646
aVSRE
p8647
aVSYK
p8648
aVAGN
p8649
aVSPGI
p8650
aVBCR
p8651
aVSHW
p8652
aVEQIX
p8653
aVILMN
p8654
aVISRG
p8655
asS'03302015'
p8656
(lp8657
VPCLN
p8658
aVBIIB
p8659
aVCMG
p8660
aVAVGO
p8661
aVBA
p8662
aVAMP
p8663
aVHAR
p8664
aVDNB
p8665
aVDIS
p8666
aVPRGO
p8667
aVCELG
p8668
aVMNK
p8669
aVMON
p8670
aVGS
p8671
aVEW
p8672
aVULTA
p8673
aVAET
p8674
aVUHS
p8675
aVSRCL
p8676
aVAMGN
p8677
aVHON
p8678
aVJNJ
p8679
aVMPC
p8680
aVFFIV
p8681
aVTMO
p8682
aVHUM
p8683
aVGWW
p8684
aVAYI
p8685
aVXEC
p8686
aVPXD
p8687
aVPVH
p8688
aVRL
p8689
aVAZO
p8690
aVSIG
p8691
asS'04282016'
p8692
(lp8693
VGOOGL
p8694
aVGOOG
p8695
aVILMN
p8696
aVWHR
p8697
aVAAPL
p8698
aVAYI
p8699
aVSPG
p8700
aVWAT
p8701
aVEW
p8702
aVHD
p8703
aVULTA
p8704
aVSRE
p8705
aVPEP
p8706
aVGILD
p8707
aVEQIX
p8708
aVCELG
p8709
aVPX
p8710
aVFB
p8711
aVEFX
p8712
aVBDX
p8713
aVPH
p8714
aVXEC
p8715
aVSWK
p8716
aVMCK
p8717
aVLMT
p8718
aVICE
p8719
aVPXD
p8720
asS'02102016'
p8721
(lp8722
VAMZN
p8723
aVAZO
p8724
aVREGN
p8725
aVGOOG
p8726
aVILMN
p8727
aVAYI
p8728
aVTMO
p8729
aVUHS
p8730
aVAMG
p8731
aVLMT
p8732
asS'02102017'
p8733
(lp8734
VILMN
p8735
aVMA
p8736
aVCVX
p8737
aVDLR
p8738
aVBIIB
p8739
aVULTA
p8740
aVLRCX
p8741
aVFISV
p8742
aVPNC
p8743
aVPSA
p8744
aVPH
p8745
aVCXO
p8746
aVFFIV
p8747
aVURI
p8748
aVEXPE
p8749
aVGD
p8750
aVNVDA
p8751
aVSPGI
p8752
aVTMO
p8753
aVLLL
p8754
aVAMP
p8755
aVAYI
p8756
aVISRG
p8757
aVAGN
p8758
aVTDG
p8759
asS'04072016'
p8760
(lp8761
VPCLN
p8762
aVGOOG
p8763
aVWHR
p8764
aVULTA
p8765
aVGOOGL
p8766
aVPXD
p8767
aVMHK
p8768
aVHON
p8769
aVCVS
p8770
aVSRE
p8771
aVESS
p8772
aVSPG
p8773
aVSWK
p8774
aVSHW
p8775
aVEFX
p8776
aVTMO
p8777
aVAAPL
p8778
aVPEP
p8779
aVUHS
p8780
aVRTN
p8781
aVNOC
p8782
aVILMN
p8783
asS'04302015'
p8784
(lp8785
VCMG
p8786
aVAZO
p8787
aVPRGO
p8788
aVHUM
p8789
aVMNK
p8790
aVPXD
p8791
aVBA
p8792
aVUNH
p8793
aVTMO
p8794
aVAMGN
p8795
aVHAR
p8796
aVLLL
p8797
aVSIG
p8798
aVPVH
p8799
aVUHS
p8800
aVGS
p8801
aVRL
p8802
aVSTZ
p8803
aVAET
p8804
aVMNST
p8805
aVHON
p8806
aVCVS
p8807
aVAMP
p8808
aVWAT
p8809
aVCXO
p8810
aVFFIV
p8811
aVGWW
p8812
aVPCLN
p8813
asS'09262016'
p8814
(lp8815
VXEC
p8816
aVAYI
p8817
aVPCLN
p8818
aVBLK
p8819
aVAMP
p8820
aVPH
p8821
aVHUM
p8822
aVEQIX
p8823
aVALXN
p8824
aVSLG
p8825
aVWYNN
p8826
aVSTZ
p8827
aVFISV
p8828
aVAMT
p8829
aVLLL
p8830
aVBIIB
p8831
aVSNA
p8832
aVILMN
p8833
aVGOOG
p8834
aVADBE
p8835
aVSHW
p8836
aVTMO
p8837
asS'04072015'
p8838
(lp8839
VBIIB
p8840
aVAVGO
p8841
aVMNK
p8842
aVCMG
p8843
aVAMGN
p8844
aVEW
p8845
aVPRGO
p8846
aVHUM
p8847
aVANTM
p8848
aVAMP
p8849
aVULTA
p8850
aVUHS
p8851
aVAET
p8852
aVUNH
p8853
aVPCLN
p8854
aVHAR
p8855
aVDIS
p8856
aVBA
p8857
aVTMO
p8858
aVCVS
p8859
aVLLL
p8860
aVGWW
p8861
aVFFIV
p8862
aVHON
p8863
aVWAT
p8864
aVMCO
p8865
aVHSY
p8866
aVTDG
p8867
aVMON
p8868
aVSIG
p8869
aVPXD
p8870
aVPVH
p8871
aVXEC
p8872
aVRL
p8873
asS'05052015'
p8874
(lp8875
VCMG
p8876
aVHAR
p8877
aVPRGO
p8878
aVHUM
p8879
aVPXD
p8880
aVLLL
p8881
aVNOC
p8882
aVBA
p8883
aVAMGN
p8884
aVUHS
p8885
aVMNK
p8886
aVCXO
p8887
aVSIG
p8888
aVGS
p8889
aVAMP
p8890
aVSTZ
p8891
aVMON
p8892
aVHON
p8893
aVNKE
p8894
aVRL
p8895
aVPVH
p8896
aVMPC
p8897
aVFFIV
p8898
aVGWW
p8899
aVPCLN
p8900
asS'05052016'
p8901
(lp8902
VGOOGL
p8903
aVGOOG
p8904
aVAYI
p8905
aVWHR
p8906
aVEW
p8907
aVMCK
p8908
aVULTA
p8909
aVPX
p8910
aVORLY
p8911
aVROP
p8912
aVCMI
p8913
aVSWK
p8914
aVTDG
p8915
aVHON
p8916
aVXEC
p8917
aVSIG
p8918
aVHD
p8919
aVSPGI
p8920
aVPXD
p8921
aVMCD
p8922
aVPEP
p8923
aVESS
p8924
aVBDX
p8925
aVEQIX
p8926
aVHUM
p8927
aVNEE
p8928
aVICE
p8929
aVAMZN
p8930
asS'03092016'
p8931
(lp8932
VAZO
p8933
aVFB
p8934
aVLLL
p8935
aVAPD
p8936
aVAET
p8937
aVTRV
p8938
aVHON
p8939
aVEFX
p8940
aVACN
p8941
aVCXO
p8942
aVPXD
p8943
aVGOOG
p8944
aVILMN
p8945
aVFDX
p8946
aVAYI
p8947
aVAMG
p8948
aVPCLN
p8949
asS'03092015'
p8950
(lp8951
VHAR
p8952
aVWHR
p8953
aVDNB
p8954
aVXEC
p8955
aVMON
p8956
aVLLL
p8957
aVHSY
p8958
aVZBH
p8959
aVBA
p8960
aVROP
p8961
aVPCLN
p8962
aVAMP
p8963
aVPXD
p8964
aVCELG
p8965
aVCMG
p8966
aVHON
p8967
aVHUM
p8968
aVHD
p8969
aVABC
p8970
aVEW
p8971
aVUNH
p8972
aVMNK
p8973
aVAET
p8974
aVGWW
p8975
aVFFIV
p8976
aVSIG
p8977
aVROST
p8978
aVUHS
p8979
aVPRGO
p8980
aVMNST
p8981
asS'04202016'
p8982
(lp8983
VILMN
p8984
aVESS
p8985
aVEQIX
p8986
aVSPG
p8987
aVAAPL
p8988
aVWHR
p8989
aVFISV
p8990
aVFB
p8991
aVTRV
p8992
aVPEP
p8993
aVULTA
p8994
aVHD
p8995
aVLMT
p8996
aVEFX
p8997
aVSWK
p8998
aVSJM
p8999
aVPH
p9000
aVUHS
p9001
aVAPD
p9002
aVBDX
p9003
aVWAT
p9004
aVGOOG
p9005
aVPRGO
p9006
aVCELG
p9007
aVSPGI
p9008
aVPXD
p9009
aVXEC
p9010
aVCMI
p9011
aVAYI
p9012
aVREGN
p9013
aVCMG
p9014
aVPCLN
p9015
asS'04202015'
p9016
(lp9017
VAZO
p9018
aVBIIB
p9019
aVSIG
p9020
aVHUM
p9021
aVCI
p9022
aVPVH
p9023
aVSTZ
p9024
aVAET
p9025
aVCVS
p9026
aVTMO
p9027
aVHON
p9028
aVMCO
p9029
aVLLL
p9030
aVUNH
p9031
aVTDG
p9032
aVHSY
p9033
aVUHS
p9034
aVAAPL
p9035
aVMON
p9036
aVRL
p9037
aVHAR
p9038
aVPXD
p9039
aVFFIV
p9040
aVGS
p9041
aVGWW
p9042
aVPCLN
p9043
aVPRGO
p9044
aVCMG
p9045
asS'06112015'
p9046
(lp9047
VPRGO
p9048
aVMNK
p9049
aVSWKS
p9050
aVEXPE
p9051
aVAYI
p9052
aVFFIV
p9053
aVGWW
p9054
aVCELG
p9055
aVAMGN
p9056
aVGPN
p9057
aVSIG
p9058
aVROK
p9059
aVHON
p9060
aVUNH
p9061
aVINTU
p9062
aVAET
p9063
aVLLL
p9064
aVSRCL
p9065
aVNKE
p9066
aVUTX
p9067
aVUHS
p9068
aVTMO
p9069
aVMNST
p9070
aVSTZ
p9071
aVPPG
p9072
aVAMP
p9073
aVLH
p9074
aVPXD
p9075
aVRL
p9076
aVCXO
p9077
asS'10102016'
p9078
(lp9079
VAYI
p9080
aVBIIB
p9081
aVPSA
p9082
aVBLK
p9083
aVSLG
p9084
aVCME
p9085
aVSHW
p9086
aVEQIX
p9087
aVPCLN
p9088
aVAMT
p9089
aVBDX
p9090
aVGOOG
p9091
aVALXN
p9092
aVADBE
p9093
aVPX
p9094
aVPH
p9095
aVSNA
p9096
aVAMP
p9097
aVILMN
p9098
aVTMO
p9099
aVCVX
p9100
aVPVH
p9101
aVSTZ
p9102
aVGS
p9103
aVLRCX
p9104
aVXEC
p9105
aVAMZN
p9106
asS'03012016'
p9107
(lp9108
VCLX
p9109
aVHON
p9110
aVAPD
p9111
aVLLL
p9112
aVTRV
p9113
aVACN
p9114
aVLMT
p9115
aVTMO
p9116
aVPXD
p9117
aVEFX
p9118
aVAET
p9119
aVAAP
p9120
aVBDX
p9121
aVMLM
p9122
aVAMG
p9123
aVGOOG
p9124
aVAYI
p9125
aVPCLN
p9126
asS'01072016'
p9127
(lp9128
VPCLN
p9129
aVAMZN
p9130
aVGOOG
p9131
aVREGN
p9132
aVAVGO
p9133
aVFDX
p9134
aVHD
p9135
aVDIS
p9136
aVSNA
p9137
aVTMO
p9138
aVUNH
p9139
aVWAT
p9140
aVACN
p9141
aVIFF
p9142
aVIBM
p9143
aVUHS
p9144
aVLLL
p9145
aVHUM
p9146
aVGWW
p9147
aVPRGO
p9148
aVAET
p9149
aVTSO
p9150
asS'11122015'
p9151
(lp9152
VPCLN
p9153
aVREGN
p9154
aVHAR
p9155
aVNOC
p9156
aVEXPE
p9157
aVAET
p9158
aVEQIX
p9159
aVLLL
p9160
aVACN
p9161
aVHUM
p9162
aVGILD
p9163
aVAVGO
p9164
aVEW
p9165
aVSRCL
p9166
aVWHR
p9167
aVWAT
p9168
aVTMO
p9169
aVTSO
p9170
aVFB
p9171
aVPRGO
p9172
aVNFLX
p9173
asS'01102017'
p9174
(lp9175
VAYI
p9176
aVBLK
p9177
aVGS
p9178
aVMLM
p9179
aVNVDA
p9180
aVFDX
p9181
aVCVX
p9182
aVAMG
p9183
aVCB
p9184
aVPH
p9185
aVLLL
p9186
aVCXO
p9187
aVAPD
p9188
aVPNC
p9189
aVADP
p9190
aVWHR
p9191
aVSTZ
p9192
aVBA
p9193
aVCMI
p9194
aVAMT
p9195
aVFISV
p9196
aVLRCX
p9197
aVNEE
p9198
aVAMP
p9199
aVULTA
p9200
aVCI
p9201
aVBXP
p9202
aVADBE
p9203
aVPSA
p9204
aVSPGI
p9205
aVBCR
p9206
aVEQIX
p9207
aVGOOGL
p9208
aVBIIB
p9209
aVAGN
p9210
aVILMN
p9211
aVAMZN
p9212
asS'01312017'
p9213
(lp9214
VGOOG
p9215
aVPSA
p9216
aVAGN
p9217
aVCVX
p9218
aVEOG
p9219
aVILMN
p9220
aVBIIB
p9221
aVADP
p9222
aVFISV
p9223
aVAMP
p9224
aVSYK
p9225
aVDLR
p9226
aVSTZ
p9227
aVPNC
p9228
aVPX
p9229
aVLRCX
p9230
aVGD
p9231
aVAYI
p9232
aVULTA
p9233
aVEXPE
p9234
aVCXO
p9235
aVCMI
p9236
aVLLL
p9237
aVSHW
p9238
aVISRG
p9239
asS'07212015'
p9240
(lp9241
VHAR
p9242
aVPXD
p9243
aVANTM
p9244
aVUHS
p9245
aVCXO
p9246
aVROK
p9247
aVHUM
p9248
aVUNH
p9249
aVFFIV
p9250
aVLH
p9251
aVSTZ
p9252
aVACN
p9253
aVGPN
p9254
aVEXPE
p9255
aVSWKS
p9256
aVAVGO
p9257
aVIFF
p9258
aVCVS
p9259
aVHON
p9260
aVORLY
p9261
aVAMP
p9262
aVMNK
p9263
aVNOC
p9264
aVMTB
p9265
aVLLL
p9266
aVPRGO
p9267
aVMNST
p9268
aVTSO
p9269
aVVRTX
p9270
aVEQIX
p9271
asS'09202016'
p9272
(lp9273
VAYI
p9274
aVXEC
p9275
aVAPD
p9276
aVBIIB
p9277
aVEQIX
p9278
aVSLG
p9279
aVGS
p9280
aVUTX
p9281
aVSHW
p9282
aVHUM
p9283
aVPH
p9284
aVFFIV
p9285
aVSTZ
p9286
aVPCLN
p9287
aVAMZN
p9288
aVSNA
p9289
aVBDX
p9290
aVPSA
p9291
aVCME
p9292
aVILMN
p9293
aVNEE
p9294
aVWYNN
p9295
asS'07212016'
p9296
(lp9297
VEQIX
p9298
aVDLR
p9299
aVSJM
p9300
aVNEE
p9301
aVPSA
p9302
aVCHD
p9303
aVSHW
p9304
aVINTU
p9305
aVAMZN
p9306
aVULTA
p9307
aVXEC
p9308
aVFISV
p9309
aVSTZ
p9310
aVPEP
p9311
aVHON
p9312
aVAMT
p9313
aVSRCL
p9314
aVCME
p9315
aVPXD
p9316
aVMCK
p9317
aVEW
p9318
aVPH
p9319
aVPX
p9320
aVPPG
p9321
aVIFF
p9322
aVCELG
p9323
aVFB
p9324
aVTMO
p9325
aVAPD
p9326
aVAYI
p9327
aVAGN
p9328
aVILMN
p9329
aVALXN
p9330
aVISRG
p9331
aVBIIB
p9332
asS'03272015'
p9333
(lp9334
VPCLN
p9335
aVBIIB
p9336
aVAVGO
p9337
aVBA
p9338
aVHAR
p9339
aVDNB
p9340
aVAMP
p9341
aVPRGO
p9342
aVMON
p9343
aVCMG
p9344
aVDIS
p9345
aVGS
p9346
aVMNK
p9347
aVUNH
p9348
aVLLL
p9349
aVEW
p9350
aVROP
p9351
aVHON
p9352
aVSRCL
p9353
aVANTM
p9354
aVUHS
p9355
aVAET
p9356
aVMPC
p9357
aVWAT
p9358
aVULTA
p9359
aVFFIV
p9360
aVAMGN
p9361
aVTMO
p9362
aVAYI
p9363
aVHUM
p9364
aVGWW
p9365
aVCXO
p9366
aVXEC
p9367
aVPXD
p9368
aVPVH
p9369
aVRL
p9370
aVSIG
p9371
asS'10192015'
p9372
(lp9373
VAZO
p9374
aVACN
p9375
aVSTZ
p9376
aVMCO
p9377
aVBA
p9378
aVAET
p9379
aVHUM
p9380
aVNFLX
p9381
aVSRCL
p9382
aVWHR
p9383
aVGPN
p9384
aVANTM
p9385
aVAYI
p9386
aVPCLN
p9387
asS'06022015'
p9388
(lp9389
VNFLX
p9390
aVAMZN
p9391
aVGWW
p9392
aVCMG
p9393
aVPRGO
p9394
aVSIG
p9395
aVAYI
p9396
aVAMGN
p9397
aVFFIV
p9398
aVMNST
p9399
aVMON
p9400
aVNKE
p9401
aVROK
p9402
aVEFX
p9403
aVBA
p9404
aVAMG
p9405
aVTDG
p9406
aVGPN
p9407
aVHON
p9408
aVUTX
p9409
aVTMO
p9410
aVDIS
p9411
aVEXPE
p9412
aVCELG
p9413
aVPXD
p9414
aVUNH
p9415
aVDNB
p9416
aVLLL
p9417
aVINTU
p9418
aVLH
p9419
aVCXO
p9420
aVGILD
p9421
aVMNK
p9422
aVAET
p9423
aVUHS
p9424
aVEW
p9425
aVSWKS
p9426
aVHUM
p9427
asS'01142016'
p9428
(lp9429
VPCLN
p9430
aVAMZN
p9431
aVREGN
p9432
aVGOOG
p9433
aVAVGO
p9434
aVAMG
p9435
aVGWW
p9436
aVHD
p9437
aVFDX
p9438
aVUNH
p9439
aVWAT
p9440
aVNFLX
p9441
aVNOC
p9442
aVMCD
p9443
aVLLL
p9444
aVDIS
p9445
aVACN
p9446
asS'06022016'
p9447
(lp9448
VESS
p9449
aVROP
p9450
aVSTZ
p9451
aVNOC
p9452
aVXEC
p9453
aVVMC
p9454
aVSWK
p9455
aVSHW
p9456
aVBDX
p9457
aVCVX
p9458
aVICE
p9459
aVPEP
p9460
aVHON
p9461
aVFISV
p9462
aVITW
p9463
aVCMI
p9464
aVMHK
p9465
aVTRV
p9466
aVBLK
p9467
aVAZO
p9468
aVAET
p9469
aVWHR
p9470
aVORLY
p9471
aVILMN
p9472
aVALXN
p9473
aVHUM
p9474
aVULTA
p9475
aVPCLN
p9476
asS'08292016'
p9477
(lp9478
VBIIB
p9479
aVPCLN
p9480
aVSJM
p9481
aVORLY
p9482
aVILMN
p9483
aVESS
p9484
aVSHW
p9485
aVAYI
p9486
aVNOC
p9487
aVBLK
p9488
aVTDG
p9489
aVPH
p9490
aVEW
p9491
aVLLL
p9492
aVEFX
p9493
aVCME
p9494
aVSTZ
p9495
aVXEC
p9496
aVFISV
p9497
aVADBE
p9498
aVBDX
p9499
aVAPD
p9500
aVEQIX
p9501
aVPSA
p9502
aVPVH
p9503
aVTAP
p9504
asS'10192016'
p9505
(lp9506
VAMZN
p9507
aVPCLN
p9508
aVILMN
p9509
aVBIIB
p9510
aVIFF
p9511
aVROP
p9512
aVTMO
p9513
aVFDX
p9514
aVEW
p9515
aVADBE
p9516
aVSYK
p9517
aVPVH
p9518
aVPH
p9519
aVSTZ
p9520
aVFB
p9521
aVAYI
p9522
aVCME
p9523
aVINTU
p9524
aVCVX
p9525
aVSNA
p9526
aVAAPL
p9527
aVXEC
p9528
aVSLG
p9529
aVSHW
p9530
aVMNST
p9531
aVPSA
p9532
asS'04102015'
p9533
(lp9534
VBIIB
p9535
aVHUM
p9536
aVAVGO
p9537
aVAMP
p9538
aVANTM
p9539
aVMNK
p9540
aVULTA
p9541
aVAET
p9542
aVUNH
p9543
aVAMGN
p9544
aVCVS
p9545
aVDIS
p9546
aVNKE
p9547
aVHSY
p9548
aVAAPL
p9549
aVWAT
p9550
aVLLL
p9551
aVHON
p9552
aVMCO
p9553
aVSIG
p9554
aVBA
p9555
aVHAR
p9556
aVGWW
p9557
aVFFIV
p9558
aVSTZ
p9559
aVTDG
p9560
aVSHW
p9561
aVMON
p9562
aVPXD
p9563
aVAZO
p9564
aVCMG
p9565
aVPVH
p9566
aVCXO
p9567
aVPCLN
p9568
aVISRG
p9569
aVPRGO
p9570
asS'01152016'
p9571
(lp9572
VPCLN
p9573
aVAMZN
p9574
aVGOOG
p9575
aVREGN
p9576
aVAVGO
p9577
aVAMG
p9578
aVHD
p9579
aVFDX
p9580
aVGWW
p9581
aVUNH
p9582
aVNOC
p9583
aVWAT
p9584
aVLLL
p9585
aVMCD
p9586
aVPRGO
p9587
asS'12012015'
p9588
(lp9589
VREGN
p9590
aVDIS
p9591
aVLLL
p9592
aVEXPE
p9593
aVNOC
p9594
aVPRGO
p9595
aVWAT
p9596
aVTSO
p9597
aVGILD
p9598
aVACN
p9599
aVAMGN
p9600
aVAET
p9601
aVUNH
p9602
aVIFF
p9603
aVSRCL
p9604
aVEW
p9605
aVWHR
p9606
aVAVGO
p9607
asS'10092015'
p9608
(lp9609
VAVGO
p9610
aVANTM
p9611
aVHUM
p9612
aVUNH
p9613
aVTDG
p9614
aVVRTX
p9615
aVCMG
p9616
aVCELG
p9617
aVKMB
p9618
aVGPN
p9619
aVNFLX
p9620
aVPCLN
p9621
asS'12012016'
p9622
(lp9623
VPCLN
p9624
aVBIIB
p9625
aVMLM
p9626
aVNFLX
p9627
aVADBE
p9628
aVSNA
p9629
aVSTZ
p9630
aVMHK
p9631
aVLRCX
p9632
aVPVH
p9633
aVINTU
p9634
aVFISV
p9635
aVROP
p9636
aVBA
p9637
aVAMP
p9638
aVCVX
p9639
aVPH
p9640
aVCB
p9641
aVCMI
p9642
aVAYI
p9643
aVPX
p9644
aVILMN
p9645
aVUNP
p9646
aVAMZN
p9647
aVBXP
p9648
aVEQIX
p9649
aVAGN
p9650
aVAPD
p9651
aVCXO
p9652
aVLLL
p9653
aVORLY
p9654
aVSHW
p9655
aVXEC
p9656
asS'07082016'
p9657
(lp9658
VEQIX
p9659
aVXEC
p9660
aVPPG
p9661
aVULTA
p9662
aVAPD
p9663
aVNEE
p9664
aVHON
p9665
aVDLR
p9666
aVIBM
p9667
aVSRCL
p9668
aVFISV
p9669
aVILMN
p9670
aVNOC
p9671
aVPEP
p9672
aVICE
p9673
aVVMC
p9674
aVBLK
p9675
aVGS
p9676
aVEW
p9677
aVMCK
p9678
aVSTZ
p9679
aVAYI
p9680
aVORLY
p9681
aVSHW
p9682
aVISRG
p9683
aVPCLN
p9684
asS'12302016'
p9685
(lp9686
VBLK
p9687
aVFDX
p9688
aVAYI
p9689
aVLLL
p9690
aVCXO
p9691
aVAMP
p9692
aVAPD
p9693
aVPH
p9694
aVEOG
p9695
aVSNA
p9696
aVULTA
p9697
aVSLG
p9698
aVPX
p9699
aVINTU
p9700
aVBA
p9701
aVPNC
p9702
aVIBM
p9703
aVUNP
p9704
aVRTN
p9705
aVCVX
p9706
aVSHW
p9707
aVFISV
p9708
aVADBE
p9709
aVADP
p9710
aVSYK
p9711
aVWHR
p9712
aVAMT
p9713
aVSTZ
p9714
aVPSA
p9715
aVNVDA
p9716
aVBIIB
p9717
aVTDG
p9718
aVEQIX
p9719
aVAGN
p9720
asS'11192015'
p9721
(lp9722
VPCLN
p9723
aVAZO
p9724
aVEXPE
p9725
aVORLY
p9726
aVHUM
p9727
aVAET
p9728
aVEW
p9729
aVFB
p9730
aVGILD
p9731
aVPRGO
p9732
aVUNH
p9733
aVTSO
p9734
aVWAT
p9735
aVSWK
p9736
aVNOC
p9737
aVLLL
p9738
aVDIS
p9739
aVEFX
p9740
aVSRCL
p9741
aVVMC
p9742
aVNFLX
p9743
asS'08192016'
p9744
(lp9745
VISRG
p9746
aVBIIB
p9747
aVSHW
p9748
aVORLY
p9749
aVESS
p9750
aVCELG
p9751
aVMCK
p9752
aVAGN
p9753
aVPSA
p9754
aVSWK
p9755
aVEQIX
p9756
aVFISV
p9757
aVBLK
p9758
aVBDX
p9759
aVSJM
p9760
aVLLL
p9761
aVWYNN
p9762
aVDLR
p9763
aVILMN
p9764
aVEW
p9765
aVSTZ
p9766
aVHON
p9767
aVAAPL
p9768
aVINTU
p9769
aVCME
p9770
aVPM
p9771
aVPH
p9772
aVCTAS
p9773
aVAYI
p9774
aVPVH
p9775
aVPCLN
p9776
asS'06032016'
p9777
(lp9778
VPXD
p9779
aVESS
p9780
aVROP
p9781
aVXEC
p9782
aVVMC
p9783
aVNOC
p9784
aVSWK
p9785
aVCXO
p9786
aVSHW
p9787
aVHD
p9788
aVBDX
p9789
aVPEP
p9790
aVHON
p9791
aVADBE
p9792
aVBLK
p9793
aVFISV
p9794
aVCMI
p9795
aVSPG
p9796
aVSJM
p9797
aVITW
p9798
aVMHK
p9799
aVINTU
p9800
aVAZO
p9801
aVAMG
p9802
aVORLY
p9803
aVMCK
p9804
aVWHR
p9805
aVILMN
p9806
aVHUM
p9807
aVBIIB
p9808
aVULTA
p9809
aVPCLN
p9810
asS'05232016'
p9811
(lp9812
VPCLN
p9813
aVORLY
p9814
aVCMI
p9815
aVBLK
p9816
aVMCD
p9817
aVESS
p9818
aVWHR
p9819
aVULTA
p9820
aVNOC
p9821
aVMHK
p9822
aVPEP
p9823
aVSHW
p9824
aVHD
p9825
aVBDX
p9826
aVHON
p9827
aVFISV
p9828
aVVMC
p9829
aVHUM
p9830
aVACN
p9831
aVSPGI
p9832
aVXEC
p9833
aVTRV
p9834
aVINTU
p9835
aVICE
p9836
aVSIG
p9837
aVGOOG
p9838
aVTDG
p9839
aVMCK
p9840
asS'10212015'
p9841
(lp9842
VMLM
p9843
aVTSO
p9844
aVORLY
p9845
aVACN
p9846
aVUNH
p9847
aVNFLX
p9848
aVHUM
p9849
aVSTZ
p9850
aVAET
p9851
aVFFIV
p9852
aVAVGO
p9853
aVGPN
p9854
aVSRCL
p9855
aVVNO
p9856
aVANTM
p9857
aVSHW
p9858
aVPCLN
p9859
asS'04242015'
p9860
(lp9861
VBIIB
p9862
aVAZO
p9863
aVMNK
p9864
aVPXD
p9865
aVPVH
p9866
aVTMO
p9867
aVSTZ
p9868
aVBA
p9869
aVPRGO
p9870
aVWAT
p9871
aVHUM
p9872
aVHON
p9873
aVAET
p9874
aVTDG
p9875
aVCVS
p9876
aVLLL
p9877
aVRL
p9878
aVUHS
p9879
aVCXO
p9880
aVWDC
p9881
aVHAR
p9882
aVFFIV
p9883
aVGWW
p9884
aVREGN
p9885
aVPCLN
p9886
asS'10212016'
p9887
(lp9888
VAMZN
p9889
aVILMN
p9890
aVPCLN
p9891
aVBIIB
p9892
aVIFF
p9893
aVROP
p9894
aVFDX
p9895
aVBDX
p9896
aVPVH
p9897
aVEW
p9898
aVPH
p9899
aVSTZ
p9900
aVXEC
p9901
aVAYI
p9902
aVAAPL
p9903
aVCME
p9904
aVSLG
p9905
aVINTU
p9906
aVBA
p9907
aVNEE
p9908
aVPSA
p9909
aVMNST
p9910
aVSHW
p9911
aVSNA
p9912
aVNFLX
p9913
asS'11022015'
p9914
(lp9915
VSRCL
p9916
aVSTZ
p9917
aVANTM
p9918
aVEFX
p9919
aVGPN
p9920
aVGWW
p9921
aVACN
p9922
aVHUM
p9923
aVHAR
p9924
aVFB
p9925
aVEXPE
p9926
aVAET
p9927
aVGILD
p9928
aVNFLX
p9929
aVVRTX
p9930
aVREGN
p9931
aVPCLN
p9932
asS'10302015'
p9933
(lp9934
VFFIV
p9935
aVSTZ
p9936
aVANTM
p9937
aVGWW
p9938
aVGPN
p9939
aVHUM
p9940
aVACN
p9941
aVEXPE
p9942
aVHAR
p9943
aVFB
p9944
aVVRTX
p9945
aVREGN
p9946
aVPCLN
p9947
asS'11022016'
p9948
(lp9949
VAMZN
p9950
aVAGN
p9951
aVSHW
p9952
aVPCLN
p9953
aVAYI
p9954
aVBIIB
p9955
aVXEC
p9956
aVTMO
p9957
aVSTZ
p9958
aVBDX
p9959
aVADBE
p9960
aVPVH
p9961
aVPH
p9962
aVFB
p9963
aVCME
p9964
aVEXPE
p9965
aVROP
p9966
aVILMN
p9967
aVSNA
p9968
aVINTU
p9969
aVNEE
p9970
aVIBM
p9971
aVGS
p9972
aVMLM
p9973
asS'07292015'
p9974
(lp9975
VROK
p9976
aVGS
p9977
aVVRTX
p9978
aVUHS
p9979
aVANTM
p9980
aVEXPE
p9981
aVAVGO
p9982
aVUNH
p9983
aVMON
p9984
aVHUM
p9985
aVORLY
p9986
aVHAR
p9987
aVAMP
p9988
aVNOC
p9989
aVACN
p9990
aVHON
p9991
aVMNK
p9992
aVLLL
p9993
aVSTZ
p9994
aVMTB
p9995
aVLH
p9996
aVSRCL
p9997
aVMNST
p9998
aVFFIV
p9999
asS'07292016'
p10000
(lp10001
VPSA
p10002
aVEQIX
p10003
aVSHW
p10004
aVNOC
p10005
aVINTU
p10006
aVSJM
p10007
aVDLR
p10008
aVAYI
p10009
aVHON
p10010
aVSTZ
p10011
aVAMT
p10012
aVPPG
p10013
aVAON
p10014
aVFISV
p10015
aVBDX
p10016
aVPX
p10017
aVLLL
p10018
aVROP
p10019
aVCME
p10020
aVIFF
p10021
aVAPD
p10022
aVISRG
p10023
aVUTX
p10024
aVPCLN
p10025
aVPH
p10026
aVTDG
p10027
aVFB
p10028
aVCTAS
p10029
aVAAPL
p10030
aVEW
p10031
aVWYNN
p10032
aVAGN
p10033
aVILMN
p10034
aVBIIB
p10035
asS'02242015'
p10036
(lp10037
VCMG
p10038
aVESS
p10039
aVAMZN
p10040
aVHAR
p10041
aVCXO
p10042
aVBIIB
p10043
aVAMP
p10044
aVSIG
p10045
aVPXD
p10046
aVHON
p10047
aVBA
p10048
aVGILD
p10049
aVMON
p10050
aVMNST
p10051
aVGWW
p10052
aVHD
p10053
aVCELG
p10054
aVROP
p10055
aVUNH
p10056
aVZBH
p10057
aVAVGO
p10058
aVUHS
p10059
aVBDX
p10060
aVMNK
p10061
aVANTM
p10062
aVPRGO
p10063
aVXEC
p10064
aVCI
p10065
aVWDC
p10066
aVDNB
p10067
aVICE
p10068
aVPVH
p10069
aVHUM
p10070
aVREGN
p10071
aVPCLN
p10072
asS'02242016'
p10073
(lp10074
VHON
p10075
aVLLL
p10076
aVICE
p10077
aVACN
p10078
aVPXD
p10079
aVLMT
p10080
aVTMO
p10081
aVEFX
p10082
aVAET
p10083
aVBDX
p10084
aVGOOG
p10085
aVROP
p10086
aVILMN
p10087
aVAMG
p10088
aVAYI
p10089
aVPCLN
p10090
asS'05082015'
p10091
(lp10092
VPCLN
p10093
aVPXD
p10094
aVNFLX
p10095
aVHAR
p10096
aVHUM
p10097
aVCMG
p10098
aVCXO
p10099
aVPRGO
p10100
aVBA
p10101
aVLLL
p10102
aVCI
p10103
aVUHS
p10104
aVSIG
p10105
aVUNH
p10106
aVMCO
p10107
aVGS
p10108
aVAET
p10109
aVRL
p10110
aVAMP
p10111
aVHON
p10112
aVGWW
p10113
aVTMO
p10114
aVTDG
p10115
aVAVGO
p10116
aVMNK
p10117
aVFFIV
p10118
aVMPC
p10119
aVMON
p10120
aVROK
p10121
asS'12122016'
p10122
(lp10123
VAYI
p10124
aVRL
p10125
aVILMN
p10126
aVPVH
p10127
aVPH
p10128
aVPNC
p10129
aVAMP
p10130
aVFISV
p10131
aVISRG
p10132
aVBDX
p10133
aVLLL
p10134
aVINTU
p10135
aVADS
p10136
aVMHK
p10137
aVFDX
p10138
aVTDG
p10139
aVSNA
p10140
aVSHW
p10141
aVBA
p10142
aVADBE
p10143
aVCVX
p10144
aVNFLX
p10145
aVORLY
p10146
aVPX
p10147
aVSTZ
p10148
aVCXO
p10149
aVNEE
p10150
aVSLG
p10151
aVAPD
p10152
aVBXP
p10153
aVIFF
p10154
aVMCK
p10155
aVAGN
p10156
aVXEC
p10157
aVAMZN
p10158
aVPCLN
p10159
asS'12172015'
p10160
(lp10161
VGOOG
p10162
aVAMZN
p10163
aVWHR
p10164
aVNFLX
p10165
aVLLL
p10166
aVREGN
p10167
aVSNA
p10168
aVACN
p10169
aVUHS
p10170
aVDIS
p10171
aVAVGO
p10172
aVWAT
p10173
aVAMGN
p10174
aVABC
p10175
aVGWW
p10176
aVSRCL
p10177
aVAET
p10178
aVPCLN
p10179
asS'03142016'
p10180
(lp10181
VALXN
p10182
aVLMT
p10183
aVAPD
p10184
aVPEP
p10185
aVBDX
p10186
aVHON
p10187
aVPH
p10188
aVEFX
p10189
aVAET
p10190
aVACN
p10191
aVILMN
p10192
aVMHK
p10193
aVAYI
p10194
aVPXD
p10195
aVPCLN
p10196
aVAMZN
p10197
aVGOOG
p10198
asS'11102015'
p10199
(lp10200
VPCLN
p10201
aVANTM
p10202
aVNOC
p10203
aVEQIX
p10204
aVACN
p10205
aVSRCL
p10206
aVHAR
p10207
aVEXPE
p10208
aVLLL
p10209
aVAET
p10210
aVGILD
p10211
aVAVGO
p10212
aVWHR
p10213
aVEW
p10214
aVHUM
p10215
aVFB
p10216
aVWAT
p10217
aVTSO
p10218
aVPRGO
p10219
aVNFLX
p10220
asS'11102016'
p10221
(lp10222
VAMZN
p10223
aVSTZ
p10224
aVXEC
p10225
aVADBE
p10226
aVCXO
p10227
aVINTU
p10228
aVPX
p10229
aVBA
p10230
aVAGN
p10231
aVCVX
p10232
aVILMN
p10233
aVSNA
p10234
aVRTN
p10235
aVPH
p10236
aVCME
p10237
aVSHW
p10238
aVMHK
p10239
aVAYI
p10240
aVBIIB
p10241
aVMLM
p10242
aVPCLN
p10243
asS'07262016'
p10244
(lp10245
VEQIX
p10246
aVSHW
p10247
aVDLR
p10248
aVNOC
p10249
aVXEC
p10250
aVINTU
p10251
aVPSA
p10252
aVHON
p10253
aVROP
p10254
aVBDX
p10255
aVCHD
p10256
aVNEE
p10257
aVMCK
p10258
aVPEP
p10259
aVPCLN
p10260
aVAMT
p10261
aVFISV
p10262
aVULTA
p10263
aVAYI
p10264
aVSTZ
p10265
aVAON
p10266
aVPPG
p10267
aVCME
p10268
aVSRCL
p10269
aVPX
p10270
aVEW
p10271
aVTDG
p10272
aVPH
p10273
aVFB
p10274
aVISRG
p10275
aVILMN
p10276
aVAGN
p10277
aVBIIB
p10278
asS'08262015'
p10279
(lp10280
VPCLN
p10281
aVCMG
p10282
aVAMZN
p10283
aVEQIX
p10284
aVAYI
p10285
aVMLM
p10286
aVGS
p10287
aVMNST
p10288
aVVRTX
p10289
aVTMO
p10290
aVEXPE
p10291
aVPRGO
p10292
aVUHS
p10293
aVGPN
p10294
aVLH
p10295
aVRTN
p10296
aVSRCL
p10297
aVLLL
p10298
aVANTM
p10299
aVHUM
p10300
asS'08262016'
p10301
(lp10302
VBIIB
p10303
aVPCLN
p10304
aVSJM
p10305
aVORLY
p10306
aVESS
p10307
aVCELG
p10308
aVSHW
p10309
aVILMN
p10310
aVNOC
p10311
aVAYI
p10312
aVINTU
p10313
aVPH
p10314
aVEQIX
p10315
aVBDX
p10316
aVSTZ
p10317
aVFISV
p10318
aVPM
p10319
aVPSA
p10320
aVXEC
p10321
aVCTAS
p10322
aVTAP
p10323
aVPVH
p10324
asS'02172016'
p10325
(lp10326
VGOOG
p10327
aVFB
p10328
aVUHS
p10329
aVPRGO
p10330
aVLMT
p10331
aVLLL
p10332
aVTMO
p10333
aVUNH
p10334
aVHON
p10335
aVWAT
p10336
aVILMN
p10337
aVAYI
p10338
aVREGN
p10339
aVAMG
p10340
aVAZO
p10341
asS'02172015'
p10342
(lp10343
VCMG
p10344
aVREGN
p10345
aVCELG
p10346
aVUNH
p10347
aVGWW
p10348
aVSIG
p10349
aVPRGO
p10350
aVPXD
p10351
aVANTM
p10352
aVBA
p10353
aVTRV
p10354
aVUNP
p10355
aVCXO
p10356
aVHUM
p10357
aVHON
p10358
aVEW
p10359
aVHD
p10360
aVZBH
p10361
aVMNK
p10362
aVXEC
p10363
aVDIS
p10364
aVWDC
p10365
aVIFF
p10366
aVAMP
p10367
aVFFIV
p10368
aVROP
p10369
aVHAR
p10370
aVGS
p10371
aVDNB
p10372
aVAMZN
p10373
aVPCLN
p10374
asS'04042016'
p10375
(lp10376
VPCLN
p10377
aVCXO
p10378
aVHUM
p10379
aVPXD
p10380
aVAYI
p10381
aVSHW
p10382
aVMHK
p10383
aVWHR
p10384
aVFB
p10385
aVULTA
p10386
aVRTN
p10387
aVAPD
p10388
aVCVS
p10389
aVPEP
p10390
aVAMT
p10391
aVSPG
p10392
aVEFX
p10393
aVICE
p10394
aVESS
p10395
aVACN
p10396
aVUHS
p10397
aVBIIB
p10398
aVILMN
p10399
aVREGN
p10400
asS'06052015'
p10401
(lp10402
VPRGO
p10403
aVGWW
p10404
aVMON
p10405
aVAYI
p10406
aVFFIV
p10407
aVEXPE
p10408
aVCMG
p10409
aVCELG
p10410
aVAMGN
p10411
aVAMG
p10412
aVUNH
p10413
aVNKE
p10414
aVMNK
p10415
aVROK
p10416
aVHON
p10417
aVMNST
p10418
aVGPN
p10419
aVUTX
p10420
aVLLL
p10421
aVTMO
p10422
aVSWKS
p10423
aVCXO
p10424
aVAMP
p10425
aVNOC
p10426
aVAET
p10427
aVZBH
p10428
aVLH
p10429
aVPXD
p10430
aVRL
p10431
aVHUM
p10432
asS'09082015'
p10433
(lp10434
VAMZN
p10435
aVORLY
p10436
aVPRGO
p10437
aVMNST
p10438
aVFFIV
p10439
aVTDG
p10440
aVTMO
p10441
aVNOC
p10442
aVLH
p10443
aVGPN
p10444
aVVRTX
p10445
aVRTN
p10446
aVUNH
p10447
aVSRCL
p10448
aVAET
p10449
aVLLL
p10450
aVHUM
p10451
aVEQIX
p10452
aVANTM
p10453
aVNFLX
p10454
asS'09082016'
p10455
(lp10456
VULTA
p10457
aVBIIB
p10458
aVGOOG
p10459
aVAYI
p10460
aVILMN
p10461
aVPCLN
p10462
aVFFIV
p10463
aVHUM
p10464
aVBLK
p10465
aVPH
p10466
aVISRG
p10467
aVXEC
p10468
aVSTZ
p10469
aVSHW
p10470
aVADBE
p10471
aVGS
p10472
aVFISV
p10473
aVAMP
p10474
aVROP
p10475
aVPM
p10476
aVPSA
p10477
asS'10012015'
p10478
(lp10479
VPCLN
p10480
aVAMZN
p10481
aVPRGO
p10482
aVEQIX
p10483
aVTDG
p10484
aVCMG
p10485
aVWHR
p10486
aVAZO
p10487
aVHUM
p10488
aVLH
p10489
aVUNH
p10490
aVNOC
p10491
aVTMO
p10492
aVGPN
p10493
aVLLL
p10494
aVFFIV
p10495
aVRTN
p10496
aVKMB
p10497
aVPSA
p10498
asS'09122016'
p10499
(lp10500
VBIIB
p10501
aVULTA
p10502
aVPCLN
p10503
aVGOOG
p10504
aVAYI
p10505
aVBLK
p10506
aVILMN
p10507
aVFFIV
p10508
aVAPD
p10509
aVSHW
p10510
aVAAPL
p10511
aVXEC
p10512
aVUTX
p10513
aVSNA
p10514
aVPH
p10515
aVZBH
p10516
aVADBE
p10517
aVSTZ
p10518
aVESS
p10519
aVROP
p10520
aVFISV
p10521
aVPM
p10522
aVGS
p10523
aVAMP
p10524
aVPSA
p10525
asS'09222015'
p10526
(lp10527
VVRTX
p10528
aVPRGO
p10529
aVFFIV
p10530
aVSRCL
p10531
aVCMG
p10532
aVAVGO
p10533
aVTDG
p10534
aVLH
p10535
aVAET
p10536
aVGILD
p10537
aVORLY
p10538
aVHUM
p10539
aVHAR
p10540
aVUNH
p10541
aVPCLN
p10542
aVNFLX
p10543
asS'09222016'
p10544
(lp10545
VAYI
p10546
aVXEC
p10547
aVGS
p10548
aVSLG
p10549
aVHUM
p10550
aVPH
p10551
aVCME
p10552
aVAMT
p10553
aVSTZ
p10554
aVBIIB
p10555
aVSHW
p10556
aVSNA
p10557
aVWYNN
p10558
aVILMN
p10559
aVBDX
p10560
aVADBE
p10561
aVGOOG
p10562
aVPSA
p10563
aVPCLN
p10564
asS'12072016'
p10565
(lp10566
VBIIB
p10567
aVISRG
p10568
aVMLM
p10569
aVVMC
p10570
aVBDX
p10571
aVILMN
p10572
aVPNC
p10573
aVMHK
p10574
aVFISV
p10575
aVSTZ
p10576
aVSNA
p10577
aVADBE
p10578
aVAMP
p10579
aVIBM
p10580
aVAYI
p10581
aVINTU
p10582
aVROP
p10583
aVBA
p10584
aVPVH
p10585
aVSHW
p10586
aVCVX
p10587
aVPH
p10588
aVTDG
p10589
aVPX
p10590
aVUNP
p10591
aVNEE
p10592
aVNFLX
p10593
aVLLL
p10594
aVSLG
p10595
aVBXP
p10596
aVAPD
p10597
aVIFF
p10598
aVAGN
p10599
aVURI
p10600
aVCXO
p10601
aVORLY
p10602
aVXEC
p10603
aVAMZN
p10604
asS'12072015'
p10605
(lp10606
VREGN
p10607
aVTSO
p10608
aVDIS
p10609
aVAYI
p10610
aVWAT
p10611
aVAMGN
p10612
aVFB
p10613
aVWHR
p10614
aVNOC
p10615
aVLLL
p10616
aVUHS
p10617
aVEW
p10618
aVPRGO
p10619
aVSRCL
p10620
aVEXPE
p10621
aVACN
p10622
aVIFF
p10623
aVAET
p10624
aVUNH
p10625
asS'06292015'
p10626
(lp10627
VHUM
p10628
aVAVGO
p10629
aVCXO
p10630
aVMON
p10631
aVMNK
p10632
aVFFIV
p10633
aVSWKS
p10634
aVAYI
p10635
aVSTZ
p10636
aVPXD
p10637
aVAMP
p10638
aVHON
p10639
aVSRCL
p10640
aVRL
p10641
aVEXPE
p10642
aVPVH
p10643
aVSIG
p10644
aVLLL
p10645
aVPRGO
p10646
aVMTB
p10647
aVLH
p10648
aVTMO
p10649
aVORLY
p10650
aVCELG
p10651
aVAET
p10652
aVEW
p10653
asS'12102015'
p10654
(lp10655
VGOOG
p10656
aVREGN
p10657
aVWHR
p10658
aVTSO
p10659
aVDIS
p10660
aVTMO
p10661
aVWAT
p10662
aVNFLX
p10663
aVAMGN
p10664
aVSNA
p10665
aVNOC
p10666
aVEW
p10667
aVACN
p10668
aVSRCL
p10669
aVABC
p10670
aVAET
p10671
aVUNH
p10672
aVAVGO
p10673
aVPCLN
p10674
asS'03202015'
p10675
(lp10676
VPCLN
p10677
aVHAR
p10678
aVBA
p10679
aVMON
p10680
aVDNB
p10681
aVXEC
p10682
aVAVGO
p10683
aVLLL
p10684
aVFFIV
p10685
aVHON
p10686
aVHSY
p10687
aVGS
p10688
aVJNJ
p10689
aVPVH
p10690
aVUHS
p10691
aVUNH
p10692
aVPXD
p10693
aVGWW
p10694
aVAYI
p10695
aVAET
p10696
aVTMO
p10697
aVSIG
p10698
aVMCO
p10699
aVCELG
p10700
aVMNK
p10701
aVRL
p10702
aVPRGO
p10703
aVHUM
p10704
aVCMG
p10705
aVBIIB
p10706
aVREGN
p10707
asS'05242016'
p10708
(lp10709
VPCLN
p10710
aVCMI
p10711
aVPXD
p10712
aVMCD
p10713
aVESS
p10714
aVORLY
p10715
aVNOC
p10716
aVPEP
p10717
aVSHW
p10718
aVHD
p10719
aVMHK
p10720
aVBLK
p10721
aVWHR
p10722
aVAYI
p10723
aVHON
p10724
aVFISV
p10725
aVXEC
p10726
aVVMC
p10727
aVACN
p10728
aVSPGI
p10729
aVSIG
p10730
aVINTU
p10731
aVICE
p10732
aVTDG
p10733
aVMCK
p10734
aVGOOG
p10735
asS'07072016'
p10736
(lp10737
VPCLN
p10738
aVEQIX
p10739
aVAPD
p10740
aVPPG
p10741
aVXEC
p10742
aVULTA
p10743
aVCHD
p10744
aVPX
p10745
aVICE
p10746
aVILMN
p10747
aVFISV
p10748
aVDLR
p10749
aVPEP
p10750
aVMKC
p10751
aVNOC
p10752
aVVMC
p10753
aVMCK
p10754
aVSTZ
p10755
aVORLY
p10756
aVSHW
p10757
aVISRG
p10758
asS'10062015'
p10759
(lp10760
VEQIX
p10761
aVPCLN
p10762
aVCMG
p10763
aVTDG
p10764
aVAVGO
p10765
aVPRGO
p10766
aVHUM
p10767
aVANTM
p10768
aVUNH
p10769
aVVRTX
p10770
aVWHR
p10771
aVEXPE
p10772
aVGPN
p10773
aVSTZ
p10774
aVNOC
p10775
aVRTN
p10776
aVLLL
p10777
aVAMZN
p10778
aVKMB
p10779
aVFFIV
p10780
aVTSO
p10781
aVHAR
p10782
aVRL
p10783
aVPXD
p10784
aVNFLX
p10785
asS'05072015'
p10786
(lp10787
VHAR
p10788
aVCMG
p10789
aVPXD
p10790
aVNFLX
p10791
aVHUM
p10792
aVPRGO
p10793
aVCXO
p10794
aVBA
p10795
aVLLL
p10796
aVCI
p10797
aVUHS
p10798
aVUNH
p10799
aVGS
p10800
aVGPN
p10801
aVTMO
p10802
aVAMP
p10803
aVMNK
p10804
aVAVGO
p10805
aVRL
p10806
aVPCLN
p10807
aVHON
p10808
aVGWW
p10809
aVMPC
p10810
aVMON
p10811
aVSNA
p10812
aVFFIV
p10813
aVROK
p10814
asS'07142015'
p10815
(lp10816
VHUM
p10817
aVAVGO
p10818
aVSWKS
p10819
aVHAR
p10820
aVFFIV
p10821
aVCXO
p10822
aVGS
p10823
aVROK
p10824
aVEXPE
p10825
aVUHS
p10826
aVAMP
p10827
aVVRTX
p10828
aVSTZ
p10829
aVSRCL
p10830
aVPRGO
p10831
aVGPN
p10832
aVHON
p10833
aVLH
p10834
aVNKE
p10835
aVMON
p10836
aVPXD
p10837
aVCELG
p10838
aVEW
p10839
aVTMO
p10840
aVMNK
p10841
aVORLY
p10842
aVBA
p10843
aVLLL
p10844
aVAYI
p10845
asS'08112015'
p10846
(lp10847
VMNK
p10848
aVAMZN
p10849
aVCMG
p10850
aVMNST
p10851
aVTMO
p10852
aVLLL
p10853
aVGS
p10854
aVAVGO
p10855
aVLH
p10856
aVACN
p10857
aVANTM
p10858
aVUNH
p10859
aVROK
p10860
aVPRGO
p10861
aVNOC
p10862
aVMON
p10863
aVFFIV
p10864
aVEFX
p10865
aVBF-B
p10866
aVHUM
p10867
aVSTZ
p10868
aVTSO
p10869
aVSRCL
p10870
aVPXD
p10871
aVEXPE
p10872
aVAYI
p10873
aVHAR
p10874
aVCXO
p10875
asS'10272015'
p10876
(lp10877
VMLM
p10878
aVGPN
p10879
aVAET
p10880
aVSTZ
p10881
aVEXPE
p10882
aVEW
p10883
aVANTM
p10884
aVHAR
p10885
aVNFLX
p10886
aVACN
p10887
aVNOC
p10888
aVORLY
p10889
aVFB
p10890
aVSHW
p10891
aVPCLN
p10892
asS'07142016'
p10893
(lp10894
VDLR
p10895
aVMKC
p10896
aVSRE
p10897
aVTAP
p10898
aVXEC
p10899
aVCXO
p10900
aVSTZ
p10901
aVULTA
p10902
aVFISV
p10903
aVHON
p10904
aVAMT
p10905
aVDIS
p10906
aVBRK-B
p10907
aVSRCL
p10908
aVORLY
p10909
aVPXD
p10910
aVINTU
p10911
aVPPG
p10912
aVEW
p10913
aVAPD
p10914
aVWHR
p10915
aVILMN
p10916
aVISRG
p10917
aVAGN
p10918
aVICE
p10919
aVMCK
p10920
aVAMZN
p10921
aVSHW
p10922
aVAYI
p10923
aVPCLN
p10924
asS'08102016'
p10925
(lp10926
VEQIX
p10927
aVPSA
p10928
aVISRG
p10929
aVFISV
p10930
aVSHW
p10931
aVAGN
p10932
aVAMT
p10933
aVBDX
p10934
aVCTAS
p10935
aVSPGI
p10936
aVINTU
p10937
aVAPD
p10938
aVSTZ
p10939
aVSNA
p10940
aVMNST
p10941
aVHON
p10942
aVIFF
p10943
aVAON
p10944
aVCME
p10945
aVEW
p10946
aVBLK
p10947
aVORLY
p10948
aVWYNN
p10949
aVCELG
p10950
aVILMN
p10951
aVCHD
p10952
aVVRTX
p10953
aVTDG
p10954
aVAYI
p10955
aVAMZN
p10956
aVPH
p10957
aVBIIB
p10958
asS'12142016'
p10959
(lp10960
VRTN
p10961
aVAYI
p10962
aVPVH
p10963
aVAMP
p10964
aVPH
p10965
aVPNC
p10966
aVLLL
p10967
aVSHW
p10968
aVUNP
p10969
aVSNA
p10970
aVFISV
p10971
aVCXO
p10972
aVBA
p10973
aVINTU
p10974
aVILMN
p10975
aVFDX
p10976
aVCVX
p10977
aVMHK
p10978
aVORLY
p10979
aVPX
p10980
aVAPD
p10981
aVBXP
p10982
aVEOG
p10983
aVADBE
p10984
aVSLG
p10985
aVXEC
p10986
aVNEE
p10987
aVPSA
p10988
aVSTZ
p10989
aVBLK
p10990
aVAGN
p10991
aVPCLN
p10992
aVISRG
p10993
aVAMZN
p10994
asS'12142015'
p10995
(lp10996
VEW
p10997
aVGOOG
p10998
aVREGN
p10999
aVTDG
p11000
aVWHR
p11001
aVTSO
p11002
aVDIS
p11003
aVSNA
p11004
aVAMGN
p11005
aVTMO
p11006
aVGILD
p11007
aVWAT
p11008
aVBIIB
p11009
aVNOC
p11010
aVACN
p11011
aVGWW
p11012
aVMCD
p11013
aVUNH
p11014
aVABC
p11015
aVAET
p11016
asS'08102015'
p11017
(lp11018
VMNST
p11019
aVLLL
p11020
aVTMO
p11021
aVCMG
p11022
aVGS
p11023
aVUHS
p11024
aVAVGO
p11025
aVLH
p11026
aVROK
p11027
aVANTM
p11028
aVAON
p11029
aVUNH
p11030
aVORLY
p11031
aVACN
p11032
aVWAT
p11033
aVPRGO
p11034
aVMON
p11035
aVTSO
p11036
aVEFX
p11037
aVFFIV
p11038
aVRTN
p11039
aVBF-B
p11040
aVSTZ
p11041
aVPXD
p11042
aVVRTX
p11043
aVAYI
p11044
aVCXO
p11045
aVEXPE
p11046
aVHAR
p11047
aVPCLN
p11048
asS'11142016'
p11049
(lp11050
VAMZN
p11051
aVEQIX
p11052
aVSTZ
p11053
aVNEE
p11054
aVFB
p11055
aVADBE
p11056
aVXEC
p11057
aVTDG
p11058
aVCXO
p11059
aVPX
p11060
aVCVX
p11061
aVSPGI
p11062
aVINTU
p11063
aVAGN
p11064
aVBA
p11065
aVAPD
p11066
aVBXP
p11067
aVPSA
p11068
aVPNC
p11069
aVSNA
p11070
aVCME
p11071
aVPH
p11072
aVSHW
p11073
aVAMP
p11074
aVGS
p11075
aVAYI
p11076
aVMLM
p11077
aVPCLN
p11078
asS'03262015'
p11079
(lp11080
VPCLN
p11081
aVAVGO
p11082
aVBA
p11083
aVHAR
p11084
aVICE
p11085
aVMON
p11086
aVTDG
p11087
aVAMP
p11088
aVPRGO
p11089
aVSWKS
p11090
aVGS
p11091
aVMNK
p11092
aVCELG
p11093
aVUNH
p11094
aVLLL
p11095
aVWAT
p11096
aVROP
p11097
aVHON
p11098
aVBIIB
p11099
aVSRCL
p11100
aVEW
p11101
aVAET
p11102
aVUHS
p11103
aVJNJ
p11104
aVCMG
p11105
aVNKE
p11106
aVGWW
p11107
aVTMO
p11108
aVXEC
p11109
aVHUM
p11110
aVESS
p11111
aVPXD
p11112
aVPVH
p11113
aVSIG
p11114
aVRL
p11115
asS'12152016'
p11116
(lp11117
VAYI
p11118
aVPVH
p11119
aVPCLN
p11120
aVVMC
p11121
aVAMP
p11122
aVPH
p11123
aVLLL
p11124
aVSHW
p11125
aVPNC
p11126
aVBA
p11127
aVCXO
p11128
aVUNP
p11129
aVSNA
p11130
aVSPGI
p11131
aVFDX
p11132
aVFISV
p11133
aVBXP
p11134
aVINTU
p11135
aVMHK
p11136
aVSLG
p11137
aVXEC
p11138
aVCVX
p11139
aVEOG
p11140
aVORLY
p11141
aVAPD
p11142
aVPX
p11143
aVADBE
p11144
aVMCK
p11145
aVILMN
p11146
aVSTZ
p11147
aVBLK
p11148
aVAGN
p11149
aVISRG
p11150
aVAMZN
p11151
asS'11232016'
p11152
(lp11153
VTDG
p11154
aVNEE
p11155
aVAGN
p11156
aVBDX
p11157
aVADBE
p11158
aVFFIV
p11159
aVBA
p11160
aVSTZ
p11161
aVPX
p11162
aVPVH
p11163
aVUTX
p11164
aVCVX
p11165
aVPCLN
p11166
aVPH
p11167
aVSNA
p11168
aVXEC
p11169
aVFISV
p11170
aVINTU
p11171
aVUNP
p11172
aVWHR
p11173
aVILMN
p11174
aVROP
p11175
aVMHK
p11176
aVLLL
p11177
aVAMP
p11178
aVAYI
p11179
aVHUM
p11180
aVSHW
p11181
aVAMZN
p11182
asS'12152015'
p11183
(lp11184
VEW
p11185
aVAMZN
p11186
aVGOOG
p11187
aVWHR
p11188
aVREGN
p11189
aVNFLX
p11190
aVLLL
p11191
aVDIS
p11192
aVSNA
p11193
aVGILD
p11194
aVTMO
p11195
aVWAT
p11196
aVNOC
p11197
aVACN
p11198
aVUHS
p11199
aVAMGN
p11200
aVGWW
p11201
aVBIIB
p11202
aVABC
p11203
aVPRGO
p11204
aVEXPE
p11205
aVSRCL
p11206
aVAVGO
p11207
aVAET
p11208
asS'06262015'
p11209
(lp11210
VHUM
p11211
aVAVGO
p11212
aVCXO
p11213
aVMON
p11214
aVMNK
p11215
aVSTZ
p11216
aVAYI
p11217
aVFFIV
p11218
aVPXD
p11219
aVSWKS
p11220
aVHON
p11221
aVSWK
p11222
aVLLL
p11223
aVPVH
p11224
aVRL
p11225
aVLH
p11226
aVMTB
p11227
aVPRGO
p11228
aVBCR
p11229
aVTMO
p11230
aVNKE
p11231
aVCELG
p11232
aVAET
p11233
aVMNST
p11234
asS'02052016'
p11235
(lp11236
VAMZN
p11237
aVILMN
p11238
aVREGN
p11239
aVTMO
p11240
aVGOOG
p11241
aVWAT
p11242
aVAET
p11243
aVAYI
p11244
aVACN
p11245
aVUNH
p11246
aVAMG
p11247
aVPCLN
p11248
aVPXD
p11249
asS'02222016'
p11250
(lp11251
VCLX
p11252
aVFB
p11253
aVICE
p11254
aVUHS
p11255
aVHON
p11256
aVSHW
p11257
aVTMO
p11258
aVAET
p11259
aVBDX
p11260
aVPXD
p11261
aVGOOG
p11262
aVPSA
p11263
aVROP
p11264
aVILMN
p11265
aVAMG
p11266
aVAYI
p11267
aVREGN
p11268
aVAZO
p11269
aVAMZN
p11270
aVPCLN
p11271
asS'04252016'
p11272
(lp11273
VGOOGL
p11274
aVGOOG
p11275
aVILMN
p11276
aVPRGO
p11277
aVSPG
p11278
aVEQIX
p11279
aVAAPL
p11280
aVWHR
p11281
aVULTA
p11282
aVNOC
p11283
aVMHK
p11284
aVPEP
p11285
aVAYI
p11286
aVFB
p11287
aVLMT
p11288
aVEFX
p11289
aVCVS
p11290
aVPH
p11291
aVUHS
p11292
aVXEC
p11293
aVBDX
p11294
aVSWK
p11295
aVWAT
p11296
aVHUM
p11297
aVPX
p11298
aVPXD
p11299
aVGILD
p11300
aVCELG
p11301
aVICE
p11302
aVAMZN
p11303
aVPCLN
p11304
aVBLK
p11305
asS'03022015'
p11306
(lp11307
VAMZN
p11308
aVCXO
p11309
aVHAR
p11310
aVBA
p11311
aVXEC
p11312
aVPXD
p11313
aVMON
p11314
aVHSY
p11315
aVAMP
p11316
aVBIIB
p11317
aVROK
p11318
aVHON
p11319
aVDNB
p11320
aVROP
p11321
aVMNK
p11322
aVCELG
p11323
aVZBH
p11324
aVEW
p11325
aVGILD
p11326
aVUNH
p11327
aVHD
p11328
aVSIG
p11329
aVPVH
p11330
aVGS
p11331
aVGWW
p11332
aVHUM
p11333
aVFFIV
p11334
aVREGN
p11335
aVUHS
p11336
aVPRGO
p11337
aVMNST
p11338
aVPCLN
p11339
asS'03022016'
p11340
(lp11341
VHON
p11342
aVAPD
p11343
aVLLL
p11344
aVTRV
p11345
aVLMT
p11346
aVACN
p11347
aVAET
p11348
aVEFX
p11349
aVBDX
p11350
aVTMO
p11351
aVPXD
p11352
aVBIIB
p11353
aVAMG
p11354
aVGOOG
p11355
aVPCLN
p11356
asS'10312016'
p11357
(lp11358
VAMZN
p11359
aVSHW
p11360
aVAYI
p11361
aVCXO
p11362
aVXEC
p11363
aVBIIB
p11364
aVGOOG
p11365
aVPVH
p11366
aVILMN
p11367
aVBDX
p11368
aVADBE
p11369
aVROP
p11370
aVCME
p11371
aVSTZ
p11372
aVPCLN
p11373
aVPH
p11374
aVCLX
p11375
aVFB
p11376
aVINTU
p11377
aVSNA
p11378
aVGS
p11379
asS'10062016'
p11380
(lp11381
VAYI
p11382
aVAPD
p11383
aVBLK
p11384
aVEQIX
p11385
aVPSA
p11386
aVCME
p11387
aVBIIB
p11388
aVALXN
p11389
aVAMT
p11390
aVBDX
p11391
aVSHW
p11392
aVGS
p11393
aVSYK
p11394
aVUTX
p11395
aVADBE
p11396
aVAMP
p11397
aVPVH
p11398
aVPH
p11399
aVPX
p11400
aVILMN
p11401
aVTMO
p11402
aVSTZ
p11403
aVNFLX
p11404
aVXEC
p11405
aVCXO
p11406
aVPCLN
p11407
aVAMZN
p11408
asS'04022015'
p11409
(lp11410
VBIIB
p11411
aVCMG
p11412
aVAVGO
p11413
aVMNK
p11414
aVAMGN
p11415
aVPRGO
p11416
aVBA
p11417
aVUHS
p11418
aVHAR
p11419
aVHUM
p11420
aVULTA
p11421
aVAMP
p11422
aVDIS
p11423
aVAET
p11424
aVUNH
p11425
aVTMO
p11426
aVGWW
p11427
aVDNB
p11428
aVMTB
p11429
aVNKE
p11430
aVGS
p11431
aVWAT
p11432
aVHON
p11433
aVAYI
p11434
aVFFIV
p11435
aVMJN
p11436
aVTDG
p11437
aVMON
p11438
aVXEC
p11439
aVPXD
p11440
aVRL
p11441
aVPVH
p11442
aVSIG
p11443
asS'03192015'
p11444
(lp11445
VPCLN
p11446
aVHAR
p11447
aVMNST
p11448
aVBA
p11449
aVXEC
p11450
aVMON
p11451
aVDNB
p11452
aVCMI
p11453
aVROP
p11454
aVFFIV
p11455
aVAVGO
p11456
aVLLL
p11457
aVHON
p11458
aVPXD
p11459
aVHSY
p11460
aVPH
p11461
aVGS
p11462
aVBIIB
p11463
aVAYI
p11464
aVUHS
p11465
aVGWW
p11466
aVCELG
p11467
aVUNH
p11468
aVTMO
p11469
aVAET
p11470
aVMCO
p11471
aVSIG
p11472
aVMNK
p11473
aVRL
p11474
aVHUM
p11475
aVPRGO
p11476
aVCMG
p11477
asS'11242015'
p11478
(lp11479
VPCLN
p11480
aVEXPE
p11481
aVREGN
p11482
aVGOOGL
p11483
aVORLY
p11484
aVPRGO
p11485
aVFB
p11486
aVHAR
p11487
aVGILD
p11488
aVWAT
p11489
aVCXO
p11490
aVLLL
p11491
aVDIS
p11492
aVAET
p11493
aVNOC
p11494
aVACN
p11495
aVTSO
p11496
aVEW
p11497
aVVMC
p11498
aVAVGO
p11499
aVSRCL
p11500
aVWHR
p11501
asS'04122016'
p11502
(lp11503
VPCLN
p11504
aVGOOG
p11505
aVEQIX
p11506
aVGOOGL
p11507
aVESS
p11508
aVCMI
p11509
aVWHR
p11510
aVTRV
p11511
aVCVS
p11512
aVAPD
p11513
aVFISV
p11514
aVSPG
p11515
aVEFX
p11516
aVUHS
p11517
aVMKC
p11518
aVTMO
p11519
aVAAPL
p11520
aVMHK
p11521
aVPXD
p11522
aVICE
p11523
aVCXO
p11524
aVCLX
p11525
aVPEP
p11526
aVLMT
p11527
aVRTN
p11528
aVSHW
p11529
aVXEC
p11530
aVCELG
p11531
aVILMN
p11532
asS'06292016'
p11533
(lp11534
VPCLN
p11535
aVULTA
p11536
aVICE
p11537
aVPXD
p11538
aVMCK
p11539
aVEQIX
p11540
aVISRG
p11541
aVHON
p11542
aVXEC
p11543
aVILMN
p11544
aVNOC
p11545
aVFISV
p11546
aVROP
p11547
aVPEP
p11548
aVDLR
p11549
aVSTZ
p11550
aVESS
p11551
aVORLY
p11552
aVPSA
p11553
asS'10142015'
p11554
(lp11555
VAVGO
p11556
aVORLY
p11557
aVTDG
p11558
aVPVH
p11559
aVHUM
p11560
aVFFIV
p11561
aVSTZ
p11562
aVANTM
p11563
aVUNH
p11564
aVBA
p11565
aVLLL
p11566
aVCMG
p11567
aVGPN
p11568
aVSHW
p11569
aVNFLX
p11570
aVPCLN
p11571
asS'10142016'
p11572
(lp11573
VPCLN
p11574
aVILMN
p11575
aVBIIB
p11576
aVAMZN
p11577
aVIFF
p11578
aVAPD
p11579
aVBDX
p11580
aVBLK
p11581
aVAYI
p11582
aVEW
p11583
aVSYK
p11584
aVAMP
p11585
aVSNA
p11586
aVSHW
p11587
aVADBE
p11588
aVFB
p11589
aVINTU
p11590
aVPH
p11591
aVGOOG
p11592
aVSLG
p11593
aVPVH
p11594
aVPSA
p11595
aVFISV
p11596
aVNEE
p11597
aVSTZ
p11598
aVXEC
p11599
aVEQIX
p11600
asS'03312016'
p11601
(lp11602
VPCLN
p11603
aVCXO
p11604
aVAZO
p11605
aVPXD
p11606
aVWHR
p11607
aVHON
p11608
aVTMO
p11609
aVRTN
p11610
aVMHK
p11611
aVAMG
p11612
aVPEP
p11613
aVBDX
p11614
aVCVS
p11615
aVFISV
p11616
aVINTU
p11617
aVLMT
p11618
aVSPG
p11619
aVEFX
p11620
aVICE
p11621
aVREGN
p11622
aVULTA
p11623
aVESS
p11624
aVACN
p11625
aVALXN
p11626
aVILMN
p11627
aVEQIX
p11628
aVGOOGL
p11629
aVGOOG
p11630
aVAMZN
p11631
asS'03312015'
p11632
(lp11633
VPCLN
p11634
aVBIIB
p11635
aVCMG
p11636
aVAVGO
p11637
aVBA
p11638
aVMNK
p11639
aVHAR
p11640
aVPRGO
p11641
aVAMP
p11642
aVDIS
p11643
aVEW
p11644
aVGS
p11645
aVMON
p11646
aVANTM
p11647
aVULTA
p11648
aVAET
p11649
aVUHS
p11650
aVUNH
p11651
aVHUM
p11652
aVTMO
p11653
aVORLY
p11654
aVTDG
p11655
aVHON
p11656
aVFFIV
p11657
aVGWW
p11658
aVAYI
p11659
aVPXD
p11660
aVXEC
p11661
aVRL
p11662
aVAZO
p11663
aVPVH
p11664
aVSIG
p11665
asS'11172016'
p11666
(lp11667
VAMZN
p11668
aVEQIX
p11669
aVNEE
p11670
aVSTZ
p11671
aVFB
p11672
aVTDG
p11673
aVIFF
p11674
aVADBE
p11675
aVBDX
p11676
aVPSA
p11677
aVPX
p11678
aVBA
p11679
aVAGN
p11680
aVXEC
p11681
aVCVX
p11682
aVPVH
p11683
aVINTU
p11684
aVFISV
p11685
aVPCLN
p11686
aVILMN
p11687
aVSNA
p11688
aVSLG
p11689
aVPNC
p11690
aVROP
p11691
aVPH
p11692
aVSHW
p11693
aVMLM
p11694
aVAMP
p11695
aVAYI
p11696
asS'11172015'
p11697
(lp11698
VPCLN
p11699
aVAZO
p11700
aVEXPE
p11701
aVREGN
p11702
aVORLY
p11703
aVHUM
p11704
aVGILD
p11705
aVPRGO
p11706
aVEW
p11707
aVEQIX
p11708
aVNOC
p11709
aVAET
p11710
aVFB
p11711
aVLLL
p11712
aVUNH
p11713
aVAVGO
p11714
aVWAT
p11715
aVWHR
p11716
aVTSO
p11717
aVSRCL
p11718
aVNFLX
p11719
aVMLM
p11720
asS'05032016'
p11721
(lp11722
VGOOGL
p11723
aVGOOG
p11724
aVISRG
p11725
aVAYI
p11726
aVILMN
p11727
aVWHR
p11728
aVMCK
p11729
aVEW
p11730
aVXEC
p11731
aVPX
p11732
aVULTA
p11733
aVSIG
p11734
aVHD
p11735
aVHON
p11736
aVSWK
p11737
aVBDX
p11738
aVPEP
p11739
aVCMI
p11740
aVICE
p11741
aVEQIX
p11742
aVPCLN
p11743
aVLMT
p11744
aVPXD
p11745
aVHUM
p11746
asS'07252016'
p11747
(lp11748
VEQIX
p11749
aVSHW
p11750
aVDLR
p11751
aVAMZN
p11752
aVSJM
p11753
aVNOC
p11754
aVLLL
p11755
aVORLY
p11756
aVINTU
p11757
aVHON
p11758
aVPSA
p11759
aVPXD
p11760
aVFISV
p11761
aVROP
p11762
aVPEP
p11763
aVMCK
p11764
aVULTA
p11765
aVAMT
p11766
aVSTZ
p11767
aVCME
p11768
aVPPG
p11769
aVTDG
p11770
aVSRCL
p11771
aVAYI
p11772
aVEW
p11773
aVPH
p11774
aVGD
p11775
aVFB
p11776
aVPCLN
p11777
aVILMN
p11778
aVAGN
p11779
aVCTAS
p11780
aVMHK
p11781
aVBIIB
p11782
asS'09212015'
p11783
(lp11784
VAZO
p11785
aVSRCL
p11786
aVFFIV
p11787
aVPRGO
p11788
aVMLM
p11789
aVCMG
p11790
aVWHR
p11791
aVTDG
p11792
aVAET
p11793
aVGPN
p11794
aVNOC
p11795
aVLLL
p11796
aVHUM
p11797
aVORLY
p11798
aVHAR
p11799
aVANTM
p11800
aVUNH
p11801
aVPCLN
p11802
aVNFLX
p11803
asS'08112016'
p11804
(lp11805
VEQIX
p11806
aVPSA
p11807
aVISRG
p11808
aVFISV
p11809
aVSHW
p11810
aVAGN
p11811
aVMCK
p11812
aVCTAS
p11813
aVBLK
p11814
aVMKC
p11815
aVAPD
p11816
aVBDX
p11817
aVSTZ
p11818
aVCME
p11819
aVINTU
p11820
aVEW
p11821
aVORLY
p11822
aVSNA
p11823
aVHON
p11824
aVAON
p11825
aVCELG
p11826
aVILMN
p11827
aVCHD
p11828
aVVRTX
p11829
aVWYNN
p11830
aVALXN
p11831
aVBIIB
p11832
aVAYI
p11833
aVAMZN
p11834
aVPH
p11835
asS'03052015'
p11836
(lp11837
VAMZN
p11838
aVHAR
p11839
aVWHR
p11840
aVCXO
p11841
aVDNB
p11842
aVAAPL
p11843
aVXEC
p11844
aVLLL
p11845
aVHSY
p11846
aVBA
p11847
aVAMP
p11848
aVROP
p11849
aVZBH
p11850
aVHON
p11851
aVCELG
p11852
aVMNK
p11853
aVHD
p11854
aVBIIB
p11855
aVHUM
p11856
aVEW
p11857
aVCMG
p11858
aVPXD
p11859
aVSIG
p11860
aVGWW
p11861
aVFFIV
p11862
aVROST
p11863
aVUHS
p11864
aVPRGO
p11865
aVMNST
p11866
aVPCLN
p11867
asS'06062016'
p11868
(lp11869
VESS
p11870
aVAMZN
p11871
aVPXD
p11872
aVICE
p11873
aVVMC
p11874
aVXEC
p11875
aVNOC
p11876
aVROP
p11877
aVAYI
p11878
aVCXO
p11879
aVSWK
p11880
aVSHW
p11881
aVEW
p11882
aVBDX
p11883
aVADBE
p11884
aVAZO
p11885
aVPEP
p11886
aVBLK
p11887
aVUTX
p11888
aVFISV
p11889
aVMHK
p11890
aVTRV
p11891
aVITW
p11892
aVSPG
p11893
aVORLY
p11894
aVCMI
p11895
aVINTU
p11896
aVMCK
p11897
aVAMG
p11898
aVWHR
p11899
aVILMN
p11900
aVBIIB
p11901
aVULTA
p11902
aVPCLN
p11903
asS'08042015'
p11904
(lp11905
VMNK
p11906
aVLLL
p11907
aVGS
p11908
aVAVGO
p11909
aVMTB
p11910
aVUNH
p11911
aVCVS
p11912
aVANTM
p11913
aVMON
p11914
aVHUM
p11915
aVHON
p11916
aVACN
p11917
aVEFX
p11918
aVSTZ
p11919
aVPXD
p11920
aVNOC
p11921
aVPRGO
p11922
aVLH
p11923
aVHAR
p11924
aVCXO
p11925
aVBF-B
p11926
aVMNST
p11927
aVSRCL
p11928
aVVRTX
p11929
aVFFIV
p11930
aVEXPE
p11931
aVCMG
p11932
asS'08042016'
p11933
(lp11934
VPSA
p11935
aVEQIX
p11936
aVEFX
p11937
aVMCK
p11938
aVINTU
p11939
aVFISV
p11940
aVISRG
p11941
aVDLR
p11942
aVAYI
p11943
aVSTZ
p11944
aVBDX
p11945
aVAMT
p11946
aVHSY
p11947
aVNOC
p11948
aVPX
p11949
aVHON
p11950
aVPEP
p11951
aVSHW
p11952
aVTDG
p11953
aVAPD
p11954
aVCTAS
p11955
aVCME
p11956
aVSPGI
p11957
aVTAP
p11958
aVAGN
p11959
aVBLK
p11960
aVAAPL
p11961
aVAMZN
p11962
aVCELG
p11963
aVILMN
p11964
aVBIIB
p11965
asS'01272017'
p11966
(lp11967
VTDG
p11968
aVWHR
p11969
aVALXN
p11970
aVAGN
p11971
aVBIIB
p11972
aVPSA
p11973
aVADP
p11974
aVBLK
p11975
aVEOG
p11976
aVCVX
p11977
aVFISV
p11978
aVSYK
p11979
aVAPD
p11980
aVSRE
p11981
aVAMP
p11982
aVILMN
p11983
aVBXP
p11984
aVDLR
p11985
aVNVDA
p11986
aVSTZ
p11987
aVAYI
p11988
aVGD
p11989
aVULTA
p11990
aVLLL
p11991
aVCMI
p11992
aVCXO
p11993
aVSHW
p11994
aVGOOG
p11995
aVAMZN
p11996
aVISRG
p11997
asS'01272016'
p11998
(lp11999
VPCLN
p12000
aVAYI
p12001
aVREGN
p12002
aVNOC
p12003
aVILMN
p12004
aVAVGO
p12005
aVAET
p12006
aVWAT
p12007
aVGWW
p12008
aVAMZN
p12009
aVLLL
p12010
aVUHS
p12011
aVMCD
p12012
aVACN
p12013
aVAMG
p12014
aVWHR
p12015
asS'09182015'
p12016
(lp12017
VSRCL
p12018
aVFFIV
p12019
aVAZO
p12020
aVCMG
p12021
aVAET
p12022
aVPRGO
p12023
aVGPN
p12024
aVTDG
p12025
aVCXO
p12026
aVWHR
p12027
aVLH
p12028
aVLLL
p12029
aVNOC
p12030
aVHUM
p12031
aVHAR
p12032
aVUNH
p12033
aVORLY
p12034
aVANTM
p12035
aVEQIX
p12036
aVPCLN
p12037
aVNFLX
p12038
asS'01222016'
p12039
(lp12040
VPCLN
p12041
aVAMZN
p12042
aVGOOG
p12043
aVEQIX
p12044
aVREGN
p12045
aVAVGO
p12046
aVGWW
p12047
aVFDX
p12048
aVNOC
p12049
aVLLL
p12050
aVIFF
p12051
aVAMG
p12052
aVWAT
p12053
aVAET
p12054
aVWHR
p12055
aVMCD
p12056
asS'04152016'
p12057
(lp12058
VESS
p12059
aVEQIX
p12060
aVPSA
p12061
aVFB
p12062
aVWHR
p12063
aVSPG
p12064
aVFISV
p12065
aVAPD
p12066
aVEFX
p12067
aVAAPL
p12068
aVNOC
p12069
aVUHS
p12070
aVPH
p12071
aVPEP
p12072
aVHON
p12073
aVLMT
p12074
aVPXD
p12075
aVTMO
p12076
aVCXO
p12077
aVULTA
p12078
aVGOOG
p12079
aVBDX
p12080
aVPCLN
p12081
aVILMN
p12082
asS'04152015'
p12083
(lp12084
VBIIB
p12085
aVHUM
p12086
aVMNK
p12087
aVAVGO
p12088
aVAZO
p12089
aVSIG
p12090
aVAET
p12091
aVEW
p12092
aVSPGI
p12093
aVTMO
p12094
aVUNH
p12095
aVAMP
p12096
aVRTN
p12097
aVLLL
p12098
aVWAT
p12099
aVMCO
p12100
aVDIS
p12101
aVHON
p12102
aVSTZ
p12103
aVMJN
p12104
aVBA
p12105
aVHAR
p12106
aVAMGN
p12107
aVSHW
p12108
aVPVH
p12109
aVMON
p12110
aVGWW
p12111
aVRL
p12112
aVCXO
p12113
aVGS
p12114
aVPXD
p12115
aVCMG
p12116
aVPRGO
p12117
asS'04272015'
p12118
(lp12119
VAZO
p12120
aVPRGO
p12121
aVMNK
p12122
aVPXD
p12123
aVPVH
p12124
aVBA
p12125
aVSTZ
p12126
aVWAT
p12127
aVSIG
p12128
aVHUM
p12129
aVAET
p12130
aVHON
p12131
aVLLL
p12132
aVCVS
p12133
aVROST
p12134
aVMCO
p12135
aVUHS
p12136
aVAMP
p12137
aVCXO
p12138
aVRL
p12139
aVWDC
p12140
aVHAR
p12141
aVORLY
p12142
aVFFIV
p12143
aVGWW
p12144
aVREGN
p12145
aVPCLN
p12146
asS'04272016'
p12147
(lp12148
VGOOGL
p12149
aVGOOG
p12150
aVILMN
p12151
aVAMZN
p12152
aVWHR
p12153
aVAAPL
p12154
aVAVGO
p12155
aVAYI
p12156
aVSPG
p12157
aVFB
p12158
aVSRE
p12159
aVPEP
p12160
aVHD
p12161
aVHON
p12162
aVULTA
p12163
aVEQIX
p12164
aVCELG
p12165
aVBDX
p12166
aVPX
p12167
aVPH
p12168
aVGILD
p12169
aVSWK
p12170
aVXEC
p12171
aVAET
p12172
aVLMT
p12173
aVICE
p12174
aVMCK
p12175
aVPCLN
p12176
aVPXD
p12177
asS'05122015'
p12178
(lp12179
VPCLN
p12180
aVPXD
p12181
aVAZO
p12182
aVCXO
p12183
aVMNST
p12184
aVHAR
p12185
aVPRGO
p12186
aVHUM
p12187
aVEW
p12188
aVRL
p12189
aVLLL
p12190
aVBA
p12191
aVAMP
p12192
aVAET
p12193
aVGWW
p12194
aVCMG
p12195
aVMON
p12196
aVFFIV
p12197
aVEXPE
p12198
aVROK
p12199
aVMNK
p12200
asS'05122016'
p12201
(lp12202
VPCLN
p12203
aVWHR
p12204
aVMCK
p12205
aVEW
p12206
aVHUM
p12207
aVPX
p12208
aVAPD
p12209
aVCMI
p12210
aVSIG
p12211
aVSPGI
p12212
aVCXO
p12213
aVPXD
p12214
aVMHK
p12215
aVHD
p12216
aVHON
p12217
aVSWK
p12218
aVXEC
p12219
aVPEP
p12220
aVBDX
p12221
aVILMN
p12222
aVNEE
p12223
aVSJM
p12224
aVESS
p12225
aVFISV
p12226
aVNOC
p12227
aVGOOG
p12228
aVICE
p12229
aVAMZN
p12230
asS'02192015'
p12231
(lp12232
VCMG
p12233
aVCELG
p12234
aVUNH
p12235
aVGWW
p12236
aVSIG
p12237
aVUNP
p12238
aVANTM
p12239
aVCMI
p12240
aVHD
p12241
aVPRGO
p12242
aVHUM
p12243
aVUHS
p12244
aVHON
p12245
aVEW
p12246
aVPXD
p12247
aVAVGO
p12248
aVHAR
p12249
aVPVH
p12250
aVZBH
p12251
aVAMP
p12252
aVDIS
p12253
aVMON
p12254
aVROK
p12255
aVMNK
p12256
aVROP
p12257
aVXEC
p12258
aVREGN
p12259
aVWDC
p12260
aVAMZN
p12261
aVSPGI
p12262
aVFFIV
p12263
aVDNB
p12264
aVICE
p12265
aVPCLN
p12266
asS'05272015'
p12267
(lp12268
VGWW
p12269
aVMNST
p12270
aVPRGO
p12271
aVPXD
p12272
aVNFLX
p12273
aVFFIV
p12274
aVHAR
p12275
aVSPGI
p12276
aVGPN
p12277
aVSNA
p12278
aVDIS
p12279
aVEFX
p12280
aVORLY
p12281
aVBLK
p12282
aVBA
p12283
aVCXO
p12284
aVMON
p12285
aVAYI
p12286
aVROK
p12287
aVUTX
p12288
aVHON
p12289
aVAMP
p12290
aVUNH
p12291
aVTDG
p12292
aVAET
p12293
aVLLL
p12294
aVCELG
p12295
aVLH
p12296
aVEXPE
p12297
aVMNK
p12298
aVHUM
p12299
aVSWKS
p12300
asS'05272016'
p12301
(lp12302
VROP
p12303
aVNOC
p12304
aVSIG
p12305
aVSHW
p12306
aVBDX
p12307
aVPEP
p12308
aVFB
p12309
aVCMI
p12310
aVESS
p12311
aVXEC
p12312
aVHD
p12313
aVFISV
p12314
aVACN
p12315
aVAET
p12316
aVTRV
p12317
aVICE
p12318
aVWHR
p12319
aVINTU
p12320
aVMCK
p12321
aVTDG
p12322
aVORLY
p12323
aVBLK
p12324
aVPCLN
p12325
aVILMN
p12326
aVULTA
p12327
aVGOOG
p12328
asS'08242016'
p12329
(lp12330
VBIIB
p12331
aVISRG
p12332
aVESS
p12333
aVSHW
p12334
aVORLY
p12335
aVPCLN
p12336
aVCELG
p12337
aVBLK
p12338
aVLLL
p12339
aVILMN
p12340
aVEFX
p12341
aVDLR
p12342
aVEW
p12343
aVINTU
p12344
aVEQIX
p12345
aVFISV
p12346
aVPSA
p12347
aVPH
p12348
aVGS
p12349
aVCME
p12350
aVSTZ
p12351
aVAYI
p12352
aVPM
p12353
aVCTAS
p12354
aVXEC
p12355
aVPVH
p12356
asS'08242015'
p12357
(lp12358
VAMZN
p12359
aVCMG
p12360
aVEQIX
p12361
aVAYI
p12362
aVGS
p12363
aVVRTX
p12364
aVMLM
p12365
aVORLY
p12366
aVMNST
p12367
aVBA
p12368
aVTSO
p12369
aVTMO
p12370
aVEXPE
p12371
aVNOC
p12372
aVAVGO
p12373
aVPRGO
p12374
aVCXO
p12375
aVLH
p12376
aVLLL
p12377
aVRTN
p12378
aVGPN
p12379
aVUPS
p12380
aVANTM
p12381
aVMON
p12382
aVSRCL
p12383
aVHUM
p12384
aVAET
p12385
aVCI
p12386
aVNFLX
p12387
asS'11302016'
p12388
(lp12389
VPCLN
p12390
aVBIIB
p12391
aVMLM
p12392
aVVMC
p12393
aVEXPE
p12394
aVSNA
p12395
aVPVH
p12396
aVPNC
p12397
aVADBE
p12398
aVPH
p12399
aVBA
p12400
aVCVX
p12401
aVTDG
p12402
aVBDX
p12403
aVSTZ
p12404
aVROP
p12405
aVCMI
p12406
aVAMP
p12407
aVINTU
p12408
aVMHK
p12409
aVFISV
p12410
aVWHR
p12411
aVUNP
p12412
aVIFF
p12413
aVLRCX
p12414
aVPX
p12415
aVAYI
p12416
aVAGN
p12417
aVBXP
p12418
aVAPD
p12419
aVXEC
p12420
aVILMN
p12421
aVLLL
p12422
aVEQIX
p12423
aVHUM
p12424
aVWYNN
p12425
aVAMZN
p12426
aVSHW
p12427
asS'01062017'
p12428
(lp12429
VBLK
p12430
aVNVDA
p12431
aVFDX
p12432
aVAPD
p12433
aVPH
p12434
aVSNA
p12435
aVCVX
p12436
aVLLL
p12437
aVCXO
p12438
aVORLY
p12439
aVPNC
p12440
aVINTU
p12441
aVCMI
p12442
aVBA
p12443
aVADP
p12444
aVEOG
p12445
aVLRCX
p12446
aVAMP
p12447
aVSTZ
p12448
aVFISV
p12449
aVAMT
p12450
aVWHR
p12451
aVULTA
p12452
aVADBE
p12453
aVNFLX
p12454
aVSPGI
p12455
aVPSA
p12456
aVISRG
p12457
aVBIIB
p12458
aVEQIX
p12459
aVILMN
p12460
aVAMZN
p12461
aVAGN
p12462
asS'11302015'
p12463
(lp12464
VPCLN
p12465
aVREGN
p12466
aVORLY
p12467
aVEXPE
p12468
aVFB
p12469
aVDIS
p12470
aVLLL
p12471
aVPRGO
p12472
aVNOC
p12473
aVTSO
p12474
aVWAT
p12475
aVGILD
p12476
aVACN
p12477
aVAET
p12478
aVUNH
p12479
aVAMGN
p12480
aVIFF
p12481
aVSRCL
p12482
aVEW
p12483
aVWHR
p12484
aVAVGO
p12485
asS'09042015'
p12486
(lp12487
VCMG
p12488
aVAMZN
p12489
aVORLY
p12490
aVPRGO
p12491
aVMNST
p12492
aVTDG
p12493
aVFFIV
p12494
aVNOC
p12495
aVTMO
p12496
aVVRTX
p12497
aVRTN
p12498
aVGS
p12499
aVGPN
p12500
aVLH
p12501
aVUNH
p12502
aVSRCL
p12503
aVAET
p12504
aVEQIX
p12505
aVLLL
p12506
aVHUM
p12507
aVANTM
p12508
aVNFLX
p12509
asS'10072016'
p12510
(lp12511
VAYI
p12512
aVAPD
p12513
aVBLK
p12514
aVEQIX
p12515
aVBIIB
p12516
aVPSA
p12517
aVSLG
p12518
aVGOOG
p12519
aVCME
p12520
aVADS
p12521
aVCI
p12522
aVSHW
p12523
aVAMT
p12524
aVBDX
p12525
aVALXN
p12526
aVADBE
p12527
aVAMP
p12528
aVPH
p12529
aVTMO
p12530
aVILMN
p12531
aVGS
p12532
aVPVH
p12533
aVSTZ
p12534
aVBA
p12535
aVNFLX
p12536
aVPCLN
p12537
aVXEC
p12538
aVAMZN
p12539
asS'10262016'
p12540
(lp12541
VAMZN
p12542
aVWAT
p12543
aVEW
p12544
aVILMN
p12545
aVSHW
p12546
aVPVH
p12547
aVXEC
p12548
aVROP
p12549
aVAYI
p12550
aVBIIB
p12551
aVBDX
p12552
aVPCLN
p12553
aVPH
p12554
aVFDX
p12555
aVSTZ
p12556
aVADBE
p12557
aVCVX
p12558
aVCLX
p12559
aVCME
p12560
aVULTA
p12561
aVPX
p12562
aVFISV
p12563
aVHUM
p12564
aVFB
p12565
aVSNA
p12566
aVNFLX
p12567
asS'10262015'
p12568
(lp12569
VSRCL
p12570
aVAET
p12571
aVMLM
p12572
aVTSO
p12573
aVEXPE
p12574
aVGPN
p12575
aVHAR
p12576
aVVNO
p12577
aVACN
p12578
aVNOC
p12579
aVSHW
p12580
aVPCLN
p12581
asS'07052016'
p12582
(lp12583
VPCLN
p12584
aVPXD
p12585
aVULTA
p12586
aVAPD
p12587
aVPPG
p12588
aVAYI
p12589
aVEQIX
p12590
aVHON
p12591
aVFB
p12592
aVILMN
p12593
aVCHD
p12594
aVPEP
p12595
aVFISV
p12596
aVSRCL
p12597
aVDLR
p12598
aVMCK
p12599
aVNOC
p12600
aVINTU
p12601
aVMKC
p12602
aVAAP
p12603
aVSTZ
p12604
aVORLY
p12605
aVPSA
p12606
asS'03122015'
p12607
(lp12608
VPCLN
p12609
aVWHR
p12610
aVBIIB
p12611
aVHAR
p12612
aVDNB
p12613
aVILMN
p12614
aVBA
p12615
aVPXD
p12616
aVLLL
p12617
aVROP
p12618
aVAMP
p12619
aVGWW
p12620
aVFFIV
p12621
aVAYI
p12622
aVCELG
p12623
aVHON
p12624
aVHD
p12625
aVDIS
p12626
aVHUM
p12627
aVAZO
p12628
aVUNH
p12629
aVAET
p12630
aVMNK
p12631
aVUHS
p12632
aVCMG
p12633
aVSIG
p12634
aVRL
p12635
aVPRGO
p12636
asS'03132015'
p12637
(lp12638
VPCLN
p12639
aVHAR
p12640
aVDNB
p12641
aVBA
p12642
aVXEC
p12643
aVPXD
p12644
aVLLL
p12645
aVROP
p12646
aVGWW
p12647
aVFFIV
p12648
aVAYI
p12649
aVCELG
p12650
aVHON
p12651
aVAMP
p12652
aVHD
p12653
aVDIS
p12654
aVANTM
p12655
aVUNH
p12656
aVHUM
p12657
aVEW
p12658
aVMNK
p12659
aVAET
p12660
aVUHS
p12661
aVSIG
p12662
aVRL
p12663
aVCMG
p12664
aVPRGO
p12665
asS'01182017'
p12666
(lp12667
VGS
p12668
aVAYI
p12669
aVBLK
p12670
aVNVDA
p12671
aVPNC
p12672
aVLLL
p12673
aVMLM
p12674
aVFDX
p12675
aVAMG
p12676
aVCVX
p12677
aVBIIB
p12678
aVBA
p12679
aVAMP
p12680
aVAPD
p12681
aVSLG
p12682
aVCXO
p12683
aVAMT
p12684
aVCMI
p12685
aVNEE
p12686
aVSYK
p12687
aVSTZ
p12688
aVULTA
p12689
aVTDG
p12690
aVAGN
p12691
aVSPGI
p12692
aVGOOG
p12693
aVEQIX
p12694
aVSHW
p12695
aVILMN
p12696
aVISRG
p12697
aVAMZN
p12698
asS'11222016'
p12699
(lp12700
VTDG
p12701
aVNEE
p12702
aVAGN
p12703
aVADBE
p12704
aVPX
p12705
aVBA
p12706
aVSTZ
p12707
aVFFIV
p12708
aVPVH
p12709
aVUTX
p12710
aVCVX
p12711
aVMLM
p12712
aVXEC
p12713
aVPH
p12714
aVFISV
p12715
aVSNA
p12716
aVINTU
p12717
aVWHR
p12718
aVILMN
p12719
aVROP
p12720
aVCTAS
p12721
aVPCLN
p12722
aVLLL
p12723
aVMHK
p12724
aVAMP
p12725
aVHUM
p12726
aVSHW
p12727
aVAYI
p12728
aVAMZN
p12729
asS'11052015'
p12730
(lp12731
VSRCL
p12732
aVANTM
p12733
aVACN
p12734
aVAET
p12735
aVHAR
p12736
aVHUM
p12737
aVFB
p12738
aVGWW
p12739
aVEW
p12740
aVLLL
p12741
aVEXPE
p12742
aVWAT
p12743
aVTSO
p12744
aVNFLX
p12745
aVREGN
p12746
aVPCLN
p12747
asS'01252017'
p12748
(lp12749
VTDG
p12750
aVBIIB
p12751
aVALXN
p12752
aVAGN
p12753
aVNVDA
p12754
aVADP
p12755
aVGD
p12756
aVEOG
p12757
aVFISV
p12758
aVCVX
p12759
aVSHW
p12760
aVAYI
p12761
aVCLX
p12762
aVAMT
p12763
aVAMP
p12764
aVLLL
p12765
aVLH
p12766
aVBXP
p12767
aVAPD
p12768
aVDLR
p12769
aVPH
p12770
aVPX
p12771
aVCI
p12772
aVILMN
p12773
aVCXO
p12774
aVCMI
p12775
aVSPGI
p12776
aVISRG
p12777
aVAMZN
p12778
asS'10022015'
p12779
(lp12780
VPCLN
p12781
aVAMZN
p12782
aVPRGO
p12783
aVEQIX
p12784
aVTDG
p12785
aVWHR
p12786
aVCMG
p12787
aVVRTX
p12788
aVAVGO
p12789
aVHUM
p12790
aVUNH
p12791
aVNOC
p12792
aVLLL
p12793
aVGPN
p12794
aVTMO
p12795
aVRTN
p12796
aVSRCL
p12797
aVORLY
p12798
aVKMB
p12799
aVFFIV
p12800
aVPSA
p12801
aVNFLX
p12802
asS'03162015'
p12803
(lp12804
VPCLN
p12805
aVHAR
p12806
aVDNB
p12807
aVXEC
p12808
aVBA
p12809
aVPXD
p12810
aVLLL
p12811
aVFFIV
p12812
aVZBH
p12813
aVAYI
p12814
aVROP
p12815
aVGWW
p12816
aVHON
p12817
aVAVGO
p12818
aVHD
p12819
aVHSY
p12820
aVCELG
p12821
aVAMP
p12822
aVDIS
p12823
aVANTM
p12824
aVUHS
p12825
aVMNK
p12826
aVAET
p12827
aVAZO
p12828
aVRL
p12829
aVHUM
p12830
aVSIG
p12831
aVEW
p12832
aVPRGO
p12833
aVCMG
p12834
asS'01112016'
p12835
(lp12836
VPCLN
p12837
aVAMZN
p12838
aVGOOG
p12839
aVREGN
p12840
aVBIIB
p12841
aVAVGO
p12842
aVAMG
p12843
aVFDX
p12844
aVSNA
p12845
aVHD
p12846
aVUNH
p12847
aVGWW
p12848
aVWAT
p12849
aVNFLX
p12850
aVLLL
p12851
aVNOC
p12852
aVIFF
p12853
aVAET
p12854
aVPRGO
p12855
asS'01112017'
p12856
(lp12857
VAYI
p12858
aVBLK
p12859
aVMLM
p12860
aVNVDA
p12861
aVLLL
p12862
aVCVX
p12863
aVFDX
p12864
aVCB
p12865
aVWHR
p12866
aVADP
p12867
aVCXO
p12868
aVAPD
p12869
aVPX
p12870
aVSTZ
p12871
aVPH
p12872
aVPNC
p12873
aVAMT
p12874
aVBA
p12875
aVEOG
p12876
aVFISV
p12877
aVLRCX
p12878
aVNEE
p12879
aVAMP
p12880
aVULTA
p12881
aVBXP
p12882
aVMA
p12883
aVDLR
p12884
aVADBE
p12885
aVSPGI
p12886
aVTDG
p12887
aVBCR
p12888
aVSHW
p12889
aVEQIX
p12890
aVAGN
p12891
aVALXN
p12892
aVILMN
p12893
aVAMZN
p12894
asS'09102015'
p12895
(lp12896
VCMG
p12897
aVMNST
p12898
aVPRGO
p12899
aVTDG
p12900
aVFFIV
p12901
aVGPN
p12902
aVNOC
p12903
aVAET
p12904
aVUNH
p12905
aVLLL
p12906
aVCXO
p12907
aVHAR
p12908
aVHUM
p12909
aVANTM
p12910
asS'07232015'
p12911
(lp12912
VUHS
p12913
aVANTM
p12914
aVROK
p12915
aVPXD
p12916
aVHAR
p12917
aVSRCL
p12918
aVCXO
p12919
aVHUM
p12920
aVGPN
p12921
aVMON
p12922
aVNOC
p12923
aVLH
p12924
aVEXPE
p12925
aVSWKS
p12926
aVCVS
p12927
aVACN
p12928
aVHON
p12929
aVORLY
p12930
aVLLL
p12931
aVVRTX
p12932
aVMNK
p12933
aVMTB
p12934
aVFFIV
p12935
aVPRGO
p12936
aVTMO
p12937
aVMNST
p12938
asS'09152016'
p12939
(lp12940
VULTA
p12941
aVBIIB
p12942
aVAYI
p12943
aVBLK
p12944
aVXEC
p12945
aVPCLN
p12946
aVEQIX
p12947
aVSLG
p12948
aVSHW
p12949
aVFFIV
p12950
aVPH
p12951
aVHUM
p12952
aVGS
p12953
aVPSA
p12954
aVBDX
p12955
aVEW
p12956
aVSTZ
p12957
aVILMN
p12958
aVWYNN
p12959
asS'01212016'
p12960
(lp12961
VPCLN
p12962
aVAMZN
p12963
aVREGN
p12964
aVGOOG
p12965
aVBIIB
p12966
aVEQIX
p12967
aVAVGO
p12968
aVAMG
p12969
aVFDX
p12970
aVGWW
p12971
aVICE
p12972
aVNOC
p12973
aVLLL
p12974
aVIFF
p12975
aVWAT
p12976
aVAET
p12977
aVWHR
p12978
aVLMT
p12979
aVACN
p12980
aVUNH
p12981
asS'09152015'
p12982
(lp12983
VAZO
p12984
aVSRCL
p12985
aVMNST
p12986
aVFFIV
p12987
aVTDG
p12988
aVCMG
p12989
aVPRGO
p12990
aVRTN
p12991
aVGPN
p12992
aVMCO
p12993
aVLLL
p12994
aVNOC
p12995
aVUNH
p12996
aVVRTX
p12997
aVHUM
p12998
aVANTM
p12999
aVEQIX
p13000
aVPCLN
p13001
asS'06182015'
p13002
(lp13003
VHUM
p13004
aVMNK
p13005
aVAVGO
p13006
aVPRGO
p13007
aVROK
p13008
aVSTZ
p13009
aVMON
p13010
aVFFIV
p13011
aVPVH
p13012
aVGPN
p13013
aVSRCL
p13014
aVSWKS
p13015
aVHON
p13016
aVLLL
p13017
aVAYI
p13018
aVLH
p13019
aVUNH
p13020
aVAMGN
p13021
aVCVS
p13022
aVORLY
p13023
aVCXO
p13024
aVBA
p13025
aVCMG
p13026
aVAET
p13027
aVHAR
p13028
aVMNST
p13029
aVEW
p13030
asS'02032016'
p13031
(lp13032
VAMZN
p13033
aVREGN
p13034
aVILMN
p13035
aVWAT
p13036
aVAET
p13037
aVAYI
p13038
aVAMG
p13039
aVACN
p13040
aVUHS
p13041
aVLLL
p13042
aVGWW
p13043
aVPCLN
p13044
aVPXD
p13045
aVGOOG
p13046
aVAZO
p13047
asS'02032017'
p13048
(lp13049
VBIIB
p13050
aVILMN
p13051
aVEOG
p13052
aVCVX
p13053
aVFISV
p13054
aVMLM
p13055
aVFDX
p13056
aVDLR
p13057
aVBXP
p13058
aVRTN
p13059
aVSTZ
p13060
aVPX
p13061
aVPNC
p13062
aVULTA
p13063
aVEXPE
p13064
aVGD
p13065
aVLRCX
p13066
aVCME
p13067
aVCXO
p13068
aVAMP
p13069
aVNVDA
p13070
aVSPGI
p13071
aVAYI
p13072
aVLLL
p13073
aVAGN
p13074
aVISRG
p13075
asS'01202016'
p13076
(lp13077
VPCLN
p13078
aVAMZN
p13079
aVREGN
p13080
aVGOOG
p13081
aVBIIB
p13082
aVAVGO
p13083
aVAMG
p13084
aVGWW
p13085
aVFDX
p13086
aVEQIX
p13087
aVLLL
p13088
aVNOC
p13089
aVWAT
p13090
aVAET
p13091
aVAMGN
p13092
aVUNH
p13093
aVPRGO
p13094
asS'01202017'
p13095
(lp13096
VAYI
p13097
aVTDG
p13098
aVNVDA
p13099
aVBIIB
p13100
aVFDX
p13101
aVWHR
p13102
aVCVX
p13103
aVADP
p13104
aVAMG
p13105
aVAGN
p13106
aVAMP
p13107
aVBA
p13108
aVGD
p13109
aVBCR
p13110
aVINTU
p13111
aVLLL
p13112
aVSYK
p13113
aVFISV
p13114
aVAMT
p13115
aVBXP
p13116
aVAPD
p13117
aVGOOG
p13118
aVPX
p13119
aVCXO
p13120
aVCMI
p13121
aVSHW
p13122
aVSPGI
p13123
aVISRG
p13124
aVILMN
p13125
aVAMZN
p13126
asS'02132015'
p13127
(lp13128
VCMG
p13129
aVREGN
p13130
aVESS
p13131
aVCELG
p13132
aVUNH
p13133
aVPRGO
p13134
aVPXD
p13135
aVJNJ
p13136
aVSIG
p13137
aVGWW
p13138
aVHUM
p13139
aVBIIB
p13140
aVBA
p13141
aVUNP
p13142
aVHON
p13143
aVEW
p13144
aVMNK
p13145
aVHD
p13146
aVXEC
p13147
aVDIS
p13148
aVWDC
p13149
aVFFIV
p13150
aVAMP
p13151
aVAAPL
p13152
aVROP
p13153
aVAMZN
p13154
aVPCLN
p13155
asS'10272016'
p13156
(lp13157
VEW
p13158
aVAMZN
p13159
aVSHW
p13160
aVILMN
p13161
aVAYI
p13162
aVPCLN
p13163
aVPVH
p13164
aVXEC
p13165
aVROP
p13166
aVBDX
p13167
aVBIIB
p13168
aVPH
p13169
aVSTZ
p13170
aVADBE
p13171
aVCME
p13172
aVCLX
p13173
aVPX
p13174
aVSPGI
p13175
aVFB
p13176
aVHUM
p13177
aVMNST
p13178
aVSNA
p13179
aVFFIV
p13180
aVGS
p13181
asS'03242015'
p13182
(lp13183
VPCLN
p13184
aVBA
p13185
aVMON
p13186
aVHAR
p13187
aVTDG
p13188
aVSHW
p13189
aVAAPL
p13190
aVICE
p13191
aVWDC
p13192
aVDIS
p13193
aVXEC
p13194
aVAVGO
p13195
aVROP
p13196
aVMPC
p13197
aVLLL
p13198
aVHON
p13199
aVUNH
p13200
aVHSY
p13201
aVPXD
p13202
aVGWW
p13203
aVMNK
p13204
aVPRGO
p13205
aVNKE
p13206
aVCELG
p13207
aVUHS
p13208
aVAET
p13209
aVSWKS
p13210
aVTMO
p13211
aVANTM
p13212
aVPVH
p13213
aVEW
p13214
aVSIG
p13215
aVAMGN
p13216
aVRL
p13217
aVHUM
p13218
aVCMG
p13219
aVBIIB
p13220
asS'03242016'
p13221
(lp13222
VPCLN
p13223
aVAYI
p13224
aVBDX
p13225
aVAET
p13226
aVSPG
p13227
aVPEP
p13228
aVCVS
p13229
aVLMT
p13230
aVHON
p13231
aVEFX
p13232
aVPXD
p13233
aVILMN
p13234
aVUHS
p13235
aVWHR
p13236
aVAMG
p13237
aVICE
p13238
aVESS
p13239
aVACN
p13240
aVGOOG
p13241
asS'01292016'
p13242
(lp13243
VREGN
p13244
aVPCLN
p13245
aVILMN
p13246
aVWAT
p13247
aVNOC
p13248
aVUHS
p13249
aVLLL
p13250
aVAVGO
p13251
aVACN
p13252
aVWHR
p13253
aVGWW
p13254
aVAMG
p13255
aVAMZN
p13256
aVGOOG
p13257
asS'05022016'
p13258
(lp13259
VGOOGL
p13260
aVGOOG
p13261
aVILMN
p13262
aVAYI
p13263
aVWHR
p13264
aVMCK
p13265
aVEW
p13266
aVSIG
p13267
aVACN
p13268
aVULTA
p13269
aVHD
p13270
aVPX
p13271
aVPEP
p13272
aVCMI
p13273
aVXEC
p13274
aVSRE
p13275
aVSWK
p13276
aVBDX
p13277
aVPCLN
p13278
aVAET
p13279
aVEQIX
p13280
aVSPGI
p13281
aVLMT
p13282
aVICE
p13283
aVFB
p13284
aVHUM
p13285
aVPXD
p13286
aVAMZN
p13287
asS'12222016'
p13288
(lp13289
VAYI
p13290
aVFDX
p13291
aVAMP
p13292
aVLLL
p13293
aVCMI
p13294
aVCXO
p13295
aVXEC
p13296
aVPX
p13297
aVVMC
p13298
aVEOG
p13299
aVPH
p13300
aVAPD
p13301
aVSNA
p13302
aVUNP
p13303
aVSHW
p13304
aVBLK
p13305
aVBA
p13306
aVPNC
p13307
aVINTU
p13308
aVCVX
p13309
aVSTZ
p13310
aVFISV
p13311
aVADBE
p13312
aVSRE
p13313
aVMHK
p13314
aVSYK
p13315
aVWHR
p13316
aVILMN
p13317
aVNVDA
p13318
aVEQIX
p13319
aVAGN
p13320
aVAMZN
p13321
asS'10292015'
p13322
(lp13323
VGWW
p13324
aVFFIV
p13325
aVSTZ
p13326
aVEXPE
p13327
aVANTM
p13328
aVGPN
p13329
aVHAR
p13330
aVACN
p13331
aVIFF
p13332
aVFB
p13333
aVNFLX
p13334
aVNOC
p13335
aVVRTX
p13336
aVPCLN
p13337
aVREGN
p13338
asS'02292016'
p13339
(lp13340
VHON
p13341
aVCLX
p13342
aVPEP
p13343
aVAPD
p13344
aVLLL
p13345
aVTRV
p13346
aVACN
p13347
aVPXD
p13348
aVTMO
p13349
aVEFX
p13350
aVAET
p13351
aVBDX
p13352
aVGOOG
p13353
aVAMG
p13354
aVPCLN
p13355
asS'10112016'
p13356
(lp13357
VILMN
p13358
aVPCLN
p13359
aVAYI
p13360
aVBIIB
p13361
aVBLK
p13362
aVPSA
p13363
aVSHW
p13364
aVROP
p13365
aVSLG
p13366
aVCME
p13367
aVBDX
p13368
aVMCO
p13369
aVAMT
p13370
aVINTU
p13371
aVSNA
p13372
aVADBE
p13373
aVALXN
p13374
aVPH
p13375
aVPX
p13376
aVTMO
p13377
aVAMP
p13378
aVPVH
p13379
aVCVX
p13380
aVSTZ
p13381
aVGS
p13382
aVLRCX
p13383
aVAMZN
p13384
aVXEC
p13385
asS'04192016'
p13386
(lp13387
VILMN
p13388
aVEQIX
p13389
aVESS
p13390
aVAAPL
p13391
aVFB
p13392
aVSPG
p13393
aVTRV
p13394
aVWHR
p13395
aVCVS
p13396
aVNOC
p13397
aVPEP
p13398
aVUHS
p13399
aVLMT
p13400
aVULTA
p13401
aVAPD
p13402
aVSWK
p13403
aVTMO
p13404
aVPXD
p13405
aVPRGO
p13406
aVBDX
p13407
aVCXO
p13408
aVAYI
p13409
aVREGN
p13410
asS'08202015'
p13411
(lp13412
VCMG
p13413
aVAMZN
p13414
aVMNST
p13415
aVAYI
p13416
aVHAR
p13417
aVTMO
p13418
aVFFIV
p13419
aVGS
p13420
aVACN
p13421
aVLLL
p13422
aVTSO
p13423
aVEXPE
p13424
aVHON
p13425
aVINTU
p13426
aVCXO
p13427
aVUNH
p13428
aVANTM
p13429
aVPVH
p13430
aVPRGO
p13431
aVGPN
p13432
aVTDG
p13433
aVORLY
p13434
aVSTZ
p13435
aVHUM
p13436
aVAET
p13437
aVAZO
p13438
aVNFLX
p13439
asS'05212015'
p13440
(lp13441
VAMZN
p13442
aVMNST
p13443
aVPXD
p13444
aVGWW
p13445
aVCXO
p13446
aVRL
p13447
aVSIG
p13448
aVFFIV
p13449
aVDIS
p13450
aVEFX
p13451
aVMPC
p13452
aVPRGO
p13453
aVROST
p13454
aVMON
p13455
aVEXPE
p13456
aVLH
p13457
aVROK
p13458
aVBCR
p13459
aVHON
p13460
aVBA
p13461
aVAMP
p13462
aVTMO
p13463
aVSRCL
p13464
aVUNH
p13465
aVCELG
p13466
aVLLL
p13467
aVSWKS
p13468
aVAVGO
p13469
aVHUM
p13470
aVMNK
p13471
asS'10052016'
p13472
(lp13473
VAPD
p13474
aVAYI
p13475
aVBLK
p13476
aVEQIX
p13477
aVCME
p13478
aVGOOG
p13479
aVPSA
p13480
aVALXN
p13481
aVGS
p13482
aVFB
p13483
aVSHW
p13484
aVUTX
p13485
aVAMP
p13486
aVPVH
p13487
aVSTZ
p13488
aVPH
p13489
aVADBE
p13490
aVILMN
p13491
aVBA
p13492
aVTMO
p13493
aVNFLX
p13494
aVXEC
p13495
aVPCLN
p13496
aVAMZN
p13497
asS'10052015'
p13498
(lp13499
VPCLN
p13500
aVTDG
p13501
aVPRGO
p13502
aVEQIX
p13503
aVAVGO
p13504
aVCMG
p13505
aVWHR
p13506
aVHUM
p13507
aVANTM
p13508
aVVRTX
p13509
aVUNH
p13510
aVAMZN
p13511
aVAZO
p13512
aVNOC
p13513
aVLLL
p13514
aVTMO
p13515
aVKMB
p13516
aVFFIV
p13517
aVPXD
p13518
aVNFLX
p13519
asS'05112015'
p13520
(lp13521
VPCLN
p13522
aVPXD
p13523
aVCXO
p13524
aVHUM
p13525
aVHAR
p13526
aVNFLX
p13527
aVPRGO
p13528
aVLH
p13529
aVCMG
p13530
aVSIG
p13531
aVLLL
p13532
aVBA
p13533
aVUNH
p13534
aVDIS
p13535
aVRL
p13536
aVUHS
p13537
aVGWW
p13538
aVAMP
p13539
aVHON
p13540
aVTMO
p13541
aVPVH
p13542
aVMPC
p13543
aVFFIV
p13544
aVMON
p13545
aVEXPE
p13546
aVMNK
p13547
aVROK
p13548
asS'12272016'
p13549
(lp13550
VAYI
p13551
aVFDX
p13552
aVGS
p13553
aVBLK
p13554
aVLLL
p13555
aVAMP
p13556
aVCXO
p13557
aVPX
p13558
aVEOG
p13559
aVAPD
p13560
aVPH
p13561
aVSNA
p13562
aVECL
p13563
aVINTU
p13564
aVVMC
p13565
aVBA
p13566
aVPNC
p13567
aVCVX
p13568
aVSTZ
p13569
aVSHW
p13570
aVFISV
p13571
aVPSA
p13572
aVLRCX
p13573
aVADBE
p13574
aVNFLX
p13575
aVSYK
p13576
aVMHK
p13577
aVWHR
p13578
aVTDG
p13579
aVILMN
p13580
aVGOOGL
p13581
aVEQIX
p13582
aVAMZN
p13583
aVNVDA
p13584
aVAGN
p13585
asS'12222015'
p13586
(lp13587
VGOOG
p13588
aVREGN
p13589
aVWHR
p13590
aVDIS
p13591
aVLLL
p13592
aVAVGO
p13593
aVSNA
p13594
aVNOC
p13595
aVUHS
p13596
aVWAT
p13597
aVIBM
p13598
aVGILD
p13599
aVABC
p13600
aVEXPE
p13601
aVSRCL
p13602
aVAET
p13603
aVGWW
p13604
aVPCLN
p13605
asS'01092017'
p13606
(lp13607
VAYI
p13608
aVBLK
p13609
aVGS
p13610
aVNVDA
p13611
aVFDX
p13612
aVCVX
p13613
aVPH
p13614
aVCB
p13615
aVAPD
p13616
aVAMG
p13617
aVLLL
p13618
aVCXO
p13619
aVADP
p13620
aVINTU
p13621
aVCMI
p13622
aVGD
p13623
aVEOG
p13624
aVWHR
p13625
aVBA
p13626
aVSTZ
p13627
aVLRCX
p13628
aVFISV
p13629
aVNEE
p13630
aVAMP
p13631
aVAMT
p13632
aVNFLX
p13633
aVADBE
p13634
aVSHW
p13635
aVSPGI
p13636
aVISRG
p13637
aVGOOGL
p13638
aVEQIX
p13639
aVBIIB
p13640
aVILMN
p13641
aVAGN
p13642
aVAMZN
p13643
asS'07102015'
p13644
(lp13645
VAVGO
p13646
aVHUM
p13647
aVGS
p13648
aVCXO
p13649
aVFFIV
p13650
aVHAR
p13651
aVVRTX
p13652
aVPRGO
p13653
aVAMP
p13654
aVEXPE
p13655
aVSTZ
p13656
aVHON
p13657
aVGPN
p13658
aVUHS
p13659
aVLH
p13660
aVSRCL
p13661
aVNKE
p13662
aVNOC
p13663
aVMON
p13664
aVORLY
p13665
aVMNK
p13666
aVLLL
p13667
as.