(dp1
S'03232016'
p2
(lp3
sS'03232015'
p4
(lp5
sS'12022015'
p6
(lp7
sS'09012015'
p8
(lp9
VNFLX
p10
asS'12242015'
p11
(lp12
sS'04292016'
p13
(lp14
VPCLN
p15
aVMLM
p16
asS'05172016'
p17
(lp18
VPCLN
p19
aVXEC
p20
asS'04292015'
p21
(lp22
VPXD
p23
asS'08132015'
p24
(lp25
sS'11252015'
p26
(lp27
sS'03252015'
p28
(lp29
VSWKS
p30
asS'05232016'
p31
(lp32
VCXO
p33
asS'10212015'
p34
(lp35
VTSO
p36
aVNFLX
p37
aVPCLN
p38
asS'07092015'
p39
(lp40
sS'04242015'
p41
(lp42
sS'05102016'
p43
(lp44
VPCLN
p45
aVXEC
p46
asS'03082016'
p47
(lp48
VPCLN
p49
asS'07022015'
p50
(lp51
sS'09142015'
p52
(lp53
sS'06302015'
p54
(lp55
sS'05062016'
p56
(lp57
VPCLN
p58
asS'05062015'
p59
(lp60
sS'11022015'
p61
(lp62
sS'10302015'
p63
(lp64
VPCLN
p65
asS'05222015'
p66
(lp67
VPXD
p68
asS'07292015'
p69
(lp70
sS'02082016'
p71
(lp72
sS'10122015'
p73
(lp74
VNFLX
p75
asS'02242015'
p76
(lp77
VPXD
p78
asS'04232015'
p79
(lp80
VEW
p81
asS'11042015'
p82
(lp83
VNFLX
p84
asS'02242016'
p85
(lp86
VILMN
p87
asS'02092016'
p88
(lp89
sS'05082015'
p90
(lp91
sS'06122015'
p92
(lp93
sS'12232015'
p94
(lp95
sS'12172015'
p96
(lp97
sS'12182015'
p98
(lp99
sS'12092015'
p100
(lp101
sS'03142016'
p102
(lp103
sS'07152015'
p104
(lp105
sS'08142015'
p106
(lp107
VAVGO
p108
asS'11102015'
p109
(lp110
VALXN
p111
asS'05182015'
p112
(lp113
sS'02272015'
p114
(lp115
sS'12112015'
p116
(lp117
sS'11202015'
p118
(lp119
sS'06092016'
p120
(lp121
VXEC
p122
asS'10202015'
p123
(lp124
VPCLN
p125
asS'09282015'
p126
(lp127
VNFLX
p128
asS'08262015'
p129
(lp130
VMNST
p131
asS'07132015'
p132
(lp133
sS'02172016'
p134
(lp135
VILMN
p136
asS'10092015'
p137
(lp138
VNFLX
p139
asS'02112016'
p140
(lp141
sS'04162015'
p142
(lp143
sS'09252015'
p144
(lp145
sS'04042016'
p146
(lp147
sS'03062015'
p148
(lp149
sS'06052015'
p150
(lp151
sS'02232016'
p152
(lp153
VILMN
p154
asS'09082015'
p155
(lp156
VMNST
p157
aVNFLX
p158
asS'02232015'
p159
(lp160
VPXD
p161
asS'12212015'
p162
(lp163
sS'08032015'
p164
(lp165
sS'05052016'
p166
(lp167
VPCLN
p168
asS'11032015'
p169
(lp170
sS'07222015'
p171
(lp172
sS'10012015'
p173
(lp174
sS'02022016'
p175
(lp176
sS'09222015'
p177
(lp178
VNFLX
p179
asS'11132015'
p180
(lp181
sS'08172015'
p182
(lp183
VAVGO
p184
aVNFLX
p185
asS'12162015'
p186
(lp187
sS'12082015'
p188
(lp189
sS'12072015'
p190
(lp191
sS'06012015'
p192
(lp193
VPXD
p194
asS'12292015'
p195
(lp196
sS'03072016'
p197
(lp198
sS'04182016'
p199
(lp200
sS'03112015'
p201
(lp202
sS'12102015'
p203
(lp204
sS'08212015'
p205
(lp206
VNFLX
p207
asS'06252015'
p208
(lp209
sS'04052016'
p210
(lp211
VCELG
p212
asS'03222016'
p213
(lp214
sS'08052015'
p215
(lp216
VPXD
p217
aVHAR
p218
asS'01052016'
p219
(lp220
sS'03172016'
p221
(lp222
sS'09292015'
p223
(lp224
sS'03172015'
p225
(lp226
sS'01132016'
p227
(lp228
sS'05092016'
p229
(lp230
VPCLN
p231
asS'04172015'
p232
(lp233
sS'05292015'
p234
(lp235
VPXD
p236
asS'02182015'
p237
(lp238
sS'02012016'
p239
(lp240
sS'05072015'
p241
(lp242
sS'07142015'
p243
(lp244
sS'08112015'
p245
(lp246
VHAR
p247
asS'10272015'
p248
(lp249
VNFLX
p250
aVPCLN
p251
asS'10282015'
p252
(lp253
VNFLX
p254
aVPCLN
p255
asS'12142015'
p256
(lp257
sS'08102015'
p258
(lp259
VHAR
p260
asS'03182015'
p261
(lp262
sS'05202015'
p263
(lp264
sS'01192016'
p265
(lp266
sS'06092015'
p267
(lp268
VMNK
p269
asS'05162016'
p270
(lp271
VPCLN
p272
aVXEC
p273
asS'09172015'
p274
(lp275
sS'06262015'
p276
(lp277
sS'04012015'
p278
(lp279
VSWKS
p280
asS'04012016'
p281
(lp282
sS'01122016'
p283
(lp284
sS'02052016'
p285
(lp286
sS'02222016'
p287
(lp288
VILMN
p289
asS'06012016'
p290
(lp291
VXEC
p292
asS'11232015'
p293
(lp294
sS'04252016'
p295
(lp296
VPCLN
p297
asS'03022015'
p298
(lp299
sS'03022016'
p300
(lp301
VILMN
p302
asS'01282016'
p303
(lp304
sS'11112015'
p305
(lp306
sS'10232015'
p307
(lp308
sS'09162015'
p309
(lp310
sS'07012015'
p311
(lp312
sS'10162015'
p313
(lp314
VNFLX
p315
asS'05192016'
p316
(lp317
sS'04092015'
p318
(lp319
sS'05192015'
p320
(lp321
sS'09232015'
p322
(lp323
VNFLX
p324
asS'03042015'
p325
(lp326
VPXD
p327
asS'05202016'
p328
(lp329
sS'07242015'
p330
(lp331
sS'05142015'
p332
(lp333
VPXD
p334
asS'03182016'
p335
(lp336
sS'02162016'
p337
(lp338
VILMN
p339
asS'10152015'
p340
(lp341
VNFLX
p342
asS'06142016'
p343
(lp344
VXEC
p345
aVWYNN
p346
aVPCLN
p347
asS'10082015'
p348
(lp349
sS'07072015'
p350
(lp351
sS'04022015'
p352
(lp353
sS'03102016'
p354
(lp355
VPCLN
p356
asS'11062015'
p357
(lp358
VNFLX
p359
asS'07212015'
p360
(lp361
sS'08252015'
p362
(lp363
VMNST
p364
aVNFLX
p365
asS'03162016'
p366
(lp367
sS'03162015'
p368
(lp369
sS'05012015'
p370
(lp371
sS'11242015'
p372
(lp373
sS'05132015'
p374
(lp375
VPXD
p376
asS'05132016'
p377
(lp378
VPCLN
p379
aVXEC
p380
asS'06292015'
p381
(lp382
sS'04122016'
p383
(lp384
sS'11092015'
p385
(lp386
VNFLX
p387
asS'02122016'
p388
(lp389
sS'03112016'
p390
(lp391
sS'06132016'
p392
(lp393
VXEC
p394
aVWYNN
p395
aVPCLN
p396
asS'06152015'
p397
(lp398
sS'12032015'
p399
(lp400
sS'06152016'
p401
(lp402
VXEC
p403
aVWYNN
p404
aVPCLN
p405
asS'09242015'
p406
(lp407
sS'04062016'
p408
(lp409
sS'04062015'
p410
(lp411
sS'11272015'
p412
(lp413
sS'01042016'
p414
(lp415
sS'06162016'
p416
(lp417
VWYNN
p418
asS'12312015'
p419
(lp420
sS'03312016'
p421
(lp422
VCXO
p423
asS'07302015'
p424
(lp425
sS'03292016'
p426
(lp427
sS'11172015'
p428
(lp429
sS'12302015'
p430
(lp431
sS'03202015'
p432
(lp433
sS'05262016'
p434
(lp435
VPCLN
p436
asS'07102015'
p437
(lp438
sS'05212015'
p439
(lp440
sS'10062015'
p441
(lp442
sS'02182016'
p443
(lp444
sS'03032015'
p445
(lp446
VPXD
p447
asS'04112016'
p448
(lp449
VCELG
p450
asS'08282015'
p451
(lp452
VNFLX
p453
asS'03032016'
p454
(lp455
VILMN
p456
aVPCLN
p457
asS'04212016'
p458
(lp459
sS'04212015'
p460
(lp461
sS'12152015'
p462
(lp463
sS'03052015'
p464
(lp465
sS'06062016'
p466
(lp467
VXEC
p468
asS'08042015'
p469
(lp470
sS'12042015'
p471
(lp472
sS'07162015'
p473
(lp474
sS'05042015'
p475
(lp476
sS'05042016'
p477
(lp478
VPCLN
p479
asS'05242016'
p480
(lp481
sS'09032015'
p482
(lp483
VCXO
p484
aVNFLX
p485
asS'07172015'
p486
(lp487
sS'03042016'
p488
(lp489
VPCLN
p490
asS'09182015'
p491
(lp492
VNFLX
p493
asS'01222016'
p494
(lp495
sS'07282015'
p496
(lp497
sS'10072015'
p498
(lp499
sS'02262016'
p500
(lp501
VILMN
p502
asS'02262015'
p503
(lp504
sS'09022015'
p505
(lp506
VNFLX
p507
asS'09092015'
p508
(lp509
sS'06102015'
p510
(lp511
VMNK
p512
asS'06102016'
p513
(lp514
VXEC
p515
aVWYNN
p516
asS'05282015'
p517
(lp518
sS'04152016'
p519
(lp520
sS'04152015'
p521
(lp522
sS'04072015'
p523
(lp524
sS'08312015'
p525
(lp526
VMNST
p527
aVNFLX
p528
asS'07062015'
p529
(lp530
sS'04222015'
p531
(lp532
sS'04272016'
p533
(lp534
VMLM
p535
aVPCLN
p536
asS'10222015'
p537
(lp538
VPCLN
p539
asS'05122015'
p540
(lp541
sS'02252015'
p542
(lp543
sS'02252016'
p544
(lp545
VILMN
p546
asS'06162015'
p547
(lp548
VAVGO
p549
asS'04132015'
p550
(lp551
sS'02192015'
p552
(lp553
sS'06222015'
p554
(lp555
sS'04132016'
p556
(lp557
sS'05272015'
p558
(lp559
VPXD
p560
asS'06082015'
p561
(lp562
sS'08062015'
p563
(lp564
VPXD
p565
aVHAR
p566
asS'05272016'
p567
(lp568
VPCLN
p569
asS'08242015'
p570
(lp571
VNFLX
p572
asS'04222016'
p573
(lp574
VPCLN
p575
asS'01062016'
p576
(lp577
sS'03192015'
p578
(lp579
sS'06242015'
p580
(lp581
sS'09042015'
p582
(lp583
VMNST
p584
aVNFLX
p585
asS'02192016'
p586
(lp587
VILMN
p588
asS'06192015'
p589
(lp590
sS'06082016'
p591
(lp592
VXEC
p593
asS'06072016'
p594
(lp595
VXEC
p596
asS'10262015'
p597
(lp598
VPCLN
p599
asS'04082015'
p600
(lp601
sS'03122015'
p602
(lp603
sS'04082016'
p604
(lp605
VCELG
p606
asS'06032015'
p607
(lp608
VPXD
p609
asS'02042016'
p610
(lp611
sS'07202015'
p612
(lp613
sS'05312016'
p614
(lp615
VXEC
p616
asS'03132015'
p617
(lp618
sS'05252016'
p619
(lp620
VXEC
p621
asS'09302015'
p622
(lp623
sS'11052015'
p624
(lp625
VNFLX
p626
asS'01272016'
p627
(lp628
sS'01252016'
p629
(lp630
sS'09112015'
p631
(lp632
sS'10132015'
p633
(lp634
VNFLX
p635
asS'10022015'
p636
(lp637
VNFLX
p638
asS'05152015'
p639
(lp640
VPXD
p641
asS'04282016'
p642
(lp643
VMLM
p644
asS'04282015'
p645
(lp646
sS'12282015'
p647
(lp648
sS'01112016'
p649
(lp650
sS'09102015'
p651
(lp652
sS'03152016'
p653
(lp654
sS'05182016'
p655
(lp656
VXEC
p657
asS'04072016'
p658
(lp659
sS'04302015'
p660
(lp661
sS'06032016'
p662
(lp663
VXEC
p664
asS'08182015'
p665
(lp666
VHAR
p667
aVNFLX
p668
asS'05052015'
p669
(lp670
sS'07312015'
p671
(lp672
VPVH
p673
asS'08272015'
p674
(lp675
VMNST
p676
aVNFLX
p677
asS'01262016'
p678
(lp679
sS'03092016'
p680
(lp681
VPCLN
p682
asS'03092015'
p683
(lp684
sS'05262015'
p685
(lp686
VPXD
p687
asS'03302015'
p688
(lp689
sS'05122016'
p690
(lp691
VXEC
p692
asS'04202016'
p693
(lp694
sS'04202015'
p695
(lp696
sS'11162015'
p697
(lp698
sS'06112015'
p699
(lp700
sS'07232015'
p701
(lp702
sS'04262016'
p703
(lp704
VPCLN
p705
asS'02292016'
p706
(lp707
VILMN
p708
asS'01212016'
p709
(lp710
sS'03212016'
p711
(lp712
VPCLN
p713
asS'09152015'
p714
(lp715
sS'06182015'
p716
(lp717
VAVGO
p718
aVPXD
p719
asS'06172015'
p720
(lp721
VAVGO
p722
asS'01202016'
p723
(lp724
sS'03012016'
p725
(lp726
VILMN
p727
asS'08122015'
p728
(lp729
sS'02132015'
p730
(lp731
VPXD
p732
asS'03242015'
p733
(lp734
VSWKS
p735
asS'03242016'
p736
(lp737
sS'01072016'
p738
(lp739
sS'01082016'
p740
(lp741
sS'11122015'
p742
(lp743
sS'01292016'
p744
(lp745
sS'05022016'
p746
(lp747
VMLM
p748
asS'02032016'
p749
(lp750
sS'07272015'
p751
(lp752
VHAR
p753
asS'03312015'
p754
(lp755
sS'03302016'
p756
(lp757
sS'04142016'
p758
(lp759
VCELG
p760
asS'03102015'
p761
(lp762
sS'08192015'
p763
(lp764
VHAR
p765
aVNFLX
p766
asS'04142015'
p767
(lp768
sS'10292015'
p769
(lp770
VPCLN
p771
asS'04272015'
p772
(lp773
sS'05032016'
p774
(lp775
sS'10142015'
p776
(lp777
VNFLX
p778
aVPCLN
p779
asS'06042015'
p780
(lp781
VPXD
p782
asS'04192016'
p783
(lp784
sS'08202015'
p785
(lp786
VHAR
p787
aVNFLX
p788
asS'11182015'
p789
(lp790
VNFLX
p791
asS'09212015'
p792
(lp793
VNFLX
p794
asS'06232015'
p795
(lp796
sS'03272015'
p797
(lp798
sS'10192015'
p799
(lp800
VNFLX
p801
asS'05112016'
p802
(lp803
VPCLN
p804
aVXEC
p805
asS'01142016'
p806
(lp807
sS'11302015'
p808
(lp809
sS'06022016'
p810
(lp811
VXEC
p812
asS'02102016'
p813
(lp814
sS'10052015'
p815
(lp816
sS'04102015'
p817
(lp818
sS'01152016'
p819
(lp820
sS'03262015'
p821
(lp822
VSWKS
p823
asS'12012015'
p824
(lp825
sS'02172015'
p826
(lp827
VPXD
p828
asS'05112015'
p829
(lp830
sS'06022015'
p831
(lp832
VPXD
p833
asS'12222015'
p834
(lp835
sS'07082015'
p836
(lp837
sS'11192015'
p838
(lp839
sS'08072015'
p840
(lp841
VPXD
p842
asS'02202015'
p843
(lp844
sS'03282016'
p845
(lp846
s.