(dp1
S'12142015'
p2
(lp3
VAMZN
p4
aVGOOG
p5
aVREGN
p6
aVICE
p7
aVAZO
p8
aVXEC
p9
aVVRTX
p10
aVORLY
p11
aVPPG
p12
aVDIS
p13
aVMNST
p14
aVEQIX
p15
aVAVB
p16
aVGD
p17
aVCXO
p18
aVHON
p19
aVSTZ
p20
aVIFF
p21
aVNKE
p22
aVBA
p23
aVGILD
p24
aVWAT
p25
aVFB
p26
aVHD
p27
aVLH
p28
aVBIIB
p29
aVNOC
p30
aVAYI
p31
aVUHS
p32
aVROK
p33
aVRTN
p34
aVBCR
p35
aVMCD
p36
aVCELG
p37
aVUNH
p38
aVSRCL
p39
aVABC
p40
aVAET
p41
aVAVGO
p42
aVHUM
p43
asS'12022015'
p44
(lp45
VREGN
p46
aVORLY
p47
aVICE
p48
aVDIS
p49
aVGOOG
p50
aVLLL
p51
aVFB
p52
aVTSO
p53
aVNOC
p54
aVBA
p55
aVGILD
p56
aVPXD
p57
aVBXP
p58
aVXEC
p59
aVVRTX
p60
aVLH
p61
aVHAR
p62
aVEQIX
p63
aVPPG
p64
aVROK
p65
aVGD
p66
aVALXN
p67
aVIFF
p68
aVSRCL
p69
aVEW
p70
aVAET
p71
aVAYI
p72
aVNKE
p73
aVUHS
p74
aVSTZ
p75
aVMNST
p76
aVUNH
p77
aVGWW
p78
aVHD
p79
aVAVB
p80
aVHUM
p81
aVNFLX
p82
aVAVGO
p83
asS'12112015'
p84
(lp85
VAMZN
p86
aVGOOG
p87
aVREGN
p88
aVICE
p89
aVAZO
p90
aVXEC
p91
aVORLY
p92
aVVRTX
p93
aVDIS
p94
aVMNST
p95
aVPPG
p96
aVGD
p97
aVAVB
p98
aVNKE
p99
aVWAT
p100
aVFB
p101
aVGILD
p102
aVBA
p103
aVIFF
p104
aVSTZ
p105
aVNOC
p106
aVAYI
p107
aVROK
p108
aVLH
p109
aVACN
p110
aVBCR
p111
aVRTN
p112
aVUHS
p113
aVCELG
p114
aVSRCL
p115
aVABC
p116
aVAET
p117
aVUNH
p118
aVHUM
p119
aVAVGO
p120
asS'12042015'
p121
(lp122
VREGN
p123
aVAZO
p124
aVORLY
p125
aVGOOGL
p126
aVICE
p127
aVTSO
p128
aVVRTX
p129
aVDIS
p130
aVGOOG
p131
aVGS
p132
aVWAT
p133
aVNOC
p134
aVRL
p135
aVGILD
p136
aVFB
p137
aVAYI
p138
aVCXO
p139
aVBA
p140
aVPXD
p141
aVHAR
p142
aVGD
p143
aVUHS
p144
aVSRCL
p145
aVACN
p146
aVLH
p147
aVMCO
p148
aVEQIX
p149
aVNKE
p150
aVROK
p151
aVIFF
p152
aVAET
p153
aVHD
p154
aVAVB
p155
aVANTM
p156
aVSTZ
p157
aVUNH
p158
aVHUM
p159
aVGWW
p160
asS'12152015'
p161
(lp162
VAMZN
p163
aVGOOG
p164
aVICE
p165
aVREGN
p166
aVVRTX
p167
aVORLY
p168
aVXEC
p169
aVEQIX
p170
aVMNST
p171
aVPX
p172
aVLLL
p173
aVGD
p174
aVSTZ
p175
aVAVB
p176
aVIFF
p177
aVNKE
p178
aVFB
p179
aVBA
p180
aVGILD
p181
aVROK
p182
aVWAT
p183
aVLH
p184
aVAYI
p185
aVNOC
p186
aVACN
p187
aVUHS
p188
aVRTN
p189
aVGWW
p190
aVBIIB
p191
aVBCR
p192
aVUNH
p193
aVCELG
p194
aVSRCL
p195
aVAVGO
p196
aVAET
p197
aVHUM
p198
asS'12012015'
p199
(lp200
VREGN
p201
aVORLY
p202
aVICE
p203
aVGOOG
p204
aVDIS
p205
aVLLL
p206
aVFB
p207
aVBA
p208
aVNOC
p209
aVCELG
p210
aVTSO
p211
aVGILD
p212
aVEQIX
p213
aVLH
p214
aVBXP
p215
aVCXO
p216
aVHAR
p217
aVPH
p218
aVROK
p219
aVPPG
p220
aVVRTX
p221
aVAET
p222
aVGD
p223
aVSNA
p224
aVXEC
p225
aVIFF
p226
aVSRCL
p227
aVHUM
p228
aVGWW
p229
aVNKE
p230
aVEW
p231
aVSTZ
p232
aVALXN
p233
aVMNST
p234
aVAYI
p235
aVHD
p236
aVNFLX
p237
aVAVB
p238
aVAVGO
p239
asS'12172015'
p240
(lp241
VGOOG
p242
aVAMZN
p243
aVICE
p244
aVXEC
p245
aVVRTX
p246
aVMNST
p247
aVLLL
p248
aVEQIX
p249
aVPX
p250
aVORLY
p251
aVGD
p252
aVCXO
p253
aVAYI
p254
aVIFF
p255
aVROK
p256
aVSTZ
p257
aVUHS
p258
aVLH
p259
aVNKE
p260
aVAVGO
p261
aVBA
p262
aVRTN
p263
aVFB
p264
aVGILD
p265
aVAVB
p266
aVWAT
p267
aVMCD
p268
aVKMB
p269
aVBCR
p270
aVUNH
p271
aVCELG
p272
aVSRCL
p273
aVAET
p274
aVANTM
p275
aVHUM
p276
aVBIIB
p277
asS'12092015'
p278
(lp279
VAMZN
p280
aVREGN
p281
aVGOOG
p282
aVXEC
p283
aVORLY
p284
aVVRTX
p285
aVAZO
p286
aVDIS
p287
aVAYI
p288
aVLLL
p289
aVBA
p290
aVGD
p291
aVGILD
p292
aVFB
p293
aVNOC
p294
aVMNST
p295
aVUHS
p296
aVSNA
p297
aVNKE
p298
aVRTN
p299
aVAAPL
p300
aVSTZ
p301
aVACN
p302
aVGWW
p303
aVLH
p304
aVIFF
p305
aVCELG
p306
aVAET
p307
aVMHK
p308
aVUNH
p309
aVHUM
p310
aVAVGO
p311
asS'12082015'
p312
(lp313
VREGN
p314
aVAZO
p315
aVORLY
p316
aVXEC
p317
aVVRTX
p318
aVGOOG
p319
aVCXO
p320
aVTSO
p321
aVDIS
p322
aVAYI
p323
aVGILD
p324
aVBA
p325
aVFB
p326
aVLLL
p327
aVGD
p328
aVNOC
p329
aVUHS
p330
aVBXP
p331
aVEQIX
p332
aVSRCL
p333
aVNKE
p334
aVSNA
p335
aVAVB
p336
aVMNST
p337
aVCELG
p338
aVACN
p339
aVIFF
p340
aVLH
p341
aVSTZ
p342
aVAET
p343
aVGWW
p344
aVMCK
p345
aVBCR
p346
aVUNH
p347
aVHUM
p348
aVAVGO
p349
asS'12072015'
p350
(lp351
VAZO
p352
aVREGN
p353
aVGOOGL
p354
aVORLY
p355
aVVRTX
p356
aVXEC
p357
aVGOOG
p358
aVCXO
p359
aVPXD
p360
aVDIS
p361
aVICE
p362
aVAYI
p363
aVWAT
p364
aVGILD
p365
aVFB
p366
aVNOC
p367
aVHAR
p368
aVUHS
p369
aVGD
p370
aVPRGO
p371
aVBA
p372
aVCELG
p373
aVSRCL
p374
aVEQIX
p375
aVECL
p376
aVNKE
p377
aVACN
p378
aVMNST
p379
aVLH
p380
aVMCO
p381
aVAVB
p382
aVIFF
p383
aVROK
p384
aVAET
p385
aVSTZ
p386
aVSNA
p387
aVBCR
p388
aVMCK
p389
aVHUM
p390
aVUNH
p391
aVFFIV
p392
aVULTA
p393
asS'12162015'
p394
(lp395
VAMZN
p396
aVGOOG
p397
aVICE
p398
aVVRTX
p399
aVXEC
p400
aVORLY
p401
aVEQIX
p402
aVMNST
p403
aVLLL
p404
aVPX
p405
aVREGN
p406
aVGD
p407
aVIFF
p408
aVSTZ
p409
aVNKE
p410
aVLH
p411
aVUHS
p412
aVAYI
p413
aVROK
p414
aVFB
p415
aVAVB
p416
aVGILD
p417
aVBA
p418
aVRTN
p419
aVWAT
p420
aVCXO
p421
aVMCD
p422
aVGWW
p423
aVAVGO
p424
aVBXP
p425
aVBCR
p426
aVUNH
p427
aVSRCL
p428
aVAET
p429
aVCELG
p430
aVHUM
p431
asS'12032015'
p432
(lp433
VREGN
p434
aVORLY
p435
aVICE
p436
aVGOOG
p437
aVDIS
p438
aVNOC
p439
aVVRTX
p440
aVFB
p441
aVGILD
p442
aVALXN
p443
aVBA
p444
aVAMP
p445
aVBXP
p446
aVRL
p447
aVPXD
p448
aVXEC
p449
aVAMT
p450
aVEQIX
p451
aVACN
p452
aVAYI
p453
aVLH
p454
aVGD
p455
aVEW
p456
aVHAR
p457
aVSRCL
p458
aVPPG
p459
aVROK
p460
aVUHS
p461
aVNKE
p462
aVIFF
p463
aVAET
p464
aVAVB
p465
aVSTZ
p466
aVHD
p467
aVUNH
p468
aVHUM
p469
aVNFLX
p470
asS'12102015'
p471
(lp472
VAMZN
p473
aVGOOGL
p474
aVGOOG
p475
aVREGN
p476
aVXEC
p477
aVVRTX
p478
aVORLY
p479
aVTSO
p480
aVDIS
p481
aVCXO
p482
aVPPG
p483
aVLLL
p484
aVWAT
p485
aVMNST
p486
aVGD
p487
aVAVB
p488
aVAYI
p489
aVGILD
p490
aVMCO
p491
aVBA
p492
aVFB
p493
aVNKE
p494
aVSNA
p495
aVSTZ
p496
aVHD
p497
aVIFF
p498
aVRTN
p499
aVROK
p500
aVUHS
p501
aVLH
p502
aVGWW
p503
aVACN
p504
aVSRCL
p505
aVABC
p506
aVAET
p507
aVCELG
p508
aVUNH
p509
aVHUM
p510
aVAVGO
p511
asS'11302015'
p512
(lp513
VREGN
p514
aVGOOGL
p515
aVGOOG
p516
aVICE
p517
aVAZO
p518
aVORLY
p519
aVFB
p520
aVDIS
p521
aVLLL
p522
aVBA
p523
aVEQIX
p524
aVLH
p525
aVNOC
p526
aVBIIB
p527
aVTSO
p528
aVBXP
p529
aVGILD
p530
aVAET
p531
aVHAR
p532
aVUNH
p533
aVHUM
p534
aVROK
p535
aVGD
p536
aVSNA
p537
aVULTA
p538
aVPH
p539
aVGWW
p540
aVIFF
p541
aVUHS
p542
aVVRTX
p543
aVSRCL
p544
aVEW
p545
aVNKE
p546
aVSTZ
p547
aVMNST
p548
aVALXN
p549
aVMHK
p550
aVAYI
p551
aVAVB
p552
aVAVGO
p553
aVHD
p554
aVMCK
p555
aVNFLX
p556
as.