(dp1
S'12022016'
p2
(lp3
VBXP
p4
aVURI
p5
asS'03232016'
p6
(lp7
VPEP
p8
aVGOOG
p9
asS'03232015'
p10
(lp11
VPCLN
p12
aVBA
p13
aVMON
p14
aVDNB
p15
aVXEC
p16
aVICE
p17
aVROP
p18
aVDIS
p19
aVAVGO
p20
aVPH
p21
aVAMP
p22
aVLLL
p23
aVFFIV
p24
aVHON
p25
aVHSY
p26
aVGWW
p27
aVUNH
p28
aVJNJ
p29
aVSRCL
p30
aVAYI
p31
aVPXD
p32
aVUHS
p33
aVAET
p34
aVPVH
p35
aVCELG
p36
aVMNK
p37
aVMCO
p38
aVTMO
p39
aVANTM
p40
aVSIG
p41
aVPRGO
p42
aVRL
p43
aVHUM
p44
aVCMG
p45
aVBIIB
p46
asS'12022015'
p47
(lp48
VGOOG
p49
aVFB
p50
asS'09012015'
p51
(lp52
sS'09012016'
p53
(lp54
sS'07312015'
p55
(lp56
VACN
p57
aVBF-B
p58
asS'08132015'
p59
(lp60
VCOST
p61
aVACN
p62
aVBF-B
p63
aVUPS
p64
aVTSO
p65
asS'11072016'
p66
(lp67
sS'08082016'
p68
(lp69
sS'06302016'
p70
(lp71
VFB
p72
aVFISV
p73
aVPEP
p74
aVDLR
p75
aVMKC
p76
aVPSA
p77
asS'06302015'
p78
(lp79
sS'12062016'
p80
(lp81
VPNC
p82
aVBXP
p83
aVURI
p84
aVEOG
p85
asS'02082017'
p86
(lp87
VMA
p88
aVBXP
p89
aVPNC
p90
aVNVDA
p91
aVURI
p92
asS'10122016'
p93
(lp94
VLRCX
p95
asS'10122015'
p96
(lp97
sS'09272016'
p98
(lp99
sS'04232015'
p100
(lp101
VCMG
p102
aVAZO
p103
aVSPG
p104
aVMTB
p105
aVMNK
p106
aVPVH
p107
aVBIIB
p108
aVSIG
p109
aVSTZ
p110
aVPXD
p111
aVHUM
p112
aVUNH
p113
aVWAT
p114
aVAET
p115
aVHON
p116
aVCVS
p117
aVTDG
p118
aVNOC
p119
aVRTN
p120
aVLLL
p121
aVUHS
p122
aVRL
p123
aVCXO
p124
aVGS
p125
aVORLY
p126
aVPRGO
p127
aVHAR
p128
aVFFIV
p129
aVGWW
p130
aVREGN
p131
aVPCLN
p132
asS'10132016'
p133
(lp134
sS'02092017'
p135
(lp136
VEOG
p137
aVMA
p138
aVPNC
p139
aVURI
p140
aVNVDA
p141
asS'06122015'
p142
(lp143
VMLM
p144
asS'12182015'
p145
(lp146
VGOOG
p147
aVPEP
p148
aVMCD
p149
aVIBM
p150
asS'05182016'
p151
(lp152
VMHK
p153
aVMCD
p154
aVPEP
p155
aVVMC
p156
aVFISV
p157
asS'05182015'
p158
(lp159
VPCLN
p160
aVPXD
p161
aVMNST
p162
aVCXO
p163
aVHAR
p164
aVGWW
p165
aVSIG
p166
aVRL
p167
aVDIS
p168
aVLH
p169
aVPRGO
p170
aVPVH
p171
aVFFIV
p172
aVSTZ
p173
aVAZO
p174
aVTMO
p175
aVMON
p176
aVBCR
p177
aVBA
p178
aVUHS
p179
aVUNH
p180
aVROK
p181
aVHON
p182
aVLLL
p183
aVCELG
p184
aVHUM
p185
aVNFLX
p186
aVMNK
p187
asS'02272015'
p188
(lp189
VAMZN
p190
aVCXO
p191
aVHAR
p192
aVBA
p193
aVBIIB
p194
aVILMN
p195
aVMON
p196
aVPXD
p197
aVHSY
p198
aVAMP
p199
aVISRG
p200
aVXEC
p201
aVHON
p202
aVROK
p203
aVROP
p204
aVMNK
p205
aVDNB
p206
aVWDC
p207
aVSIG
p208
aVZBH
p209
aVUNH
p210
aVGILD
p211
aVHD
p212
aVCELG
p213
aVICE
p214
aVPVH
p215
aVGWW
p216
aVPRGO
p217
aVUHS
p218
aVHUM
p219
aVREGN
p220
aVMNST
p221
aVPCLN
p222
asS'12112015'
p223
(lp224
VGOOG
p225
asS'09282016'
p226
(lp227
sS'09282015'
p228
(lp229
sS'04162015'
p230
(lp231
VAZO
p232
aVHUM
p233
aVMNK
p234
aVBIIB
p235
aVSIG
p236
aVAVGO
p237
aVORLY
p238
aVEW
p239
aVTMO
p240
aVAET
p241
aVCVS
p242
aVSTZ
p243
aVRTN
p244
aVMCO
p245
aVWAT
p246
aVSHW
p247
aVLLL
p248
aVHON
p249
aVUNH
p250
aVBA
p251
aVAMP
p252
aVHSY
p253
aVTDG
p254
aVHAR
p255
aVPVH
p256
aVKSU
p257
aVAMGN
p258
aVFFIV
p259
aVMON
p260
aVRL
p261
aVCXO
p262
aVPXD
p263
aVGWW
p264
aVCMG
p265
aVPRGO
p266
asS'05102016'
p267
(lp268
VALXN
p269
aVMCK
p270
aVGOOG
p271
aVPEP
p272
aVFISV
p273
aVFB
p274
aVPSA
p275
asS'02232016'
p276
(lp277
VFB
p278
aVLMT
p279
aVGOOG
p280
asS'02232015'
p281
(lp282
VCMG
p283
aVESS
p284
aVHAR
p285
aVUNP
p286
aVAMZN
p287
aVSIG
p288
aVMNST
p289
aVAMP
p290
aVHD
p291
aVPXD
p292
aVGWW
p293
aVHON
p294
aVGILD
p295
aVCELG
p296
aVDIS
p297
aVUNH
p298
aVBIIB
p299
aVROK
p300
aVMON
p301
aVBA
p302
aVUHS
p303
aVPRGO
p304
aVAVGO
p305
aVZBH
p306
aVANTM
p307
aVCMI
p308
aVCI
p309
aVROP
p310
aVMNK
p311
aVSPGI
p312
aVXEC
p313
aVPVH
p314
aVVRTX
p315
aVHUM
p316
aVWDC
p317
aVICE
p318
aVDNB
p319
aVREGN
p320
aVPCLN
p321
asS'08032016'
p322
(lp323
VPSA
p324
aVVMC
p325
aVMCK
p326
aVFISV
p327
aVDLR
p328
aVAMT
p329
aVPEP
p330
aVIBM
p331
aVPM
p332
aVAPD
p333
aVADS
p334
aVCTAS
p335
aVCME
p336
asS'12212016'
p337
(lp338
VURI
p339
aVEOG
p340
aVPNC
p341
aVBXP
p342
aVNVDA
p343
asS'12212015'
p344
(lp345
VGOOG
p346
aVFDX
p347
aVPEP
p348
aVIBM
p349
aVMCD
p350
asS'08032015'
p351
(lp352
VBRK-B
p353
aVACN
p354
aVBF-B
p355
asS'07222016'
p356
(lp357
VDLR
p358
aVNEE
p359
aVPSA
p360
aVFISV
p361
aVPEP
p362
aVAMT
p363
aVMCK
p364
aVCME
p365
aVAPD
p366
aVFB
p367
aVCTAS
p368
asS'11032015'
p369
(lp370
VFB
p371
aVGOOG
p372
asS'11032016'
p373
(lp374
sS'07222015'
p375
(lp376
VACN
p377
aVBRK-B
p378
asS'12202016'
p379
(lp380
VURI
p381
aVEOG
p382
aVPNC
p383
aVBXP
p384
aVNVDA
p385
asS'02022016'
p386
(lp387
VGOOG
p388
asS'11132015'
p389
(lp390
VGOOG
p391
aVFB
p392
aVVMC
p393
asS'08172015'
p394
(lp395
sS'10242016'
p396
(lp397
VVAR
p398
asS'06012016'
p399
(lp400
VVMC
p401
aVPEP
p402
aVFISV
p403
aVITW
p404
aVMHK
p405
aVADBE
p406
aVMCK
p407
aVALXN
p408
aVGOOG
p409
asS'06012015'
p410
(lp411
VGWW
p412
aVPRGO
p413
aVSIG
p414
aVAYI
p415
aVAMGN
p416
aVFFIV
p417
aVSNA
p418
aVMNST
p419
aVPXD
p420
aVNKE
p421
aVBA
p422
aVROK
p423
aVMON
p424
aVAMG
p425
aVGPN
p426
aVEFX
p427
aVHON
p428
aVUTX
p429
aVSJM
p430
aVTMO
p431
aVCXO
p432
aVINTU
p433
aVEXPE
p434
aVSTZ
p435
aVLLL
p436
aVULTA
p437
aVLH
p438
aVAET
p439
aVMNK
p440
aVUHS
p441
aVSWKS
p442
aVHUM
p443
asS'12292016'
p444
(lp445
VURI
p446
aVEOG
p447
aVPNC
p448
aVNVDA
p449
asS'12292015'
p450
(lp451
VGOOG
p452
aVPEP
p453
asS'04182016'
p454
(lp455
VFB
p456
aVAPD
p457
aVPEP
p458
aVLMT
p459
aVALXN
p460
asS'03112015'
p461
(lp462
VPCLN
p463
aVAMZN
p464
aVWHR
p465
aVHAR
p466
aVBIIB
p467
aVDNB
p468
aVWDC
p469
aVILMN
p470
aVBA
p471
aVLLL
p472
aVPXD
p473
aVMON
p474
aVPVH
p475
aVAMP
p476
aVROP
p477
aVZBH
p478
aVHSY
p479
aVDIS
p480
aVAYI
p481
aVCMG
p482
aVHD
p483
aVCELG
p484
aVHON
p485
aVHUM
p486
aVGWW
p487
aVFFIV
p488
aVTMO
p489
aVUNH
p490
aVMNK
p491
aVAET
p492
aVSIG
p493
aVUHS
p494
aVRL
p495
aVVRTX
p496
aVPRGO
p497
asS'03112016'
p498
(lp499
VFB
p500
aVLMT
p501
aVAPD
p502
aVPEP
p503
aVGOOG
p504
asS'08212015'
p505
(lp506
VGOOGL
p507
asS'08172016'
p508
(lp509
sS'01132016'
p510
(lp511
VGOOG
p512
aVFDX
p513
aVMCD
p514
asS'01132017'
p515
(lp516
VNVDA
p517
aVCB
p518
aVPNC
p519
aVADP
p520
aVEOG
p521
aVMA
p522
asS'05202016'
p523
(lp524
VMCD
p525
aVMHK
p526
aVPEP
p527
aVFB
p528
aVVMC
p529
aVFISV
p530
aVGOOG
p531
aVMCK
p532
asS'05202015'
p533
(lp534
VPCLN
p535
aVAMZN
p536
aVPXD
p537
aVMNST
p538
aVGWW
p539
aVCXO
p540
aVHAR
p541
aVSIG
p542
aVRL
p543
aVAMG
p544
aVEFX
p545
aVFFIV
p546
aVPRGO
p547
aVROST
p548
aVLH
p549
aVMON
p550
aVEXPE
p551
aVROK
p552
aVBA
p553
aVTMO
p554
aVWAT
p555
aVHON
p556
aVBCR
p557
aVUNH
p558
aVUHS
p559
aVLLL
p560
aVCELG
p561
aVSWKS
p562
aVAYI
p563
aVHUM
p564
aVMNK
p565
asS'07092015'
p566
(lp567
sS'04012015'
p568
(lp569
VPCLN
p570
aVBIIB
p571
aVCMG
p572
aVAGN
p573
aVAMZN
p574
aVAVGO
p575
aVMNK
p576
aVBA
p577
aVPRGO
p578
aVHAR
p579
aVUHS
p580
aVSWKS
p581
aVICE
p582
aVAMP
p583
aVAAPL
p584
aVULTA
p585
aVHUM
p586
aVAET
p587
aVUNH
p588
aVROP
p589
aVCVS
p590
aVTMO
p591
aVWAT
p592
aVNKE
p593
aVHON
p594
aVMON
p595
aVTDG
p596
aVGWW
p597
aVFFIV
p598
aVAYI
p599
aVPXD
p600
aVXEC
p601
aVRL
p602
aVPVH
p603
aVCXO
p604
aVSIG
p605
asS'04012016'
p606
(lp607
VMHK
p608
aVPEP
p609
aVFB
p610
aVAPD
p611
aVALXN
p612
asS'11282016'
p613
(lp614
VPNC
p615
aVBXP
p616
asS'12092015'
p617
(lp618
VGOOG
p619
aVFB
p620
aVPEP
p621
aVMHK
p622
asS'12092016'
p623
(lp624
VPNC
p625
aVURI
p626
aVEOG
p627
aVBXP
p628
asS'10232015'
p629
(lp630
VGOOG
p631
asS'03042016'
p632
(lp633
VAPD
p634
aVLMT
p635
aVGOOG
p636
aVMHK
p637
asS'03042015'
p638
(lp639
VAMZN
p640
aVILMN
p641
aVCXO
p642
aVXEC
p643
aVWHR
p644
aVHAR
p645
aVBIIB
p646
aVDNB
p647
aVHSY
p648
aVMNK
p649
aVAMP
p650
aVAAPL
p651
aVBA
p652
aVROK
p653
aVROP
p654
aVCELG
p655
aVHON
p656
aVCMG
p657
aVZBH
p658
aVUNH
p659
aVHD
p660
aVEW
p661
aVHUM
p662
aVAET
p663
aVPVH
p664
aVPXD
p665
aVSIG
p666
aVGWW
p667
aVFFIV
p668
aVROST
p669
aVUHS
p670
aVPRGO
p671
aVMNST
p672
aVPCLN
p673
asS'05142015'
p674
(lp675
VPCLN
p676
aVPXD
p677
aVNFLX
p678
aVCXO
p679
aVAZO
p680
aVMNST
p681
aVHAR
p682
aVSIG
p683
aVRL
p684
aVPRGO
p685
aVGWW
p686
aVMCO
p687
aVDIS
p688
aVMPC
p689
aVCVS
p690
aVFFIV
p691
aVUNH
p692
aVHUM
p693
aVEW
p694
aVMON
p695
aVAMP
p696
aVBA
p697
aVLLL
p698
aVHON
p699
aVCELG
p700
aVROK
p701
aVCMG
p702
aVMNK
p703
asS'03162016'
p704
(lp705
VAPD
p706
aVLMT
p707
aVPEP
p708
aVGOOG
p709
asS'07012015'
p710
(lp711
sS'11082016'
p712
(lp713
sS'11092016'
p714
(lp715
sS'11092015'
p716
(lp717
VFB
p718
aVVMC
p719
asS'06132016'
p720
(lp721
VALXN
p722
aVVMC
p723
aVMHK
p724
aVMCK
p725
aVDHR
p726
aVFISV
p727
aVMKC
p728
aVPEP
p729
aVDLR
p730
aVWYNN
p731
asS'04062016'
p732
(lp733
VMHK
p734
aVFB
p735
aVAPD
p736
aVFISV
p737
aVPEP
p738
aVAMT
p739
asS'04062015'
p740
(lp741
VBIIB
p742
aVPCLN
p743
aVCMG
p744
aVAVGO
p745
aVMNK
p746
aVAMGN
p747
aVPRGO
p748
aVHUM
p749
aVANTM
p750
aVUHS
p751
aVHAR
p752
aVAMP
p753
aVDIS
p754
aVULTA
p755
aVUNH
p756
aVAET
p757
aVTMO
p758
aVROP
p759
aVCVS
p760
aVLLL
p761
aVFFIV
p762
aVGWW
p763
aVDNB
p764
aVHON
p765
aVGS
p766
aVAYI
p767
aVHSY
p768
aVTDG
p769
aVCVX
p770
aVMON
p771
aVPVH
p772
aVSIG
p773
aVPXD
p774
aVRL
p775
aVXEC
p776
aVISRG
p777
aVCXO
p778
aVAZO
p779
asS'11272015'
p780
(lp781
VGOOG
p782
aVFB
p783
aVVMC
p784
asS'08302016'
p785
(lp786
sS'08232016'
p787
(lp788
sS'09162015'
p789
(lp790
VALXN
p791
asS'04282015'
p792
(lp793
VCMG
p794
aVAZO
p795
aVPRGO
p796
aVMNK
p797
aVPXD
p798
aVAVGO
p799
aVBA
p800
aVPVH
p801
aVSPG
p802
aVSIG
p803
aVSTZ
p804
aVHUM
p805
aVWAT
p806
aVROST
p807
aVLLL
p808
aVAET
p809
aVRTN
p810
aVHON
p811
aVNKE
p812
aVRL
p813
aVCXO
p814
aVAMP
p815
aVCVS
p816
aVMCO
p817
aVUHS
p818
aVSLG
p819
aVKSU
p820
aVNSC
p821
aVHAR
p822
aVFFIV
p823
aVGWW
p824
aVPCLN
p825
asS'09162016'
p826
(lp827
sS'02082016'
p828
(lp829
VGOOG
p830
aVFB
p831
aVLMT
p832
asS'08022016'
p833
(lp834
VPSA
p835
aVMCK
p836
aVDLR
p837
aVAMT
p838
aVFISV
p839
aVPEP
p840
aVPM
p841
aVAPD
p842
aVCME
p843
aVCTAS
p844
aVFB
p845
asS'02182015'
p846
(lp847
VCMG
p848
aVREGN
p849
aVCELG
p850
aVUNH
p851
aVGWW
p852
aVWAT
p853
aVSIG
p854
aVPRGO
p855
aVPXD
p856
aVBA
p857
aVANTM
p858
aVTRV
p859
aVCXO
p860
aVHON
p861
aVHD
p862
aVABC
p863
aVHUM
p864
aVAVGO
p865
aVZBH
p866
aVDIS
p867
aVAMP
p868
aVXEC
p869
aVMNK
p870
aVROK
p871
aVHAR
p872
aVWDC
p873
aVIFF
p874
aVAAPL
p875
aVROP
p876
aVSPGI
p877
aVFFIV
p878
aVAMZN
p879
aVDNB
p880
aVPCLN
p881
asS'02182016'
p882
(lp883
VGOOG
p884
aVFB
p885
aVLMT
p886
asS'01192016'
p887
(lp888
VGOOG
p889
aVFDX
p890
aVCLX
p891
asS'01192017'
p892
(lp893
VNVDA
p894
aVADP
p895
aVEOG
p896
asS'11232015'
p897
(lp898
VGOOGL
p899
aVFB
p900
aVGOOG
p901
aVVMC
p902
asS'02092016'
p903
(lp904
VGOOG
p905
aVFB
p906
aVLMT
p907
asS'07162015'
p908
(lp909
VACN
p910
asS'05042015'
p911
(lp912
VCMG
p913
aVPRGO
p914
aVHUM
p915
aVHAR
p916
aVPXD
p917
aVMNK
p918
aVLLL
p919
aVBA
p920
aVNOC
p921
aVAMGN
p922
aVUNH
p923
aVTMO
p924
aVUHS
p925
aVAVGO
p926
aVRTN
p927
aVSIG
p928
aVCXO
p929
aVGS
p930
aVPVH
p931
aVAMP
p932
aVSTZ
p933
aVRL
p934
aVMNST
p935
aVHON
p936
aVSNA
p937
aVNSC
p938
aVWAT
p939
aVFFIV
p940
aVGWW
p941
aVPCLN
p942
asS'05042016'
p943
(lp944
VGOOGL
p945
aVGOOG
p946
aVMCK
p947
aVPEP
p948
aVNEE
p949
aVLMT
p950
aVFB
p951
asS'08182016'
p952
(lp953
sS'07172015'
p954
(lp955
sS'06102015'
p956
(lp957
VPRGO
p958
aVMNK
p959
aVSPG
p960
aVSWKS
p961
aVAYI
p962
aVEXPE
p963
aVGWW
p964
aVRTN
p965
aVCELG
p966
aVFFIV
p967
aVSNA
p968
aVUNH
p969
aVLLL
p970
aVSIG
p971
aVHON
p972
aVNKE
p973
aVROK
p974
aVUHS
p975
aVGPN
p976
aVSRCL
p977
aVUTX
p978
aVNOC
p979
aVBA
p980
aVAET
p981
aVTMO
p982
aVMNST
p983
aVICE
p984
aVSTZ
p985
aVAMP
p986
aVLH
p987
aVPXD
p988
aVCXO
p989
aVHUM
p990
asS'06102016'
p991
(lp992
VALXN
p993
aVVMC
p994
aVMCK
p995
aVMHK
p996
aVFISV
p997
aVIBM
p998
aVPEP
p999
aVDLR
p1000
aVWYNN
p1001
asS'08182015'
p1002
(lp1003
sS'01242017'
p1004
(lp1005
VEOG
p1006
aVBXP
p1007
asS'02252015'
p1008
(lp1009
VESS
p1010
aVAMZN
p1011
aVHAR
p1012
aVCXO
p1013
aVBIIB
p1014
aVAMP
p1015
aVUNP
p1016
aVBA
p1017
aVHON
p1018
aVSIG
p1019
aVMON
p1020
aVJNJ
p1021
aVEW
p1022
aVPXD
p1023
aVMNK
p1024
aVAET
p1025
aVROP
p1026
aVGILD
p1027
aVZBH
p1028
aVKSU
p1029
aVMNST
p1030
aVUNH
p1031
aVHD
p1032
aVCELG
p1033
aVAAPL
p1034
aVWDC
p1035
aVUHS
p1036
aVANTM
p1037
aVGWW
p1038
aVXEC
p1039
aVPRGO
p1040
aVDNB
p1041
aVICE
p1042
aVPVH
p1043
aVFFIV
p1044
aVHUM
p1045
aVREGN
p1046
aVPCLN
p1047
asS'02252016'
p1048
(lp1049
VFB
p1050
aVLMT
p1051
aVGOOG
p1052
asS'09072016'
p1053
(lp1054
sS'12132016'
p1055
(lp1056
VPNC
p1057
aVURI
p1058
aVBXP
p1059
asS'06242015'
p1060
(lp1061
sS'06242016'
p1062
(lp1063
VGOOG
p1064
aVMCK
p1065
aVWYNN
p1066
aVMHK
p1067
aVFB
p1068
aVFISV
p1069
aVIBM
p1070
aVPEP
p1071
aVDLR
p1072
aVMKC
p1073
asS'06072016'
p1074
(lp1075
VVMC
p1076
aVPEP
p1077
aVFISV
p1078
aVALXN
p1079
aVIBM
p1080
aVMHK
p1081
aVMCK
p1082
asS'06032015'
p1083
(lp1084
VCMG
p1085
aVGWW
p1086
aVPRGO
p1087
aVAYI
p1088
aVAMGN
p1089
aVSIG
p1090
aVFFIV
p1091
aVSNA
p1092
aVMNST
p1093
aVNKE
p1094
aVEFX
p1095
aVMCO
p1096
aVTDG
p1097
aVROK
p1098
aVSJM
p1099
aVHON
p1100
aVCELG
p1101
aVSPG
p1102
aVGPN
p1103
aVBA
p1104
aVUNH
p1105
aVTMO
p1106
aVUTX
p1107
aVLH
p1108
aVPXD
p1109
aVLLL
p1110
aVINTU
p1111
aVCXO
p1112
aVUHS
p1113
aVAET
p1114
aVMNK
p1115
aVSWKS
p1116
aVEW
p1117
aVPVH
p1118
aVHUM
p1119
asS'02042016'
p1120
(lp1121
VGOOG
p1122
asS'07202015'
p1123
(lp1124
VLYB
p1125
aVACN
p1126
aVTSO
p1127
asS'07202016'
p1128
(lp1129
VDLR
p1130
aVPSA
p1131
aVFISV
p1132
aVPEP
p1133
aVAMT
p1134
aVCME
p1135
aVMCK
p1136
aVFB
p1137
aVIBM
p1138
aVAPD
p1139
aVALXN
p1140
asS'05152015'
p1141
(lp1142
VPXD
p1143
aVCXO
p1144
aVMNST
p1145
aVHAR
p1146
aVSIG
p1147
aVGWW
p1148
aVAZO
p1149
aVPRGO
p1150
aVRL
p1151
aVLH
p1152
aVDIS
p1153
aVNFLX
p1154
aVPVH
p1155
aVMCO
p1156
aVMPC
p1157
aVFFIV
p1158
aVEXPE
p1159
aVMON
p1160
aVBA
p1161
aVAMP
p1162
aVUNH
p1163
aVLLL
p1164
aVHON
p1165
aVHUM
p1166
aVROK
p1167
aVCELG
p1168
aVMNK
p1169
asS'10042016'
p1170
(lp1171
sS'07192016'
p1172
(lp1173
VDLR
p1174
aVCHD
p1175
aVPSA
p1176
aVFISV
p1177
aVAMT
p1178
aVPEP
p1179
aVCME
p1180
aVFB
p1181
aVIBM
p1182
aVMCK
p1183
aVAPD
p1184
asS'08152016'
p1185
(lp1186
sS'06172016'
p1187
(lp1188
VMHK
p1189
aVFB
p1190
aVVMC
p1191
aVFISV
p1192
aVAPD
p1193
aVDLR
p1194
aVPEP
p1195
aVWYNN
p1196
asS'06172015'
p1197
(lp1198
sS'05222015'
p1199
(lp1200
VAMZN
p1201
aVMNST
p1202
aVGWW
p1203
aVPXD
p1204
aVHAR
p1205
aVFFIV
p1206
aVSIG
p1207
aVCXO
p1208
aVPRGO
p1209
aVMON
p1210
aVROK
p1211
aVBA
p1212
aVHON
p1213
aVWAT
p1214
aVAMP
p1215
aVAYI
p1216
aVTMO
p1217
aVUNH
p1218
aVCELG
p1219
aVLLL
p1220
aVUHS
p1221
aVEXPE
p1222
aVSWKS
p1223
aVMNK
p1224
aVHUM
p1225
asS'12312015'
p1226
(lp1227
VPEP
p1228
aVGOOG
p1229
aVRCL
p1230
asS'05282015'
p1231
(lp1232
VNFLX
p1233
aVAZO
p1234
aVGWW
p1235
aVPRGO
p1236
aVPXD
p1237
aVMNST
p1238
aVSIG
p1239
aVFFIV
p1240
aVAYI
p1241
aVHAR
p1242
aVSNA
p1243
aVNKE
p1244
aVGPN
p1245
aVBA
p1246
aVROK
p1247
aVCXO
p1248
aVRTN
p1249
aVDIS
p1250
aVJNJ
p1251
aVMON
p1252
aVUTX
p1253
aVPVH
p1254
aVSJM
p1255
aVAMP
p1256
aVTMO
p1257
aVTDG
p1258
aVLLL
p1259
aVCELG
p1260
aVAET
p1261
aVLH
p1262
aVEW
p1263
aVEXPE
p1264
aVHUM
p1265
aVMNK
p1266
aVSWKS
p1267
asS'07272015'
p1268
(lp1269
VACN
p1270
asS'08192015'
p1271
(lp1272
sS'06152015'
p1273
(lp1274
sS'06042015'
p1275
(lp1276
VGWW
p1277
aVCMG
p1278
aVPRGO
p1279
aVAYI
p1280
aVMON
p1281
aVFFIV
p1282
aVSIG
p1283
aVRTN
p1284
aVSNA
p1285
aVAMGN
p1286
aVEXPE
p1287
aVNKE
p1288
aVCELG
p1289
aVMCO
p1290
aVROK
p1291
aVMNST
p1292
aVORLY
p1293
aVUNH
p1294
aVHON
p1295
aVSPG
p1296
aVGPN
p1297
aVBA
p1298
aVMNK
p1299
aVUTX
p1300
aVTMO
p1301
aVUHS
p1302
aVLLL
p1303
aVCXO
p1304
aVPXD
p1305
aVAET
p1306
aVSWKS
p1307
aVLH
p1308
aVHUM
p1309
asS'10202015'
p1310
(lp1311
VGOOG
p1312
asS'10202016'
p1313
(lp1314
sS'06232016'
p1315
(lp1316
VGOOG
p1317
aVMCK
p1318
aVFB
p1319
aVFISV
p1320
aVWYNN
p1321
aVMHK
p1322
aVDLR
p1323
aVPEP
p1324
aVMKC
p1325
asS'11182015'
p1326
(lp1327
VGOOG
p1328
aVFB
p1329
aVVMC
p1330
asS'11182016'
p1331
(lp1332
VPNC
p1333
asS'06232015'
p1334
(lp1335
sS'12192016'
p1336
(lp1337
VURI
p1338
aVPNC
p1339
aVEOG
p1340
aVBXP
p1341
asS'06152016'
p1342
(lp1343
VALXN
p1344
aVMCK
p1345
aVMHK
p1346
aVVMC
p1347
aVFB
p1348
aVFISV
p1349
aVDLR
p1350
aVPEP
p1351
aVWYNN
p1352
asS'10162015'
p1353
(lp1354
sS'04262016'
p1355
(lp1356
VGOOGL
p1357
aVGOOG
p1358
aVFB
p1359
aVPEP
p1360
aVSYK
p1361
aVLMT
p1362
aVALXN
p1363
asS'08272015'
p1364
(lp1365
sS'05252016'
p1366
(lp1367
VMCD
p1368
aVPEP
p1369
aVFB
p1370
aVMHK
p1371
aVFISV
p1372
aVVMC
p1373
aVMCK
p1374
aVGOOG
p1375
asS'12242015'
p1376
(lp1377
VGOOG
p1378
asS'04292016'
p1379
(lp1380
VGOOGL
p1381
aVGOOG
p1382
aVALXN
p1383
aVIBM
p1384
aVMCK
p1385
aVMCD
p1386
aVSYK
p1387
aVPEP
p1388
aVVMC
p1389
aVNEE
p1390
aVFB
p1391
aVLMT
p1392
asS'05172016'
p1393
(lp1394
VMHK
p1395
aVMCK
p1396
aVMCD
p1397
aVPEP
p1398
aVVMC
p1399
aVFISV
p1400
aVGOOG
p1401
asS'04292015'
p1402
(lp1403
VCMG
p1404
aVAZO
p1405
aVPRGO
p1406
aVMNK
p1407
aVHUM
p1408
aVPXD
p1409
aVBA
p1410
aVPVH
p1411
aVSIG
p1412
aVSTZ
p1413
aVRTN
p1414
aVRL
p1415
aVAET
p1416
aVUHS
p1417
aVGS
p1418
aVLLL
p1419
aVHON
p1420
aVWAT
p1421
aVNKE
p1422
aVCVS
p1423
aVMCO
p1424
aVAMP
p1425
aVMNST
p1426
aVCXO
p1427
aVHAR
p1428
aVKSU
p1429
aVNSC
p1430
aVFFIV
p1431
aVGWW
p1432
aVPCLN
p1433
asS'11252015'
p1434
(lp1435
VGOOGL
p1436
aVGOOG
p1437
aVFB
p1438
aVVMC
p1439
asS'11252016'
p1440
(lp1441
sS'04052016'
p1442
(lp1443
VMHK
p1444
aVFB
p1445
aVAPD
p1446
aVFISV
p1447
aVPEP
p1448
aVAMT
p1449
asS'03062015'
p1450
(lp1451
VAMZN
p1452
aVWHR
p1453
aVHAR
p1454
aVDNB
p1455
aVCXO
p1456
aVAAPL
p1457
aVROK
p1458
aVXEC
p1459
aVILMN
p1460
aVLLL
p1461
aVHSY
p1462
aVBA
p1463
aVROP
p1464
aVAMP
p1465
aVZBH
p1466
aVCELG
p1467
aVHON
p1468
aVCMG
p1469
aVBIIB
p1470
aVHUM
p1471
aVABC
p1472
aVUNH
p1473
aVHD
p1474
aVPVH
p1475
aVMNK
p1476
aVEW
p1477
aVPXD
p1478
aVAET
p1479
aVGWW
p1480
aVSIG
p1481
aVFFIV
p1482
aVROST
p1483
aVUHS
p1484
aVPRGO
p1485
aVMNST
p1486
aVPCLN
p1487
asS'03082016'
p1488
(lp1489
VAPD
p1490
aVGOOG
p1491
aVALXN
p1492
aVMHK
p1493
asS'07022015'
p1494
(lp1495
sS'09142015'
p1496
(lp1497
VALXN
p1498
asS'11042016'
p1499
(lp1500
sS'11042015'
p1501
(lp1502
VFB
p1503
aVGOOG
p1504
asS'07152015'
p1505
(lp1506
VACN
p1507
asS'07152016'
p1508
(lp1509
VDLR
p1510
aVMKC
p1511
aVTAP
p1512
aVFISV
p1513
aVAMT
p1514
aVFB
p1515
aVIBM
p1516
aVAPD
p1517
aVMCK
p1518
asS'08142015'
p1519
(lp1520
VBF-B
p1521
aVACN
p1522
aVTSO
p1523
asS'01262016'
p1524
(lp1525
VGOOG
p1526
aVFDX
p1527
aVMCD
p1528
asS'01262017'
p1529
(lp1530
VADP
p1531
aVEOG
p1532
aVNVDA
p1533
aVBXP
p1534
asS'09062016'
p1535
(lp1536
VECL
p1537
asS'03292016'
p1538
(lp1539
VPEP
p1540
aVMHK
p1541
aVGOOG
p1542
asS'02112016'
p1543
(lp1544
VGOOG
p1545
aVMHK
p1546
aVLMT
p1547
asS'01042016'
p1548
(lp1549
VGOOG
p1550
aVMCD
p1551
aVPEP
p1552
aVRCL
p1553
asS'01042017'
p1554
(lp1555
VNVDA
p1556
aVEOG
p1557
aVADP
p1558
aVBXP
p1559
asS'12162015'
p1560
(lp1561
VGOOG
p1562
aVMCD
p1563
asS'12162016'
p1564
(lp1565
VURI
p1566
aVPNC
p1567
aVBXP
p1568
aVEOG
p1569
asS'07272016'
p1570
(lp1571
VDLR
p1572
aVPSA
p1573
aVCHD
p1574
aVNEE
p1575
aVMCK
p1576
aVFISV
p1577
aVAMT
p1578
aVCME
p1579
aVFB
p1580
aVCTAS
p1581
asS'01052017'
p1582
(lp1583
VNVDA
p1584
aVPNC
p1585
aVEOG
p1586
aVADP
p1587
asS'01052016'
p1588
(lp1589
VGOOG
p1590
aVFDX
p1591
aVIBM
p1592
aVRCL
p1593
asS'03172016'
p1594
(lp1595
VLMT
p1596
aVPEP
p1597
aVFB
p1598
aVGOOG
p1599
asS'03172015'
p1600
(lp1601
VPCLN
p1602
aVAMZN
p1603
aVHAR
p1604
aVCXO
p1605
aVXEC
p1606
aVDNB
p1607
aVBA
p1608
aVZBH
p1609
aVMON
p1610
aVFFIV
p1611
aVPXD
p1612
aVLLL
p1613
aVAYI
p1614
aVROP
p1615
aVHON
p1616
aVCMI
p1617
aVGWW
p1618
aVAMP
p1619
aVCELG
p1620
aVTMO
p1621
aVUNH
p1622
aVUHS
p1623
aVAET
p1624
aVRL
p1625
aVMNK
p1626
aVVRTX
p1627
aVSIG
p1628
aVHUM
p1629
aVEW
p1630
aVPRGO
p1631
aVCMG
p1632
asS'05092016'
p1633
(lp1634
VGOOGL
p1635
aVGOOG
p1636
aVALXN
p1637
aVMCK
p1638
aVMCD
p1639
aVPEP
p1640
aVFB
p1641
asS'05292015'
p1642
(lp1643
VGWW
p1644
aVPRGO
p1645
aVSIG
p1646
aVAYI
p1647
aVPXD
p1648
aVMNST
p1649
aVFFIV
p1650
aVBA
p1651
aVROK
p1652
aVRTN
p1653
aVMON
p1654
aVGPN
p1655
aVAMG
p1656
aVEFX
p1657
aVUTX
p1658
aVCXO
p1659
aVPVH
p1660
aVSJM
p1661
aVCELG
p1662
aVLLL
p1663
aVLH
p1664
aVEXPE
p1665
aVAET
p1666
aVEW
p1667
aVUHS
p1668
aVMNK
p1669
aVSWKS
p1670
aVHUM
p1671
asS'07122016'
p1672
(lp1673
VDLR
p1674
aVFISV
p1675
aVFB
p1676
aVIBM
p1677
aVAPD
p1678
aVVMC
p1679
aVMCK
p1680
asS'06202016'
p1681
(lp1682
VFB
p1683
aVMHK
p1684
aVVMC
p1685
aVFISV
p1686
aVAPD
p1687
aVDLR
p1688
aVWYNN
p1689
aVMKC
p1690
aVPEP
p1691
aVNEE
p1692
asS'03282016'
p1693
(lp1694
VPEP
p1695
aVMHK
p1696
aVGOOG
p1697
asS'01282016'
p1698
(lp1699
VGOOG
p1700
asS'04212016'
p1701
(lp1702
VNEE
p1703
aVFISV
p1704
aVPEP
p1705
aVMCD
p1706
aVLMT
p1707
aVSYK
p1708
aVFB
p1709
aVGOOG
p1710
aVALXN
p1711
asS'04092015'
p1712
(lp1713
VBIIB
p1714
aVCMG
p1715
aVAVGO
p1716
aVHUM
p1717
aVMNK
p1718
aVAMP
p1719
aVAMGN
p1720
aVULTA
p1721
aVROP
p1722
aVAET
p1723
aVUNH
p1724
aVDIS
p1725
aVAYI
p1726
aVSRE
p1727
aVVRTX
p1728
aVORLY
p1729
aVAAPL
p1730
aVJNJ
p1731
aVLLL
p1732
aVWAT
p1733
aVHON
p1734
aVHSY
p1735
aVMCO
p1736
aVGWW
p1737
aVFFIV
p1738
aVTDG
p1739
aVGS
p1740
aVSIG
p1741
aVMON
p1742
aVAZO
p1743
aVPXD
p1744
aVPVH
p1745
aVCXO
p1746
aVISRG
p1747
aVPCLN
p1748
aVPRGO
p1749
asS'08162016'
p1750
(lp1751
sS'09232015'
p1752
(lp1753
VALXN
p1754
aVGOOG
p1755
aVGOOGL
p1756
asS'09232016'
p1757
(lp1758
sS'11112016'
p1759
(lp1760
VPNC
p1761
asS'07242015'
p1762
(lp1763
VACN
p1764
aVBRK-B
p1765
asS'02162016'
p1766
(lp1767
VGOOG
p1768
aVFB
p1769
aVLMT
p1770
asS'10152015'
p1771
(lp1772
sS'06142016'
p1773
(lp1774
VALXN
p1775
aVMHK
p1776
aVVMC
p1777
aVFB
p1778
aVMCK
p1779
aVFISV
p1780
aVPEP
p1781
aVDLR
p1782
aVWYNN
p1783
asS'10082015'
p1784
(lp1785
VKMB
p1786
asS'06282016'
p1787
(lp1788
VGOOG
p1789
aVMCK
p1790
aVFB
p1791
aVFISV
p1792
aVPEP
p1793
aVDLR
p1794
aVMKC
p1795
aVPSA
p1796
asS'11292016'
p1797
(lp1798
VPNC
p1799
aVBXP
p1800
asS'05012015'
p1801
(lp1802
VCMG
p1803
aVAZO
p1804
aVPRGO
p1805
aVHUM
p1806
aVHAR
p1807
aVMNK
p1808
aVPXD
p1809
aVBA
p1810
aVUNH
p1811
aVAMGN
p1812
aVLLL
p1813
aVUHS
p1814
aVSIG
p1815
aVRTN
p1816
aVPVH
p1817
aVCXO
p1818
aVAMP
p1819
aVSTZ
p1820
aVORLY
p1821
aVRL
p1822
aVCVS
p1823
aVHON
p1824
aVNKE
p1825
aVJNJ
p1826
aVESS
p1827
aVWAT
p1828
aVMPC
p1829
aVFFIV
p1830
aVGWW
p1831
aVPCLN
p1832
asS'05132015'
p1833
(lp1834
VPCLN
p1835
aVPXD
p1836
aVAZO
p1837
aVNFLX
p1838
aVMNST
p1839
aVCXO
p1840
aVXEC
p1841
aVHAR
p1842
aVPRGO
p1843
aVRL
p1844
aVSIG
p1845
aVGWW
p1846
aVDIS
p1847
aVHUM
p1848
aVUHS
p1849
aVUNH
p1850
aVAET
p1851
aVBA
p1852
aVAMP
p1853
aVLLL
p1854
aVMON
p1855
aVFFIV
p1856
aVHON
p1857
aVEXPE
p1858
aVCELG
p1859
aVCMG
p1860
aVROK
p1861
aVMNK
p1862
asS'05132016'
p1863
(lp1864
VMCK
p1865
aVAPD
p1866
aVMHK
p1867
aVPEP
p1868
aVNEE
p1869
aVFB
p1870
aVFISV
p1871
aVGOOG
p1872
asS'07062015'
p1873
(lp1874
sS'07062016'
p1875
(lp1876
VAPD
p1877
aVCHD
p1878
aVFB
p1879
aVPEP
p1880
aVFISV
p1881
aVVMC
p1882
aVNEE
p1883
aVDLR
p1884
aVMKC
p1885
aVMCK
p1886
aVPSA
p1887
asS'05262015'
p1888
(lp1889
VAMZN
p1890
aVMNST
p1891
aVGWW
p1892
aVPXD
p1893
aVNFLX
p1894
aVHAR
p1895
aVFFIV
p1896
aVESS
p1897
aVSIG
p1898
aVEFX
p1899
aVSNA
p1900
aVPRGO
p1901
aVORLY
p1902
aVCXO
p1903
aVMON
p1904
aVROK
p1905
aVBA
p1906
aVUTX
p1907
aVBCR
p1908
aVHON
p1909
aVAYI
p1910
aVAMP
p1911
aVTDG
p1912
aVUNH
p1913
aVCELG
p1914
aVLLL
p1915
aVSWKS
p1916
aVEXPE
p1917
aVMNK
p1918
aVHUM
p1919
asS'05262016'
p1920
(lp1921
VPEP
p1922
aVFISV
p1923
aVVMC
p1924
aVMCK
p1925
aVGOOG
p1926
asS'03032015'
p1927
(lp1928
VAMZN
p1929
aVCXO
p1930
aVILMN
p1931
aVXEC
p1932
aVHSY
p1933
aVBIIB
p1934
aVHAR
p1935
aVBA
p1936
aVAMP
p1937
aVMNK
p1938
aVDNB
p1939
aVAAPL
p1940
aVROK
p1941
aVROP
p1942
aVPXD
p1943
aVCELG
p1944
aVHON
p1945
aVCMG
p1946
aVWDC
p1947
aVZBH
p1948
aVUNH
p1949
aVGILD
p1950
aVHD
p1951
aVPVH
p1952
aVSIG
p1953
aVHUM
p1954
aVGWW
p1955
aVFFIV
p1956
aVUHS
p1957
aVROST
p1958
aVPRGO
p1959
aVMNST
p1960
aVPCLN
p1961
asS'03032016'
p1962
(lp1963
VAPD
p1964
aVLMT
p1965
aVGOOG
p1966
asS'11112015'
p1967
(lp1968
VFB
p1969
asS'04212015'
p1970
(lp1971
VAZO
p1972
aVBIIB
p1973
aVSIG
p1974
aVMNK
p1975
aVHUM
p1976
aVPVH
p1977
aVSTZ
p1978
aVEW
p1979
aVHON
p1980
aVAET
p1981
aVWAT
p1982
aVCVS
p1983
aVMCO
p1984
aVRTN
p1985
aVHSY
p1986
aVLLL
p1987
aVUNH
p1988
aVSNA
p1989
aVBA
p1990
aVUHS
p1991
aVPXD
p1992
aVRL
p1993
aVGS
p1994
aVAMP
p1995
aVCXO
p1996
aVFFIV
p1997
aVPRGO
p1998
aVPCLN
p1999
aVGWW
p2000
aVCMG
p2001
asS'12042015'
p2002
(lp2003
VGOOG
p2004
aVFB
p2005
asS'09032015'
p2006
(lp2007
VALXN
p2008
asS'09022016'
p2009
(lp2010
sS'09022015'
p2011
(lp2012
sS'09092015'
p2013
(lp2014
VALXN
p2015
asS'09092016'
p2016
(lp2017
sS'05112016'
p2018
(lp2019
VALXN
p2020
aVMCK
p2021
aVPEP
p2022
aVFB
p2023
aVFISV
p2024
aVGOOG
p2025
aVPSA
p2026
asS'04222015'
p2027
(lp2028
VAZO
p2029
aVBIIB
p2030
aVSPG
p2031
aVMNK
p2032
aVSIG
p2033
aVPVH
p2034
aVMTB
p2035
aVHUM
p2036
aVSTZ
p2037
aVEW
p2038
aVPXD
p2039
aVHON
p2040
aVAET
p2041
aVUNH
p2042
aVWAT
p2043
aVCVS
p2044
aVLLL
p2045
aVMCO
p2046
aVTDG
p2047
aVRTN
p2048
aVUHS
p2049
aVAAPL
p2050
aVRL
p2051
aVCMG
p2052
aVCXO
p2053
aVPRGO
p2054
aVHAR
p2055
aVFFIV
p2056
aVGWW
p2057
aVWDC
p2058
aVPCLN
p2059
asS'12052016'
p2060
(lp2061
VBXP
p2062
aVURI
p2063
aVEOG
p2064
asS'06162016'
p2065
(lp2066
VMHK
p2067
aVVMC
p2068
aVFB
p2069
aVFISV
p2070
aVDLR
p2071
aVPEP
p2072
aVWYNN
p2073
asS'06162015'
p2074
(lp2075
sS'04132015'
p2076
(lp2077
VBIIB
p2078
aVAVGO
p2079
aVHUM
p2080
aVAMP
p2081
aVULTA
p2082
aVAYI
p2083
aVAET
p2084
aVTMO
p2085
aVUHS
p2086
aVUNH
p2087
aVNKE
p2088
aVCVS
p2089
aVSIG
p2090
aVAMGN
p2091
aVHSY
p2092
aVHON
p2093
aVWAT
p2094
aVLLL
p2095
aVMCO
p2096
aVBA
p2097
aVHAR
p2098
aVGWW
p2099
aVSTZ
p2100
aVSHW
p2101
aVAZO
p2102
aVPXD
p2103
aVPVH
p2104
aVCXO
p2105
aVMON
p2106
aVRL
p2107
aVCMG
p2108
aVPCLN
p2109
aVISRG
p2110
aVPRGO
p2111
asS'04132016'
p2112
(lp2113
VFB
p2114
aVGOOG
p2115
aVGOOGL
p2116
aVAPD
p2117
aVMCD
p2118
aVPEP
p2119
aVLMT
p2120
asS'08062015'
p2121
(lp2122
VBRK-B
p2123
aVACN
p2124
aVBF-B
p2125
asS'09302016'
p2126
(lp2127
sS'06082016'
p2128
(lp2129
VALXN
p2130
aVVMC
p2131
aVPEP
p2132
aVFISV
p2133
aVIBM
p2134
aVMCK
p2135
aVMHK
p2136
aVGOOG
p2137
asS'06082015'
p2138
(lp2139
VPRGO
p2140
aVGWW
p2141
aVAYI
p2142
aVMON
p2143
aVFFIV
p2144
aVCMG
p2145
aVMNK
p2146
aVSNA
p2147
aVCELG
p2148
aVRTN
p2149
aVSIG
p2150
aVSWKS
p2151
aVUNH
p2152
aVUHS
p2153
aVNKE
p2154
aVHON
p2155
aVROK
p2156
aVGPN
p2157
aVBA
p2158
aVLLL
p2159
aVMNST
p2160
aVUTX
p2161
aVTMO
p2162
aVNOC
p2163
aVAET
p2164
aVSRCL
p2165
aVPX
p2166
aVCXO
p2167
aVPXD
p2168
aVLH
p2169
aVHUM
p2170
asS'10282015'
p2171
(lp2172
VMHK
p2173
aVFB
p2174
asS'10282016'
p2175
(lp2176
sS'05312016'
p2177
(lp2178
VPEP
p2179
aVFB
p2180
aVVMC
p2181
aVFISV
p2182
aVMHK
p2183
aVMCK
p2184
aVGOOG
p2185
asS'01232017'
p2186
(lp2187
VADP
p2188
aVEOG
p2189
aVBXP
p2190
asS'09112015'
p2191
(lp2192
VGOOG
p2193
aVALXN
p2194
asS'12282016'
p2195
(lp2196
VURI
p2197
aVEOG
p2198
aVPNC
p2199
aVNVDA
p2200
asS'07302015'
p2201
(lp2202
VACN
p2203
asS'12282015'
p2204
(lp2205
VGOOG
p2206
aVPEP
p2207
asS'02202015'
p2208
(lp2209
VCMG
p2210
aVUNH
p2211
aVMNST
p2212
aVCELG
p2213
aVSIG
p2214
aVUNP
p2215
aVHAR
p2216
aVHD
p2217
aVGWW
p2218
aVANTM
p2219
aVHON
p2220
aVAMP
p2221
aVPRGO
p2222
aVHUM
p2223
aVEW
p2224
aVUHS
p2225
aVPXD
p2226
aVDIS
p2227
aVAVGO
p2228
aVMON
p2229
aVZBH
p2230
aVROK
p2231
aVPVH
p2232
aVMNK
p2233
aVVRTX
p2234
aVAMZN
p2235
aVROP
p2236
aVXEC
p2237
aVSPGI
p2238
aVWDC
p2239
aVISRG
p2240
aVDNB
p2241
aVREGN
p2242
aVPCLN
p2243
asS'07282015'
p2244
(lp2245
VACN
p2246
asS'07282016'
p2247
(lp2248
VPSA
p2249
aVMCK
p2250
aVDLR
p2251
aVAMT
p2252
aVFISV
p2253
aVCME
p2254
aVFB
p2255
aVCTAS
p2256
aVWYNN
p2257
asS'11162016'
p2258
(lp2259
VBXP
p2260
aVPNC
p2261
asS'11162015'
p2262
(lp2263
VGOOG
p2264
aVFB
p2265
asS'08222016'
p2266
(lp2267
sS'08122015'
p2268
(lp2269
VACN
p2270
aVBF-B
p2271
aVUPS
p2272
aVTSO
p2273
asS'08122016'
p2274
(lp2275
sS'01082016'
p2276
(lp2277
VGOOG
p2278
aVFDX
p2279
aVIBM
p2280
asS'12302015'
p2281
(lp2282
VGOOG
p2283
aVRCL
p2284
asS'09292016'
p2285
(lp2286
sS'09292015'
p2287
(lp2288
VGOOG
p2289
aVKMB
p2290
asS'04142016'
p2291
(lp2292
VFB
p2293
aVFISV
p2294
aVAPD
p2295
aVGOOG
p2296
aVMCD
p2297
aVPEP
p2298
aVLMT
p2299
asS'10172016'
p2300
(lp2301
sS'09132016'
p2302
(lp2303
sS'04142015'
p2304
(lp2305
VBIIB
p2306
aVAVGO
p2307
aVHUM
p2308
aVSPG
p2309
aVMNK
p2310
aVAYI
p2311
aVULTA
p2312
aVMTB
p2313
aVAMP
p2314
aVSIG
p2315
aVEW
p2316
aVMPC
p2317
aVAET
p2318
aVTMO
p2319
aVUHS
p2320
aVUNH
p2321
aVDIS
p2322
aVLLL
p2323
aVWAT
p2324
aVHON
p2325
aVMCO
p2326
aVAZO
p2327
aVHSY
p2328
aVSTZ
p2329
aVHAR
p2330
aVBA
p2331
aVGWW
p2332
aVSHW
p2333
aVPVH
p2334
aVPXD
p2335
aVCXO
p2336
aVMON
p2337
aVRL
p2338
aVCMG
p2339
aVPCLN
p2340
aVPRGO
p2341
asS'09212016'
p2342
(lp2343
sS'08092016'
p2344
(lp2345
sS'09192016'
p2346
(lp2347
sS'07112016'
p2348
(lp2349
VCHD
p2350
aVDLR
p2351
aVFISV
p2352
aVAPD
p2353
aVFB
p2354
aVVMC
p2355
aVMCK
p2356
asS'10032016'
p2357
(lp2358
sS'06272016'
p2359
(lp2360
VGOOG
p2361
aVMHK
p2362
aVWYNN
p2363
aVFB
p2364
aVFISV
p2365
aVDHR
p2366
aVVMC
p2367
aVPEP
p2368
aVDLR
p2369
aVMKC
p2370
asS'08072015'
p2371
(lp2372
VACN
p2373
asS'03252015'
p2374
(lp2375
VPCLN
p2376
aVNFLX
p2377
aVBA
p2378
aVHAR
p2379
aVAVGO
p2380
aVDNB
p2381
aVMON
p2382
aVTDG
p2383
aVICE
p2384
aVCXO
p2385
aVGS
p2386
aVPRGO
p2387
aVLLL
p2388
aVCELG
p2389
aVUNH
p2390
aVMNK
p2391
aVROP
p2392
aVHON
p2393
aVWAT
p2394
aVFFIV
p2395
aVSWKS
p2396
aVSRCL
p2397
aVXEC
p2398
aVMPC
p2399
aVGWW
p2400
aVUHS
p2401
aVNKE
p2402
aVHSY
p2403
aVAET
p2404
aVEW
p2405
aVANTM
p2406
aVPXD
p2407
aVTMO
p2408
aVSIG
p2409
aVPVH
p2410
aVHUM
p2411
aVRL
p2412
aVCMG
p2413
aVBIIB
p2414
asS'05062016'
p2415
(lp2416
VGOOG
p2417
aVMCK
p2418
aVSYK
p2419
aVPEP
p2420
aVPSA
p2421
aVFB
p2422
aVLMT
p2423
asS'05062015'
p2424
(lp2425
VCMG
p2426
aVHAR
p2427
aVHUM
p2428
aVPXD
p2429
aVPRGO
p2430
aVNFLX
p2431
aVLLL
p2432
aVBA
p2433
aVCXO
p2434
aVUHS
p2435
aVORLY
p2436
aVUNH
p2437
aVAVGO
p2438
aVSIG
p2439
aVTDG
p2440
aVMNK
p2441
aVTMO
p2442
aVRTN
p2443
aVAMP
p2444
aVAET
p2445
aVRL
p2446
aVMNST
p2447
aVMON
p2448
aVPVH
p2449
aVMPC
p2450
aVGWW
p2451
aVFFIV
p2452
aVWAT
p2453
aVSWK
p2454
aVROK
p2455
aVPCLN
p2456
asS'01062016'
p2457
(lp2458
VGOOG
p2459
aVFDX
p2460
aVIBM
p2461
asS'11212016'
p2462
(lp2463
VPNC
p2464
asS'12232015'
p2465
(lp2466
VGOOG
p2467
aVIBM
p2468
asS'12232016'
p2469
(lp2470
VURI
p2471
aVEOG
p2472
aVPNC
p2473
aVNVDA
p2474
asS'01032017'
p2475
(lp2476
VURI
p2477
aVEOG
p2478
aVNVDA
p2479
aVADP
p2480
asS'11202015'
p2481
(lp2482
VGOOG
p2483
aVFB
p2484
aVVMC
p2485
asS'07132016'
p2486
(lp2487
VDLR
p2488
aVMKC
p2489
aVTAP
p2490
aVFISV
p2491
aVFB
p2492
aVPEP
p2493
aVVMC
p2494
aVMHK
p2495
aVMCK
p2496
asS'07132015'
p2497
(lp2498
sS'09252015'
p2499
(lp2500
sS'11152016'
p2501
(lp2502
VBXP
p2503
aVPNC
p2504
asS'12082015'
p2505
(lp2506
VGOOG
p2507
aVFB
p2508
asS'12082016'
p2509
(lp2510
VPNC
p2511
aVURI
p2512
aVEOG
p2513
aVBXP
p2514
asS'03072016'
p2515
(lp2516
VAPD
p2517
aVLMT
p2518
aVFDX
p2519
aVGOOG
p2520
asS'06252015'
p2521
(lp2522
sS'03222016'
p2523
(lp2524
VALXN
p2525
aVPEP
p2526
aVGOOG
p2527
asS'08052015'
p2528
(lp2529
VBRK-B
p2530
aVACN
p2531
asS'08052016'
p2532
(lp2533
sS'09302015'
p2534
(lp2535
VGOOG
p2536
aVKMB
p2537
asS'04222016'
p2538
(lp2539
VGOOG
p2540
aVMCD
p2541
aVPEP
p2542
aVFB
p2543
aVLMT
p2544
aVALXN
p2545
asS'04172015'
p2546
(lp2547
VAZO
p2548
aVBIIB
p2549
aVMNK
p2550
aVSIG
p2551
aVHUM
p2552
aVAVGO
p2553
aVORLY
p2554
aVSHW
p2555
aVEW
p2556
aVAET
p2557
aVCVS
p2558
aVMCO
p2559
aVLLL
p2560
aVRTN
p2561
aVPVH
p2562
aVWAT
p2563
aVTDG
p2564
aVUNH
p2565
aVUHS
p2566
aVROK
p2567
aVHSY
p2568
aVHAR
p2569
aVAMP
p2570
aVRL
p2571
aVMON
p2572
aVKSU
p2573
aVFFIV
p2574
aVGS
p2575
aVCXO
p2576
aVPXD
p2577
aVGWW
p2578
aVPCLN
p2579
aVPRGO
p2580
aVCMG
p2581
asS'09142016'
p2582
(lp2583
VECL
p2584
asS'02012016'
p2585
(lp2586
VGOOG
p2587
asS'02012017'
p2588
(lp2589
VADP
p2590
aVEOG
p2591
aVMA
p2592
aVPNC
p2593
aVNVDA
p2594
asS'03152016'
p2595
(lp2596
VALXN
p2597
aVAPD
p2598
aVLMT
p2599
aVPEP
p2600
aVMHK
p2601
aVGOOG
p2602
asS'03182015'
p2603
(lp2604
VPCLN
p2605
aVHAR
p2606
aVCXO
p2607
aVDNB
p2608
aVBA
p2609
aVXEC
p2610
aVMON
p2611
aVFFIV
p2612
aVZBH
p2613
aVAVGO
p2614
aVLLL
p2615
aVCMI
p2616
aVPXD
p2617
aVHON
p2618
aVHSY
p2619
aVJNJ
p2620
aVAYI
p2621
aVCELG
p2622
aVGWW
p2623
aVUHS
p2624
aVUNH
p2625
aVAET
p2626
aVVRTX
p2627
aVRL
p2628
aVSIG
p2629
aVMNK
p2630
aVHUM
p2631
aVPRGO
p2632
aVCMG
p2633
asS'03182016'
p2634
(lp2635
VPEP
p2636
aVLMT
p2637
aVAPD
p2638
asS'05162016'
p2639
(lp2640
VMCK
p2641
aVMHK
p2642
aVMCD
p2643
aVPEP
p2644
aVFB
p2645
aVFISV
p2646
aVGOOG
p2647
asS'09172015'
p2648
(lp2649
VALXN
p2650
aVGOOG
p2651
asS'10132015'
p2652
(lp2653
sS'05192016'
p2654
(lp2655
VMHK
p2656
aVMCD
p2657
aVPEP
p2658
aVAMT
p2659
aVFB
p2660
aVVMC
p2661
aVFISV
p2662
aVGOOG
p2663
aVMCK
p2664
asS'05192015'
p2665
(lp2666
VPCLN
p2667
aVPXD
p2668
aVMNST
p2669
aVCXO
p2670
aVHAR
p2671
aVGWW
p2672
aVSIG
p2673
aVRL
p2674
aVLH
p2675
aVPVH
p2676
aVPRGO
p2677
aVFFIV
p2678
aVMON
p2679
aVTMO
p2680
aVBA
p2681
aVBCR
p2682
aVROK
p2683
aVHON
p2684
aVUNH
p2685
aVLLL
p2686
aVUHS
p2687
aVCELG
p2688
aVHUM
p2689
aVNFLX
p2690
aVMNK
p2691
aVCMG
p2692
asS'10252016'
p2693
(lp2694
sS'07072015'
p2695
(lp2696
sS'03102016'
p2697
(lp2698
VFB
p2699
aVAPD
p2700
aVLMT
p2701
aVGOOG
p2702
asS'11062015'
p2703
(lp2704
VLB
p2705
aVFB
p2706
asS'08252015'
p2707
(lp2708
sS'06212016'
p2709
(lp2710
VGOOG
p2711
aVFB
p2712
aVVMC
p2713
aVFISV
p2714
aVAPD
p2715
aVWYNN
p2716
aVDLR
p2717
aVNEE
p2718
aVMKC
p2719
aVPEP
p2720
asS'01252016'
p2721
(lp2722
VGOOG
p2723
aVFDX
p2724
aVMCD
p2725
asS'02122016'
p2726
(lp2727
VGOOG
p2728
aVFB
p2729
aVMHK
p2730
aVLMT
p2731
asS'12032015'
p2732
(lp2733
VGOOG
p2734
aVVMC
p2735
aVFB
p2736
asS'09242015'
p2737
(lp2738
VMHK
p2739
aVALXN
p2740
asS'06092016'
p2741
(lp2742
VALXN
p2743
aVFISV
p2744
aVPEP
p2745
aVMCK
p2746
aVIBM
p2747
aVMHK
p2748
aVDLR
p2749
aVWYNN
p2750
aVGOOG
p2751
asS'06092015'
p2752
(lp2753
VPRGO
p2754
aVMNK
p2755
aVEXPE
p2756
aVGWW
p2757
aVSWKS
p2758
aVAYI
p2759
aVCMG
p2760
aVFFIV
p2761
aVSNA
p2762
aVCELG
p2763
aVRTN
p2764
aVUHS
p2765
aVUNH
p2766
aVSIG
p2767
aVNKE
p2768
aVLLL
p2769
aVHON
p2770
aVROK
p2771
aVICE
p2772
aVGPN
p2773
aVBA
p2774
aVUTX
p2775
aVTMO
p2776
aVNOC
p2777
aVMNST
p2778
aVSRCL
p2779
aVAET
p2780
aVSTZ
p2781
aVPXD
p2782
aVCXO
p2783
aVXEC
p2784
aVLH
p2785
aVEW
p2786
aVHUM
p2787
asS'04112016'
p2788
(lp2789
VGOOG
p2790
aVFB
p2791
aVAPD
p2792
aVFISV
p2793
aVMHK
p2794
aVMCD
p2795
aVCLX
p2796
aVPEP
p2797
aVLMT
p2798
asS'08282015'
p2799
(lp2800
sS'07182016'
p2801
(lp2802
VDLR
p2803
aVMKC
p2804
aVPSA
p2805
aVFISV
p2806
aVAMT
p2807
aVPEP
p2808
aVVMC
p2809
aVFB
p2810
aVCME
p2811
aVIBM
p2812
aVMCK
p2813
aVAPD
p2814
asS'07082015'
p2815
(lp2816
sS'03102015'
p2817
(lp2818
VPCLN
p2819
aVAMZN
p2820
aVHAR
p2821
aVWHR
p2822
aVDNB
p2823
aVBIIB
p2824
aVWDC
p2825
aVLLL
p2826
aVCMG
p2827
aVPXD
p2828
aVBA
p2829
aVZBH
p2830
aVAMP
p2831
aVROP
p2832
aVDIS
p2833
aVHUM
p2834
aVPVH
p2835
aVCELG
p2836
aVHON
p2837
aVHD
p2838
aVGWW
p2839
aVFFIV
p2840
aVAET
p2841
aVMNK
p2842
aVSIG
p2843
aVUHS
p2844
aVMNST
p2845
aVPRGO
p2846
asS'01302017'
p2847
(lp2848
VEOG
p2849
aVADP
p2850
aVBXP
p2851
asS'10072015'
p2852
(lp2853
VKMB
p2854
asS'02262016'
p2855
(lp2856
VFB
p2857
aVLMT
p2858
aVGOOG
p2859
asS'02262015'
p2860
(lp2861
VAMZN
p2862
aVHAR
p2863
aVCXO
p2864
aVCMG
p2865
aVHSY
p2866
aVBA
p2867
aVBIIB
p2868
aVMON
p2869
aVAMP
p2870
aVHON
p2871
aVPXD
p2872
aVSIG
p2873
aVROP
p2874
aVAET
p2875
aVEW
p2876
aVMNK
p2877
aVXEC
p2878
aVZBH
p2879
aVGILD
p2880
aVUNH
p2881
aVAAPL
p2882
aVWDC
p2883
aVHD
p2884
aVMNST
p2885
aVCELG
p2886
aVDNB
p2887
aVGWW
p2888
aVUHS
p2889
aVICE
p2890
aVPVH
p2891
aVHUM
p2892
aVREGN
p2893
aVPCLN
p2894
asS'02192016'
p2895
(lp2896
VFRT
p2897
aVFB
p2898
aVAPD
p2899
aVLMT
p2900
aVGOOG
p2901
aVPSA
p2902
asS'08252016'
p2903
(lp2904
sS'08312015'
p2905
(lp2906
sS'08312016'
p2907
(lp2908
sS'10222015'
p2909
(lp2910
sS'06222016'
p2911
(lp2912
VGOOG
p2913
aVFB
p2914
aVFISV
p2915
aVMHK
p2916
aVWYNN
p2917
aVMKC
p2918
aVDLR
p2919
aVPEP
p2920
asS'06222015'
p2921
(lp2922
sS'03212016'
p2923
(lp2924
VPEP
p2925
asS'11012016'
p2926
(lp2927
sS'07012016'
p2928
(lp2929
VAPD
p2930
aVFB
p2931
aVFISV
p2932
aVPEP
p2933
aVMCK
p2934
aVDLR
p2935
aVMKC
p2936
aVPSA
p2937
asS'06192015'
p2938
(lp2939
VEQIX
p2940
asS'03302016'
p2941
(lp2942
VSYK
p2943
aVPEP
p2944
aVMHK
p2945
aVLMT
p2946
aVFB
p2947
aVALXN
p2948
asS'02022017'
p2949
(lp2950
VADP
p2951
aVEOG
p2952
aVBXP
p2953
aVPNC
p2954
aVNVDA
p2955
asS'10182016'
p2956
(lp2957
sS'04082015'
p2958
(lp2959
VBIIB
p2960
aVAVGO
p2961
aVCMG
p2962
aVMNK
p2963
aVAMGN
p2964
aVHUM
p2965
aVANTM
p2966
aVVRTX
p2967
aVULTA
p2968
aVAMP
p2969
aVAET
p2970
aVUNH
p2971
aVDIS
p2972
aVHAR
p2973
aVCVS
p2974
aVBA
p2975
aVAYI
p2976
aVFFIV
p2977
aVLLL
p2978
aVHON
p2979
aVWAT
p2980
aVGWW
p2981
aVMCO
p2982
aVHSY
p2983
aVGS
p2984
aVTDG
p2985
aVMON
p2986
aVSIG
p2987
aVPXD
p2988
aVPRGO
p2989
aVPCLN
p2990
aVPVH
p2991
aVAZO
p2992
aVCXO
p2993
aVISRG
p2994
asS'04082016'
p2995
(lp2996
VFB
p2997
aVAPD
p2998
aVMHK
p2999
aVKMB
p3000
aVAMT
p3001
aVPEP
p3002
aVMCD
p3003
asS'08012016'
p3004
(lp3005
VPSA
p3006
aVMCK
p3007
aVDLR
p3008
aVAMT
p3009
aVPEP
p3010
aVFISV
p3011
aVCME
p3012
aVAPD
p3013
aVCTAS
p3014
aVFB
p3015
aVWYNN
p3016
asS'01122017'
p3017
(lp3018
VNVDA
p3019
aVCB
p3020
aVPNC
p3021
aVADP
p3022
aVEOG
p3023
aVBXP
p3024
aVMA
p3025
asS'01122016'
p3026
(lp3027
VGOOG
p3028
aVFDX
p3029
asS'01172017'
p3030
(lp3031
VNVDA
p3032
aVPNC
p3033
aVEOG
p3034
asS'03302015'
p3035
(lp3036
VPCLN
p3037
aVNFLX
p3038
aVBIIB
p3039
aVCMG
p3040
aVAVGO
p3041
aVBA
p3042
aVAMP
p3043
aVHAR
p3044
aVDNB
p3045
aVDIS
p3046
aVPRGO
p3047
aVCELG
p3048
aVMNK
p3049
aVMON
p3050
aVGS
p3051
aVEW
p3052
aVULTA
p3053
aVAET
p3054
aVUHS
p3055
aVSRCL
p3056
aVAMGN
p3057
aVHON
p3058
aVJNJ
p3059
aVMPC
p3060
aVFFIV
p3061
aVTMO
p3062
aVHUM
p3063
aVGWW
p3064
aVAYI
p3065
aVXEC
p3066
aVCXO
p3067
aVPXD
p3068
aVPVH
p3069
aVRL
p3070
aVAZO
p3071
aVSIG
p3072
asS'04282016'
p3073
(lp3074
VGOOGL
p3075
aVGOOG
p3076
aVALXN
p3077
aVSYK
p3078
aVPEP
p3079
aVFB
p3080
aVMCK
p3081
aVLMT
p3082
asS'02102016'
p3083
(lp3084
VGOOG
p3085
aVLMT
p3086
asS'02102017'
p3087
(lp3088
VMA
p3089
aVPNC
p3090
aVURI
p3091
aVNVDA
p3092
asS'04072016'
p3093
(lp3094
VGOOG
p3095
aVGOOGL
p3096
aVMHK
p3097
aVFB
p3098
aVPEP
p3099
asS'04302015'
p3100
(lp3101
VCMG
p3102
aVAZO
p3103
aVPRGO
p3104
aVHUM
p3105
aVMNK
p3106
aVPXD
p3107
aVBA
p3108
aVUNH
p3109
aVTMO
p3110
aVAMGN
p3111
aVHAR
p3112
aVLLL
p3113
aVSIG
p3114
aVPVH
p3115
aVUHS
p3116
aVRTN
p3117
aVGS
p3118
aVRL
p3119
aVSTZ
p3120
aVAET
p3121
aVMNST
p3122
aVHON
p3123
aVCVS
p3124
aVAMP
p3125
aVWAT
p3126
aVCXO
p3127
aVROK
p3128
aVFFIV
p3129
aVGWW
p3130
aVPCLN
p3131
asS'09262016'
p3132
(lp3133
sS'04072015'
p3134
(lp3135
VBIIB
p3136
aVAVGO
p3137
aVMNK
p3138
aVCMG
p3139
aVAMGN
p3140
aVEW
p3141
aVPRGO
p3142
aVHUM
p3143
aVANTM
p3144
aVAMP
p3145
aVULTA
p3146
aVUHS
p3147
aVAET
p3148
aVUNH
p3149
aVPCLN
p3150
aVHAR
p3151
aVDIS
p3152
aVBA
p3153
aVTMO
p3154
aVCVS
p3155
aVAAPL
p3156
aVLLL
p3157
aVGWW
p3158
aVFFIV
p3159
aVHON
p3160
aVWAT
p3161
aVMCO
p3162
aVHSY
p3163
aVTDG
p3164
aVMON
p3165
aVSIG
p3166
aVPXD
p3167
aVPVH
p3168
aVXEC
p3169
aVRL
p3170
aVCXO
p3171
asS'05052015'
p3172
(lp3173
VCMG
p3174
aVHAR
p3175
aVPRGO
p3176
aVHUM
p3177
aVPXD
p3178
aVLLL
p3179
aVNOC
p3180
aVBA
p3181
aVAMGN
p3182
aVUHS
p3183
aVMNK
p3184
aVCXO
p3185
aVSIG
p3186
aVRTN
p3187
aVGS
p3188
aVAMP
p3189
aVSTZ
p3190
aVMON
p3191
aVHON
p3192
aVNKE
p3193
aVRL
p3194
aVPVH
p3195
aVNSC
p3196
aVMPC
p3197
aVWAT
p3198
aVFFIV
p3199
aVGWW
p3200
aVROK
p3201
aVPCLN
p3202
asS'05052016'
p3203
(lp3204
VGOOGL
p3205
aVGOOG
p3206
aVMCK
p3207
aVSYK
p3208
aVMCD
p3209
aVPEP
p3210
aVNEE
p3211
aVFB
p3212
asS'03092016'
p3213
(lp3214
VFB
p3215
aVAPD
p3216
aVGOOG
p3217
aVFDX
p3218
aVMHK
p3219
asS'03092015'
p3220
(lp3221
VAMZN
p3222
aVHAR
p3223
aVWHR
p3224
aVDNB
p3225
aVXEC
p3226
aVMON
p3227
aVLLL
p3228
aVESS
p3229
aVHSY
p3230
aVZBH
p3231
aVBA
p3232
aVROP
p3233
aVPCLN
p3234
aVAMP
p3235
aVPXD
p3236
aVCELG
p3237
aVCMG
p3238
aVHON
p3239
aVPVH
p3240
aVHUM
p3241
aVHD
p3242
aVABC
p3243
aVEW
p3244
aVUNH
p3245
aVMNK
p3246
aVAET
p3247
aVGWW
p3248
aVFFIV
p3249
aVSIG
p3250
aVROST
p3251
aVUHS
p3252
aVPRGO
p3253
aVMNST
p3254
asS'04202016'
p3255
(lp3256
VFISV
p3257
aVFB
p3258
aVPEP
p3259
aVMCD
p3260
aVLMT
p3261
aVSYK
p3262
aVAPD
p3263
aVGOOG
p3264
aVALXN
p3265
asS'04202015'
p3266
(lp3267
VAZO
p3268
aVBIIB
p3269
aVSPG
p3270
aVSIG
p3271
aVMNK
p3272
aVHUM
p3273
aVCI
p3274
aVPVH
p3275
aVSTZ
p3276
aVAET
p3277
aVCVS
p3278
aVRTN
p3279
aVTMO
p3280
aVWAT
p3281
aVHON
p3282
aVMCO
p3283
aVLLL
p3284
aVUNH
p3285
aVTDG
p3286
aVHSY
p3287
aVUHS
p3288
aVAAPL
p3289
aVMON
p3290
aVRL
p3291
aVHAR
p3292
aVPXD
p3293
aVFFIV
p3294
aVGS
p3295
aVAAP
p3296
aVCXO
p3297
aVGWW
p3298
aVPCLN
p3299
aVPRGO
p3300
aVCMG
p3301
asS'06112015'
p3302
(lp3303
VPRGO
p3304
aVMNK
p3305
aVSWKS
p3306
aVSPG
p3307
aVEXPE
p3308
aVAYI
p3309
aVFFIV
p3310
aVGWW
p3311
aVCELG
p3312
aVAMGN
p3313
aVSNA
p3314
aVGPN
p3315
aVSIG
p3316
aVROK
p3317
aVHON
p3318
aVUNH
p3319
aVINTU
p3320
aVAET
p3321
aVLLL
p3322
aVSRCL
p3323
aVNKE
p3324
aVUTX
p3325
aVUHS
p3326
aVTMO
p3327
aVBA
p3328
aVMNST
p3329
aVSTZ
p3330
aVPPG
p3331
aVAMP
p3332
aVLH
p3333
aVPXD
p3334
aVRL
p3335
aVCXO
p3336
aVHUM
p3337
asS'10102016'
p3338
(lp3339
VLRCX
p3340
asS'03012016'
p3341
(lp3342
VCLX
p3343
aVAPD
p3344
aVLMT
p3345
aVGOOG
p3346
asS'01072016'
p3347
(lp3348
VGOOG
p3349
aVFDX
p3350
aVIBM
p3351
asS'11122015'
p3352
(lp3353
VGOOG
p3354
aVFB
p3355
aVVMC
p3356
asS'01102017'
p3357
(lp3358
VNVDA
p3359
aVCB
p3360
aVPNC
p3361
aVADP
p3362
aVEOG
p3363
aVBXP
p3364
asS'01312017'
p3365
(lp3366
VEOG
p3367
aVADP
p3368
aVPNC
p3369
asS'07212015'
p3370
(lp3371
VACN
p3372
aVTSO
p3373
asS'09202016'
p3374
(lp3375
sS'07212016'
p3376
(lp3377
VDLR
p3378
aVNEE
p3379
aVPSA
p3380
aVCHD
p3381
aVFISV
p3382
aVPEP
p3383
aVAMT
p3384
aVCME
p3385
aVMCK
p3386
aVFB
p3387
aVAPD
p3388
aVALXN
p3389
asS'03272015'
p3390
(lp3391
VPCLN
p3392
aVNFLX
p3393
aVAMZN
p3394
aVBIIB
p3395
aVAVGO
p3396
aVBA
p3397
aVHAR
p3398
aVDNB
p3399
aVAAPL
p3400
aVAMP
p3401
aVPRGO
p3402
aVMON
p3403
aVCMG
p3404
aVDIS
p3405
aVGS
p3406
aVMNK
p3407
aVUNH
p3408
aVLLL
p3409
aVEW
p3410
aVROP
p3411
aVHON
p3412
aVSRCL
p3413
aVANTM
p3414
aVUHS
p3415
aVAET
p3416
aVMPC
p3417
aVWAT
p3418
aVULTA
p3419
aVFFIV
p3420
aVAMGN
p3421
aVTMO
p3422
aVAYI
p3423
aVHUM
p3424
aVGWW
p3425
aVCXO
p3426
aVXEC
p3427
aVPXD
p3428
aVPVH
p3429
aVRL
p3430
aVSIG
p3431
asS'10192015'
p3432
(lp3433
VGOOG
p3434
asS'06022015'
p3435
(lp3436
VNFLX
p3437
aVAMZN
p3438
aVGWW
p3439
aVCMG
p3440
aVPRGO
p3441
aVSIG
p3442
aVAYI
p3443
aVAMGN
p3444
aVFFIV
p3445
aVSNA
p3446
aVMNST
p3447
aVMON
p3448
aVNKE
p3449
aVROK
p3450
aVEFX
p3451
aVBA
p3452
aVAMG
p3453
aVTDG
p3454
aVGPN
p3455
aVHON
p3456
aVUTX
p3457
aVTMO
p3458
aVDIS
p3459
aVEXPE
p3460
aVCELG
p3461
aVPXD
p3462
aVUNH
p3463
aVDNB
p3464
aVLLL
p3465
aVINTU
p3466
aVLH
p3467
aVCXO
p3468
aVGILD
p3469
aVMNK
p3470
aVAET
p3471
aVUHS
p3472
aVEW
p3473
aVSWKS
p3474
aVHUM
p3475
asS'01142016'
p3476
(lp3477
VGOOG
p3478
aVFDX
p3479
aVMCD
p3480
asS'06022016'
p3481
(lp3482
VVMC
p3483
aVPEP
p3484
aVFISV
p3485
aVITW
p3486
aVMHK
p3487
aVALXN
p3488
asS'08292016'
p3489
(lp3490
sS'10192016'
p3491
(lp3492
sS'04102015'
p3493
(lp3494
VBIIB
p3495
aVHUM
p3496
aVAVGO
p3497
aVAMP
p3498
aVANTM
p3499
aVMNK
p3500
aVULTA
p3501
aVAET
p3502
aVUNH
p3503
aVAMGN
p3504
aVCVS
p3505
aVDIS
p3506
aVNKE
p3507
aVHSY
p3508
aVAAPL
p3509
aVWAT
p3510
aVLLL
p3511
aVHON
p3512
aVMCO
p3513
aVJNJ
p3514
aVSIG
p3515
aVBA
p3516
aVHAR
p3517
aVGWW
p3518
aVFFIV
p3519
aVSTZ
p3520
aVTDG
p3521
aVSHW
p3522
aVMON
p3523
aVPXD
p3524
aVAZO
p3525
aVCMG
p3526
aVPVH
p3527
aVCXO
p3528
aVPCLN
p3529
aVISRG
p3530
aVPRGO
p3531
asS'01152016'
p3532
(lp3533
VGOOG
p3534
aVFDX
p3535
aVMCD
p3536
asS'12012015'
p3537
(lp3538
VGOOG
p3539
aVFB
p3540
asS'10092015'
p3541
(lp3542
VKMB
p3543
asS'12012016'
p3544
(lp3545
VCB
p3546
aVBXP
p3547
asS'07082016'
p3548
(lp3549
VAPD
p3550
aVNEE
p3551
aVDLR
p3552
aVIBM
p3553
aVFISV
p3554
aVFB
p3555
aVPEP
p3556
aVVMC
p3557
aVMCK
p3558
asS'12302016'
p3559
(lp3560
VURI
p3561
aVEOG
p3562
aVPNC
p3563
aVADP
p3564
aVNVDA
p3565
asS'11192015'
p3566
(lp3567
VGOOG
p3568
aVFB
p3569
aVVMC
p3570
asS'08192016'
p3571
(lp3572
sS'06032016'
p3573
(lp3574
VVMC
p3575
aVPEP
p3576
aVADBE
p3577
aVFISV
p3578
aVITW
p3579
aVMHK
p3580
aVMCK
p3581
aVALXN
p3582
asS'05232016'
p3583
(lp3584
VMCD
p3585
aVMHK
p3586
aVPEP
p3587
aVFB
p3588
aVFISV
p3589
aVVMC
p3590
aVGOOG
p3591
aVMCK
p3592
asS'10212015'
p3593
(lp3594
VVNO
p3595
aVGOOG
p3596
asS'04242015'
p3597
(lp3598
VBIIB
p3599
aVAZO
p3600
aVMNK
p3601
aVSPG
p3602
aVPXD
p3603
aVMTB
p3604
aVPVH
p3605
aVTMO
p3606
aVSTZ
p3607
aVBA
p3608
aVSIG
p3609
aVPRGO
p3610
aVWAT
p3611
aVHUM
p3612
aVHON
p3613
aVAET
p3614
aVTDG
p3615
aVCVS
p3616
aVLLL
p3617
aVRL
p3618
aVUHS
p3619
aVCXO
p3620
aVWDC
p3621
aVHAR
p3622
aVFFIV
p3623
aVGWW
p3624
aVREGN
p3625
aVPCLN
p3626
aVNFLX
p3627
asS'10212016'
p3628
(lp3629
sS'11022015'
p3630
(lp3631
VFB
p3632
asS'10302015'
p3633
(lp3634
VFB
p3635
asS'11022016'
p3636
(lp3637
sS'07292015'
p3638
(lp3639
VACN
p3640
aVBRK-B
p3641
asS'07292016'
p3642
(lp3643
VPSA
p3644
aVDLR
p3645
aVAMT
p3646
aVFISV
p3647
aVCME
p3648
aVAPD
p3649
aVFB
p3650
aVCTAS
p3651
aVWYNN
p3652
asS'02242015'
p3653
(lp3654
VCMG
p3655
aVESS
p3656
aVAMZN
p3657
aVHAR
p3658
aVCXO
p3659
aVBIIB
p3660
aVAMP
p3661
aVSIG
p3662
aVPXD
p3663
aVHON
p3664
aVBA
p3665
aVGILD
p3666
aVMON
p3667
aVMNST
p3668
aVGWW
p3669
aVHD
p3670
aVCELG
p3671
aVROP
p3672
aVUNH
p3673
aVZBH
p3674
aVAVGO
p3675
aVUHS
p3676
aVBDX
p3677
aVMNK
p3678
aVANTM
p3679
aVPRGO
p3680
aVXEC
p3681
aVCI
p3682
aVAAPL
p3683
aVWDC
p3684
aVVRTX
p3685
aVDNB
p3686
aVICE
p3687
aVPVH
p3688
aVHUM
p3689
aVREGN
p3690
aVPCLN
p3691
asS'02242016'
p3692
(lp3693
VFB
p3694
aVLMT
p3695
aVGOOG
p3696
asS'05082015'
p3697
(lp3698
VPCLN
p3699
aVAZO
p3700
aVPXD
p3701
aVNFLX
p3702
aVHAR
p3703
aVHUM
p3704
aVCMG
p3705
aVCXO
p3706
aVPRGO
p3707
aVBA
p3708
aVLLL
p3709
aVCI
p3710
aVUHS
p3711
aVSIG
p3712
aVUNH
p3713
aVMCO
p3714
aVGS
p3715
aVRTN
p3716
aVAET
p3717
aVRL
p3718
aVAMP
p3719
aVHON
p3720
aVGWW
p3721
aVTMO
p3722
aVTDG
p3723
aVAVGO
p3724
aVMNK
p3725
aVFFIV
p3726
aVMPC
p3727
aVMON
p3728
aVROK
p3729
asS'12122016'
p3730
(lp3731
VPNC
p3732
aVURI
p3733
aVEOG
p3734
aVBXP
p3735
asS'12172015'
p3736
(lp3737
VGOOG
p3738
asS'03142016'
p3739
(lp3740
VALXN
p3741
aVLMT
p3742
aVAPD
p3743
aVFB
p3744
aVPEP
p3745
aVMHK
p3746
aVGOOG
p3747
asS'11102015'
p3748
(lp3749
VFB
p3750
asS'11102016'
p3751
(lp3752
sS'07262016'
p3753
(lp3754
VDLR
p3755
aVPSA
p3756
aVCHD
p3757
aVNEE
p3758
aVMCK
p3759
aVPEP
p3760
aVAMT
p3761
aVFISV
p3762
aVCME
p3763
aVFB
p3764
asS'08262015'
p3765
(lp3766
sS'08262016'
p3767
(lp3768
sS'02172016'
p3769
(lp3770
VGOOG
p3771
aVFB
p3772
aVLMT
p3773
asS'02172015'
p3774
(lp3775
VCMG
p3776
aVREGN
p3777
aVCELG
p3778
aVUNH
p3779
aVGWW
p3780
aVSIG
p3781
aVPRGO
p3782
aVPXD
p3783
aVILMN
p3784
aVANTM
p3785
aVBA
p3786
aVTRV
p3787
aVUNP
p3788
aVCXO
p3789
aVHUM
p3790
aVHON
p3791
aVEW
p3792
aVHD
p3793
aVZBH
p3794
aVAVGO
p3795
aVMNK
p3796
aVXEC
p3797
aVDIS
p3798
aVROK
p3799
aVWDC
p3800
aVIFF
p3801
aVAMP
p3802
aVFFIV
p3803
aVSPGI
p3804
aVROP
p3805
aVHAR
p3806
aVGS
p3807
aVDNB
p3808
aVAMZN
p3809
aVPCLN
p3810
asS'04042016'
p3811
(lp3812
VMHK
p3813
aVFB
p3814
aVAPD
p3815
aVPEP
p3816
aVAMT
p3817
asS'06052015'
p3818
(lp3819
VPRGO
p3820
aVGWW
p3821
aVMON
p3822
aVAYI
p3823
aVFFIV
p3824
aVEXPE
p3825
aVRTN
p3826
aVCMG
p3827
aVCELG
p3828
aVSPG
p3829
aVSIG
p3830
aVAMGN
p3831
aVAMG
p3832
aVUNH
p3833
aVNKE
p3834
aVMNK
p3835
aVROK
p3836
aVHON
p3837
aVMNST
p3838
aVBA
p3839
aVGPN
p3840
aVUTX
p3841
aVLLL
p3842
aVTMO
p3843
aVSWKS
p3844
aVCXO
p3845
aVAMP
p3846
aVNOC
p3847
aVAET
p3848
aVZBH
p3849
aVLH
p3850
aVPXD
p3851
aVRL
p3852
aVHUM
p3853
asS'09082015'
p3854
(lp3855
VALXN
p3856
asS'09082016'
p3857
(lp3858
sS'10012015'
p3859
(lp3860
VKMB
p3861
aVPSA
p3862
asS'09122016'
p3863
(lp3864
sS'09222015'
p3865
(lp3866
VALXN
p3867
aVGOOG
p3868
asS'09222016'
p3869
(lp3870
sS'12072016'
p3871
(lp3872
VPNC
p3873
aVBXP
p3874
aVEOG
p3875
aVURI
p3876
asS'12072015'
p3877
(lp3878
VGOOG
p3879
aVFB
p3880
asS'06292015'
p3881
(lp3882
sS'12102015'
p3883
(lp3884
VGOOG
p3885
asS'03202015'
p3886
(lp3887
VPCLN
p3888
aVAMZN
p3889
aVHAR
p3890
aVBA
p3891
aVMON
p3892
aVDNB
p3893
aVXEC
p3894
aVAVGO
p3895
aVLLL
p3896
aVFFIV
p3897
aVHON
p3898
aVHSY
p3899
aVGS
p3900
aVJNJ
p3901
aVPVH
p3902
aVUHS
p3903
aVUNH
p3904
aVPXD
p3905
aVGWW
p3906
aVAYI
p3907
aVAET
p3908
aVTMO
p3909
aVSIG
p3910
aVMCO
p3911
aVCELG
p3912
aVMNK
p3913
aVRL
p3914
aVPRGO
p3915
aVHUM
p3916
aVCMG
p3917
aVBIIB
p3918
aVREGN
p3919
asS'05242016'
p3920
(lp3921
VMCD
p3922
aVPEP
p3923
aVFB
p3924
aVMHK
p3925
aVFISV
p3926
aVVMC
p3927
aVMCK
p3928
aVGOOG
p3929
asS'07072016'
p3930
(lp3931
VAPD
p3932
aVCHD
p3933
aVNEE
p3934
aVFISV
p3935
aVDLR
p3936
aVFB
p3937
aVPEP
p3938
aVMKC
p3939
aVVMC
p3940
aVMCK
p3941
asS'10062015'
p3942
(lp3943
VKMB
p3944
asS'05072015'
p3945
(lp3946
VAZO
p3947
aVHAR
p3948
aVCMG
p3949
aVPXD
p3950
aVNFLX
p3951
aVHUM
p3952
aVPRGO
p3953
aVCXO
p3954
aVBA
p3955
aVLLL
p3956
aVCI
p3957
aVUHS
p3958
aVUNH
p3959
aVSIG
p3960
aVGS
p3961
aVRTN
p3962
aVGPN
p3963
aVTMO
p3964
aVAMP
p3965
aVMNK
p3966
aVAVGO
p3967
aVRL
p3968
aVPCLN
p3969
aVHON
p3970
aVGWW
p3971
aVMPC
p3972
aVMON
p3973
aVSNA
p3974
aVFFIV
p3975
aVROK
p3976
asS'07142015'
p3977
(lp3978
sS'08112015'
p3979
(lp3980
VACN
p3981
aVBF-B
p3982
aVUPS
p3983
aVTSO
p3984
asS'10272015'
p3985
(lp3986
VFB
p3987
asS'07142016'
p3988
(lp3989
VDLR
p3990
aVMKC
p3991
aVTAP
p3992
aVFISV
p3993
aVAMT
p3994
aVFB
p3995
aVITW
p3996
aVAPD
p3997
aVMCK
p3998
asS'08102016'
p3999
(lp4000
sS'12142016'
p4001
(lp4002
VPNC
p4003
aVURI
p4004
aVBXP
p4005
aVEOG
p4006
asS'12142015'
p4007
(lp4008
VGOOG
p4009
aVMCD
p4010
asS'08102015'
p4011
(lp4012
VAON
p4013
aVACN
p4014
aVTSO
p4015
aVBF-B
p4016
asS'11142016'
p4017
(lp4018
VBXP
p4019
aVPNC
p4020
asS'03262015'
p4021
(lp4022
VPCLN
p4023
aVAMZN
p4024
aVAVGO
p4025
aVBA
p4026
aVHAR
p4027
aVDNB
p4028
aVICE
p4029
aVMON
p4030
aVTDG
p4031
aVAMP
p4032
aVPRGO
p4033
aVSWKS
p4034
aVGS
p4035
aVMNK
p4036
aVCELG
p4037
aVUNH
p4038
aVLLL
p4039
aVWAT
p4040
aVROP
p4041
aVHON
p4042
aVBIIB
p4043
aVSRCL
p4044
aVEW
p4045
aVAET
p4046
aVUHS
p4047
aVJNJ
p4048
aVCMG
p4049
aVCXO
p4050
aVNKE
p4051
aVGWW
p4052
aVTMO
p4053
aVXEC
p4054
aVHUM
p4055
aVESS
p4056
aVPXD
p4057
aVPVH
p4058
aVSIG
p4059
aVRL
p4060
asS'12152016'
p4061
(lp4062
VURI
p4063
aVPNC
p4064
aVBXP
p4065
aVEOG
p4066
asS'11232016'
p4067
(lp4068
sS'12152015'
p4069
(lp4070
VGOOG
p4071
asS'06262015'
p4072
(lp4073
sS'02052016'
p4074
(lp4075
VGOOG
p4076
asS'02222016'
p4077
(lp4078
VCLX
p4079
aVFB
p4080
aVLMT
p4081
aVGOOG
p4082
aVPSA
p4083
asS'04252016'
p4084
(lp4085
VGOOGL
p4086
aVGOOG
p4087
aVMHK
p4088
aVPEP
p4089
aVFB
p4090
aVLMT
p4091
aVALXN
p4092
asS'03022015'
p4093
(lp4094
VAMZN
p4095
aVCXO
p4096
aVILMN
p4097
aVHAR
p4098
aVBA
p4099
aVXEC
p4100
aVPXD
p4101
aVMON
p4102
aVHSY
p4103
aVAMP
p4104
aVBIIB
p4105
aVCMG
p4106
aVAAPL
p4107
aVROK
p4108
aVHON
p4109
aVDNB
p4110
aVROP
p4111
aVMNK
p4112
aVCELG
p4113
aVZBH
p4114
aVEW
p4115
aVGILD
p4116
aVUNH
p4117
aVHD
p4118
aVSIG
p4119
aVPVH
p4120
aVGS
p4121
aVGWW
p4122
aVHUM
p4123
aVFFIV
p4124
aVREGN
p4125
aVUHS
p4126
aVPRGO
p4127
aVMNST
p4128
aVPCLN
p4129
asS'03022016'
p4130
(lp4131
VAPD
p4132
aVLMT
p4133
aVGOOG
p4134
asS'10312016'
p4135
(lp4136
sS'10062016'
p4137
(lp4138
sS'04022015'
p4139
(lp4140
VPCLN
p4141
aVBIIB
p4142
aVCMG
p4143
aVAVGO
p4144
aVMNK
p4145
aVAMGN
p4146
aVPRGO
p4147
aVBA
p4148
aVICE
p4149
aVUHS
p4150
aVHAR
p4151
aVHUM
p4152
aVULTA
p4153
aVAMP
p4154
aVDIS
p4155
aVAET
p4156
aVUNH
p4157
aVTMO
p4158
aVGWW
p4159
aVLLL
p4160
aVDNB
p4161
aVMTB
p4162
aVNKE
p4163
aVGS
p4164
aVWAT
p4165
aVHON
p4166
aVAYI
p4167
aVFFIV
p4168
aVMJN
p4169
aVTDG
p4170
aVMON
p4171
aVXEC
p4172
aVPXD
p4173
aVRL
p4174
aVPVH
p4175
aVCXO
p4176
aVSIG
p4177
asS'03192015'
p4178
(lp4179
VPCLN
p4180
aVHAR
p4181
aVCXO
p4182
aVTDG
p4183
aVMNST
p4184
aVBA
p4185
aVXEC
p4186
aVMON
p4187
aVAAPL
p4188
aVDNB
p4189
aVCMI
p4190
aVROP
p4191
aVFFIV
p4192
aVAVGO
p4193
aVLLL
p4194
aVHON
p4195
aVPXD
p4196
aVHSY
p4197
aVPH
p4198
aVGS
p4199
aVBIIB
p4200
aVAYI
p4201
aVILMN
p4202
aVUHS
p4203
aVGWW
p4204
aVCELG
p4205
aVUNH
p4206
aVTMO
p4207
aVAET
p4208
aVMCO
p4209
aVSIG
p4210
aVMNK
p4211
aVVRTX
p4212
aVRL
p4213
aVHUM
p4214
aVPRGO
p4215
aVCMG
p4216
asS'11242015'
p4217
(lp4218
VGOOGL
p4219
aVFB
p4220
aVGOOG
p4221
aVVMC
p4222
asS'04122016'
p4223
(lp4224
VGOOG
p4225
aVGOOGL
p4226
aVFB
p4227
aVAPD
p4228
aVFISV
p4229
aVMKC
p4230
aVMHK
p4231
aVMCD
p4232
aVCLX
p4233
aVPEP
p4234
aVLMT
p4235
asS'06292016'
p4236
(lp4237
VMCK
p4238
aVFB
p4239
aVFISV
p4240
aVPEP
p4241
aVDLR
p4242
aVPSA
p4243
asS'10142015'
p4244
(lp4245
sS'10142016'
p4246
(lp4247
sS'03312016'
p4248
(lp4249
VMHK
p4250
aVPEP
p4251
aVFISV
p4252
aVLMT
p4253
aVFB
p4254
aVALXN
p4255
aVGOOGL
p4256
aVGOOG
p4257
asS'03312015'
p4258
(lp4259
VPCLN
p4260
aVBIIB
p4261
aVCMG
p4262
aVAVGO
p4263
aVBA
p4264
aVMNK
p4265
aVHAR
p4266
aVPRGO
p4267
aVAMP
p4268
aVDIS
p4269
aVAAPL
p4270
aVEW
p4271
aVGS
p4272
aVDNB
p4273
aVMON
p4274
aVANTM
p4275
aVULTA
p4276
aVAET
p4277
aVUHS
p4278
aVUNH
p4279
aVHUM
p4280
aVTMO
p4281
aVORLY
p4282
aVWAT
p4283
aVTDG
p4284
aVHON
p4285
aVFFIV
p4286
aVGWW
p4287
aVAYI
p4288
aVPXD
p4289
aVXEC
p4290
aVRL
p4291
aVCXO
p4292
aVAZO
p4293
aVPVH
p4294
aVSIG
p4295
asS'11172016'
p4296
(lp4297
VPNC
p4298
asS'11172015'
p4299
(lp4300
VGOOG
p4301
aVFB
p4302
asS'05032016'
p4303
(lp4304
VGOOGL
p4305
aVGOOG
p4306
aVALXN
p4307
aVMCK
p4308
aVSYK
p4309
aVPEP
p4310
aVLMT
p4311
aVFB
p4312
asS'07252016'
p4313
(lp4314
VDLR
p4315
aVPSA
p4316
aVFISV
p4317
aVPEP
p4318
aVMCK
p4319
aVAMT
p4320
aVCME
p4321
aVFB
p4322
aVCTAS
p4323
aVMHK
p4324
asS'09212015'
p4325
(lp4326
VALXN
p4327
aVGOOG
p4328
asS'08112016'
p4329
(lp4330
sS'03052015'
p4331
(lp4332
VAMZN
p4333
aVHAR
p4334
aVWHR
p4335
aVCXO
p4336
aVDNB
p4337
aVAAPL
p4338
aVXEC
p4339
aVROK
p4340
aVILMN
p4341
aVLLL
p4342
aVHSY
p4343
aVBA
p4344
aVAMP
p4345
aVROP
p4346
aVZBH
p4347
aVHON
p4348
aVCELG
p4349
aVMNK
p4350
aVHD
p4351
aVBIIB
p4352
aVHUM
p4353
aVPVH
p4354
aVEW
p4355
aVCMG
p4356
aVPXD
p4357
aVSIG
p4358
aVGWW
p4359
aVFFIV
p4360
aVROST
p4361
aVUHS
p4362
aVPRGO
p4363
aVMNST
p4364
aVPCLN
p4365
asS'06062016'
p4366
(lp4367
VVMC
p4368
aVADBE
p4369
aVPEP
p4370
aVFISV
p4371
aVMHK
p4372
aVITW
p4373
aVMCK
p4374
aVALXN
p4375
asS'08042015'
p4376
(lp4377
VBRK-B
p4378
aVACN
p4379
aVBF-B
p4380
asS'08042016'
p4381
(lp4382
VPSA
p4383
aVMCK
p4384
aVFISV
p4385
aVDLR
p4386
aVAMT
p4387
aVPEP
p4388
aVAPD
p4389
aVCTAS
p4390
aVCME
p4391
aVTAP
p4392
asS'01272017'
p4393
(lp4394
VADP
p4395
aVEOG
p4396
aVBXP
p4397
aVNVDA
p4398
asS'01272016'
p4399
(lp4400
VMCD
p4401
asS'09182015'
p4402
(lp4403
VALXN
p4404
aVGOOG
p4405
asS'01222016'
p4406
(lp4407
VGOOG
p4408
aVFDX
p4409
aVMCD
p4410
asS'04152016'
p4411
(lp4412
VPSA
p4413
aVFB
p4414
aVFISV
p4415
aVAPD
p4416
aVPEP
p4417
aVLMT
p4418
aVGOOG
p4419
aVALXN
p4420
asS'04152015'
p4421
(lp4422
VBIIB
p4423
aVHUM
p4424
aVMNK
p4425
aVAVGO
p4426
aVAZO
p4427
aVSIG
p4428
aVAET
p4429
aVEW
p4430
aVSPGI
p4431
aVTMO
p4432
aVUNH
p4433
aVAMP
p4434
aVRTN
p4435
aVLLL
p4436
aVWAT
p4437
aVMCO
p4438
aVDIS
p4439
aVHON
p4440
aVSTZ
p4441
aVMJN
p4442
aVBA
p4443
aVHAR
p4444
aVAMGN
p4445
aVSHW
p4446
aVPVH
p4447
aVMON
p4448
aVGWW
p4449
aVRL
p4450
aVCXO
p4451
aVGS
p4452
aVPXD
p4453
aVCMG
p4454
aVISRG
p4455
aVPRGO
p4456
asS'04272015'
p4457
(lp4458
VAZO
p4459
aVPRGO
p4460
aVMNK
p4461
aVPXD
p4462
aVPVH
p4463
aVBA
p4464
aVSPG
p4465
aVSTZ
p4466
aVWAT
p4467
aVSIG
p4468
aVHUM
p4469
aVAET
p4470
aVHON
p4471
aVLLL
p4472
aVRTN
p4473
aVCVS
p4474
aVROST
p4475
aVMCO
p4476
aVUHS
p4477
aVAMP
p4478
aVCXO
p4479
aVRL
p4480
aVKSU
p4481
aVWDC
p4482
aVHAR
p4483
aVORLY
p4484
aVFFIV
p4485
aVGWW
p4486
aVREGN
p4487
aVPCLN
p4488
asS'04272016'
p4489
(lp4490
VGOOGL
p4491
aVGOOG
p4492
aVFB
p4493
aVPEP
p4494
aVSYK
p4495
aVLMT
p4496
aVMCK
p4497
asS'05122015'
p4498
(lp4499
VPCLN
p4500
aVPXD
p4501
aVAZO
p4502
aVCXO
p4503
aVXEC
p4504
aVMNST
p4505
aVHAR
p4506
aVPRGO
p4507
aVHUM
p4508
aVEW
p4509
aVRL
p4510
aVLLL
p4511
aVESS
p4512
aVBA
p4513
aVAMP
p4514
aVAET
p4515
aVRTN
p4516
aVGWW
p4517
aVCMG
p4518
aVMON
p4519
aVFFIV
p4520
aVEXPE
p4521
aVROK
p4522
aVMNK
p4523
asS'05122016'
p4524
(lp4525
VMCK
p4526
aVAPD
p4527
aVMHK
p4528
aVPEP
p4529
aVNEE
p4530
aVFB
p4531
aVFISV
p4532
aVGOOG
p4533
aVPSA
p4534
asS'02192015'
p4535
(lp4536
VCMG
p4537
aVCELG
p4538
aVUNH
p4539
aVGWW
p4540
aVSIG
p4541
aVUNP
p4542
aVANTM
p4543
aVCMI
p4544
aVHD
p4545
aVGD
p4546
aVVRTX
p4547
aVPRGO
p4548
aVHUM
p4549
aVUHS
p4550
aVHON
p4551
aVEW
p4552
aVPXD
p4553
aVAVGO
p4554
aVHAR
p4555
aVPVH
p4556
aVZBH
p4557
aVAMP
p4558
aVDIS
p4559
aVMON
p4560
aVROK
p4561
aVMNK
p4562
aVROP
p4563
aVAAPL
p4564
aVXEC
p4565
aVREGN
p4566
aVWDC
p4567
aVAMZN
p4568
aVSPGI
p4569
aVFFIV
p4570
aVDNB
p4571
aVICE
p4572
aVPCLN
p4573
asS'05272015'
p4574
(lp4575
VGWW
p4576
aVMNST
p4577
aVPRGO
p4578
aVPXD
p4579
aVNFLX
p4580
aVFFIV
p4581
aVHAR
p4582
aVSPGI
p4583
aVGPN
p4584
aVSNA
p4585
aVDIS
p4586
aVEFX
p4587
aVORLY
p4588
aVBLK
p4589
aVBA
p4590
aVCXO
p4591
aVMON
p4592
aVAYI
p4593
aVROK
p4594
aVUTX
p4595
aVHON
p4596
aVAMP
p4597
aVUNH
p4598
aVTDG
p4599
aVAET
p4600
aVLLL
p4601
aVCELG
p4602
aVLH
p4603
aVEXPE
p4604
aVMNK
p4605
aVHUM
p4606
aVSWKS
p4607
asS'05272016'
p4608
(lp4609
VPEP
p4610
aVFB
p4611
aVFISV
p4612
aVMCK
p4613
aVGOOG
p4614
asS'08242016'
p4615
(lp4616
sS'08242015'
p4617
(lp4618
sS'11302016'
p4619
(lp4620
VPNC
p4621
aVBXP
p4622
asS'01062017'
p4623
(lp4624
VNVDA
p4625
aVPNC
p4626
aVADP
p4627
aVEOG
p4628
aVBXP
p4629
asS'11302015'
p4630
(lp4631
VGOOG
p4632
aVFB
p4633
aVVMC
p4634
asS'09042015'
p4635
(lp4636
VALXN
p4637
asS'10072016'
p4638
(lp4639
sS'10262016'
p4640
(lp4641
sS'10262015'
p4642
(lp4643
VVNO
p4644
aVGOOG
p4645
asS'07052016'
p4646
(lp4647
VAPD
p4648
aVFB
p4649
aVCHD
p4650
aVPEP
p4651
aVFISV
p4652
aVDLR
p4653
aVMCK
p4654
aVMKC
p4655
aVPSA
p4656
asS'03122015'
p4657
(lp4658
VPCLN
p4659
aVWHR
p4660
aVBIIB
p4661
aVHAR
p4662
aVCXO
p4663
aVDNB
p4664
aVILMN
p4665
aVBA
p4666
aVPXD
p4667
aVLLL
p4668
aVROP
p4669
aVAMP
p4670
aVGWW
p4671
aVFFIV
p4672
aVAYI
p4673
aVCELG
p4674
aVHON
p4675
aVHD
p4676
aVDIS
p4677
aVRTN
p4678
aVHUM
p4679
aVAZO
p4680
aVUNH
p4681
aVAET
p4682
aVMNK
p4683
aVUHS
p4684
aVCMG
p4685
aVSIG
p4686
aVRL
p4687
aVVRTX
p4688
aVPRGO
p4689
asS'03132015'
p4690
(lp4691
VPCLN
p4692
aVAMZN
p4693
aVHAR
p4694
aVCXO
p4695
aVDNB
p4696
aVBA
p4697
aVXEC
p4698
aVPXD
p4699
aVLLL
p4700
aVROP
p4701
aVGWW
p4702
aVFFIV
p4703
aVAYI
p4704
aVCELG
p4705
aVHON
p4706
aVAMP
p4707
aVHD
p4708
aVDIS
p4709
aVANTM
p4710
aVUNH
p4711
aVHUM
p4712
aVEW
p4713
aVMNK
p4714
aVAET
p4715
aVUHS
p4716
aVVRTX
p4717
aVSIG
p4718
aVRL
p4719
aVCMG
p4720
aVPRGO
p4721
asS'01182017'
p4722
(lp4723
VNVDA
p4724
aVPNC
p4725
aVEOG
p4726
asS'11222016'
p4727
(lp4728
sS'11052015'
p4729
(lp4730
VFB
p4731
asS'01252017'
p4732
(lp4733
VNVDA
p4734
aVADP
p4735
aVEOG
p4736
aVBXP
p4737
asS'10022015'
p4738
(lp4739
VKMB
p4740
aVPSA
p4741
asS'03162015'
p4742
(lp4743
VPCLN
p4744
aVAMZN
p4745
aVHAR
p4746
aVCXO
p4747
aVDNB
p4748
aVXEC
p4749
aVBA
p4750
aVPXD
p4751
aVLLL
p4752
aVFFIV
p4753
aVZBH
p4754
aVAYI
p4755
aVROP
p4756
aVGWW
p4757
aVHON
p4758
aVAVGO
p4759
aVHD
p4760
aVHSY
p4761
aVCELG
p4762
aVAMP
p4763
aVDIS
p4764
aVANTM
p4765
aVUHS
p4766
aVMNK
p4767
aVAET
p4768
aVAZO
p4769
aVVRTX
p4770
aVRL
p4771
aVHUM
p4772
aVSIG
p4773
aVEW
p4774
aVESS
p4775
aVPRGO
p4776
aVCMG
p4777
asS'01112016'
p4778
(lp4779
VGOOG
p4780
aVFDX
p4781
asS'01112017'
p4782
(lp4783
VNVDA
p4784
aVCB
p4785
aVADP
p4786
aVPNC
p4787
aVEOG
p4788
aVBXP
p4789
aVMA
p4790
asS'09102015'
p4791
(lp4792
sS'07232015'
p4793
(lp4794
VACN
p4795
aVBRK-B
p4796
asS'09152016'
p4797
(lp4798
sS'01212016'
p4799
(lp4800
VGOOG
p4801
aVFDX
p4802
aVLMT
p4803
asS'09152015'
p4804
(lp4805
VALXN
p4806
asS'06182015'
p4807
(lp4808
sS'02032016'
p4809
(lp4810
VGOOG
p4811
asS'02032017'
p4812
(lp4813
VEOG
p4814
aVBXP
p4815
aVPNC
p4816
aVNVDA
p4817
asS'01202016'
p4818
(lp4819
VGOOG
p4820
aVFDX
p4821
asS'01202017'
p4822
(lp4823
VNVDA
p4824
aVADP
p4825
aVBXP
p4826
aVEOG
p4827
asS'02132015'
p4828
(lp4829
VCMG
p4830
aVREGN
p4831
aVESS
p4832
aVCELG
p4833
aVUNH
p4834
aVPRGO
p4835
aVPXD
p4836
aVPVH
p4837
aVJNJ
p4838
aVSIG
p4839
aVGWW
p4840
aVHUM
p4841
aVBIIB
p4842
aVBA
p4843
aVUNP
p4844
aVAVGO
p4845
aVHON
p4846
aVEW
p4847
aVMNK
p4848
aVHD
p4849
aVXEC
p4850
aVDIS
p4851
aVWDC
p4852
aVFFIV
p4853
aVROK
p4854
aVAMP
p4855
aVAAPL
p4856
aVROP
p4857
aVAMZN
p4858
aVPCLN
p4859
asS'10272016'
p4860
(lp4861
sS'03242015'
p4862
(lp4863
VPCLN
p4864
aVNFLX
p4865
aVBA
p4866
aVMON
p4867
aVHAR
p4868
aVTDG
p4869
aVSHW
p4870
aVAAPL
p4871
aVICE
p4872
aVWDC
p4873
aVDIS
p4874
aVXEC
p4875
aVAVGO
p4876
aVROP
p4877
aVMPC
p4878
aVLLL
p4879
aVHON
p4880
aVUNH
p4881
aVWAT
p4882
aVHSY
p4883
aVPXD
p4884
aVGWW
p4885
aVSRCL
p4886
aVMNK
p4887
aVPRGO
p4888
aVNKE
p4889
aVCELG
p4890
aVUHS
p4891
aVAET
p4892
aVSWKS
p4893
aVTMO
p4894
aVANTM
p4895
aVPVH
p4896
aVEW
p4897
aVSIG
p4898
aVAMGN
p4899
aVRL
p4900
aVHUM
p4901
aVCMG
p4902
aVBIIB
p4903
asS'03242016'
p4904
(lp4905
VPEP
p4906
aVLMT
p4907
aVGOOG
p4908
asS'01292016'
p4909
(lp4910
VGOOG
p4911
asS'05022016'
p4912
(lp4913
VGOOGL
p4914
aVGOOG
p4915
aVALXN
p4916
aVMCK
p4917
aVSYK
p4918
aVPEP
p4919
aVLMT
p4920
aVFB
p4921
asS'12222016'
p4922
(lp4923
VURI
p4924
aVEOG
p4925
aVPNC
p4926
aVNVDA
p4927
asS'10292015'
p4928
(lp4929
VFB
p4930
asS'02292016'
p4931
(lp4932
VCLX
p4933
aVPEP
p4934
aVAPD
p4935
aVFB
p4936
aVGOOG
p4937
asS'10112016'
p4938
(lp4939
VLRCX
p4940
asS'04192016'
p4941
(lp4942
VFB
p4943
aVPEP
p4944
aVLMT
p4945
aVAPD
p4946
aVALXN
p4947
asS'08202015'
p4948
(lp4949
sS'05212015'
p4950
(lp4951
VAMZN
p4952
aVMNST
p4953
aVPXD
p4954
aVGWW
p4955
aVCXO
p4956
aVRL
p4957
aVSIG
p4958
aVFFIV
p4959
aVDIS
p4960
aVEFX
p4961
aVMPC
p4962
aVPRGO
p4963
aVROST
p4964
aVPVH
p4965
aVMON
p4966
aVEXPE
p4967
aVLH
p4968
aVROK
p4969
aVBCR
p4970
aVHON
p4971
aVBA
p4972
aVWAT
p4973
aVAMP
p4974
aVTMO
p4975
aVSRCL
p4976
aVAYI
p4977
aVUNH
p4978
aVCELG
p4979
aVLLL
p4980
aVSWKS
p4981
aVAVGO
p4982
aVHUM
p4983
aVMNK
p4984
asS'10052016'
p4985
(lp4986
sS'10052015'
p4987
(lp4988
VKMB
p4989
asS'05112015'
p4990
(lp4991
VPCLN
p4992
aVPXD
p4993
aVCXO
p4994
aVHUM
p4995
aVHAR
p4996
aVNFLX
p4997
aVPRGO
p4998
aVLH
p4999
aVCMG
p5000
aVSIG
p5001
aVLLL
p5002
aVBA
p5003
aVUNH
p5004
aVDIS
p5005
aVRL
p5006
aVUHS
p5007
aVGWW
p5008
aVRTN
p5009
aVAMP
p5010
aVHON
p5011
aVTMO
p5012
aVPVH
p5013
aVMPC
p5014
aVFFIV
p5015
aVMON
p5016
aVEXPE
p5017
aVMNK
p5018
aVWAT
p5019
aVROK
p5020
asS'12272016'
p5021
(lp5022
VURI
p5023
aVEOG
p5024
aVPNC
p5025
aVNVDA
p5026
asS'12222015'
p5027
(lp5028
VGOOG
p5029
aVIBM
p5030
asS'01092017'
p5031
(lp5032
VNVDA
p5033
aVCB
p5034
aVADP
p5035
aVEOG
p5036
aVBXP
p5037
asS'07102015'
p5038
(lp5039
s.