(dp1
S'12022016'
p2
(lp3
sS'03232016'
p4
(lp5
sS'11072016'
p6
(lp7
sS'12022015'
p8
(lp9
sS'12242015'
p10
(lp11
sS'04292016'
p12
(lp13
sS'05172016'
p14
(lp15
sS'05272016'
p16
(lp17
sS'11252016'
p18
(lp19
sS'05232016'
p20
(lp21
sS'08122016'
p22
(lp23
sS'04052016'
p24
(lp25
sS'08082016'
p26
(lp27
sS'06302016'
p28
(lp29
sS'09142016'
p30
(lp31
sS'03152016'
p32
(lp33
sS'12062016'
p34
(lp35
sS'05062016'
p36
(lp37
sS'11022016'
p38
(lp39
sS'02082017'
p40
(lp41
sS'06132016'
p42
(lp43
sS'11212016'
p44
(lp45
sS'07292016'
p46
(lp47
sS'11042016'
p48
(lp49
sS'02242016'
p50
(lp51
sS'02092016'
p52
(lp53
sS'02092017'
p54
(lp55
sS'12122016'
p56
(lp57
sS'12232015'
p58
(lp59
sS'12172015'
p60
(lp61
sS'12182015'
p62
(lp63
sS'12232016'
p64
(lp65
sS'01032017'
p66
(lp67
sS'02052016'
p68
(lp69
sS'03142016'
p70
(lp71
sS'04262016'
p72
(lp73
sS'07152016'
p74
(lp75
sS'01072016'
p76
(lp77
sS'05182016'
p78
(lp79
sS'07192016'
p80
(lp81
sS'10192016'
p82
(lp83
sS'12112015'
p84
(lp85
sS'07262016'
p86
(lp87
sS'06092016'
p88
(lp89
sS'07132016'
p90
(lp91
sS'08262016'
p92
(lp93
sS'02172016'
p94
(lp95
sS'01262016'
p96
(lp97
sS'01262017'
p98
(lp99
sS'09062016'
p100
(lp101
sS'04042016'
p102
(lp103
sS'05102016'
p104
(lp105
sS'03292016'
p106
(lp107
sS'02232016'
p108
(lp109
sS'09082016'
p110
(lp111
sS'03302016'
p112
(lp113
sS'08032016'
p114
(lp115
sS'12212016'
p116
(lp117
sS'12212015'
p118
(lp119
sS'02112016'
p120
(lp121
sS'07222016'
p122
(lp123
sS'02022017'
p124
(lp125
sS'11032016'
p126
(lp127
sS'11152016'
p128
(lp129
sS'12202016'
p130
(lp131
sS'01102017'
p132
(lp133
sS'01042016'
p134
(lp135
sS'01042017'
p136
(lp137
sS'09222016'
p138
(lp139
sS'10242016'
p140
(lp141
sS'06012016'
p142
(lp143
sS'12082015'
p144
(lp145
sS'12072015'
p146
(lp147
sS'12162016'
p148
(lp149
sS'12292016'
p150
(lp151
sS'12292015'
p152
(lp153
sS'03072016'
p154
(lp155
sS'04182016'
p156
(lp157
sS'12102015'
p158
(lp159
sS'03112016'
p160
(lp161
sS'06022016'
p162
(lp163
sS'09122016'
p164
(lp165
sS'09292016'
p166
(lp167
sS'05242016'
p168
(lp169
sS'12302016'
p170
(lp171
sS'08052016'
p172
(lp173
sS'01052016'
p174
(lp175
sS'03172016'
p176
(lp177
sS'01122017'
p178
(lp179
sS'07282016'
p180
(lp181
sS'04222016'
p182
(lp183
sS'03082016'
p184
(lp185
sS'01132016'
p186
(lp187
sS'05092016'
p188
(lp189
sS'10282016'
p190
(lp191
sS'02012016'
p192
(lp193
sS'02012017'
p194
(lp195
sS'02182016'
p196
(lp197
sS'07142016'
p198
(lp199
sS'08102016'
p200
(lp201
sS'12142016'
p202
(lp203
sS'12142015'
p204
(lp205
sS'05202016'
p206
(lp207
sS'07122016'
p208
(lp209
sS'11142016'
p210
(lp211
sS'03182016'
p212
(lp213
sS'12152016'
p214
(lp215
sS'01192016'
p216
(lp217
sS'05162016'
p218
(lp219
sS'07202016'
p220
(lp221
sS'03282016'
p222
(lp223
sS'01192017'
p224
(lp225
sS'04012016'
p226
(lp227
sS'01122016'
p228
(lp229
sS'12092015'
p230
(lp231
sS'02222016'
p232
(lp233
sS'12092016'
p234
(lp235
sS'12162015'
p236
(lp237
sS'08172016'
p238
(lp239
sS'04252016'
p240
(lp241
sS'06272016'
p242
(lp243
sS'03022016'
p244
(lp245
sS'12072016'
p246
(lp247
sS'01282016'
p248
(lp249
sS'12082016'
p250
(lp251
sS'05192016'
p252
(lp253
sS'08162016'
p254
(lp255
sS'03042016'
p256
(lp257
sS'07082016'
p258
(lp259
sS'09232016'
p260
(lp261
sS'10252016'
p262
(lp263
sS'02162016'
p264
(lp265
sS'08022016'
p266
(lp267
sS'06142016'
p268
(lp269
sS'07072016'
p270
(lp271
sS'08252016'
p272
(lp273
sS'03162016'
p274
(lp275
sS'06212016'
p276
(lp277
sS'10212016'
p278
(lp279
sS'11082016'
p280
(lp281
sS'05132016'
p282
(lp283
sS'11092016'
p284
(lp285
sS'04122016'
p286
(lp287
sS'02122016'
p288
(lp289
sS'07062016'
p290
(lp291
sS'10122016'
p292
(lp293
sS'12032015'
p294
(lp295
sS'10142016'
p296
(lp297
sS'04062016'
p298
(lp299
sS'06032016'
p300
(lp301
sS'09272016'
p302
(lp303
sS'08092016'
p304
(lp305
sS'08302016'
p306
(lp307
sS'08232016'
p308
(lp309
sS'03312016'
p310
(lp311
sS'03102016'
p312
(lp313
sS'09162016'
p314
(lp315
sS'11172016'
p316
(lp317
sS'02102017'
p318
(lp319
sS'05032016'
p320
(lp321
sS'05262016'
p322
(lp323
sS'07252016'
p324
(lp325
sS'08112016'
p326
(lp327
sS'10062016'
p328
(lp329
sS'11232016'
p330
(lp331
sS'04112016'
p332
(lp333
sS'03032016'
p334
(lp335
sS'04212016'
p336
(lp337
sS'10132016'
p338
(lp339
sS'04072016'
p340
(lp341
sS'11112016'
p342
(lp343
sS'12152015'
p344
(lp345
sS'06062016'
p346
(lp347
sS'12042015'
p348
(lp349
sS'08042016'
p350
(lp351
sS'05042016'
p352
(lp353
sS'03222016'
p354
(lp355
sS'01272017'
p356
(lp357
sS'01272016'
p358
(lp359
sS'01302017'
p360
(lp361
sS'09022016'
p362
(lp363
sS'02262016'
p364
(lp365
sS'02192016'
p366
(lp367
sS'01052017'
p368
(lp369
sS'10112016'
p370
(lp371
sS'09092016'
p372
(lp373
sS'04152016'
p374
(lp375
sS'09212016'
p376
(lp377
sS'01132017'
p378
(lp379
sS'01222016'
p380
(lp381
sS'08312016'
p382
(lp383
sS'04272016'
p384
(lp385
sS'12052016'
p386
(lp387
sS'06162016'
p388
(lp389
sS'02252016'
p390
(lp391
sS'05122016'
p392
(lp393
sS'06222016'
p394
(lp395
sS'12132016'
p396
(lp397
sS'04132016'
p398
(lp399
sS'03212016'
p400
(lp401
sS'11012016'
p402
(lp403
sS'08242016'
p404
(lp405
sS'09302016'
p406
(lp407
sS'11302016'
p408
(lp409
sS'06282016'
p410
(lp411
sS'07012016'
p412
(lp413
sS'09202016'
p414
(lp415
sS'06242016'
p416
(lp417
sS'10262016'
p418
(lp419
sS'06082016'
p420
(lp421
sS'06072016'
p422
(lp423
sS'02022016'
p424
(lp425
sS'07052016'
p426
(lp427
sS'04082016'
p428
(lp429
sS'02042016'
p430
(lp431
sS'08012016'
p432
(lp433
sS'02082016'
p434
(lp435
sS'08292016'
p436
(lp437
sS'05312016'
p438
(lp439
sS'11282016'
p440
(lp441
sS'01182017'
p442
(lp443
sS'11222016'
p444
(lp445
sS'01232017'
p446
(lp447
sS'01172017'
p448
(lp449
sS'01252017'
p450
(lp451
sS'01252016'
p452
(lp453
sS'12282016'
p454
(lp455
sS'04282016'
p456
(lp457
sS'02102016'
p458
(lp459
sS'12282015'
p460
(lp461
sS'01112016'
p462
(lp463
sS'01112017'
p464
(lp465
sS'08182016'
p466
(lp467
sS'07182016'
p468
(lp469
sS'09262016'
p470
(lp471
sS'10042016'
p472
(lp473
sS'09072016'
p474
(lp475
sS'05052016'
p476
(lp477
sS'11182016'
p478
(lp479
sS'03092016'
p480
(lp481
sS'06102016'
p482
(lp483
sS'08152016'
p484
(lp485
sS'11162016'
p486
(lp487
sS'04202016'
p488
(lp489
sS'01242017'
p490
(lp491
sS'09152016'
p492
(lp493
sS'01212016'
p494
(lp495
sS'06172016'
p496
(lp497
sS'02032016'
p498
(lp499
sS'02032017'
p500
(lp501
sS'01202016'
p502
(lp503
sS'01202017'
p504
(lp505
sS'08222016'
p506
(lp507
sS'08192016'
p508
(lp509
sS'10182016'
p510
(lp511
sS'10272016'
p512
(lp513
sS'09282016'
p514
(lp515
sS'03242016'
p516
(lp517
sS'10072016'
p518
(lp519
sS'11102016'
p520
(lp521
sS'12312015'
p522
(lp523
sS'01082016'
p524
(lp525
sS'01292016'
p526
(lp527
sS'10102016'
p528
(lp529
sS'05022016'
p530
(lp531
sS'07272016'
p532
(lp533
sS'05252016'
p534
(lp535
sS'12222016'
p536
(lp537
sS'04142016'
p538
(lp539
sS'10172016'
p540
(lp541
sS'09132016'
p542
(lp543
sS'01312017'
p544
(lp545
sS'10312016'
p546
(lp547
sS'11292016'
p548
(lp549
sS'01062016'
p550
(lp551
sS'02292016'
p552
(lp553
sS'07212016'
p554
(lp555
sS'04192016'
p556
(lp557
sS'10202016'
p558
(lp559
sS'09012016'
p560
(lp561
sS'09192016'
p562
(lp563
sS'07112016'
p564
(lp565
sS'12192016'
p566
(lp567
sS'10032016'
p568
(lp569
sS'05112016'
p570
(lp571
sS'01142016'
p572
(lp573
sS'11302015'
p574
(lp575
sS'06152016'
p576
(lp577
sS'06232016'
p578
(lp579
sS'10052016'
p580
(lp581
sS'01062017'
p582
(lp583
sS'01152016'
p584
(lp585
sS'06202016'
p586
(lp587
sS'12012015'
p588
(lp589
sS'12012016'
p590
(lp591
sS'12272016'
p592
(lp593
sS'12302015'
p594
(lp595
sS'12222015'
p596
(lp597
sS'01092017'
p598
(lp599
sS'03012016'
p600
(lp601
sS'06292016'
p602
(lp603
s.