(dp1
S'12022016'
p2
(lp3
VAMZN
p4
aVGOOGL
p5
aVPRU
p6
aVAPD
p7
aVCMG
p8
aVTDG
p9
aVFDX
p10
aVPX
p11
aVRTN
p12
aVPCLN
p13
aVMHK
p14
aVTMO
p15
aVPVH
p16
aVILMN
p17
aVXEC
p18
aVVMC
p19
aVCVX
p20
aVROK
p21
aVUTX
p22
asS'03232016'
p23
(lp24
VAGN
p25
aVSIG
p26
aVCMI
p27
aVCMG
p28
aVAVGO
p29
aVPCLN
p30
aVAMT
p31
aVEFX
p32
aVMHK
p33
aVFFIV
p34
aVBDX
p35
aVTRV
p36
aVPRGO
p37
aVUHS
p38
aVLMT
p39
aVALXN
p40
aVMCK
p41
aVEQIX
p42
asS'11072016'
p43
(lp44
VGS
p45
aVHUM
p46
aVRTN
p47
aVPCLN
p48
aVPH
p49
aVSHW
p50
aVBDX
p51
aVPVH
p52
aVILMN
p53
aVXEC
p54
aVCVX
p55
aVAYI
p56
aVSRE
p57
aVUTX
p58
aVSTZ
p59
aVMCK
p60
aVEQIX
p61
asS'12022015'
p62
(lp63
VNFLX
p64
aVGD
p65
aVGWW
p66
aVREGN
p67
aVIFF
p68
aVHD
p69
aVAVGO
p70
aVLLL
p71
aVUHS
p72
aVFB
p73
aVUNH
p74
aVNKE
p75
aVBXP
p76
aVAYI
p77
aVDIS
p78
aVPPG
p79
aVICE
p80
aVALXN
p81
aVSTZ
p82
asS'12242015'
p83
(lp84
VREGN
p85
aVIFF
p86
aVAVGO
p87
aVHUM
p88
aVUHS
p89
aVEXPE
p90
aVDNB
p91
aVGILD
p92
aVBXP
p93
aVAYI
p94
aVCELG
p95
aVGOOG
p96
aVICE
p97
aVSTZ
p98
aVMCD
p99
asS'04292016'
p100
(lp101
VSIG
p102
aVCMI
p103
aVCMG
p104
aVHD
p105
aVHUM
p106
aVPX
p107
aVMHK
p108
aVORLY
p109
aVBLK
p110
aVEW
p111
aVACN
p112
aVFB
p113
aVWHR
p114
aVILMN
p115
aVAYI
p116
aVCELG
p117
aVPXD
p118
aVICE
p119
aVSTZ
p120
aVMCK
p121
aVEQIX
p122
asS'05172016'
p123
(lp124
VSJM
p125
aVSIG
p126
aVGWW
p127
aVCMI
p128
aVCMG
p129
aVFDX
p130
aVPX
p131
aVROP
p132
aVMHK
p133
aVSHW
p134
aVORLY
p135
aVBLK
p136
aVPSA
p137
aVUHS
p138
aVACN
p139
aVFISV
p140
aVAYI
p141
aVBIIB
p142
aVPXD
p143
aVANTM
p144
aVSTZ
p145
aVMCK
p146
asS'05272016'
p147
(lp148
VUHS
p149
aVNFLX
p150
aVSJM
p151
aVSIG
p152
aVSYK
p153
aVROP
p154
aVORLY
p155
aVTRV
p156
aVMON
p157
aVACN
p158
aVITW
p159
aVAYI
p160
aVPXD
p161
aVICE
p162
aVSTZ
p163
aVMCK
p164
aVEQIX
p165
asS'07062016'
p166
(lp167
VSRCL
p168
aVHSY
p169
aVCXO
p170
aVCMG
p171
aVAYI
p172
aVORLY
p173
aVINTU
p174
aVKMB
p175
aVFISV
p176
aVZBH
p177
aVXEC
p178
aVBXP
p179
aVAAP
p180
aVPPG
p181
aVBIIB
p182
aVPXD
p183
aVALXN
p184
aVMTB
p185
asS'11252016'
p186
(lp187
VAMZN
p188
aVAMGN
p189
aVHAR
p190
aVCMG
p191
aVTDG
p192
aVFDX
p193
aVPX
p194
aVPCLN
p195
aVROP
p196
aVORLY
p197
aVBDX
p198
aVFB
p199
aVTMO
p200
aVPVH
p201
aVILMN
p202
aVXEC
p203
aVCVX
p204
aVAYI
p205
aVEQIX
p206
aVPNC
p207
asS'05232016'
p208
(lp209
VUHS
p210
aVSIG
p211
aVCMI
p212
aVHUM
p213
aVROP
p214
aVMHK
p215
aVORLY
p216
aVBDX
p217
aVTRV
p218
aVACN
p219
aVFB
p220
aVAAP
p221
aVPXD
p222
aVSTZ
p223
aVMCK
p224
aVEQIX
p225
asS'04052016'
p226
(lp227
VAGN
p228
aVGS
p229
aVCMI
p230
aVCMG
p231
aVRTN
p232
aVPH
p233
aVMHK
p234
aVACN
p235
aVFB
p236
aVFISV
p237
aVWHR
p238
aVSPG
p239
aVAYI
p240
aVCELG
p241
aVGOOG
p242
aVHON
p243
aVICE
p244
aVSTZ
p245
aVEQIX
p246
asS'08082016'
p247
(lp248
VAGN
p249
aVAAPL
p250
aVVRTX
p251
aVGS
p252
aVSYK
p253
aVAYI
p254
aVHUM
p255
aVPCLN
p256
aVPH
p257
aVEFX
p258
aVSHW
p259
aVORLY
p260
aVDLR
p261
aVBLK
p262
aVEW
p263
aVBDX
p264
aVFISV
p265
aVBCR
p266
aVWAT
p267
aVCVX
p268
aVAAP
p269
aVPPG
p270
aVALXN
p271
aVSTZ
p272
aVMCK
p273
asS'03082016'
p274
(lp275
VGS
p276
aVAET
p277
aVREGN
p278
aVFDX
p279
aVPX
p280
aVSHW
p281
aVTRV
p282
aVPRGO
p283
aVWHR
p284
aVGOOG
p285
aVHON
p286
aVALXN
p287
aVEQIX
p288
asS'09142016'
p289
(lp290
VAAPL
p291
aVGOOGL
p292
aVGS
p293
aVHUM
p294
aVPH
p295
aVPM
p296
aVSHW
p297
aVFFIV
p298
aVEW
p299
aVBDX
p300
aVMA
p301
aVFISV
p302
aVWYNN
p303
aVCB
p304
aVILMN
p305
aVADBE
p306
aVCVX
p307
aVPPG
p308
aVSRE
p309
aVGOOG
p310
aVALXN
p311
asS'03152016'
p312
(lp313
VAGN
p314
aVSIG
p315
aVCXO
p316
aVPX
p317
aVMHK
p318
aVSHW
p319
aVTRV
p320
aVPRGO
p321
aVWHR
p322
aVAZO
p323
aVPPG
p324
aVALXN
p325
aVEQIX
p326
asS'12062016'
p327
(lp328
VAMZN
p329
aVAON
p330
aVPRU
p331
aVAPD
p332
aVCMG
p333
aVTDG
p334
aVCTAS
p335
aVRTN
p336
aVAMG
p337
aVPCLN
p338
aVMHK
p339
aVSHW
p340
aVORLY
p341
aVBLK
p342
aVBDX
p343
aVPSA
p344
aVFISV
p345
aVZBH
p346
aVTMO
p347
aVPVH
p348
aVILMN
p349
aVCVX
p350
aVEQIX
p351
asS'05062016'
p352
(lp353
VSIG
p354
aVGWW
p355
aVCMI
p356
aVCMG
p357
aVFDX
p358
aVPX
p359
aVMHK
p360
aVBLK
p361
aVEW
p362
aVBDX
p363
aVUHS
p364
aVACN
p365
aVFB
p366
aVWHR
p367
aVILMN
p368
aVPXD
p369
aVICE
p370
aVMCK
p371
asS'11022016'
p372
(lp373
VAAPL
p374
aVGS
p375
aVHUM
p376
aVRTN
p377
aVPCLN
p378
aVPH
p379
aVSHW
p380
aVNEE
p381
aVTMO
p382
aVILMN
p383
aVXEC
p384
aVCVX
p385
aVAYI
p386
aVMNST
p387
aVALXN
p388
aVUTX
p389
aVMCK
p390
asS'02082017'
p391
(lp392
VGOOGL
p393
aVAON
p394
aVSNA
p395
aVCXO
p396
aVCMG
p397
aVAVGO
p398
aVLLL
p399
aVLRCX
p400
aVEFX
p401
aVDLR
p402
aVBLK
p403
aVFISV
p404
aVZBH
p405
aVILMN
p406
aVVMC
p407
aVMLM
p408
aVISRG
p409
asS'02082016'
p410
(lp411
VSJM
p412
aVGOOGL
p413
aVGS
p414
aVAMZN
p415
aVAPD
p416
aVAVGO
p417
aVEFX
p418
aVTRV
p419
aVFB
p420
aVILMN
p421
aVUNH
p422
aVAZO
p423
aVAYI
p424
aVBIIB
p425
aVLH
p426
aVGOOG
p427
aVHON
p428
aVALXN
p429
asS'11212016'
p430
(lp431
VGS
p432
aVAMGN
p433
aVHAR
p434
aVAPD
p435
aVCMG
p436
aVTDG
p437
aVFDX
p438
aVHUM
p439
aVRTN
p440
aVPCLN
p441
aVEFX
p442
aVFFIV
p443
aVFISV
p444
aVTMO
p445
aVPVH
p446
aVILMN
p447
aVXEC
p448
aVCVX
p449
aVAYI
p450
aVROK
p451
aVEQIX
p452
asS'07292016'
p453
(lp454
VSRCL
p455
aVGS
p456
aVHUM
p457
aVPCLN
p458
aVORLY
p459
aVDLR
p460
aVBLK
p461
aVEW
p462
aVACN
p463
aVFISV
p464
aVBCR
p465
aVILMN
p466
aVCVX
p467
aVAAP
p468
aVPPG
p469
aVSRE
p470
aVALXN
p471
aVSTZ
p472
aVMCK
p473
asS'11042016'
p474
(lp475
VGS
p476
aVAVGO
p477
aVHUM
p478
aVRTN
p479
aVPCLN
p480
aVPH
p481
aVTMO
p482
aVILMN
p483
aVXEC
p484
aVADBE
p485
aVCVX
p486
aVAYI
p487
aVALXN
p488
aVUTX
p489
aVMCK
p490
aVEQIX
p491
asS'02242016'
p492
(lp493
VGS
p494
aVAPD
p495
aVEFX
p496
aVTRV
p497
aVUHS
p498
aVLH
p499
aVGOOG
p500
aVESS
p501
aVHON
p502
aVALXN
p503
aVSTZ
p504
aVMCK
p505
aVEQIX
p506
asS'02092016'
p507
(lp508
VGS
p509
aVUNH
p510
aVFB
p511
aVTMO
p512
aVTRV
p513
aVGOOG
p514
aVAYI
p515
aVHON
p516
aVICE
p517
aVILMN
p518
aVCLX
p519
aVAMZN
p520
aVSTZ
p521
aVSJM
p522
aVAPD
p523
asS'12232016'
p524
(lp525
VEOG
p526
aVGOOGL
p527
aVAON
p528
aVHRS
p529
aVCMG
p530
aVCME
p531
aVPX
p532
aVAMG
p533
aVPCLN
p534
aVPH
p535
aVLRCX
p536
aVBLK
p537
aVBDX
p538
aVFISV
p539
aVZBH
p540
aVTMO
p541
aVSPG
p542
aVNVDA
p543
aVCVX
p544
aVAYI
p545
aVEQIX
p546
aVPNC
p547
asS'12122016'
p548
(lp549
VAMZN
p550
aVGOOGL
p551
aVAON
p552
aVPRU
p553
aVCMG
p554
aVTDG
p555
aVAMG
p556
aVPCLN
p557
aVPH
p558
aVLRCX
p559
aVMHK
p560
aVORLY
p561
aVBLK
p562
aVFISV
p563
aVZBH
p564
aVTMO
p565
aVILMN
p566
aVXEC
p567
aVCVX
p568
aVAYI
p569
asS'12232015'
p570
(lp571
VREGN
p572
aVIFF
p573
aVAVGO
p574
aVHUM
p575
aVLLL
p576
aVUHS
p577
aVFB
p578
aVEXPE
p579
aVDNB
p580
aVGILD
p581
aVUNH
p582
aVAYI
p583
aVCELG
p584
aVGOOG
p585
aVICE
p586
aVSTZ
p587
aVNKE
p588
aVMCD
p589
asS'12172015'
p590
(lp591
VSRCL
p592
aVIFF
p593
aVHUM
p594
aVPX
p595
aVRTN
p596
aVLLL
p597
aVUHS
p598
aVFB
p599
aVBCR
p600
aVGILD
p601
aVAYI
p602
aVBIIB
p603
aVCELG
p604
aVGOOG
p605
aVICE
p606
aVANTM
p607
aVSTZ
p608
aVNKE
p609
aVMCD
p610
asS'12182015'
p611
(lp612
VSJM
p613
aVREGN
p614
aVIFF
p615
aVAVGO
p616
aVHUM
p617
aVLLL
p618
aVFFIV
p619
aVUHS
p620
aVGILD
p621
aVEQIX
p622
aVPPG
p623
aVGOOG
p624
aVICE
p625
aVMCD
p626
asS'05162016'
p627
(lp628
VSJM
p629
aVSIG
p630
aVGWW
p631
aVCMI
p632
aVCMG
p633
aVFDX
p634
aVMHK
p635
aVSHW
p636
aVFFIV
p637
aVORLY
p638
aVBLK
p639
aVNOC
p640
aVUHS
p641
aVACN
p642
aVFISV
p643
aVCVX
p644
aVAYI
p645
aVPXD
p646
aVANTM
p647
aVSTZ
p648
aVMCK
p649
asS'01032017'
p650
(lp651
VEOG
p652
aVAMZN
p653
aVAON
p654
aVHRS
p655
aVAPD
p656
aVCMG
p657
aVAMG
p658
aVLLL
p659
aVSHW
p660
aVORLY
p661
aVBLK
p662
aVPSA
p663
aVFISV
p664
aVZBH
p665
aVTMO
p666
aVILMN
p667
aVMMM
p668
aVNVDA
p669
aVCVX
p670
asS'02052016'
p671
(lp672
VSJM
p673
aVGS
p674
aVAMZN
p675
aVAPD
p676
aVAVGO
p677
aVFB
p678
aVILMN
p679
aVUNH
p680
aVAYI
p681
aVGOOG
p682
aVHON
p683
aVSTZ
p684
asS'03142016'
p685
(lp686
VAGN
p687
aVGOOGL
p688
aVGS
p689
aVPX
p690
aVEFX
p691
aVSHW
p692
aVPRGO
p693
aVWHR
p694
aVGOOG
p695
aVALXN
p696
aVSTZ
p697
asS'07152016'
p698
(lp699
VSJM
p700
aVSRCL
p701
aVAPD
p702
aVCXO
p703
aVAVGO
p704
aVHUM
p705
aVPX
p706
aVMHK
p707
aVORLY
p708
aVEW
p709
aVFISV
p710
aVBCR
p711
aVCVX
p712
aVBXP
p713
aVAAP
p714
aVAYI
p715
aVPPG
p716
aVSRE
p717
aVSTZ
p718
aVMCK
p719
asS'01072016'
p720
(lp721
VVRTX
p722
aVAMZN
p723
aVSNA
p724
aVAPD
p725
aVREGN
p726
aVIFF
p727
aVHD
p728
aVHUM
p729
aVRTN
p730
aVLLL
p731
aVULTA
p732
aVUHS
p733
aVUNH
p734
aVAYI
p735
aVDIS
p736
aVLH
p737
asS'05182016'
p738
(lp739
VSJM
p740
aVSIG
p741
aVGOOGL
p742
aVSYK
p743
aVGWW
p744
aVCMI
p745
aVPX
p746
aVROP
p747
aVMHK
p748
aVORLY
p749
aVUHS
p750
aVACN
p751
aVFB
p752
aVCVX
p753
aVAYI
p754
aVPXD
p755
aVSTZ
p756
aVMCK
p757
asS'07192016'
p758
(lp759
VAON
p760
aVGS
p761
aVAPD
p762
aVAYI
p763
aVAVGO
p764
aVMHK
p765
aVSHW
p766
aVORLY
p767
aVDLR
p768
aVEW
p769
aVACN
p770
aVFISV
p771
aVZBH
p772
aVILMN
p773
aVXEC
p774
aVCVX
p775
aVAAP
p776
aVBIIB
p777
aVSRE
p778
aVCELG
p779
aVPXD
p780
aVALXN
p781
aVSTZ
p782
aVMCK
p783
asS'01302017'
p784
(lp785
VEOG
p786
aVGOOGL
p787
aVAON
p788
aVAPD
p789
aVCMI
p790
aVCMG
p791
aVLLL
p792
aVPH
p793
aVLRCX
p794
aVDLR
p795
aVFISV
p796
aVZBH
p797
aVCI
p798
aVILMN
p799
aVAYI
p800
aVISRG
p801
asS'12112015'
p802
(lp803
VSRCL
p804
aVREGN
p805
aVIFF
p806
aVRTN
p807
aVUHS
p808
aVACN
p809
aVFB
p810
aVBCR
p811
aVGILD
p812
aVXEC
p813
aVAZO
p814
aVAYI
p815
aVPPG
p816
aVCELG
p817
aVGOOG
p818
aVICE
p819
aVSTZ
p820
aVNKE
p821
asS'07262016'
p822
(lp823
VAPD
p824
aVCMI
p825
aVAYI
p826
aVHUM
p827
aVPCLN
p828
aVPH
p829
aVORLY
p830
aVDLR
p831
aVBLK
p832
aVPSA
p833
aVNEE
p834
aVACN
p835
aVFISV
p836
aVILMN
p837
aVBIIB
p838
aVSRE
p839
aVSTZ
p840
aVMCK
p841
asS'06092016'
p842
(lp843
VGS
p844
aVSYK
p845
aVCXO
p846
aVCMG
p847
aVHUM
p848
aVMHK
p849
aVFFIV
p850
aVORLY
p851
aVEW
p852
aVINTU
p853
aVULTA
p854
aVACN
p855
aVAYI
p856
aVBIIB
p857
aVSTZ
p858
aVMCK
p859
asS'07132016'
p860
(lp861
VCXO
p862
aVAYI
p863
aVHUM
p864
aVSHW
p865
aVORLY
p866
aVDLR
p867
aVEW
p868
aVBDX
p869
aVACN
p870
aVFISV
p871
aVZBH
p872
aVILMN
p873
aVXEC
p874
aVBXP
p875
aVPPG
p876
aVSRE
p877
aVSTZ
p878
asS'08262016'
p879
(lp880
VAAPL
p881
aVAPD
p882
aVHUM
p883
aVPCLN
p884
aVPH
p885
aVORLY
p886
aVEW
p887
aVFISV
p888
aVPVH
p889
aVADS
p890
aVILMN
p891
aVXEC
p892
aVADBE
p893
aVALXN
p894
aVSTZ
p895
aVMCO
p896
asS'02172016'
p897
(lp898
VGS
p899
aVESS
p900
aVLLL
p901
aVGOOG
p902
aVHON
p903
aVTRV
p904
aVICE
p905
aVALXN
p906
aVAMZN
p907
aVSTZ
p908
aVEQIX
p909
aVNOC
p910
aVAPD
p911
asS'01262016'
p912
(lp913
VSJM
p914
aVGS
p915
aVAPD
p916
aVULTA
p917
aVNOC
p918
aVNEE
p919
aVGWW
p920
aVILMN
p921
aVUNH
p922
aVAYI
p923
aVGOOG
p924
aVICE
p925
aVSTZ
p926
aVEQIX
p927
asS'01262017'
p928
(lp929
VEOG
p930
aVAON
p931
aVGS
p932
aVURI
p933
aVAPD
p934
aVCMG
p935
aVAMG
p936
aVPH
p937
aVLRCX
p938
aVDLR
p939
aVFISV
p940
aVZBH
p941
aVBCR
p942
aVCI
p943
aVADS
p944
aVILMN
p945
aVVMC
p946
aVNVDA
p947
aVAYI
p948
aVSTZ
p949
asS'09062016'
p950
(lp951
VAAPL
p952
aVGOOGL
p953
aVHUM
p954
aVPCLN
p955
aVPH
p956
aVPM
p957
aVEFX
p958
aVEW
p959
aVMKC
p960
aVADS
p961
aVILMN
p962
aVXEC
p963
aVADBE
p964
aVCVX
p965
aVSRE
p966
aVESS
p967
aVALXN
p968
aVUTX
p969
aVMCO
p970
asS'04042016'
p971
(lp972
VAGN
p973
aVNFLX
p974
aVGOOGL
p975
aVAET
p976
aVCMI
p977
aVCMG
p978
aVAMG
p979
aVMHK
p980
aVFB
p981
aVWHR
p982
aVUNH
p983
aVCELG
p984
aVGOOG
p985
aVHON
p986
aVICE
p987
aVSTZ
p988
aVMCK
p989
aVEQIX
p990
asS'05102016'
p991
(lp992
VSIG
p993
aVGWW
p994
aVCMI
p995
aVCMG
p996
aVFDX
p997
aVHD
p998
aVPX
p999
aVMHK
p1000
aVSHW
p1001
aVORLY
p1002
aVEW
p1003
aVBDX
p1004
aVUHS
p1005
aVACN
p1006
aVFB
p1007
aVWHR
p1008
aVPPG
p1009
aVPXD
p1010
aVHON
p1011
aVICE
p1012
aVSTZ
p1013
aVMCK
p1014
asS'09162016'
p1015
(lp1016
VAGN
p1017
aVGOOGL
p1018
aVGS
p1019
aVSYK
p1020
aVHUM
p1021
aVPH
p1022
aVSHW
p1023
aVEW
p1024
aVPSA
p1025
aVILMN
p1026
aVXEC
p1027
aVPPG
p1028
aVGOOG
p1029
aVALXN
p1030
asS'02232016'
p1031
(lp1032
VHSIC
p1033
aVGS
p1034
aVAMZN
p1035
aVFB
p1036
aVAPD
p1037
aVAVGO
p1038
aVROP
p1039
aVEFX
p1040
aVTRV
p1041
aVUHS
p1042
aVAZO
p1043
aVMNST
p1044
aVLH
p1045
aVPXD
p1046
aVGOOG
p1047
aVHON
p1048
aVALXN
p1049
aVSTZ
p1050
aVEQIX
p1051
asS'09082016'
p1052
(lp1053
VAAPL
p1054
aVGOOGL
p1055
aVGS
p1056
aVAVGO
p1057
aVHUM
p1058
aVRTN
p1059
aVPCLN
p1060
aVPH
p1061
aVSHW
p1062
aVDLR
p1063
aVEW
p1064
aVPSA
p1065
aVMKC
p1066
aVWHR
p1067
aVILMN
p1068
aVADBE
p1069
aVCVX
p1070
aVPPG
p1071
aVSRE
p1072
aVGOOG
p1073
aVALXN
p1074
asS'06082016'
p1075
(lp1076
VNFLX
p1077
aVGS
p1078
aVSYK
p1079
aVCXO
p1080
aVCMG
p1081
aVHUM
p1082
aVMHK
p1083
aVFFIV
p1084
aVORLY
p1085
aVEW
p1086
aVINTU
p1087
aVULTA
p1088
aVACN
p1089
aVAYI
p1090
aVBIIB
p1091
aVPXD
p1092
aVSTZ
p1093
aVMCK
p1094
asS'08032016'
p1095
(lp1096
VGS
p1097
aVEFX
p1098
aVORLY
p1099
aVDLR
p1100
aVBLK
p1101
aVEW
p1102
aVACN
p1103
aVFISV
p1104
aVZBH
p1105
aVBCR
p1106
aVWHR
p1107
aVAYI
p1108
aVPPG
p1109
aVSRE
p1110
aVSTZ
p1111
aVMCK
p1112
asS'12212016'
p1113
(lp1114
VEOG
p1115
aVAMZN
p1116
aVGOOGL
p1117
aVAON
p1118
aVCMG
p1119
aVPX
p1120
aVPCLN
p1121
aVPH
p1122
aVLRCX
p1123
aVORLY
p1124
aVBLK
p1125
aVFISV
p1126
aVZBH
p1127
aVTMO
p1128
aVUNP
p1129
aVVMC
p1130
aVNVDA
p1131
aVCVX
p1132
aVBXP
p1133
aVAYI
p1134
aVPNC
p1135
asS'12212015'
p1136
(lp1137
VSJM
p1138
aVGD
p1139
aVREGN
p1140
aVIFF
p1141
aVLLL
p1142
aVTRV
p1143
aVUHS
p1144
aVGILD
p1145
aVEQIX
p1146
aVAYI
p1147
aVLH
p1148
aVCELG
p1149
aVICE
p1150
aVSTZ
p1151
aVMCD
p1152
asS'02112016'
p1153
(lp1154
VGS
p1155
aVUNH
p1156
aVHSIC
p1157
aVGOOG
p1158
aVAYI
p1159
aVHON
p1160
aVTRV
p1161
aVICE
p1162
aVILMN
p1163
aVSTZ
p1164
aVULTA
p1165
aVEQIX
p1166
aVNOC
p1167
asS'07222016'
p1168
(lp1169
VGD
p1170
aVMHK
p1171
aVSHW
p1172
aVORLY
p1173
aVDLR
p1174
aVINTU
p1175
aVACN
p1176
aVFISV
p1177
aVZBH
p1178
aVBCR
p1179
aVILMN
p1180
aVITW
p1181
aVAAP
p1182
aVAYI
p1183
aVBIIB
p1184
aVSRE
p1185
aVALXN
p1186
aVUTX
p1187
aVSTZ
p1188
aVMCK
p1189
asS'02022017'
p1190
(lp1191
VEOG
p1192
aVGOOGL
p1193
aVAON
p1194
aVCXO
p1195
aVCMI
p1196
aVCMG
p1197
aVCME
p1198
aVLLL
p1199
aVLRCX
p1200
aVMHK
p1201
aVORLY
p1202
aVDLR
p1203
aVBLK
p1204
aVBDX
p1205
aVFISV
p1206
aVZBH
p1207
aVBCR
p1208
aVCI
p1209
aVILMN
p1210
aVCLX
p1211
aVEQIX
p1212
asS'11032016'
p1213
(lp1214
VAAPL
p1215
aVGS
p1216
aVHUM
p1217
aVRTN
p1218
aVPCLN
p1219
aVPH
p1220
aVSHW
p1221
aVNEE
p1222
aVTMO
p1223
aVILMN
p1224
aVXEC
p1225
aVAYI
p1226
aVMLM
p1227
aVALXN
p1228
aVUTX
p1229
aVMCK
p1230
asS'11152016'
p1231
(lp1232
VGS
p1233
aVAMZN
p1234
aVGWW
p1235
aVCMG
p1236
aVHUM
p1237
aVRTN
p1238
aVPCLN
p1239
aVFB
p1240
aVFISV
p1241
aVILMN
p1242
aVXEC
p1243
aVCVX
p1244
aVAYI
p1245
aVGOOG
p1246
aVEQIX
p1247
aVPNC
p1248
asS'12202016'
p1249
(lp1250
VEOG
p1251
aVAMZN
p1252
aVGOOGL
p1253
aVAON
p1254
aVRTN
p1255
aVPCLN
p1256
aVPH
p1257
aVLRCX
p1258
aVORLY
p1259
aVBLK
p1260
aVFISV
p1261
aVZBH
p1262
aVTMO
p1263
aVVMC
p1264
aVMMM
p1265
aVSPG
p1266
aVNVDA
p1267
aVCVX
p1268
aVAYI
p1269
aVDIS
p1270
aVPNC
p1271
asS'01102017'
p1272
(lp1273
VEOG
p1274
aVGOOGL
p1275
aVAON
p1276
aVURI
p1277
aVHRS
p1278
aVSNA
p1279
aVAPD
p1280
aVCMG
p1281
aVPCLN
p1282
aVPH
p1283
aVLRCX
p1284
aVSHW
p1285
aVDLR
p1286
aVBLK
p1287
aVFB
p1288
aVFISV
p1289
aVZBH
p1290
aVTMO
p1291
aVILMN
p1292
aVNVDA
p1293
aVCVX
p1294
aVAYI
p1295
aVMLM
p1296
aVEQIX
p1297
asS'01042016'
p1298
(lp1299
VIFF
p1300
aVHD
p1301
aVAVGO
p1302
aVHUM
p1303
aVRTN
p1304
aVULTA
p1305
aVPRGO
p1306
aVUHS
p1307
aVACN
p1308
aVEXPE
p1309
aVUNH
p1310
aVLMT
p1311
aVAYI
p1312
aVDIS
p1313
aVSTZ
p1314
asS'09122016'
p1315
(lp1316
VAAPL
p1317
aVGOOGL
p1318
aVGS
p1319
aVHUM
p1320
aVRTN
p1321
aVPCLN
p1322
aVPH
p1323
aVSHW
p1324
aVDLR
p1325
aVEW
p1326
aVWHR
p1327
aVPVH
p1328
aVILMN
p1329
aVSRE
p1330
aVGOOG
p1331
asS'09222016'
p1332
(lp1333
VAGN
p1334
aVGS
p1335
aVSYK
p1336
aVCME
p1337
aVHUM
p1338
aVPCLN
p1339
aVORLY
p1340
aVEW
p1341
aVBDX
p1342
aVFB
p1343
aVPVH
p1344
aVILMN
p1345
aVADBE
p1346
aVGOOG
p1347
aVALXN
p1348
aVEQIX
p1349
asS'12072016'
p1350
(lp1351
VAMZN
p1352
aVAON
p1353
aVSNA
p1354
aVAPD
p1355
aVCMG
p1356
aVTDG
p1357
aVCTAS
p1358
aVRTN
p1359
aVAMG
p1360
aVPCLN
p1361
aVMHK
p1362
aVORLY
p1363
aVBLK
p1364
aVBDX
p1365
aVPSA
p1366
aVFISV
p1367
aVZBH
p1368
aVECL
p1369
aVPVH
p1370
aVILMN
p1371
aVCVX
p1372
aVEQIX
p1373
asS'10242016'
p1374
(lp1375
VAGN
p1376
aVAAPL
p1377
aVGOOGL
p1378
aVGS
p1379
aVAPD
p1380
aVCTAS
p1381
aVHUM
p1382
aVPCLN
p1383
aVROP
p1384
aVPH
p1385
aVEFX
p1386
aVSHW
p1387
aVEW
p1388
aVBDX
p1389
aVMA
p1390
aVBCR
p1391
aVILMN
p1392
aVVMC
p1393
aVADBE
p1394
aVCVX
p1395
aVMNST
p1396
aVSRE
p1397
aVMCK
p1398
asS'12162015'
p1399
(lp1400
VSRCL
p1401
aVGWW
p1402
aVCXO
p1403
aVIFF
p1404
aVHUM
p1405
aVPX
p1406
aVRTN
p1407
aVLLL
p1408
aVUHS
p1409
aVFB
p1410
aVBCR
p1411
aVGILD
p1412
aVBXP
p1413
aVGOOG
p1414
aVICE
p1415
aVAVGO
p1416
aVSTZ
p1417
aVNKE
p1418
aVMCD
p1419
asS'12082015'
p1420
(lp1421
VSRCL
p1422
aVGD
p1423
aVCXO
p1424
aVREGN
p1425
aVIFF
p1426
aVLLL
p1427
aVUHS
p1428
aVACN
p1429
aVFB
p1430
aVUNH
p1431
aVEQIX
p1432
aVXEC
p1433
aVAZO
p1434
aVAYI
p1435
aVCELG
p1436
aVSTZ
p1437
aVMCK
p1438
aVNKE
p1439
asS'12072015'
p1440
(lp1441
VSRCL
p1442
aVGD
p1443
aVCXO
p1444
aVREGN
p1445
aVIFF
p1446
aVFFIV
p1447
aVULTA
p1448
aVPRGO
p1449
aVUHS
p1450
aVFB
p1451
aVGILD
p1452
aVXEC
p1453
aVAZO
p1454
aVAYI
p1455
aVLH
p1456
aVCELG
p1457
aVGOOG
p1458
aVICE
p1459
aVSTZ
p1460
asS'12162016'
p1461
(lp1462
VAGN
p1463
aVEOG
p1464
aVAMZN
p1465
aVAON
p1466
aVPRU
p1467
aVHRS
p1468
aVCMG
p1469
aVTDG
p1470
aVCME
p1471
aVAMG
p1472
aVPCLN
p1473
aVLLL
p1474
aVPH
p1475
aVLRCX
p1476
aVMHK
p1477
aVSHW
p1478
aVORLY
p1479
aVFISV
p1480
aVZBH
p1481
aVPVH
p1482
aVILMN
p1483
aVVMC
p1484
aVCVX
p1485
aVPNC
p1486
asS'10192016'
p1487
(lp1488
VAAPL
p1489
aVGS
p1490
aVAPD
p1491
aVCTAS
p1492
aVHUM
p1493
aVPCLN
p1494
aVROP
p1495
aVPH
p1496
aVEFX
p1497
aVSHW
p1498
aVORLY
p1499
aVEW
p1500
aVBDX
p1501
aVMA
p1502
aVNEE
p1503
aVPVH
p1504
aVSRE
p1505
aVILMN
p1506
aVADBE
p1507
aVALXN
p1508
asS'12292015'
p1509
(lp1510
VAAPL
p1511
aVREGN
p1512
aVIFF
p1513
aVHD
p1514
aVAVGO
p1515
aVHUM
p1516
aVTRV
p1517
aVULTA
p1518
aVPRGO
p1519
aVUHS
p1520
aVEXPE
p1521
aVGILD
p1522
aVUNH
p1523
aVBF-B
p1524
aVBXP
p1525
aVAYI
p1526
aVLH
p1527
aVCELG
p1528
aVGOOG
p1529
aVICE
p1530
aVSTZ
p1531
asS'03072016'
p1532
(lp1533
VGS
p1534
aVCMI
p1535
aVREGN
p1536
aVFDX
p1537
aVPX
p1538
aVSHW
p1539
aVTRV
p1540
aVWHR
p1541
aVHON
p1542
aVALXN
p1543
aVEQIX
p1544
asS'04182016'
p1545
(lp1546
VGOOGL
p1547
aVCMG
p1548
aVEW
p1549
aVUHS
p1550
aVKMB
p1551
aVACN
p1552
aVFB
p1553
aVWHR
p1554
aVXEC
p1555
aVSPG
p1556
aVAYI
p1557
aVPPG
p1558
aVGOOG
p1559
aVICE
p1560
aVMCK
p1561
aVEQIX
p1562
asS'03112016'
p1563
(lp1564
VGS
p1565
aVREGN
p1566
aVFDX
p1567
aVPX
p1568
aVBDX
p1569
aVTRV
p1570
aVPRGO
p1571
aVKMB
p1572
aVACN
p1573
aVFB
p1574
aVWHR
p1575
aVCVS
p1576
aVGOOG
p1577
aVALXN
p1578
aVSTZ
p1579
asS'08172016'
p1580
(lp1581
VAAPL
p1582
aVGOOGL
p1583
aVVRTX
p1584
aVGS
p1585
aVSYK
p1586
aVAPD
p1587
aVWYNN
p1588
aVHUM
p1589
aVPCLN
p1590
aVEFX
p1591
aVFFIV
p1592
aVORLY
p1593
aVDLR
p1594
aVEW
p1595
aVNEE
p1596
aVFISV
p1597
aVMKC
p1598
aVPVH
p1599
aVADBE
p1600
aVCVX
p1601
aVBXP
p1602
aVSRE
p1603
aVCELG
p1604
aVESS
p1605
aVALXN
p1606
aVSTZ
p1607
asS'09292016'
p1608
(lp1609
VAGN
p1610
aVGOOGL
p1611
aVGS
p1612
aVSYK
p1613
aVCME
p1614
aVPCLN
p1615
aVPH
p1616
aVEFX
p1617
aVFFIV
p1618
aVORLY
p1619
aVBLK
p1620
aVEW
p1621
aVMA
p1622
aVNEE
p1623
aVFB
p1624
aVFISV
p1625
aVZBH
p1626
aVPVH
p1627
aVILMN
p1628
aVXEC
p1629
aVADBE
p1630
aVIBM
p1631
aVAYI
p1632
aVGOOG
p1633
aVALXN
p1634
asS'03222016'
p1635
(lp1636
VAGN
p1637
aVNFLX
p1638
aVSIG
p1639
aVGS
p1640
aVCMI
p1641
aVCMG
p1642
aVAVGO
p1643
aVRTN
p1644
aVPCLN
p1645
aVEFX
p1646
aVMHK
p1647
aVFFIV
p1648
aVBDX
p1649
aVULTA
p1650
aVPRGO
p1651
aVUHS
p1652
aVLMT
p1653
aVCVS
p1654
aVAYI
p1655
aVALXN
p1656
aVMCK
p1657
aVEQIX
p1658
asS'08052016'
p1659
(lp1660
VAAPL
p1661
aVVRTX
p1662
aVGS
p1663
aVSYK
p1664
aVAPD
p1665
aVHUM
p1666
aVPCLN
p1667
aVPH
p1668
aVEFX
p1669
aVSHW
p1670
aVORLY
p1671
aVDLR
p1672
aVBLK
p1673
aVEW
p1674
aVACN
p1675
aVFISV
p1676
aVZBH
p1677
aVWAT
p1678
aVCVX
p1679
aVAAP
p1680
aVAYI
p1681
aVUTX
p1682
aVSTZ
p1683
asS'01052016'
p1684
(lp1685
VSJM
p1686
aVAPD
p1687
aVTDG
p1688
aVHD
p1689
aVAVGO
p1690
aVHUM
p1691
aVRTN
p1692
aVULTA
p1693
aVUHS
p1694
aVGILD
p1695
aVIBM
p1696
aVAYI
p1697
aVDIS
p1698
aVSTZ
p1699
aVMCK
p1700
asS'03172016'
p1701
(lp1702
VGS
p1703
aVEFX
p1704
aVTRV
p1705
aVPRGO
p1706
aVFB
p1707
aVWHR
p1708
aVSJM
p1709
aVAYI
p1710
aVALXN
p1711
aVEQIX
p1712
asS'01122017'
p1713
(lp1714
VEOG
p1715
aVGS
p1716
aVURI
p1717
aVAMGN
p1718
aVAPD
p1719
aVAMG
p1720
aVPCLN
p1721
aVLLL
p1722
aVPH
p1723
aVLRCX
p1724
aVSHW
p1725
aVDLR
p1726
aVBLK
p1727
aVFISV
p1728
aVZBH
p1729
aVADP
p1730
aVILMN
p1731
aVCLX
p1732
aVCVX
p1733
aVBXP
p1734
aVAYI
p1735
aVMLM
p1736
aVEQIX
p1737
aVPNC
p1738
asS'07072016'
p1739
(lp1740
VSRCL
p1741
aVHSY
p1742
aVCMG
p1743
aVTDG
p1744
aVPX
p1745
aVORLY
p1746
aVDLR
p1747
aVINTU
p1748
aVFISV
p1749
aVZBH
p1750
aVILMN
p1751
aVXEC
p1752
aVBXP
p1753
aVAAP
p1754
aVPPG
p1755
aVSRE
p1756
aVPXD
p1757
aVALXN
p1758
aVGPC
p1759
aVSTZ
p1760
asS'04222016'
p1761
(lp1762
VSIG
p1763
aVGOOGL
p1764
aVHSIC
p1765
aVGWW
p1766
aVHD
p1767
aVAVGO
p1768
aVPX
p1769
aVRTN
p1770
aVLLL
p1771
aVMHK
p1772
aVSHW
p1773
aVBLK
p1774
aVEW
p1775
aVBDX
p1776
aVUHS
p1777
aVNEE
p1778
aVACN
p1779
aVFB
p1780
aVZBH
p1781
aVWHR
p1782
aVUNH
p1783
aVAYI
p1784
aVPPG
p1785
aVICE
p1786
aVMCK
p1787
aVEQIX
p1788
asS'06302016'
p1789
(lp1790
VGS
p1791
aVCMG
p1792
aVPX
p1793
aVORLY
p1794
aVINTU
p1795
aVFISV
p1796
aVADS
p1797
aVXEC
p1798
aVBXP
p1799
aVAAP
p1800
aVPPG
p1801
aVPXD
p1802
aVALXN
p1803
aVSTZ
p1804
aVMCK
p1805
asS'01132016'
p1806
(lp1807
VSJM
p1808
aVVRTX
p1809
aVAPD
p1810
aVREGN
p1811
aVHD
p1812
aVHUM
p1813
aVLLL
p1814
aVPRGO
p1815
aVNOC
p1816
aVGWW
p1817
aVUNH
p1818
aVLMT
p1819
aVGOOG
p1820
aVICE
p1821
aVEQIX
p1822
asS'05092016'
p1823
(lp1824
VSJM
p1825
aVSIG
p1826
aVGWW
p1827
aVCMI
p1828
aVCMG
p1829
aVFDX
p1830
aVPX
p1831
aVMHK
p1832
aVSHW
p1833
aVORLY
p1834
aVBLK
p1835
aVEW
p1836
aVBDX
p1837
aVNOC
p1838
aVUHS
p1839
aVACN
p1840
aVFB
p1841
aVZBH
p1842
aVWHR
p1843
aVILMN
p1844
aVPXD
p1845
aVHON
p1846
aVICE
p1847
aVMCK
p1848
asS'10282016'
p1849
(lp1850
VAGN
p1851
aVAAPL
p1852
aVGS
p1853
aVAPD
p1854
aVCTAS
p1855
aVHUM
p1856
aVPH
p1857
aVSHW
p1858
aVBDX
p1859
aVMA
p1860
aVNEE
p1861
aVFB
p1862
aVZBH
p1863
aVBCR
p1864
aVTMO
p1865
aVADS
p1866
aVILMN
p1867
aVADBE
p1868
aVAYI
p1869
aVSRE
p1870
aVALXN
p1871
aVUTX
p1872
asS'02012016'
p1873
(lp1874
VGS
p1875
aVNEE
p1876
aVUNH
p1877
aVAVGO
p1878
aVLLL
p1879
aVGOOG
p1880
aVILMN
p1881
aVEQIX
p1882
aVNOC
p1883
aVSJM
p1884
asS'10072016'
p1885
(lp1886
VAGN
p1887
aVAAPL
p1888
aVAON
p1889
aVAMP
p1890
aVPH
p1891
aVSHW
p1892
aVEW
p1893
aVBDX
p1894
aVPVH
p1895
aVILMN
p1896
aVXEC
p1897
aVADBE
p1898
aVPPG
p1899
aVSRE
p1900
aVALXN
p1901
aVSTZ
p1902
asS'01042017'
p1903
(lp1904
VEOG
p1905
aVAMZN
p1906
aVAON
p1907
aVHRS
p1908
aVAPD
p1909
aVCMG
p1910
aVAVGO
p1911
aVRTN
p1912
aVAMG
p1913
aVPCLN
p1914
aVPH
p1915
aVLRCX
p1916
aVORLY
p1917
aVBLK
p1918
aVFISV
p1919
aVZBH
p1920
aVTMO
p1921
aVWAT
p1922
aVMMM
p1923
aVNVDA
p1924
aVCVX
p1925
aVBXP
p1926
aVAYI
p1927
aVMLM
p1928
aVALXN
p1929
asS'10062016'
p1930
(lp1931
VAGN
p1932
aVAAPL
p1933
aVCME
p1934
aVHUM
p1935
aVPCLN
p1936
aVAMP
p1937
aVPH
p1938
aVSHW
p1939
aVBLK
p1940
aVEW
p1941
aVBDX
p1942
aVZBH
p1943
aVBCR
p1944
aVPVH
p1945
aVADS
p1946
aVILMN
p1947
aVSPG
p1948
aVADBE
p1949
aVPPG
p1950
aVSRE
p1951
aVGOOG
p1952
aVALXN
p1953
asS'11302016'
p1954
(lp1955
VAMZN
p1956
aVGOOGL
p1957
aVHAR
p1958
aVAPD
p1959
aVTDG
p1960
aVFDX
p1961
aVPX
p1962
aVPCLN
p1963
aVMHK
p1964
aVBDX
p1965
aVNEE
p1966
aVFB
p1967
aVTMO
p1968
aVPVH
p1969
aVILMN
p1970
aVXEC
p1971
aVVMC
p1972
aVMMM
p1973
aVCVX
p1974
aVAYI
p1975
aVUTX
p1976
aVPNC
p1977
asS'07142016'
p1978
(lp1979
VGWW
p1980
aVCXO
p1981
aVHUM
p1982
aVPX
p1983
aVSHW
p1984
aVORLY
p1985
aVEW
p1986
aVACN
p1987
aVFISV
p1988
aVBXP
p1989
aVAYI
p1990
aVDIS
p1991
aVPPG
p1992
aVSRE
p1993
aVGPC
p1994
aVSTZ
p1995
aVMCK
p1996
asS'08102016'
p1997
(lp1998
VAGN
p1999
aVVRTX
p2000
aVSYK
p2001
aVAPD
p2002
aVAYI
p2003
aVHUM
p2004
aVEFX
p2005
aVSHW
p2006
aVORLY
p2007
aVDLR
p2008
aVBLK
p2009
aVEW
p2010
aVFISV
p2011
aVZBH
p2012
aVILMN
p2013
aVSPG
p2014
aVCVX
p2015
aVAAP
p2016
aVPPG
p2017
aVSRE
p2018
aVGPC
p2019
aVSTZ
p2020
asS'12142016'
p2021
(lp2022
VAMZN
p2023
aVAON
p2024
aVPRU
p2025
aVCMG
p2026
aVPX
p2027
aVAMG
p2028
aVPCLN
p2029
aVPH
p2030
aVMHK
p2031
aVSHW
p2032
aVBLK
p2033
aVFISV
p2034
aVZBH
p2035
aVPVH
p2036
aVILMN
p2037
aVXEC
p2038
aVVMC
p2039
aVCVX
p2040
aVAYI
p2041
aVPNC
p2042
asS'12142015'
p2043
(lp2044
VSRCL
p2045
aVCXO
p2046
aVREGN
p2047
aVIFF
p2048
aVHD
p2049
aVROK
p2050
aVRTN
p2051
aVNOC
p2052
aVUHS
p2053
aVFB
p2054
aVBCR
p2055
aVGILD
p2056
aVAZO
p2057
aVAYI
p2058
aVPPG
p2059
aVGOOG
p2060
aVHON
p2061
aVICE
p2062
aVAVGO
p2063
aVSTZ
p2064
aVNKE
p2065
aVMCD
p2066
asS'05202016'
p2067
(lp2068
VSIG
p2069
aVGWW
p2070
aVCMI
p2071
aVMHK
p2072
aVORLY
p2073
aVBLK
p2074
aVUHS
p2075
aVACN
p2076
aVFB
p2077
aVPXD
p2078
aVSTZ
p2079
aVMCK
p2080
asS'07122016'
p2081
(lp2082
VSRCL
p2083
aVHSY
p2084
aVGS
p2085
aVCXO
p2086
aVCMG
p2087
aVAYI
p2088
aVHUM
p2089
aVPCLN
p2090
aVSHW
p2091
aVORLY
p2092
aVFISV
p2093
aVZBH
p2094
aVADS
p2095
aVFRT
p2096
aVBXP
p2097
aVALXN
p2098
aVMTB
p2099
aVSTZ
p2100
asS'11142016'
p2101
(lp2102
VGS
p2103
aVAMZN
p2104
aVSYK
p2105
aVGWW
p2106
aVCMG
p2107
aVHUM
p2108
aVRTN
p2109
aVPCLN
p2110
aVORLY
p2111
aVFB
p2112
aVILMN
p2113
aVXEC
p2114
aVITW
p2115
aVCVX
p2116
aVAYI
p2117
aVNSC
p2118
aVEQIX
p2119
aVPNC
p2120
asS'03182016'
p2121
(lp2122
VSIG
p2123
aVGS
p2124
aVPCLN
p2125
aVEFX
p2126
aVTRV
p2127
aVPRGO
p2128
aVUHS
p2129
aVACN
p2130
aVWHR
p2131
aVAYI
p2132
aVALXN
p2133
aVEQIX
p2134
asS'12152016'
p2135
(lp2136
VAGN
p2137
aVAMZN
p2138
aVAON
p2139
aVPRU
p2140
aVCMG
p2141
aVAMG
p2142
aVPCLN
p2143
aVLLL
p2144
aVPH
p2145
aVMHK
p2146
aVORLY
p2147
aVBLK
p2148
aVFB
p2149
aVFISV
p2150
aVPVH
p2151
aVILMN
p2152
aVCVX
p2153
aVPNC
p2154
asS'11232016'
p2155
(lp2156
VAMGN
p2157
aVHAR
p2158
aVTDG
p2159
aVFDX
p2160
aVHUM
p2161
aVPX
p2162
aVRTN
p2163
aVPCLN
p2164
aVFB
p2165
aVTMO
p2166
aVPVH
p2167
aVILMN
p2168
aVXEC
p2169
aVCVX
p2170
aVAYI
p2171
aVGOOG
p2172
aVEQIX
p2173
asS'12152015'
p2174
(lp2175
VSRCL
p2176
aVAMZN
p2177
aVGWW
p2178
aVREGN
p2179
aVIFF
p2180
aVAVGO
p2181
aVHUM
p2182
aVPX
p2183
aVRTN
p2184
aVLLL
p2185
aVNOC
p2186
aVUHS
p2187
aVFB
p2188
aVBCR
p2189
aVGILD
p2190
aVEQIX
p2191
aVAYI
p2192
aVCELG
p2193
aVGOOG
p2194
aVICE
p2195
aVROK
p2196
aVSTZ
p2197
aVNKE
p2198
asS'07202016'
p2199
(lp2200
VUHS
p2201
aVAON
p2202
aVGS
p2203
aVAPD
p2204
aVHUM
p2205
aVPX
p2206
aVMHK
p2207
aVSHW
p2208
aVORLY
p2209
aVDLR
p2210
aVEW
p2211
aVACN
p2212
aVFISV
p2213
aVZBH
p2214
aVILMN
p2215
aVXEC
p2216
aVCVX
p2217
aVAAP
p2218
aVAYI
p2219
aVBIIB
p2220
aVSRE
p2221
aVCELG
p2222
aVPXD
p2223
aVALXN
p2224
aVUTX
p2225
aVSTZ
p2226
asS'03282016'
p2227
(lp2228
VAET
p2229
aVCMI
p2230
aVCMG
p2231
aVAVGO
p2232
aVEFX
p2233
aVMHK
p2234
aVFFIV
p2235
aVWHR
p2236
aVBIIB
p2237
aVPXD
p2238
aVMCK
p2239
asS'01192017'
p2240
(lp2241
VEOG
p2242
aVGOOGL
p2243
aVGS
p2244
aVURI
p2245
aVAPD
p2246
aVCMG
p2247
aVTDG
p2248
aVRTN
p2249
aVAMG
p2250
aVPCLN
p2251
aVMHK
p2252
aVSHW
p2253
aVDLR
p2254
aVBLK
p2255
aVFISV
p2256
aVZBH
p2257
aVADS
p2258
aVILMN
p2259
aVNVDA
p2260
aVCVX
p2261
aVBXP
p2262
aVAYI
p2263
aVMLM
p2264
aVEQIX
p2265
asS'04012016'
p2266
(lp2267
VAGN
p2268
aVNFLX
p2269
aVCMI
p2270
aVCMG
p2271
aVAMG
p2272
aVEFX
p2273
aVMHK
p2274
aVSHW
p2275
aVWHR
p2276
aVPPG
p2277
aVHON
p2278
aVICE
p2279
aVEQIX
p2280
asS'11282016'
p2281
(lp2282
VHAR
p2283
aVRL
p2284
aVAMGN
p2285
aVTDG
p2286
aVFDX
p2287
aVPX
p2288
aVPCLN
p2289
aVMHK
p2290
aVORLY
p2291
aVBDX
p2292
aVFB
p2293
aVFISV
p2294
aVZBH
p2295
aVTMO
p2296
aVPVH
p2297
aVILMN
p2298
aVXEC
p2299
aVVMC
p2300
aVCVX
p2301
aVAYI
p2302
aVUTX
p2303
aVEQIX
p2304
asS'12092015'
p2305
(lp2306
VFB
p2307
aVREGN
p2308
aVIFF
p2309
aVRTN
p2310
aVMHK
p2311
aVUHS
p2312
aVACN
p2313
aVGWW
p2314
aVGILD
p2315
aVUNH
p2316
aVXEC
p2317
aVAZO
p2318
aVAYI
p2319
aVCELG
p2320
aVGOOG
p2321
aVSTZ
p2322
aVNKE
p2323
asS'02222016'
p2324
(lp2325
VGS
p2326
aVAMZN
p2327
aVAPD
p2328
aVAVGO
p2329
aVEFX
p2330
aVTRV
p2331
aVUHS
p2332
aVFB
p2333
aVMNST
p2334
aVPXD
p2335
aVGOOG
p2336
aVESS
p2337
aVHON
p2338
aVICE
p2339
aVALXN
p2340
aVSTZ
p2341
aVMCK
p2342
aVEQIX
p2343
asS'11112016'
p2344
(lp2345
VAMZN
p2346
aVGWW
p2347
aVCMG
p2348
aVHUM
p2349
aVRTN
p2350
aVAMG
p2351
aVPCLN
p2352
aVFISV
p2353
aVZBH
p2354
aVPVH
p2355
aVILMN
p2356
aVXEC
p2357
aVITW
p2358
aVCVX
p2359
aVAYI
p2360
aVSTZ
p2361
aVEQIX
p2362
aVPNC
p2363
asS'12092016'
p2364
(lp2365
VEOG
p2366
aVAMZN
p2367
aVGOOGL
p2368
aVPRU
p2369
aVHAR
p2370
aVSNA
p2371
aVAPD
p2372
aVCMG
p2373
aVPX
p2374
aVAMG
p2375
aVPH
p2376
aVMHK
p2377
aVORLY
p2378
aVBLK
p2379
aVFISV
p2380
aVZBH
p2381
aVTMO
p2382
aVECL
p2383
aVPVH
p2384
aVILMN
p2385
aVCVX
p2386
aVEQIX
p2387
asS'06012016'
p2388
(lp2389
VNFLX
p2390
aVSYK
p2391
aVCMG
p2392
aVREGN
p2393
aVMHK
p2394
aVORLY
p2395
aVEW
p2396
aVMON
p2397
aVACN
p2398
aVFB
p2399
aVAAP
p2400
aVAYI
p2401
aVPPG
p2402
aVUTX
p2403
aVSTZ
p2404
aVMCK
p2405
aVEQIX
p2406
asS'04252016'
p2407
(lp2408
VSIG
p2409
aVGOOGL
p2410
aVCMI
p2411
aVCMG
p2412
aVAVGO
p2413
aVLLL
p2414
aVMHK
p2415
aVSHW
p2416
aVEW
p2417
aVBDX
p2418
aVUHS
p2419
aVACN
p2420
aVFB
p2421
aVWHR
p2422
aVAYI
p2423
aVCELG
p2424
aVICE
p2425
aVSTZ
p2426
aVMCK
p2427
aVEQIX
p2428
asS'06272016'
p2429
(lp2430
VSRCL
p2431
aVAPD
p2432
aVCXO
p2433
aVCMG
p2434
aVPM
p2435
aVMHK
p2436
aVORLY
p2437
aVKMB
p2438
aVFISV
p2439
aVZBH
p2440
aVDHR
p2441
aVEXPE
p2442
aVXEC
p2443
aVPPG
p2444
aVALXN
p2445
asS'03022016'
p2446
(lp2447
VGS
p2448
aVREGN
p2449
aVEFX
p2450
aVMHK
p2451
aVSHW
p2452
aVWHR
p2453
aVGOOG
p2454
aVHON
p2455
aVALXN
p2456
aVEQIX
p2457
asS'11222016'
p2458
(lp2459
VGS
p2460
aVAMGN
p2461
aVHAR
p2462
aVTDG
p2463
aVFDX
p2464
aVHUM
p2465
aVPX
p2466
aVRTN
p2467
aVPCLN
p2468
aVSHW
p2469
aVFFIV
p2470
aVFISV
p2471
aVTMO
p2472
aVPVH
p2473
aVILMN
p2474
aVXEC
p2475
aVCVX
p2476
aVAYI
p2477
aVROK
p2478
aVEQIX
p2479
asS'01282016'
p2480
(lp2481
VGS
p2482
aVAMZN
p2483
aVAPD
p2484
aVAVGO
p2485
aVLLL
p2486
aVULTA
p2487
aVNOC
p2488
aVNEE
p2489
aVGWW
p2490
aVILMN
p2491
aVUNH
p2492
aVAYI
p2493
aVGOOG
p2494
aVICE
p2495
asS'12082016'
p2496
(lp2497
VEOG
p2498
aVAMZN
p2499
aVPRU
p2500
aVAPD
p2501
aVCMG
p2502
aVTDG
p2503
aVPX
p2504
aVRTN
p2505
aVAMG
p2506
aVPCLN
p2507
aVMHK
p2508
aVBLK
p2509
aVBDX
p2510
aVPSA
p2511
aVFISV
p2512
aVZBH
p2513
aVTMO
p2514
aVECL
p2515
aVPVH
p2516
aVILMN
p2517
aVXEC
p2518
aVCVX
p2519
aVEQIX
p2520
asS'01052017'
p2521
(lp2522
VEOG
p2523
aVAMZN
p2524
aVAON
p2525
aVHRS
p2526
aVSNA
p2527
aVSYK
p2528
aVAPD
p2529
aVCMG
p2530
aVTDG
p2531
aVAVGO
p2532
aVAMG
p2533
aVPCLN
p2534
aVPH
p2535
aVLRCX
p2536
aVSHW
p2537
aVORLY
p2538
aVBLK
p2539
aVNEE
p2540
aVFISV
p2541
aVZBH
p2542
aVWAT
p2543
aVNVDA
p2544
aVCVX
p2545
aVAYI
p2546
aVMLM
p2547
asS'05192016'
p2548
(lp2549
VSIG
p2550
aVFB
p2551
aVMHK
p2552
aVORLY
p2553
aVUHS
p2554
aVACN
p2555
aVGWW
p2556
aVPXD
p2557
aVANTM
p2558
aVSTZ
p2559
asS'08162016'
p2560
(lp2561
VAAPL
p2562
aVGOOGL
p2563
aVVRTX
p2564
aVSYK
p2565
aVAPD
p2566
aVAYI
p2567
aVHUM
p2568
aVPCLN
p2569
aVLLL
p2570
aVPH
p2571
aVEFX
p2572
aVFFIV
p2573
aVORLY
p2574
aVDLR
p2575
aVBLK
p2576
aVEW
p2577
aVNEE
p2578
aVFISV
p2579
aVMKC
p2580
aVADBE
p2581
aVCVX
p2582
aVBXP
p2583
aVSRE
p2584
aVCELG
p2585
aVESS
p2586
aVALXN
p2587
aVSTZ
p2588
asS'03042016'
p2589
(lp2590
VGOOGL
p2591
aVGS
p2592
aVREGN
p2593
aVFDX
p2594
aVLLL
p2595
aVSHW
p2596
aVTRV
p2597
aVWHR
p2598
aVGOOG
p2599
aVHON
p2600
aVALXN
p2601
aVEQIX
p2602
asS'07082016'
p2603
(lp2604
VSRCL
p2605
aVTAP
p2606
aVHSY
p2607
aVCXO
p2608
aVCMG
p2609
aVTDG
p2610
aVAYI
p2611
aVPX
p2612
aVSHW
p2613
aVORLY
p2614
aVDLR
p2615
aVINTU
p2616
aVUHS
p2617
aVKMB
p2618
aVFISV
p2619
aVZBH
p2620
aVXEC
p2621
aVBXP
p2622
aVAAP
p2623
aVPPG
p2624
aVPXD
p2625
aVSTZ
p2626
asS'09232016'
p2627
(lp2628
VAGN
p2629
aVGS
p2630
aVCME
p2631
aVHUM
p2632
aVRTN
p2633
aVPCLN
p2634
aVAMP
p2635
aVPM
p2636
aVSHW
p2637
aVORLY
p2638
aVEW
p2639
aVBDX
p2640
aVNEE
p2641
aVFB
p2642
aVFISV
p2643
aVADS
p2644
aVILMN
p2645
aVXEC
p2646
aVGOOG
p2647
aVUTX
p2648
aVEQIX
p2649
asS'01202017'
p2650
(lp2651
VEOG
p2652
aVGOOGL
p2653
aVGS
p2654
aVURI
p2655
aVCMG
p2656
aVPCLN
p2657
aVLRCX
p2658
aVSHW
p2659
aVDLR
p2660
aVBLK
p2661
aVFISV
p2662
aVZBH
p2663
aVILMN
p2664
aVNVDA
p2665
aVCVX
p2666
aVBXP
p2667
aVAYI
p2668
asS'10252016'
p2669
(lp2670
VAGN
p2671
aVAAPL
p2672
aVGS
p2673
aVAPD
p2674
aVCTAS
p2675
aVHUM
p2676
aVPCLN
p2677
aVROP
p2678
aVPH
p2679
aVSHW
p2680
aVEW
p2681
aVBDX
p2682
aVNEE
p2683
aVBCR
p2684
aVTMO
p2685
aVEXPE
p2686
aVILMN
p2687
aVADBE
p2688
aVAYI
p2689
aVSRE
p2690
aVMCK
p2691
asS'10122016'
p2692
(lp2693
VAGN
p2694
aVNFLX
p2695
aVAAPL
p2696
aVGOOGL
p2697
aVGS
p2698
aVFB
p2699
aVAPD
p2700
aVHUM
p2701
aVPX
p2702
aVPCLN
p2703
aVROP
p2704
aVAMP
p2705
aVPH
p2706
aVSHW
p2707
aVBLK
p2708
aVEW
p2709
aVFISV
p2710
aVZBH
p2711
aVILMN
p2712
aVSPG
p2713
aVCVX
p2714
aVSRE
p2715
aVALXN
p2716
aVSTZ
p2717
asS'12292016'
p2718
(lp2719
VEOG
p2720
aVGOOGL
p2721
aVAON
p2722
aVHRS
p2723
aVAPD
p2724
aVRTN
p2725
aVPH
p2726
aVORLY
p2727
aVBLK
p2728
aVPSA
p2729
aVFISV
p2730
aVZBH
p2731
aVILMN
p2732
aVWAT
p2733
aVMMM
p2734
aVNVDA
p2735
aVCVX
p2736
aVDIS
p2737
aVEQIX
p2738
aVPNC
p2739
asS'02162016'
p2740
(lp2741
VGS
p2742
aVPXD
p2743
aVWHR
p2744
aVTRV
p2745
aVGOOG
p2746
aVAYI
p2747
aVHON
p2748
aVAMZN
p2749
aVSTZ
p2750
aVEQIX
p2751
aVNOC
p2752
aVAPD
p2753
asS'08022016'
p2754
(lp2755
VGS
p2756
aVSYK
p2757
aVAVGO
p2758
aVHUM
p2759
aVPH
p2760
aVEFX
p2761
aVORLY
p2762
aVDLR
p2763
aVBLK
p2764
aVEW
p2765
aVNEE
p2766
aVACN
p2767
aVFISV
p2768
aVZBH
p2769
aVCVX
p2770
aVAYI
p2771
aVPPG
p2772
aVSRE
p2773
aVALXN
p2774
aVGPC
p2775
aVSTZ
p2776
asS'06142016'
p2777
(lp2778
VUHS
p2779
aVSRCL
p2780
aVGS
p2781
aVAMZN
p2782
aVSYK
p2783
aVCXO
p2784
aVCMG
p2785
aVMHK
p2786
aVFFIV
p2787
aVORLY
p2788
aVEW
p2789
aVACN
p2790
aVFB
p2791
aVILMN
p2792
aVSPG
p2793
aVAAP
p2794
aVAYI
p2795
aVBIIB
p2796
aVPXD
p2797
aVSTZ
p2798
aVMCK
p2799
asS'03102016'
p2800
(lp2801
VGS
p2802
aVREGN
p2803
aVFDX
p2804
aVAMG
p2805
aVSHW
p2806
aVBDX
p2807
aVTRV
p2808
aVACN
p2809
aVFB
p2810
aVWHR
p2811
aVCI
p2812
aVLMT
p2813
aVGOOG
p2814
aVALXN
p2815
aVEQIX
p2816
asS'08252016'
p2817
(lp2818
VAGN
p2819
aVAAPL
p2820
aVGOOGL
p2821
aVVRTX
p2822
aVAPD
p2823
aVHUM
p2824
aVPCLN
p2825
aVPH
p2826
aVORLY
p2827
aVEW
p2828
aVFISV
p2829
aVPVH
p2830
aVADS
p2831
aVILMN
p2832
aVXEC
p2833
aVADBE
p2834
aVPPG
p2835
aVALXN
p2836
aVSTZ
p2837
asS'07012016'
p2838
(lp2839
VGS
p2840
aVCXO
p2841
aVPX
p2842
aVORLY
p2843
aVZBH
p2844
aVXEC
p2845
aVBXP
p2846
aVAAP
p2847
aVPPG
p2848
aVPXD
p2849
aVALXN
p2850
aVMCK
p2851
asS'03162016'
p2852
(lp2853
VAGN
p2854
aVSIG
p2855
aVPX
p2856
aVMHK
p2857
aVSHW
p2858
aVTRV
p2859
aVULTA
p2860
aVPRGO
p2861
aVBDX
p2862
aVWHR
p2863
aVLMT
p2864
aVPPG
p2865
aVHON
p2866
aVALXN
p2867
aVSTZ
p2868
aVEQIX
p2869
asS'06212016'
p2870
(lp2871
VSRCL
p2872
aVGS
p2873
aVSYK
p2874
aVCXO
p2875
aVCMG
p2876
aVAVGO
p2877
aVPX
p2878
aVPCLN
p2879
aVORLY
p2880
aVNEE
p2881
aVACN
p2882
aVFISV
p2883
aVBCR
p2884
aVWHR
p2885
aVITW
p2886
aVPPG
p2887
aVPXD
p2888
aVUTX
p2889
aVSTZ
p2890
aVMCK
p2891
asS'10212016'
p2892
(lp2893
VGOOGL
p2894
aVAAPL
p2895
aVGS
p2896
aVAPD
p2897
aVCTAS
p2898
aVHUM
p2899
aVPCLN
p2900
aVROP
p2901
aVPH
p2902
aVSHW
p2903
aVORLY
p2904
aVEW
p2905
aVBDX
p2906
aVNEE
p2907
aVILMN
p2908
aVADBE
p2909
aVMNST
p2910
aVSRE
p2911
asS'11082016'
p2912
(lp2913
VGS
p2914
aVHUM
p2915
aVRTN
p2916
aVPCLN
p2917
aVPH
p2918
aVSHW
p2919
aVBCR
p2920
aVPVH
p2921
aVILMN
p2922
aVXEC
p2923
aVCVX
p2924
aVSTZ
p2925
aVEQIX
p2926
asS'05132016'
p2927
(lp2928
VSJM
p2929
aVSIG
p2930
aVCMI
p2931
aVCMG
p2932
aVFDX
p2933
aVPX
p2934
aVROP
p2935
aVMHK
p2936
aVORLY
p2937
aVBLK
p2938
aVNOC
p2939
aVUHS
p2940
aVACN
p2941
aVFISV
p2942
aVWHR
p2943
aVAYI
p2944
aVPPG
p2945
aVPXD
p2946
aVICE
p2947
aVSTZ
p2948
aVMCK
p2949
aVEQIX
p2950
asS'11092016'
p2951
(lp2952
VGS
p2953
aVAET
p2954
aVCMI
p2955
aVRTN
p2956
aVPCLN
p2957
aVSHW
p2958
aVORLY
p2959
aVBCR
p2960
aVTMO
p2961
aVILMN
p2962
aVXEC
p2963
aVITW
p2964
aVCVX
p2965
aVUTX
p2966
aVSTZ
p2967
aVEQIX
p2968
asS'04122016'
p2969
(lp2970
VGOOGL
p2971
aVGS
p2972
aVAET
p2973
aVCMI
p2974
aVCMG
p2975
aVEW
p2976
aVPRGO
p2977
aVACN
p2978
aVFB
p2979
aVBCR
p2980
aVXEC
p2981
aVSPG
p2982
aVSWK
p2983
aVCELG
p2984
aVICE
p2985
aVMCK
p2986
aVEQIX
p2987
asS'02122016'
p2988
(lp2989
VFB
p2990
aVROP
p2991
aVHSIC
p2992
aVGOOG
p2993
aVAYI
p2994
aVHON
p2995
aVTRV
p2996
aVGD
p2997
aVSTZ
p2998
aVEQIX
p2999
aVAPD
p3000
asS'12102015'
p3001
(lp3002
VSRCL
p3003
aVGWW
p3004
aVCXO
p3005
aVREGN
p3006
aVIFF
p3007
aVHD
p3008
aVRTN
p3009
aVUHS
p3010
aVACN
p3011
aVFB
p3012
aVGILD
p3013
aVXEC
p3014
aVAYI
p3015
aVPPG
p3016
aVCELG
p3017
aVGOOG
p3018
aVSTZ
p3019
aVNKE
p3020
asS'06132016'
p3021
(lp3022
VGOOGL
p3023
aVSRCL
p3024
aVGS
p3025
aVSYK
p3026
aVCXO
p3027
aVCMG
p3028
aVFDX
p3029
aVLLL
p3030
aVMHK
p3031
aVFFIV
p3032
aVORLY
p3033
aVACN
p3034
aVFISV
p3035
aVILMN
p3036
aVAYI
p3037
aVPPG
p3038
aVBIIB
p3039
aVPXD
p3040
aVHON
p3041
aVMTB
p3042
aVDHR
p3043
aVSTZ
p3044
aVMCK
p3045
asS'12032015'
p3046
(lp3047
VNFLX
p3048
aVRL
p3049
aVFB
p3050
aVREGN
p3051
aVIFF
p3052
aVHD
p3053
aVHUM
p3054
aVAMT
p3055
aVUHS
p3056
aVACN
p3057
aVEQIX
p3058
aVXEC
p3059
aVBXP
p3060
aVAYI
p3061
aVDIS
p3062
aVGOOG
p3063
aVICE
p3064
aVROK
p3065
aVALXN
p3066
aVSTZ
p3067
aVNKE
p3068
asS'06152016'
p3069
(lp3070
VSRCL
p3071
aVGS
p3072
aVSYK
p3073
aVCXO
p3074
aVCMG
p3075
aVFFIV
p3076
aVORLY
p3077
aVTRV
p3078
aVFISV
p3079
aVWHR
p3080
aVITW
p3081
aVSPG
p3082
aVAAP
p3083
aVAYI
p3084
aVPPG
p3085
aVPXD
p3086
aVMTB
p3087
aVSTZ
p3088
aVMCK
p3089
asS'08182016'
p3090
(lp3091
VAGN
p3092
aVAAPL
p3093
aVSYK
p3094
aVHUM
p3095
aVPCLN
p3096
aVEFX
p3097
aVORLY
p3098
aVDLR
p3099
aVEW
p3100
aVBDX
p3101
aVNEE
p3102
aVFISV
p3103
aVMKC
p3104
aVPVH
p3105
aVILMN
p3106
aVXEC
p3107
aVCVX
p3108
aVESS
p3109
aVALXN
p3110
aVSTZ
p3111
asS'01182017'
p3112
(lp3113
VEOG
p3114
aVGOOGL
p3115
aVURI
p3116
aVAPD
p3117
aVCXO
p3118
aVCMG
p3119
aVTDG
p3120
aVRTN
p3121
aVAMG
p3122
aVPCLN
p3123
aVSHW
p3124
aVDLR
p3125
aVBLK
p3126
aVFISV
p3127
aVZBH
p3128
aVILMN
p3129
aVXEC
p3130
aVNVDA
p3131
aVCVX
p3132
aVBXP
p3133
aVAYI
p3134
aVMLM
p3135
aVEQIX
p3136
asS'04062016'
p3137
(lp3138
VAGN
p3139
aVNFLX
p3140
aVGS
p3141
aVFB
p3142
aVCMI
p3143
aVCMG
p3144
aVMHK
p3145
aVEW
p3146
aVUHS
p3147
aVACN
p3148
aVFISV
p3149
aVWHR
p3150
aVSPG
p3151
aVAYI
p3152
aVPXD
p3153
aVGOOG
p3154
aVHON
p3155
aVSTZ
p3156
aVEQIX
p3157
asS'06032016'
p3158
(lp3159
VNFLX
p3160
aVSJM
p3161
aVSYK
p3162
aVCXO
p3163
aVCMG
p3164
aVHUM
p3165
aVMHK
p3166
aVORLY
p3167
aVULTA
p3168
aVACN
p3169
aVAAP
p3170
aVAYI
p3171
aVHON
p3172
aVSTZ
p3173
aVMCK
p3174
asS'09272016'
p3175
(lp3176
VAGN
p3177
aVGS
p3178
aVSYK
p3179
aVCME
p3180
aVHUM
p3181
aVPCLN
p3182
aVPH
p3183
aVORLY
p3184
aVEW
p3185
aVMA
p3186
aVFB
p3187
aVFISV
p3188
aVZBH
p3189
aVPVH
p3190
aVILMN
p3191
aVPPG
p3192
aVGOOG
p3193
aVUTX
p3194
asS'10202016'
p3195
(lp3196
VAAPL
p3197
aVGOOGL
p3198
aVTAP
p3199
aVGS
p3200
aVAPD
p3201
aVHUM
p3202
aVPCLN
p3203
aVROP
p3204
aVPH
p3205
aVSHW
p3206
aVORLY
p3207
aVEW
p3208
aVBDX
p3209
aVMA
p3210
aVNEE
p3211
aVFISV
p3212
aVPVH
p3213
aVILMN
p3214
aVADBE
p3215
aVMNST
p3216
aVSRE
p3217
aVALXN
p3218
asS'08302016'
p3219
(lp3220
VAAPL
p3221
aVGS
p3222
aVHUM
p3223
aVPCLN
p3224
aVPH
p3225
aVEFX
p3226
aVEW
p3227
aVPVH
p3228
aVILMN
p3229
aVXEC
p3230
aVADBE
p3231
aVCVX
p3232
aVBXP
p3233
aVSRE
p3234
aVALXN
p3235
aVMCO
p3236
asS'08232016'
p3237
(lp3238
VGOOGL
p3239
aVAAPL
p3240
aVSYK
p3241
aVHUM
p3242
aVPCLN
p3243
aVPH
p3244
aVEFX
p3245
aVFFIV
p3246
aVORLY
p3247
aVDLR
p3248
aVEW
p3249
aVBDX
p3250
aVACN
p3251
aVFISV
p3252
aVMKC
p3253
aVPVH
p3254
aVILMN
p3255
aVXEC
p3256
aVALXN
p3257
aVUTX
p3258
aVSTZ
p3259
asS'03312016'
p3260
(lp3261
VAGN
p3262
aVSJM
p3263
aVCMI
p3264
aVCMG
p3265
aVREGN
p3266
aVAMG
p3267
aVMHK
p3268
aVACN
p3269
aVWHR
p3270
aVPPG
p3271
aVGOOG
p3272
aVALXN
p3273
aVEQIX
p3274
asS'03292016'
p3275
(lp3276
VSJM
p3277
aVSRCL
p3278
aVSIG
p3279
aVGOOGL
p3280
aVGS
p3281
aVAET
p3282
aVCMG
p3283
aVREGN
p3284
aVEFX
p3285
aVMHK
p3286
aVSPG
p3287
aVMNST
p3288
aVBIIB
p3289
aVAVGO
p3290
aVEQIX
p3291
asS'11172016'
p3292
(lp3293
VAMZN
p3294
aVGS
p3295
aVHAR
p3296
aVSYK
p3297
aVCMG
p3298
aVTDG
p3299
aVHUM
p3300
aVRTN
p3301
aVPCLN
p3302
aVLLL
p3303
aVORLY
p3304
aVFISV
p3305
aVTMO
p3306
aVILMN
p3307
aVXEC
p3308
aVCVX
p3309
aVAYI
p3310
aVNSC
p3311
aVGOOG
p3312
aVROK
p3313
aVEQIX
p3314
aVPNC
p3315
asS'02102017'
p3316
(lp3317
VGOOGL
p3318
aVPRU
p3319
aVSNA
p3320
aVCXO
p3321
aVCMG
p3322
aVAVGO
p3323
aVAMG
p3324
aVLLL
p3325
aVAMP
p3326
aVLRCX
p3327
aVDLR
p3328
aVBLK
p3329
aVFISV
p3330
aVZBH
p3331
aVTMO
p3332
aVCI
p3333
aVILMN
p3334
aVSPG
p3335
aVAYI
p3336
aVSTZ
p3337
aVEQIX
p3338
asS'05032016'
p3339
(lp3340
VSIG
p3341
aVGOOGL
p3342
aVAET
p3343
aVCMI
p3344
aVCMG
p3345
aVHD
p3346
aVPX
p3347
aVMHK
p3348
aVBDX
p3349
aVINTU
p3350
aVULTA
p3351
aVUHS
p3352
aVNEE
p3353
aVACN
p3354
aVWHR
p3355
aVILMN
p3356
aVCELG
p3357
aVPXD
p3358
aVICE
p3359
aVSTZ
p3360
aVMCK
p3361
aVEQIX
p3362
asS'05262016'
p3363
(lp3364
VUHS
p3365
aVSIG
p3366
aVSYK
p3367
aVORLY
p3368
aVBLK
p3369
aVTRV
p3370
aVMON
p3371
aVACN
p3372
aVFB
p3373
aVFISV
p3374
aVWHR
p3375
aVILMN
p3376
aVAYI
p3377
aVPXD
p3378
aVHON
p3379
aVICE
p3380
aVSTZ
p3381
aVMCK
p3382
aVEQIX
p3383
asS'07252016'
p3384
(lp3385
VSYK
p3386
aVHUM
p3387
aVPH
p3388
aVMHK
p3389
aVORLY
p3390
aVDLR
p3391
aVEW
p3392
aVINTU
p3393
aVFISV
p3394
aVZBH
p3395
aVBCR
p3396
aVILMN
p3397
aVAYI
p3398
aVBIIB
p3399
aVSRE
p3400
aVALXN
p3401
aVUTX
p3402
aVSTZ
p3403
aVMCK
p3404
asS'08112016'
p3405
(lp3406
VAGN
p3407
aVVRTX
p3408
aVSYK
p3409
aVAYI
p3410
aVHUM
p3411
aVEFX
p3412
aVORLY
p3413
aVDLR
p3414
aVBLK
p3415
aVEW
p3416
aVBDX
p3417
aVACN
p3418
aVFISV
p3419
aVILMN
p3420
aVCVX
p3421
aVSRE
p3422
aVCELG
p3423
aVSTZ
p3424
asS'02182016'
p3425
(lp3426
VGS
p3427
aVAMZN
p3428
aVAPD
p3429
aVLLL
p3430
aVTRV
p3431
aVNOC
p3432
aVFB
p3433
aVWHR
p3434
aVMNST
p3435
aVLH
p3436
aVGOOG
p3437
aVESS
p3438
aVHON
p3439
aVICE
p3440
aVSTZ
p3441
aVEQIX
p3442
asS'01192016'
p3443
(lp3444
VSJM
p3445
aVVRTX
p3446
aVAPD
p3447
aVTDG
p3448
aVFDX
p3449
aVAVGO
p3450
aVHUM
p3451
aVLLL
p3452
aVPRGO
p3453
aVNOC
p3454
aVGWW
p3455
aVUNH
p3456
aVMNST
p3457
aVBIIB
p3458
aVGOOG
p3459
aVICE
p3460
aVSTZ
p3461
aVEQIX
p3462
asS'04112016'
p3463
(lp3464
VAGN
p3465
aVGOOGL
p3466
aVGS
p3467
aVFB
p3468
aVAET
p3469
aVCMI
p3470
aVCMG
p3471
aVAVGO
p3472
aVEW
p3473
aVPRGO
p3474
aVACN
p3475
aVFISV
p3476
aVSPG
p3477
aVCELG
p3478
aVGOOG
p3479
aVHON
p3480
aVICE
p3481
aVMCK
p3482
aVEQIX
p3483
asS'03032016'
p3484
(lp3485
VGS
p3486
aVCMI
p3487
aVREGN
p3488
aVLLL
p3489
aVSHW
p3490
aVTRV
p3491
aVUHS
p3492
aVKMB
p3493
aVWHR
p3494
aVGOOG
p3495
aVHON
p3496
aVALXN
p3497
aVEQIX
p3498
asS'04212016'
p3499
(lp3500
VSIG
p3501
aVGWW
p3502
aVCMI
p3503
aVHUM
p3504
aVPX
p3505
aVMHK
p3506
aVORLY
p3507
aVEW
p3508
aVBDX
p3509
aVUHS
p3510
aVACN
p3511
aVFB
p3512
aVWHR
p3513
aVUNH
p3514
aVXEC
p3515
aVAYI
p3516
aVPPG
p3517
aVGOOG
p3518
aVICE
p3519
aVSTZ
p3520
aVMCK
p3521
aVEQIX
p3522
asS'10132016'
p3523
(lp3524
VAGN
p3525
aVNFLX
p3526
aVHSIC
p3527
aVGS
p3528
aVAPD
p3529
aVPCLN
p3530
aVPH
p3531
aVSHW
p3532
aVEW
p3533
aVBDX
p3534
aVMA
p3535
aVPVH
p3536
aVILMN
p3537
aVSPG
p3538
aVADBE
p3539
aVCVX
p3540
aVSRE
p3541
asS'07182016'
p3542
(lp3543
VGS
p3544
aVSYK
p3545
aVFB
p3546
aVAPD
p3547
aVCXO
p3548
aVCME
p3549
aVAVGO
p3550
aVHUM
p3551
aVMHK
p3552
aVSHW
p3553
aVFFIV
p3554
aVORLY
p3555
aVDLR
p3556
aVEW
p3557
aVBDX
p3558
aVPSA
p3559
aVKMB
p3560
aVFISV
p3561
aVCVX
p3562
aVBXP
p3563
aVAAP
p3564
aVAYI
p3565
aVPPG
p3566
aVSRE
p3567
aVPXD
p3568
aVUTX
p3569
aVSTZ
p3570
aVMCK
p3571
asS'06062016'
p3572
(lp3573
VNFLX
p3574
aVSJM
p3575
aVSYK
p3576
aVCXO
p3577
aVCMG
p3578
aVMHK
p3579
aVORLY
p3580
aVEW
p3581
aVULTA
p3582
aVACN
p3583
aVZBH
p3584
aVAYI
p3585
aVPPG
p3586
aVCELG
p3587
aVSTZ
p3588
aVMCK
p3589
asS'12042015'
p3590
(lp3591
VRL
p3592
aVCXO
p3593
aVTSO
p3594
aVREGN
p3595
aVIFF
p3596
aVHD
p3597
aVHUM
p3598
aVUHS
p3599
aVFB
p3600
aVGILD
p3601
aVEQIX
p3602
aVAZO
p3603
aVAYI
p3604
aVGOOG
p3605
aVICE
p3606
aVROK
p3607
aVSTZ
p3608
asS'08042016'
p3609
(lp3610
VGS
p3611
aVAPD
p3612
aVHUM
p3613
aVPH
p3614
aVEFX
p3615
aVORLY
p3616
aVDLR
p3617
aVBLK
p3618
aVEW
p3619
aVACN
p3620
aVWAT
p3621
aVXEC
p3622
aVAAP
p3623
aVAYI
p3624
aVSRE
p3625
aVALXN
p3626
aVGPC
p3627
aVSTZ
p3628
aVMCK
p3629
asS'05042016'
p3630
(lp3631
VSJM
p3632
aVSIG
p3633
aVGOOGL
p3634
aVGWW
p3635
aVAET
p3636
aVCMG
p3637
aVHD
p3638
aVPX
p3639
aVMHK
p3640
aVBLK
p3641
aVEW
p3642
aVBDX
p3643
aVTRV
p3644
aVULTA
p3645
aVUHS
p3646
aVNEE
p3647
aVACN
p3648
aVWHR
p3649
aVILMN
p3650
aVPPG
p3651
aVPXD
p3652
aVICE
p3653
aVSTZ
p3654
aVMCK
p3655
aVEQIX
p3656
asS'05242016'
p3657
(lp3658
VUHS
p3659
aVSIG
p3660
aVSYK
p3661
aVFB
p3662
aVCMI
p3663
aVCMG
p3664
aVTDG
p3665
aVFDX
p3666
aVMHK
p3667
aVORLY
p3668
aVBLK
p3669
aVACN
p3670
aVFISV
p3671
aVWHR
p3672
aVAYI
p3673
aVPXD
p3674
aVICE
p3675
aVSTZ
p3676
aVMCK
p3677
aVEQIX
p3678
asS'01272017'
p3679
(lp3680
VEOG
p3681
aVAON
p3682
aVCMI
p3683
aVCMG
p3684
aVLLL
p3685
aVLRCX
p3686
aVMHK
p3687
aVDLR
p3688
aVFISV
p3689
aVZBH
p3690
aVCI
p3691
aVADS
p3692
aVILMN
p3693
aVNVDA
p3694
aVAYI
p3695
aVLH
p3696
asS'01272016'
p3697
(lp3698
VGS
p3699
aVAMZN
p3700
aVAPD
p3701
aVAVGO
p3702
aVNOC
p3703
aVNEE
p3704
aVGWW
p3705
aVILMN
p3706
aVUNH
p3707
aVAYI
p3708
aVGOOG
p3709
aVICE
p3710
aVEQIX
p3711
asS'01222016'
p3712
(lp3713
VUNH
p3714
aVGWW
p3715
aVSJM
p3716
aVAVGO
p3717
aVHUM
p3718
aVLLL
p3719
aVGOOG
p3720
aVAYI
p3721
aVICE
p3722
aVSTZ
p3723
aVEQIX
p3724
aVNOC
p3725
aVAPD
p3726
asS'09022016'
p3727
(lp3728
VAAPL
p3729
aVGS
p3730
aVSYK
p3731
aVHUM
p3732
aVPCLN
p3733
aVPH
p3734
aVEFX
p3735
aVEW
p3736
aVCB
p3737
aVILMN
p3738
aVXEC
p3739
aVADBE
p3740
aVCVX
p3741
aVPPG
p3742
aVESS
p3743
aVALXN
p3744
aVGPC
p3745
asS'02262016'
p3746
(lp3747
VGS
p3748
aVAPD
p3749
aVREGN
p3750
aVEFX
p3751
aVPRGO
p3752
aVUHS
p3753
aVAZO
p3754
aVHON
p3755
aVALXN
p3756
aVSTZ
p3757
aVEQIX
p3758
asS'02192016'
p3759
(lp3760
VHSIC
p3761
aVGS
p3762
aVAMZN
p3763
aVAVGO
p3764
aVEFX
p3765
aVTRV
p3766
aVPSA
p3767
aVFB
p3768
aVMNST
p3769
aVLH
p3770
aVGOOG
p3771
aVESS
p3772
aVHON
p3773
aVICE
p3774
aVALXN
p3775
aVSTZ
p3776
aVEQIX
p3777
asS'09262016'
p3778
(lp3779
VAGN
p3780
aVGS
p3781
aVSYK
p3782
aVFB
p3783
aVCME
p3784
aVHUM
p3785
aVPCLN
p3786
aVLLL
p3787
aVPM
p3788
aVSHW
p3789
aVORLY
p3790
aVEW
p3791
aVBDX
p3792
aVFISV
p3793
aVILMN
p3794
aVGOOG
p3795
aVUTX
p3796
asS'06102016'
p3797
(lp3798
VGS
p3799
aVCMG
p3800
aVHUM
p3801
aVAMG
p3802
aVMHK
p3803
aVFFIV
p3804
aVORLY
p3805
aVULTA
p3806
aVACN
p3807
aVFISV
p3808
aVAYI
p3809
aVPPG
p3810
aVBIIB
p3811
aVPXD
p3812
aVGOOG
p3813
aVDHR
p3814
aVSTZ
p3815
aVMCK
p3816
asS'09092016'
p3817
(lp3818
VAAPL
p3819
aVGS
p3820
aVSYK
p3821
aVHUM
p3822
aVRTN
p3823
aVPCLN
p3824
aVPH
p3825
aVSHW
p3826
aVMKC
p3827
aVPVH
p3828
aVILMN
p3829
aVADBE
p3830
aVCVX
p3831
aVAAP
p3832
aVPPG
p3833
aVSRE
p3834
aVGOOG
p3835
aVALXN
p3836
asS'04152016'
p3837
(lp3838
VGOOGL
p3839
aVAPD
p3840
aVAET
p3841
aVCMG
p3842
aVLLL
p3843
aVEW
p3844
aVNOC
p3845
aVUHS
p3846
aVACN
p3847
aVFB
p3848
aVFISV
p3849
aVEXPE
p3850
aVXEC
p3851
aVSPG
p3852
aVIBM
p3853
aVAYI
p3854
aVPPG
p3855
aVGOOG
p3856
aVICE
p3857
aVMCK
p3858
aVEQIX
p3859
asS'09212016'
p3860
(lp3861
VAGN
p3862
aVGS
p3863
aVSYK
p3864
aVCME
p3865
aVHUM
p3866
aVPCLN
p3867
aVSHW
p3868
aVORLY
p3869
aVEW
p3870
aVFB
p3871
aVPVH
p3872
aVCB
p3873
aVILMN
p3874
aVSPG
p3875
aVEQIX
p3876
asS'01132017'
p3877
(lp3878
VEOG
p3879
aVGOOGL
p3880
aVAON
p3881
aVURI
p3882
aVAMGN
p3883
aVAPD
p3884
aVTDG
p3885
aVRTN
p3886
aVPCLN
p3887
aVLRCX
p3888
aVSHW
p3889
aVDLR
p3890
aVBLK
p3891
aVFISV
p3892
aVZBH
p3893
aVADP
p3894
aVILMN
p3895
aVNVDA
p3896
aVCVX
p3897
aVBXP
p3898
aVAYI
p3899
aVMLM
p3900
aVEQIX
p3901
aVPNC
p3902
asS'01242017'
p3903
(lp3904
VEOG
p3905
aVSJM
p3906
aVAON
p3907
aVGS
p3908
aVURI
p3909
aVCXO
p3910
aVCMG
p3911
aVLLL
p3912
aVLRCX
p3913
aVSHW
p3914
aVDLR
p3915
aVFISV
p3916
aVZBH
p3917
aVADS
p3918
aVILMN
p3919
aVAYI
p3920
aVEQIX
p3921
asS'08312016'
p3922
(lp3923
VAAPL
p3924
aVGS
p3925
aVSYK
p3926
aVHUM
p3927
aVPCLN
p3928
aVLLL
p3929
aVPH
p3930
aVEFX
p3931
aVDLR
p3932
aVEW
p3933
aVZBH
p3934
aVPVH
p3935
aVCB
p3936
aVILMN
p3937
aVXEC
p3938
aVADBE
p3939
aVBXP
p3940
aVPPG
p3941
aVSRE
p3942
aVALXN
p3943
aVMCO
p3944
asS'04272016'
p3945
(lp3946
VAAPL
p3947
aVSIG
p3948
aVGOOGL
p3949
aVGWW
p3950
aVCMG
p3951
aVHD
p3952
aVAVGO
p3953
aVHUM
p3954
aVSHW
p3955
aVBLK
p3956
aVEW
p3957
aVACN
p3958
aVFB
p3959
aVWHR
p3960
aVILMN
p3961
aVAYI
p3962
aVCELG
p3963
aVPXD
p3964
aVHON
p3965
aVICE
p3966
aVSTZ
p3967
aVMCK
p3968
aVEQIX
p3969
aVSPGI
p3970
asS'12052016'
p3971
(lp3972
VAMZN
p3973
aVPRU
p3974
aVAPD
p3975
aVCMG
p3976
aVTDG
p3977
aVPCLN
p3978
aVROP
p3979
aVMHK
p3980
aVFISV
p3981
aVTMO
p3982
aVPVH
p3983
aVILMN
p3984
aVXEC
p3985
aVCVX
p3986
aVUTX
p3987
aVEQIX
p3988
asS'06162016'
p3989
(lp3990
VGS
p3991
aVSYK
p3992
aVCXO
p3993
aVCMI
p3994
aVCMG
p3995
aVORLY
p3996
aVEW
p3997
aVWHR
p3998
aVITW
p3999
aVAYI
p4000
aVPPG
p4001
aVPXD
p4002
aVSTZ
p4003
aVMCK
p4004
asS'02252016'
p4005
(lp4006
VGS
p4007
aVAPD
p4008
aVROP
p4009
aVEFX
p4010
aVUHS
p4011
aVGOOG
p4012
aVHON
p4013
aVALXN
p4014
aVSTZ
p4015
aVMCK
p4016
aVEQIX
p4017
asS'05122016'
p4018
(lp4019
VSJM
p4020
aVSIG
p4021
aVGWW
p4022
aVCMI
p4023
aVFDX
p4024
aVPX
p4025
aVMHK
p4026
aVBLK
p4027
aVBDX
p4028
aVUHS
p4029
aVACN
p4030
aVFISV
p4031
aVWHR
p4032
aVPPG
p4033
aVPXD
p4034
aVICE
p4035
aVSTZ
p4036
aVMCK
p4037
asS'06222016'
p4038
(lp4039
VSRCL
p4040
aVGS
p4041
aVSYK
p4042
aVAPD
p4043
aVCXO
p4044
aVCMI
p4045
aVCMG
p4046
aVAVGO
p4047
aVPCLN
p4048
aVORLY
p4049
aVBLK
p4050
aVNEE
p4051
aVACN
p4052
aVFISV
p4053
aVPPG
p4054
aVPXD
p4055
aVMTB
p4056
aVSTZ
p4057
aVMCK
p4058
asS'12132016'
p4059
(lp4060
VAGN
p4061
aVEOG
p4062
aVAMZN
p4063
aVGOOGL
p4064
aVAON
p4065
aVPRU
p4066
aVHRS
p4067
aVCMG
p4068
aVPCLN
p4069
aVPH
p4070
aVMHK
p4071
aVBLK
p4072
aVBDX
p4073
aVFISV
p4074
aVZBH
p4075
aVPVH
p4076
aVILMN
p4077
aVXEC
p4078
aVCVX
p4079
aVDIS
p4080
asS'04132016'
p4081
(lp4082
VGOOGL
p4083
aVGS
p4084
aVAET
p4085
aVCMI
p4086
aVCMG
p4087
aVAVGO
p4088
aVEW
p4089
aVACN
p4090
aVFB
p4091
aVBCR
p4092
aVWHR
p4093
aVXEC
p4094
aVLMT
p4095
aVSPG
p4096
aVCELG
p4097
aVPXD
p4098
aVGOOG
p4099
aVICE
p4100
aVMCK
p4101
aVEQIX
p4102
asS'03212016'
p4103
(lp4104
VSIG
p4105
aVGS
p4106
aVCMI
p4107
aVCMG
p4108
aVPCLN
p4109
aVAMT
p4110
aVMHK
p4111
aVBDX
p4112
aVTRV
p4113
aVPRGO
p4114
aVUHS
p4115
aVCVS
p4116
aVPPG
p4117
aVALXN
p4118
aVEQIX
p4119
asS'11012016'
p4120
(lp4121
VAAPL
p4122
aVGS
p4123
aVAPD
p4124
aVCTAS
p4125
aVHUM
p4126
aVRTN
p4127
aVPH
p4128
aVSHW
p4129
aVBDX
p4130
aVMA
p4131
aVNEE
p4132
aVZBH
p4133
aVTMO
p4134
aVILMN
p4135
aVXEC
p4136
aVADBE
p4137
aVCVX
p4138
aVAYI
p4139
aVMNST
p4140
aVSRE
p4141
aVALXN
p4142
aVUTX
p4143
asS'08242016'
p4144
(lp4145
VAGN
p4146
aVAAPL
p4147
aVGOOGL
p4148
aVVRTX
p4149
aVPCLN
p4150
aVPH
p4151
aVFFIV
p4152
aVORLY
p4153
aVDLR
p4154
aVBLK
p4155
aVEW
p4156
aVFISV
p4157
aVMKC
p4158
aVPVH
p4159
aVILMN
p4160
aVXEC
p4161
aVCVX
p4162
aVROK
p4163
aVALXN
p4164
aVUTX
p4165
aVSTZ
p4166
asS'09302016'
p4167
(lp4168
VAGN
p4169
aVSYK
p4170
aVCME
p4171
aVPX
p4172
aVPCLN
p4173
aVPH
p4174
aVORLY
p4175
aVBLK
p4176
aVEW
p4177
aVMA
p4178
aVNEE
p4179
aVFB
p4180
aVFISV
p4181
aVZBH
p4182
aVPVH
p4183
aVILMN
p4184
aVADBE
p4185
aVIBM
p4186
aVCVX
p4187
aVPPG
p4188
aVGOOG
p4189
aVALXN
p4190
asS'01062016'
p4191
(lp4192
VAMZN
p4193
aVAPD
p4194
aVREGN
p4195
aVIFF
p4196
aVHD
p4197
aVHUM
p4198
aVRTN
p4199
aVULTA
p4200
aVAVB
p4201
aVUNH
p4202
aVAYI
p4203
aVDIS
p4204
aVLH
p4205
asS'06282016'
p4206
(lp4207
VSRCL
p4208
aVAPD
p4209
aVCMG
p4210
aVMHK
p4211
aVORLY
p4212
aVFISV
p4213
aVWHR
p4214
aVILMN
p4215
aVXEC
p4216
aVPPG
p4217
aVPXD
p4218
aVALXN
p4219
aVSTZ
p4220
aVMCK
p4221
asS'11302015'
p4222
(lp4223
VNFLX
p4224
aVHAR
p4225
aVVRTX
p4226
aVFB
p4227
aVREGN
p4228
aVIFF
p4229
aVHD
p4230
aVROK
p4231
aVHUM
p4232
aVPH
p4233
aVMHK
p4234
aVUHS
p4235
aVGWW
p4236
aVUNH
p4237
aVEQIX
p4238
aVAZO
p4239
aVBXP
p4240
aVAYI
p4241
aVLH
p4242
aVGOOG
p4243
aVICE
p4244
aVALXN
p4245
aVSTZ
p4246
aVNKE
p4247
asS'09202016'
p4248
(lp4249
VAGN
p4250
aVGS
p4251
aVHUM
p4252
aVPCLN
p4253
aVSHW
p4254
aVORLY
p4255
aVEW
p4256
aVFB
p4257
aVPVH
p4258
aVCI
p4259
aVCB
p4260
aVILMN
p4261
aVSPG
p4262
aVPPG
p4263
aVHON
p4264
asS'06242016'
p4265
(lp4266
VSRCL
p4267
aVGS
p4268
aVSYK
p4269
aVGWW
p4270
aVCXO
p4271
aVCMI
p4272
aVCMG
p4273
aVMHK
p4274
aVORLY
p4275
aVACN
p4276
aVFISV
p4277
aVILMN
p4278
aVPPG
p4279
aVPXD
p4280
aVALXN
p4281
aVMTB
p4282
aVSTZ
p4283
aVMCK
p4284
asS'10262016'
p4285
(lp4286
VAGN
p4287
aVAAPL
p4288
aVGS
p4289
aVAPD
p4290
aVCTAS
p4291
aVPCLN
p4292
aVROP
p4293
aVPH
p4294
aVEFX
p4295
aVSHW
p4296
aVORLY
p4297
aVEW
p4298
aVBDX
p4299
aVNEE
p4300
aVTMO
p4301
aVILMN
p4302
aVITW
p4303
aVSRE
p4304
asS'03302016'
p4305
(lp4306
VSJM
p4307
aVCMI
p4308
aVCMG
p4309
aVREGN
p4310
aVAVGO
p4311
aVEFX
p4312
aVMHK
p4313
aVWHR
p4314
aVUNH
p4315
aVSPG
p4316
aVEQIX
p4317
asS'06072016'
p4318
(lp4319
VSJM
p4320
aVGS
p4321
aVSYK
p4322
aVCXO
p4323
aVCMG
p4324
aVHUM
p4325
aVMHK
p4326
aVORLY
p4327
aVEW
p4328
aVINTU
p4329
aVULTA
p4330
aVACN
p4331
aVAAP
p4332
aVAYI
p4333
aVPPG
p4334
aVBIIB
p4335
aVCELG
p4336
aVPXD
p4337
aVSTZ
p4338
aVMCK
p4339
asS'02022016'
p4340
(lp4341
VSJM
p4342
aVGS
p4343
aVAMZN
p4344
aVAPD
p4345
aVAVGO
p4346
aVTRV
p4347
aVNOC
p4348
aVILMN
p4349
aVUNH
p4350
aVAYI
p4351
aVGOOG
p4352
aVHON
p4353
aVEQIX
p4354
asS'07052016'
p4355
(lp4356
VSRCL
p4357
aVHSY
p4358
aVCXO
p4359
aVPX
p4360
aVMHK
p4361
aVORLY
p4362
aVZBH
p4363
aVXEC
p4364
aVBXP
p4365
aVAAP
p4366
aVPPG
p4367
aVPXD
p4368
aVALXN
p4369
aVGPC
p4370
asS'04082016'
p4371
(lp4372
VAGN
p4373
aVGOOGL
p4374
aVGS
p4375
aVAET
p4376
aVCMI
p4377
aVCMG
p4378
aVAVGO
p4379
aVAMT
p4380
aVMHK
p4381
aVFFIV
p4382
aVEW
p4383
aVPRGO
p4384
aVUHS
p4385
aVACN
p4386
aVFB
p4387
aVSPG
p4388
aVAYI
p4389
aVCELG
p4390
aVHON
p4391
aVICE
p4392
aVMCK
p4393
aVEQIX
p4394
asS'02042016'
p4395
(lp4396
VSJM
p4397
aVGS
p4398
aVAMZN
p4399
aVAPD
p4400
aVEFX
p4401
aVTRV
p4402
aVFB
p4403
aVUNH
p4404
aVAYI
p4405
aVGOOG
p4406
aVHON
p4407
aVSTZ
p4408
asS'08012016'
p4409
(lp4410
VSRCL
p4411
aVGS
p4412
aVPCLN
p4413
aVORLY
p4414
aVDLR
p4415
aVBLK
p4416
aVEW
p4417
aVACN
p4418
aVFISV
p4419
aVZBH
p4420
aVBCR
p4421
aVILMN
p4422
aVCVX
p4423
aVAYI
p4424
aVPPG
p4425
aVSRE
p4426
aVALXN
p4427
aVSTZ
p4428
aVMCK
p4429
asS'09012016'
p4430
(lp4431
VAGN
p4432
aVAAPL
p4433
aVGS
p4434
aVSNA
p4435
aVSYK
p4436
aVHUM
p4437
aVPCLN
p4438
aVPH
p4439
aVEFX
p4440
aVEW
p4441
aVFISV
p4442
aVMKC
p4443
aVCB
p4444
aVILMN
p4445
aVXEC
p4446
aVADBE
p4447
aVCVX
p4448
aVSRE
p4449
aVESS
p4450
aVALXN
p4451
aVMCO
p4452
asS'05312016'
p4453
(lp4454
VUHS
p4455
aVNFLX
p4456
aVSYK
p4457
aVAPD
p4458
aVCMG
p4459
aVREGN
p4460
aVROP
p4461
aVMHK
p4462
aVORLY
p4463
aVMON
p4464
aVNEE
p4465
aVACN
p4466
aVFB
p4467
aVFISV
p4468
aVAYI
p4469
aVPXD
p4470
aVSTZ
p4471
aVMCK
p4472
asS'01122016'
p4473
(lp4474
VSJM
p4475
aVVRTX
p4476
aVAMZN
p4477
aVAPD
p4478
aVREGN
p4479
aVHUM
p4480
aVLLL
p4481
aVULTA
p4482
aVGWW
p4483
aVUNH
p4484
aVMNST
p4485
aVBIIB
p4486
aVGOOG
p4487
aVICE
p4488
aVEQIX
p4489
asS'05252016'
p4490
(lp4491
VUHS
p4492
aVSIG
p4493
aVSYK
p4494
aVTDG
p4495
aVHUM
p4496
aVMHK
p4497
aVORLY
p4498
aVBLK
p4499
aVBDX
p4500
aVACN
p4501
aVFB
p4502
aVWHR
p4503
aVILMN
p4504
aVPXD
p4505
aVICE
p4506
aVSTZ
p4507
aVMCK
p4508
aVEQIX
p4509
asS'10112016'
p4510
(lp4511
VAGN
p4512
aVNFLX
p4513
aVAAPL
p4514
aVHSIC
p4515
aVPX
p4516
aVPCLN
p4517
aVROP
p4518
aVAMP
p4519
aVPH
p4520
aVLRCX
p4521
aVSHW
p4522
aVFFIV
p4523
aVBLK
p4524
aVEW
p4525
aVBDX
p4526
aVFB
p4527
aVADS
p4528
aVILMN
p4529
aVWAT
p4530
aVADBE
p4531
aVCVX
p4532
aVSRE
p4533
aVUTX
p4534
aVSTZ
p4535
asS'01232017'
p4536
(lp4537
VEOG
p4538
aVGS
p4539
aVURI
p4540
aVAPD
p4541
aVCXO
p4542
aVCMG
p4543
aVPCLN
p4544
aVLLL
p4545
aVLRCX
p4546
aVMHK
p4547
aVSHW
p4548
aVDLR
p4549
aVBLK
p4550
aVFISV
p4551
aVZBH
p4552
aVADS
p4553
aVILMN
p4554
aVCLX
p4555
aVCVX
p4556
aVAYI
p4557
aVEQIX
p4558
asS'01172017'
p4559
(lp4560
VEOG
p4561
aVGOOGL
p4562
aVAON
p4563
aVURI
p4564
aVAPD
p4565
aVCXO
p4566
aVCMG
p4567
aVTDG
p4568
aVRTN
p4569
aVPCLN
p4570
aVPH
p4571
aVSHW
p4572
aVDLR
p4573
aVBLK
p4574
aVFISV
p4575
aVZBH
p4576
aVILMN
p4577
aVNVDA
p4578
aVCVX
p4579
aVBXP
p4580
aVAYI
p4581
aVMLM
p4582
aVEQIX
p4583
asS'02092017'
p4584
(lp4585
VEOG
p4586
aVGOOGL
p4587
aVAMGN
p4588
aVSNA
p4589
aVCXO
p4590
aVCMG
p4591
aVTDG
p4592
aVAVGO
p4593
aVLLL
p4594
aVAMP
p4595
aVLRCX
p4596
aVORLY
p4597
aVDLR
p4598
aVBLK
p4599
aVFISV
p4600
aVZBH
p4601
aVCI
p4602
aVILMN
p4603
aVSPG
p4604
aVISRG
p4605
asS'01252017'
p4606
(lp4607
VEOG
p4608
aVAON
p4609
aVGS
p4610
aVURI
p4611
aVSNA
p4612
aVCXO
p4613
aVCMG
p4614
aVFDX
p4615
aVPX
p4616
aVPH
p4617
aVLRCX
p4618
aVDLR
p4619
aVBLK
p4620
aVFISV
p4621
aVZBH
p4622
aVBCR
p4623
aVCI
p4624
aVADS
p4625
aVILMN
p4626
aVVMC
p4627
aVBXP
p4628
aVAYI
p4629
aVSTZ
p4630
asS'01252016'
p4631
(lp4632
VGS
p4633
aVUNH
p4634
aVGWW
p4635
aVWHR
p4636
aVGOOG
p4637
aVAYI
p4638
aVICE
p4639
aVILMN
p4640
aVSTZ
p4641
aVEQIX
p4642
aVEFX
p4643
aVNOC
p4644
aVSJM
p4645
aVAPD
p4646
asS'12282016'
p4647
(lp4648
VEOG
p4649
aVAMZN
p4650
aVGOOGL
p4651
aVAON
p4652
aVHRS
p4653
aVSNA
p4654
aVCMG
p4655
aVAMG
p4656
aVPCLN
p4657
aVPH
p4658
aVORLY
p4659
aVBLK
p4660
aVBDX
p4661
aVFISV
p4662
aVZBH
p4663
aVTMO
p4664
aVWAT
p4665
aVVMC
p4666
aVSPG
p4667
aVNVDA
p4668
aVCVX
p4669
aVAYI
p4670
aVMLM
p4671
aVPNC
p4672
asS'04282016'
p4673
(lp4674
VAAPL
p4675
aVSIG
p4676
aVGOOGL
p4677
aVAET
p4678
aVCMI
p4679
aVCMG
p4680
aVHD
p4681
aVAVGO
p4682
aVHUM
p4683
aVPX
p4684
aVEFX
p4685
aVMHK
p4686
aVORLY
p4687
aVBLK
p4688
aVEW
p4689
aVBDX
p4690
aVACN
p4691
aVFB
p4692
aVWHR
p4693
aVILMN
p4694
aVPXD
p4695
aVICE
p4696
aVSTZ
p4697
aVMCK
p4698
aVEQIX
p4699
asS'02102016'
p4700
(lp4701
VGS
p4702
aVUNH
p4703
aVTMO
p4704
aVGOOG
p4705
aVAYI
p4706
aVHON
p4707
aVTRV
p4708
aVICE
p4709
aVILMN
p4710
aVAMZN
p4711
aVSTZ
p4712
aVEQIX
p4713
aVNOC
p4714
aVAPD
p4715
asS'12282015'
p4716
(lp4717
VREGN
p4718
aVHD
p4719
aVHUM
p4720
aVTRV
p4721
aVUHS
p4722
aVEXPE
p4723
aVBF-B
p4724
aVBXP
p4725
aVAYI
p4726
aVPPG
p4727
aVLH
p4728
aVCELG
p4729
aVGOOG
p4730
aVICE
p4731
aVMTB
p4732
aVSTZ
p4733
aVMCD
p4734
asS'01112016'
p4735
(lp4736
VNFLX
p4737
aVSJM
p4738
aVVRTX
p4739
aVAMZN
p4740
aVAPD
p4741
aVREGN
p4742
aVAVGO
p4743
aVHUM
p4744
aVLLL
p4745
aVULTA
p4746
aVUNH
p4747
aVAYI
p4748
aVGOOG
p4749
aVEQIX
p4750
asS'01112017'
p4751
(lp4752
VEOG
p4753
aVURI
p4754
aVAPD
p4755
aVAMG
p4756
aVPCLN
p4757
aVLLL
p4758
aVPH
p4759
aVLRCX
p4760
aVSHW
p4761
aVDLR
p4762
aVBLK
p4763
aVAMGN
p4764
aVFISV
p4765
aVZBH
p4766
aVILMN
p4767
aVCLX
p4768
aVNVDA
p4769
aVCVX
p4770
aVBXP
p4771
aVAYI
p4772
aVMLM
p4773
aVEQIX
p4774
aVPNC
p4775
asS'04072016'
p4776
(lp4777
VAGN
p4778
aVAET
p4779
aVCMI
p4780
aVCMG
p4781
aVAVGO
p4782
aVMHK
p4783
aVEW
p4784
aVUHS
p4785
aVNEE
p4786
aVACN
p4787
aVFB
p4788
aVFISV
p4789
aVWHR
p4790
aVSPG
p4791
aVCELG
p4792
aVPXD
p4793
aVHON
p4794
aVICE
p4795
aVMCK
p4796
aVEQIX
p4797
asS'07282016'
p4798
(lp4799
VGS
p4800
aVSYK
p4801
aVHUM
p4802
aVAMG
p4803
aVPCLN
p4804
aVFFIV
p4805
aVORLY
p4806
aVDLR
p4807
aVBLK
p4808
aVEW
p4809
aVPSA
p4810
aVNEE
p4811
aVACN
p4812
aVFISV
p4813
aVBCR
p4814
aVILMN
p4815
aVCVX
p4816
aVAAP
p4817
aVSTZ
p4818
aVMCK
p4819
asS'10042016'
p4820
(lp4821
VAGN
p4822
aVAAPL
p4823
aVCME
p4824
aVHUM
p4825
aVPCLN
p4826
aVPH
p4827
aVSHW
p4828
aVORLY
p4829
aVBLK
p4830
aVEW
p4831
aVINTU
p4832
aVMA
p4833
aVFB
p4834
aVZBH
p4835
aVBCR
p4836
aVILMN
p4837
aVWAT
p4838
aVXEC
p4839
aVSPG
p4840
aVADBE
p4841
aVCVX
p4842
aVPPG
p4843
aVSRE
p4844
aVGOOG
p4845
aVALXN
p4846
asS'09072016'
p4847
(lp4848
VAAPL
p4849
aVGOOGL
p4850
aVGS
p4851
aVHUM
p4852
aVPCLN
p4853
aVPH
p4854
aVSHW
p4855
aVDLR
p4856
aVADS
p4857
aVILMN
p4858
aVADBE
p4859
aVCVX
p4860
aVAAP
p4861
aVSRE
p4862
aVGOOG
p4863
aVESS
p4864
aVALXN
p4865
aVUTX
p4866
asS'05052016'
p4867
(lp4868
VSIG
p4869
aVAET
p4870
aVCMG
p4871
aVPX
p4872
aVMHK
p4873
aVBLK
p4874
aVEW
p4875
aVBDX
p4876
aVULTA
p4877
aVPSA
p4878
aVUHS
p4879
aVNEE
p4880
aVACN
p4881
aVGWW
p4882
aVWHR
p4883
aVILMN
p4884
aVFRT
p4885
aVICE
p4886
aVMCK
p4887
aVEQIX
p4888
asS'11182016'
p4889
(lp4890
VAMZN
p4891
aVGS
p4892
aVHAR
p4893
aVCMG
p4894
aVTDG
p4895
aVFDX
p4896
aVHUM
p4897
aVPX
p4898
aVRTN
p4899
aVPCLN
p4900
aVFFIV
p4901
aVFISV
p4902
aVILMN
p4903
aVXEC
p4904
aVCVX
p4905
aVAYI
p4906
aVGOOG
p4907
aVEQIX
p4908
aVPNC
p4909
asS'03092016'
p4910
(lp4911
VGS
p4912
aVCXO
p4913
aVAET
p4914
aVREGN
p4915
aVFDX
p4916
aVSHW
p4917
aVTRV
p4918
aVPRGO
p4919
aVFB
p4920
aVWHR
p4921
aVCI
p4922
aVGOOG
p4923
aVHON
p4924
aVALXN
p4925
aVEQIX
p4926
asS'08152016'
p4927
(lp4928
VAAPL
p4929
aVGOOGL
p4930
aVVRTX
p4931
aVSYK
p4932
aVAYI
p4933
aVHUM
p4934
aVPH
p4935
aVEFX
p4936
aVFFIV
p4937
aVORLY
p4938
aVDLR
p4939
aVEW
p4940
aVFISV
p4941
aVXEC
p4942
aVCVX
p4943
aVAZO
p4944
aVBXP
p4945
aVSRE
p4946
aVALXN
p4947
aVSTZ
p4948
asS'10182016'
p4949
(lp4950
VAAPL
p4951
aVGS
p4952
aVSNA
p4953
aVAPD
p4954
aVCME
p4955
aVCTAS
p4956
aVHUM
p4957
aVPCLN
p4958
aVROP
p4959
aVSHW
p4960
aVEW
p4961
aVBDX
p4962
aVMA
p4963
aVNEE
p4964
aVFISV
p4965
aVPVH
p4966
aVADS
p4967
aVILMN
p4968
aVADBE
p4969
aVSRE
p4970
aVALXN
p4971
aVUTX
p4972
asS'02012017'
p4973
(lp4974
VEOG
p4975
aVGOOGL
p4976
aVGS
p4977
aVCXO
p4978
aVCMG
p4979
aVCME
p4980
aVLLL
p4981
aVLRCX
p4982
aVORLY
p4983
aVDLR
p4984
aVBLK
p4985
aVBDX
p4986
aVFISV
p4987
aVZBH
p4988
aVCI
p4989
aVILMN
p4990
aVCLX
p4991
aVVMC
p4992
aVMLM
p4993
aVEQIX
p4994
asS'11162016'
p4995
(lp4996
VAMZN
p4997
aVHAR
p4998
aVSYK
p4999
aVGWW
p5000
aVCMG
p5001
aVTDG
p5002
aVIFF
p5003
aVHUM
p5004
aVPX
p5005
aVRTN
p5006
aVPCLN
p5007
aVLLL
p5008
aVORLY
p5009
aVFISV
p5010
aVILMN
p5011
aVXEC
p5012
aVCVX
p5013
aVAYI
p5014
aVGOOG
p5015
aVEQIX
p5016
aVPNC
p5017
asS'04202016'
p5018
(lp5019
VAAPL
p5020
aVSIG
p5021
aVCMI
p5022
aVCMG
p5023
aVAVGO
p5024
aVHUM
p5025
aVPX
p5026
aVMHK
p5027
aVEW
p5028
aVUHS
p5029
aVACN
p5030
aVFB
p5031
aVWHR
p5032
aVCI
p5033
aVAYI
p5034
aVPPG
p5035
aVGOOG
p5036
aVICE
p5037
aVSTZ
p5038
aVMCK
p5039
aVEQIX
p5040
asS'10102016'
p5041
(lp5042
VNFLX
p5043
aVAAPL
p5044
aVGOOGL
p5045
aVGS
p5046
aVSYK
p5047
aVHUM
p5048
aVRTN
p5049
aVPH
p5050
aVLRCX
p5051
aVEFX
p5052
aVSHW
p5053
aVBLK
p5054
aVEW
p5055
aVBDX
p5056
aVFB
p5057
aVFISV
p5058
aVZBH
p5059
aVBCR
p5060
aVADS
p5061
aVXEC
p5062
aVSPG
p5063
aVADBE
p5064
aVCVX
p5065
aVSRE
p5066
aVSTZ
p5067
asS'09152016'
p5068
(lp5069
VAGN
p5070
aVGOOGL
p5071
aVGS
p5072
aVSYK
p5073
aVHUM
p5074
aVPCLN
p5075
aVSHW
p5076
aVEW
p5077
aVPSA
p5078
aVCB
p5079
aVILMN
p5080
aVXEC
p5081
aVPPG
p5082
aVGOOG
p5083
aVALXN
p5084
asS'01212016'
p5085
(lp5086
VSJM
p5087
aVAPD
p5088
aVREGN
p5089
aVAVGO
p5090
aVHUM
p5091
aVLLL
p5092
aVGWW
p5093
aVTMO
p5094
aVUNH
p5095
aVLMT
p5096
aVBIIB
p5097
aVGOOG
p5098
aVICE
p5099
aVSTZ
p5100
aVEQIX
p5101
asS'06172016'
p5102
(lp5103
VSRCL
p5104
aVGS
p5105
aVSYK
p5106
aVCXO
p5107
aVCMI
p5108
aVCMG
p5109
aVAVGO
p5110
aVLLL
p5111
aVORLY
p5112
aVITW
p5113
aVBXP
p5114
aVAYI
p5115
aVPPG
p5116
aVSTZ
p5117
aVMCK
p5118
asS'02032016'
p5119
(lp5120
VSJM
p5121
aVGS
p5122
aVAMZN
p5123
aVAPD
p5124
aVAVGO
p5125
aVTRV
p5126
aVUNH
p5127
aVAYI
p5128
aVGOOG
p5129
aVHON
p5130
aVSTZ
p5131
asS'02032017'
p5132
(lp5133
VEOG
p5134
aVGOOGL
p5135
aVAON
p5136
aVPRU
p5137
aVCXO
p5138
aVCMI
p5139
aVCMG
p5140
aVCME
p5141
aVAVGO
p5142
aVRTN
p5143
aVLLL
p5144
aVAMP
p5145
aVLRCX
p5146
aVMHK
p5147
aVDLR
p5148
aVBLK
p5149
aVINTU
p5150
aVFISV
p5151
aVZBH
p5152
aVILMN
p5153
aVISRG
p5154
aVEQIX
p5155
asS'01202016'
p5156
(lp5157
VSJM
p5158
aVAPD
p5159
aVAVGO
p5160
aVHUM
p5161
aVLLL
p5162
aVNOC
p5163
aVGWW
p5164
aVAZO
p5165
aVMNST
p5166
aVBIIB
p5167
aVGOOG
p5168
aVICE
p5169
aVEQIX
p5170
asS'03012016'
p5171
(lp5172
VHSIC
p5173
aVGS
p5174
aVREGN
p5175
aVEFX
p5176
aVSHW
p5177
aVTRV
p5178
aVUHS
p5179
aVGOOG
p5180
aVHON
p5181
aVALXN
p5182
aVEQIX
p5183
asS'08222016'
p5184
(lp5185
VAAPL
p5186
aVGS
p5187
aVSYK
p5188
aVPCLN
p5189
aVEFX
p5190
aVORLY
p5191
aVDLR
p5192
aVEW
p5193
aVBDX
p5194
aVAVB
p5195
aVACN
p5196
aVFISV
p5197
aVMKC
p5198
aVPVH
p5199
aVILMN
p5200
aVXEC
p5201
aVALXN
p5202
aVUTX
p5203
asS'08192016'
p5204
(lp5205
VAGN
p5206
aVAAPL
p5207
aVSYK
p5208
aVAPD
p5209
aVHUM
p5210
aVPCLN
p5211
aVEFX
p5212
aVFFIV
p5213
aVORLY
p5214
aVDLR
p5215
aVBLK
p5216
aVEW
p5217
aVBDX
p5218
aVNEE
p5219
aVACN
p5220
aVFISV
p5221
aVPVH
p5222
aVILMN
p5223
aVXEC
p5224
aVCVX
p5225
aVALXN
p5226
aVUTX
p5227
aVSTZ
p5228
asS'06202016'
p5229
(lp5230
VSRCL
p5231
aVGS
p5232
aVSYK
p5233
aVAPD
p5234
aVCXO
p5235
aVCMG
p5236
aVAVGO
p5237
aVLLL
p5238
aVORLY
p5239
aVNEE
p5240
aVACN
p5241
aVFISV
p5242
aVITW
p5243
aVAYI
p5244
aVPPG
p5245
aVPXD
p5246
aVANTM
p5247
aVSTZ
p5248
aVMCK
p5249
asS'08122016'
p5250
(lp5251
VAAPL
p5252
aVGOOGL
p5253
aVSYK
p5254
aVAYI
p5255
aVHUM
p5256
aVEFX
p5257
aVDLR
p5258
aVBLK
p5259
aVEW
p5260
aVFISV
p5261
aVILMN
p5262
aVWAT
p5263
aVCVX
p5264
aVSRE
p5265
aVALXN
p5266
aVSTZ
p5267
asS'10272016'
p5268
(lp5269
VAGN
p5270
aVAAPL
p5271
aVGS
p5272
aVAPD
p5273
aVCTAS
p5274
aVPH
p5275
aVSHW
p5276
aVEW
p5277
aVBDX
p5278
aVMA
p5279
aVNEE
p5280
aVZBH
p5281
aVTMO
p5282
aVADS
p5283
aVILMN
p5284
aVADBE
p5285
aVSRE
p5286
aVGOOG
p5287
aVALXN
p5288
aVUTX
p5289
asS'09282016'
p5290
(lp5291
VAGN
p5292
aVGS
p5293
aVSYK
p5294
aVTDG
p5295
aVCME
p5296
aVHUM
p5297
aVPH
p5298
aVEFX
p5299
aVORLY
p5300
aVBLK
p5301
aVEW
p5302
aVMA
p5303
aVKMB
p5304
aVFB
p5305
aVFISV
p5306
aVZBH
p5307
aVPVH
p5308
aVILMN
p5309
aVGOOG
p5310
aVHON
p5311
asS'03242016'
p5312
(lp5313
VAGN
p5314
aVSIG
p5315
aVAET
p5316
aVCMI
p5317
aVCMG
p5318
aVPCLN
p5319
aVEFX
p5320
aVMHK
p5321
aVSHW
p5322
aVFFIV
p5323
aVBDX
p5324
aVPRGO
p5325
aVUHS
p5326
aVKMB
p5327
aVWHR
p5328
aVCELG
p5329
aVAVGO
p5330
aVALXN
p5331
aVMCK
p5332
aVEQIX
p5333
asS'11102016'
p5334
(lp5335
VGS
p5336
aVAMZN
p5337
aVHUM
p5338
aVRTN
p5339
aVPCLN
p5340
aVORLY
p5341
aVFISV
p5342
aVZBH
p5343
aVBCR
p5344
aVILMN
p5345
aVXEC
p5346
aVITW
p5347
aVCVX
p5348
aVEQIX
p5349
asS'12312015'
p5350
(lp5351
VREGN
p5352
aVIFF
p5353
aVHD
p5354
aVHUM
p5355
aVULTA
p5356
aVUHS
p5357
aVUNH
p5358
aVLMT
p5359
aVBF-B
p5360
aVBXP
p5361
aVAYI
p5362
aVSTZ
p5363
aVMCD
p5364
asS'01082016'
p5365
(lp5366
VNFLX
p5367
aVSJM
p5368
aVAMZN
p5369
aVSNA
p5370
aVAPD
p5371
aVREGN
p5372
aVIFF
p5373
aVHD
p5374
aVAVGO
p5375
aVHUM
p5376
aVRTN
p5377
aVLLL
p5378
aVULTA
p5379
aVUHS
p5380
aVGILD
p5381
aVUNH
p5382
aVAYI
p5383
aVSTZ
p5384
asS'01292016'
p5385
(lp5386
VSJM
p5387
aVGS
p5388
aVAPD
p5389
aVPSA
p5390
aVNOC
p5391
aVNEE
p5392
aVZBH
p5393
aVILMN
p5394
aVUNH
p5395
aVGOOG
p5396
aVICE
p5397
aVSTZ
p5398
aVEQIX
p5399
asS'05022016'
p5400
(lp5401
VSIG
p5402
aVGWW
p5403
aVCMI
p5404
aVCMG
p5405
aVTDG
p5406
aVHD
p5407
aVAVGO
p5408
aVPX
p5409
aVMHK
p5410
aVBLK
p5411
aVEW
p5412
aVBDX
p5413
aVULTA
p5414
aVNEE
p5415
aVACN
p5416
aVFB
p5417
aVWHR
p5418
aVILMN
p5419
aVSJM
p5420
aVPPG
p5421
aVCELG
p5422
aVPXD
p5423
aVHON
p5424
aVICE
p5425
aVSTZ
p5426
aVMCK
p5427
aVEQIX
p5428
asS'07272016'
p5429
(lp5430
VUHS
p5431
aVGS
p5432
aVAPD
p5433
aVCMI
p5434
aVAYI
p5435
aVHUM
p5436
aVPCLN
p5437
aVSHW
p5438
aVDLR
p5439
aVBLK
p5440
aVEW
p5441
aVPSA
p5442
aVNEE
p5443
aVACN
p5444
aVILMN
p5445
aVCVX
p5446
aVAAP
p5447
aVSRE
p5448
aVSTZ
p5449
aVMCK
p5450
asS'10142016'
p5451
(lp5452
VAAPL
p5453
aVHSIC
p5454
aVGS
p5455
aVSNA
p5456
aVAPD
p5457
aVHUM
p5458
aVPCLN
p5459
aVPH
p5460
aVSHW
p5461
aVBLK
p5462
aVEW
p5463
aVBDX
p5464
aVMA
p5465
aVNEE
p5466
aVFISV
p5467
aVILMN
p5468
aVSPG
p5469
aVADBE
p5470
aVCVX
p5471
aVSRE
p5472
asS'01092017'
p5473
(lp5474
VEOG
p5475
aVAMZN
p5476
aVURI
p5477
aVHRS
p5478
aVSNA
p5479
aVAPD
p5480
aVNVDA
p5481
aVPCLN
p5482
aVPH
p5483
aVLRCX
p5484
aVSHW
p5485
aVBLK
p5486
aVFISV
p5487
aVZBH
p5488
aVILMN
p5489
aVCVX
p5490
aVBXP
p5491
aVAYI
p5492
aVALXN
p5493
aVEQIX
p5494
asS'04142016'
p5495
(lp5496
VGOOGL
p5497
aVGS
p5498
aVAPD
p5499
aVAET
p5500
aVCMI
p5501
aVCMG
p5502
aVAVGO
p5503
aVEW
p5504
aVUHS
p5505
aVACN
p5506
aVFB
p5507
aVFISV
p5508
aVBCR
p5509
aVWHR
p5510
aVXEC
p5511
aVSPG
p5512
aVCELG
p5513
aVGOOG
p5514
aVICE
p5515
aVMCK
p5516
aVEQIX
p5517
asS'10172016'
p5518
(lp5519
VAGN
p5520
aVAAPL
p5521
aVGOOGL
p5522
aVHSIC
p5523
aVGS
p5524
aVSNA
p5525
aVAPD
p5526
aVHUM
p5527
aVPCLN
p5528
aVROP
p5529
aVPH
p5530
aVSHW
p5531
aVFFIV
p5532
aVEW
p5533
aVBDX
p5534
aVMA
p5535
aVNEE
p5536
aVPVH
p5537
aVILMN
p5538
aVSPG
p5539
aVADBE
p5540
aVSRE
p5541
aVALXN
p5542
asS'09132016'
p5543
(lp5544
VAAPL
p5545
aVGOOGL
p5546
aVSYK
p5547
aVHUM
p5548
aVPCLN
p5549
aVPH
p5550
aVEFX
p5551
aVSHW
p5552
aVEW
p5553
aVBDX
p5554
aVFISV
p5555
aVPVH
p5556
aVILMN
p5557
aVCVX
p5558
aVPPG
p5559
aVSRE
p5560
aVGOOG
p5561
aVALXN
p5562
asS'01312017'
p5563
(lp5564
VEOG
p5565
aVGOOGL
p5566
aVAON
p5567
aVGS
p5568
aVAPD
p5569
aVCXO
p5570
aVCMG
p5571
aVCME
p5572
aVLLL
p5573
aVAMP
p5574
aVLRCX
p5575
aVDLR
p5576
aVFISV
p5577
aVZBH
p5578
aVCI
p5579
aVILMN
p5580
aVCLX
p5581
aVMLM
p5582
aVEQIX
p5583
asS'10312016'
p5584
(lp5585
VAAPL
p5586
aVGS
p5587
aVAPD
p5588
aVCTAS
p5589
aVHUM
p5590
aVPH
p5591
aVSHW
p5592
aVBDX
p5593
aVMA
p5594
aVNEE
p5595
aVZBH
p5596
aVPVH
p5597
aVADS
p5598
aVILMN
p5599
aVADBE
p5600
aVAYI
p5601
aVMNST
p5602
aVSRE
p5603
aVLH
p5604
aVALXN
p5605
aVUTX
p5606
asS'11292016'
p5607
(lp5608
VAMZN
p5609
aVHAR
p5610
aVTDG
p5611
aVFDX
p5612
aVPCLN
p5613
aVMHK
p5614
aVSHW
p5615
aVBDX
p5616
aVFB
p5617
aVTMO
p5618
aVILMN
p5619
aVXEC
p5620
aVVMC
p5621
aVCVX
p5622
aVAYI
p5623
aVPNC
p5624
asS'02292016'
p5625
(lp5626
VHSIC
p5627
aVGS
p5628
aVREGN
p5629
aVEFX
p5630
aVSHW
p5631
aVTRV
p5632
aVUHS
p5633
aVCI
p5634
aVAZO
p5635
aVGOOG
p5636
aVHON
p5637
aVALXN
p5638
aVEQIX
p5639
asS'07212016'
p5640
(lp5641
VUHS
p5642
aVAON
p5643
aVCMI
p5644
aVAYI
p5645
aVMHK
p5646
aVSHW
p5647
aVFFIV
p5648
aVORLY
p5649
aVDLR
p5650
aVINTU
p5651
aVFISV
p5652
aVZBH
p5653
aVILMN
p5654
aVITW
p5655
aVCVX
p5656
aVAAP
p5657
aVBIIB
p5658
aVSRE
p5659
aVALXN
p5660
aVUTX
p5661
aVSTZ
p5662
aVMCK
p5663
asS'04192016'
p5664
(lp5665
VGOOGL
p5666
aVAPD
p5667
aVCMI
p5668
aVHUM
p5669
aVPX
p5670
aVEFX
p5671
aVMHK
p5672
aVEW
p5673
aVUHS
p5674
aVNEE
p5675
aVACN
p5676
aVFB
p5677
aVWHR
p5678
aVCI
p5679
aVUNH
p5680
aVXEC
p5681
aVSWK
p5682
aVPPG
p5683
aVGOOG
p5684
aVICE
p5685
aVSTZ
p5686
aVMCK
p5687
aVEQIX
p5688
asS'08092016'
p5689
(lp5690
VAGN
p5691
aVAAPL
p5692
aVVRTX
p5693
aVSYK
p5694
aVAPD
p5695
aVHUM
p5696
aVPCLN
p5697
aVEFX
p5698
aVSHW
p5699
aVORLY
p5700
aVDLR
p5701
aVBLK
p5702
aVEW
p5703
aVFISV
p5704
aVAYI
p5705
aVILMN
p5706
aVWAT
p5707
aVCVX
p5708
aVAAP
p5709
aVPPG
p5710
aVSRE
p5711
aVSTZ
p5712
asS'06232016'
p5713
(lp5714
VSRCL
p5715
aVGS
p5716
aVSYK
p5717
aVCXO
p5718
aVCMG
p5719
aVAVGO
p5720
aVPCLN
p5721
aVPM
p5722
aVMHK
p5723
aVORLY
p5724
aVNEE
p5725
aVACN
p5726
aVFISV
p5727
aVILMN
p5728
aVXEC
p5729
aVITW
p5730
aVCVX
p5731
aVAYI
p5732
aVPXD
p5733
aVMCK
p5734
asS'09192016'
p5735
(lp5736
VAGN
p5737
aVGOOGL
p5738
aVGS
p5739
aVSYK
p5740
aVHUM
p5741
aVSHW
p5742
aVEW
p5743
aVBDX
p5744
aVPVH
p5745
aVCB
p5746
aVILMN
p5747
aVGOOG
p5748
aVALXN
p5749
asS'07112016'
p5750
(lp5751
VSRCL
p5752
aVHSY
p5753
aVHSIC
p5754
aVGS
p5755
aVCXO
p5756
aVAYI
p5757
aVSHW
p5758
aVORLY
p5759
aVDLR
p5760
aVFISV
p5761
aVZBH
p5762
aVILMN
p5763
aVXEC
p5764
aVBXP
p5765
aVPPG
p5766
aVPXD
p5767
aVALXN
p5768
aVSTZ
p5769
asS'12192016'
p5770
(lp5771
VAGN
p5772
aVEOG
p5773
aVAMZN
p5774
aVAON
p5775
aVPRU
p5776
aVSRE
p5777
aVCMG
p5778
aVPX
p5779
aVPCLN
p5780
aVPH
p5781
aVLRCX
p5782
aVORLY
p5783
aVBLK
p5784
aVFISV
p5785
aVZBH
p5786
aVVMC
p5787
aVCVX
p5788
aVAYI
p5789
aVDIS
p5790
aVPXD
p5791
aVPNC
p5792
asS'10032016'
p5793
(lp5794
VAGN
p5795
aVAAPL
p5796
aVGS
p5797
aVSYK
p5798
aVCME
p5799
aVHUM
p5800
aVPX
p5801
aVPCLN
p5802
aVPH
p5803
aVFFIV
p5804
aVORLY
p5805
aVBLK
p5806
aVEW
p5807
aVMA
p5808
aVKMB
p5809
aVFB
p5810
aVZBH
p5811
aVBCR
p5812
aVPVH
p5813
aVILMN
p5814
aVWAT
p5815
aVSPG
p5816
aVADBE
p5817
aVCVX
p5818
aVAYI
p5819
aVSRE
p5820
aVGOOG
p5821
aVALXN
p5822
asS'05112016'
p5823
(lp5824
VSJM
p5825
aVSIG
p5826
aVGWW
p5827
aVAET
p5828
aVCMI
p5829
aVFDX
p5830
aVHD
p5831
aVPX
p5832
aVMHK
p5833
aVSHW
p5834
aVBLK
p5835
aVEW
p5836
aVBDX
p5837
aVUHS
p5838
aVACN
p5839
aVFB
p5840
aVFISV
p5841
aVWHR
p5842
aVDIS
p5843
aVPPG
p5844
aVPXD
p5845
aVICE
p5846
aVSTZ
p5847
aVMCK
p5848
asS'01142016'
p5849
(lp5850
VNFLX
p5851
aVSJM
p5852
aVSRCL
p5853
aVVRTX
p5854
aVAPD
p5855
aVREGN
p5856
aVFDX
p5857
aVHD
p5858
aVAVGO
p5859
aVHUM
p5860
aVAMG
p5861
aVLLL
p5862
aVNOC
p5863
aVLMT
p5864
aVGOOG
p5865
aVICE
p5866
aVSTZ
p5867
aVEQIX
p5868
asS'06022016'
p5869
(lp5870
VNFLX
p5871
aVSYK
p5872
aVGWW
p5873
aVCMG
p5874
aVMHK
p5875
aVORLY
p5876
aVULTA
p5877
aVACN
p5878
aVFB
p5879
aVCVX
p5880
aVAAP
p5881
aVAYI
p5882
aVHON
p5883
aVSTZ
p5884
aVMCK
p5885
asS'08292016'
p5886
(lp5887
VAAPL
p5888
aVGOOGL
p5889
aVGS
p5890
aVHUM
p5891
aVPCLN
p5892
aVPH
p5893
aVEW
p5894
aVBDX
p5895
aVPVH
p5896
aVILMN
p5897
aVXEC
p5898
aVADBE
p5899
aVBXP
p5900
aVSRE
p5901
aVALXN
p5902
aVMCO
p5903
asS'10052016'
p5904
(lp5905
VAGN
p5906
aVAAPL
p5907
aVCME
p5908
aVHUM
p5909
aVPCLN
p5910
aVAMP
p5911
aVPH
p5912
aVSHW
p5913
aVBLK
p5914
aVEW
p5915
aVINTU
p5916
aVMA
p5917
aVPVH
p5918
aVILMN
p5919
aVXEC
p5920
aVSPG
p5921
aVADBE
p5922
aVCVX
p5923
aVPPG
p5924
aVSRE
p5925
aVALXN
p5926
asS'01062017'
p5927
(lp5928
VEOG
p5929
aVAMZN
p5930
aVURI
p5931
aVHRS
p5932
aVSNA
p5933
aVAPD
p5934
aVCMG
p5935
aVREGN
p5936
aVAVGO
p5937
aVAMG
p5938
aVPCLN
p5939
aVPH
p5940
aVLRCX
p5941
aVSHW
p5942
aVORLY
p5943
aVDLR
p5944
aVBLK
p5945
aVMA
p5946
aVNEE
p5947
aVZBH
p5948
aVILMN
p5949
aVNVDA
p5950
aVCVX
p5951
aVEQIX
p5952
aVPNC
p5953
asS'01152016'
p5954
(lp5955
VSJM
p5956
aVTDG
p5957
aVREGN
p5958
aVFDX
p5959
aVHD
p5960
aVAVGO
p5961
aVHUM
p5962
aVAMG
p5963
aVLLL
p5964
aVBIIB
p5965
aVGOOG
p5966
aVICE
p5967
aVSTZ
p5968
aVEQIX
p5969
asS'04262016'
p5970
(lp5971
VAAPL
p5972
aVSIG
p5973
aVCMI
p5974
aVCMG
p5975
aVHD
p5976
aVAVGO
p5977
aVHUM
p5978
aVMHK
p5979
aVSHW
p5980
aVEW
p5981
aVULTA
p5982
aVACN
p5983
aVFB
p5984
aVWHR
p5985
aVAYI
p5986
aVCELG
p5987
aVHON
p5988
aVICE
p5989
aVSTZ
p5990
aVMCK
p5991
aVEQIX
p5992
aVSPGI
p5993
asS'12012015'
p5994
(lp5995
VNFLX
p5996
aVHAR
p5997
aVVRTX
p5998
aVGD
p5999
aVGWW
p6000
aVCXO
p6001
aVREGN
p6002
aVIFF
p6003
aVHD
p6004
aVPH
p6005
aVFB
p6006
aVBXP
p6007
aVAYI
p6008
aVDIS
p6009
aVPPG
p6010
aVCELG
p6011
aVGOOG
p6012
aVICE
p6013
aVALXN
p6014
aVSTZ
p6015
aVNKE
p6016
asS'12012016'
p6017
(lp6018
VGOOGL
p6019
aVAMZN
p6020
aVAPD
p6021
aVCMG
p6022
aVTDG
p6023
aVFDX
p6024
aVPX
p6025
aVMHK
p6026
aVBLK
p6027
aVBDX
p6028
aVNEE
p6029
aVFB
p6030
aVFISV
p6031
aVTMO
p6032
aVPVH
p6033
aVILMN
p6034
aVXEC
p6035
aVVMC
p6036
aVCVX
p6037
aVBXP
p6038
aVUTX
p6039
asS'12272016'
p6040
(lp6041
VEOG
p6042
aVGOOGL
p6043
aVAON
p6044
aVCMG
p6045
aVPX
p6046
aVPCLN
p6047
aVPH
p6048
aVBDX
p6049
aVZBH
p6050
aVTMO
p6051
aVUNP
p6052
aVVMC
p6053
aVNVDA
p6054
aVCVX
p6055
aVAYI
p6056
aVMLM
p6057
aVALXN
p6058
aVEQIX
p6059
aVPNC
p6060
asS'12302015'
p6061
(lp6062
VAGN
p6063
aVAAPL
p6064
aVREGN
p6065
aVIFF
p6066
aVHD
p6067
aVHUM
p6068
aVRTN
p6069
aVULTA
p6070
aVPRGO
p6071
aVGILD
p6072
aVUNH
p6073
aVAYI
p6074
aVGOOG
p6075
aVICE
p6076
aVSTZ
p6077
aVMCD
p6078
asS'12222015'
p6079
(lp6080
VREGN
p6081
aVIFF
p6082
aVRTN
p6083
aVLLL
p6084
aVNOC
p6085
aVUHS
p6086
aVFB
p6087
aVGILD
p6088
aVAYI
p6089
aVLH
p6090
aVCELG
p6091
aVGOOG
p6092
aVICE
p6093
aVSTZ
p6094
asS'12222016'
p6095
(lp6096
VEOG
p6097
aVAMZN
p6098
aVGOOGL
p6099
aVAON
p6100
aVHRS
p6101
aVSNA
p6102
aVTDG
p6103
aVPX
p6104
aVPCLN
p6105
aVPH
p6106
aVSHW
p6107
aVBLK
p6108
aVFISV
p6109
aVZBH
p6110
aVTMO
p6111
aVVMC
p6112
aVNVDA
p6113
aVCVX
p6114
aVAYI
p6115
aVEQIX
p6116
aVPNC
p6117
asS'12302016'
p6118
(lp6119
VEOG
p6120
aVAMZN
p6121
aVAON
p6122
aVHRS
p6123
aVAPD
p6124
aVCMG
p6125
aVRTN
p6126
aVLRCX
p6127
aVSHW
p6128
aVORLY
p6129
aVBLK
p6130
aVBDX
p6131
aVFISV
p6132
aVZBH
p6133
aVTMO
p6134
aVILMN
p6135
aVMMM
p6136
aVNVDA
p6137
aVCVX
p6138
aVAYI
p6139
aVDIS
p6140
aVEQIX
p6141
aVPNC
p6142
asS'06292016'
p6143
(lp6144
VAPD
p6145
aVCMI
p6146
aVCMG
p6147
aVMHK
p6148
aVORLY
p6149
aVINTU
p6150
aVFISV
p6151
aVXEC
p6152
aVPXD
p6153
aVALXN
p6154
aVSTZ
p6155
as.