(dp1
S'12022016'
p2
(lp3
VSTZ
p4
aVHRS
p5
aVNSC
p6
aVGS
p7
aVULTA
p8
asS'11072016'
p9
(lp10
VSHW
p11
aVSTZ
p12
aVALXN
p13
aVAVGO
p14
aVFFIV
p15
aVMLM
p16
asS'12022015'
p17
(lp18
VSRCL
p19
aVMNST
p20
aVAVGO
p21
asS'09012015'
p22
(lp23
VAMZN
p24
aVPRGO
p25
aVILMN
p26
asS'09012016'
p27
(lp28
VAMG
p29
aVEQIX
p30
asS'07312015'
p31
(lp32
VEW
p33
aVROK
p34
aVINTU
p35
aVEQIX
p36
aVFFIV
p37
asS'08132015'
p38
(lp39
VAGN
p40
aVINTU
p41
aVANTM
p42
aVROK
p43
aVAVGO
p44
aVHUM
p45
aVAYI
p46
asS'03232015'
p47
(lp48
VNFLX
p49
aVAMZN
p50
aVAAPL
p51
aVILMN
p52
aVAGN
p53
asS'08082016'
p54
(lp55
VCMG
p56
aVADS
p57
aVMCK
p58
aVHSY
p59
aVWAT
p60
aVEW
p61
aVACN
p62
aVAVGO
p63
aVDNB
p64
aVGOOG
p65
aVGOOGL
p66
asS'06302016'
p67
(lp68
VBLK
p69
aVULTA
p70
aVAYI
p71
aVMCK
p72
aVFB
p73
aVEFX
p74
aVMKC
p75
asS'06302015'
p76
(lp77
VAVGO
p78
aVFFIV
p79
aVAYI
p80
aVBA
p81
aVUNH
p82
asS'12062016'
p83
(lp84
VLRCX
p85
aVHAR
p86
aVHRS
p87
aVAYI
p88
aVULTA
p89
asS'02082017'
p90
(lp91
VPXD
p92
asS'06132016'
p93
(lp94
VCELG
p95
asS'10122015'
p96
(lp97
VTDG
p98
aVMNST
p99
aVAMZN
p100
aVCXO
p101
aVAYI
p102
asS'09272016'
p103
(lp104
VEFX
p105
aVTDG
p106
aVBIIB
p107
asS'04232015'
p108
(lp109
VAGN
p110
aVWHR
p111
asS'10132016'
p112
(lp113
VBIIB
p114
aVAYI
p115
aVEFX
p116
aVALXN
p117
aVAVGO
p118
asS'02092017'
p119
(lp120
VCI
p121
aVPRU
p122
aVNSC
p123
aVLLL
p124
asS'06122015'
p125
(lp126
VEQIX
p127
aVCF
p128
aVAGN
p129
aVCXO
p130
asS'12182015'
p131
(lp132
VGOOGL
p133
aVMNST
p134
aVAVGO
p135
aVULTA
p136
asS'05182016'
p137
(lp138
VESS
p139
aVFB
p140
aVMCK
p141
asS'07192016'
p142
(lp143
VFRT
p144
aVAMT
p145
aVTDG
p146
aVMCK
p147
aVADS
p148
aVCMG
p149
asS'02272015'
p150
(lp151
VILMN
p152
aVKSU
p153
aVAAPL
p154
aVMCK
p155
aVPVH
p156
aVALXN
p157
asS'12112015'
p158
(lp159
VAGN
p160
aVMNST
p161
aVAYI
p162
aVAVGO
p163
asS'09282016'
p164
(lp165
VEFX
p166
aVCMI
p167
aVSRE
p168
aVTDG
p169
asS'09282015'
p170
(lp171
VAYI
p172
aVXEC
p173
aVORLY
p174
aVMNST
p175
asS'04162015'
p176
(lp177
VAGN
p178
aVWHR
p179
asS'05102016'
p180
(lp181
VINTU
p182
aVAET
p183
aVSTZ
p184
aVFB
p185
asS'02232015'
p186
(lp187
VKSU
p188
aVROP
p189
aVMCK
p190
aVAAPL
p191
aVALXN
p192
asS'08032016'
p193
(lp194
VACN
p195
aVWHR
p196
aVDNB
p197
asS'12212016'
p198
(lp199
VGWW
p200
aVIBM
p201
aVULTA
p202
asS'12212015'
p203
(lp204
VMNST
p205
aVAVGO
p206
aVULTA
p207
asS'08032015'
p208
(lp209
VINTU
p210
aVHAR
p211
aVGPN
p212
aVEQIX
p213
aVFFIV
p214
asS'07222016'
p215
(lp216
VINTU
p217
aVAMT
p218
aVEW
p219
aVDNB
p220
aVCELG
p221
aVWHR
p222
aVADS
p223
aVCMG
p224
asS'03302015'
p225
(lp226
VILMN
p227
aVNSC
p228
aVAAPL
p229
aVLH
p230
aVXEC
p231
asS'11032016'
p232
(lp233
VEQIX
p234
aVALXN
p235
aVMLM
p236
aVFFIV
p237
asS'07222015'
p238
(lp239
VANTM
p240
aVGILD
p241
aVORLY
p242
aVEW
p243
asS'12202016'
p244
(lp245
VPCLN
p246
aVIBM
p247
aVMHK
p248
aVULTA
p249
asS'02022016'
p250
(lp251
VAET
p252
aVPXD
p253
asS'11132015'
p254
(lp255
VAAP
p256
aVCELG
p257
aVAYI
p258
aVHUM
p259
aVCI
p260
aVVMC
p261
aVAMZN
p262
aVTDG
p263
asS'04082015'
p264
(lp265
VAVB
p266
aVISRG
p267
asS'10242016'
p268
(lp269
VPCLN
p270
aVEQIX
p271
aVNFLX
p272
asS'06012016'
p273
(lp274
VSTZ
p275
aVTAP
p276
aVSPGI
p277
aVADBE
p278
aVAMG
p279
aVALXN
p280
aVULTA
p281
asS'06012015'
p282
(lp283
VPRGO
p284
aVAMGN
p285
aVEQIX
p286
aVGPN
p287
aVXEC
p288
aVAMP
p289
aVHD
p290
aVWHR
p291
aVANTM
p292
asS'12292016'
p293
(lp294
VLRCX
p295
asS'12292015'
p296
(lp297
VAVGO
p298
aVEXPE
p299
asS'03112015'
p300
(lp301
VPPG
p302
aVAAPL
p303
aVMCK
p304
aVLH
p305
asS'07062016'
p306
(lp307
VSPGI
p308
aVPM
p309
aVEFX
p310
aVGOOG
p311
aVMCK
p312
aVFRT
p313
asS'08212015'
p314
(lp315
VAGN
p316
aVAYI
p317
aVAVGO
p318
asS'11292016'
p319
(lp320
VBIIB
p321
aVHRS
p322
aVGS
p323
aVNSC
p324
aVLRCX
p325
aVAYI
p326
asS'01132017'
p327
(lp328
VAMG
p329
aVPXD
p330
aVULTA
p331
aVAMP
p332
asS'05202016'
p333
(lp334
VORLY
p335
aVAMT
p336
aVFB
p337
aVMCK
p338
asS'05202015'
p339
(lp340
VPXD
p341
aVCXO
p342
aVPRGO
p343
aVROST
p344
aVEQIX
p345
aVROK
p346
aVGILD
p347
aVUNH
p348
asS'07092015'
p349
(lp350
VCXO
p351
aVROK
p352
aVAGN
p353
asS'04012015'
p354
(lp355
VILMN
p356
aVNSC
p357
aVAAPL
p358
aVLH
p359
aVUNH
p360
aVXEC
p361
asS'01122016'
p362
(lp363
VUNH
p364
aVTMO
p365
aVPSA
p366
asS'12092015'
p367
(lp368
VGOOG
p369
aVAYI
p370
aVCELG
p371
aVAVGO
p372
asS'12092016'
p373
(lp374
VAYI
p375
aVSHW
p376
aVTDG
p377
aVPCLN
p378
asS'10232015'
p379
(lp380
VXEC
p381
aVMNST
p382
asS'03042015'
p383
(lp384
VHBI
p385
aVAYI
p386
aVMLM
p387
aVROP
p388
aVMCK
p389
aVALXN
p390
asS'05142015'
p391
(lp392
VCXO
p393
aVXEC
p394
aVALXN
p395
aVPRGO
p396
aVUNP
p397
aVAAPL
p398
aVAET
p399
aVEQIX
p400
aVUNH
p401
aVAGN
p402
asS'07012016'
p403
(lp404
VFDX
p405
aVTDG
p406
aVGOOG
p407
aVFB
p408
aVUNH
p409
aVMCK
p410
asS'03162015'
p411
(lp412
VNFLX
p413
aVILMN
p414
aVAMGN
p415
asS'11082016'
p416
(lp417
VAMG
p418
aVADS
p419
aVPX
p420
aVGS
p421
aVSPGI
p422
aVMLM
p423
asS'11092016'
p424
(lp425
VSPGI
p426
aVGS
p427
aVFFIV
p428
aVMLM
p429
asS'11092015'
p430
(lp431
VCXO
p432
aVAAP
p433
aVHUM
p434
aVTDG
p435
asS'10122016'
p436
(lp437
VTDG
p438
aVEFX
p439
aVALXN
p440
aVAMP
p441
asS'08192016'
p442
(lp443
VSPGI
p444
aVWAT
p445
aVEQIX
p446
aVBLK
p447
asS'04062015'
p448
(lp449
VILMN
p450
aVLH
p451
aVAVB
p452
aVXEC
p453
asS'11272015'
p454
(lp455
VAET
p456
aVVMC
p457
aVXEC
p458
aVSRCL
p459
aVUHS
p460
aVMNST
p461
asS'08302016'
p462
(lp463
VBIIB
p464
aVWHR
p465
aVAYI
p466
aVFFIV
p467
aVINTU
p468
aVEFX
p469
aVEQIX
p470
asS'08232016'
p471
(lp472
VMLM
p473
aVCELG
p474
aVMCO
p475
aVEQIX
p476
asS'09162015'
p477
(lp478
VXEC
p479
aVGPN
p480
aVILMN
p481
asS'02102016'
p482
(lp483
VGOOG
p484
asS'09162016'
p485
(lp486
VTDG
p487
aVEQIX
p488
aVAVGO
p489
aVCME
p490
asS'03202015'
p491
(lp492
VPPG
p493
aVAAPL
p494
asS'10152015'
p495
(lp496
VMNST
p497
aVCI
p498
aVREGN
p499
asS'02182015'
p500
(lp501
VAVB
p502
aVALXN
p503
aVKSU
p504
aVROP
p505
asS'08112015'
p506
(lp507
VAGN
p508
aVAVGO
p509
aVMHK
p510
aVHUM
p511
asS'11232016'
p512
(lp513
VTDG
p514
aVALXN
p515
aVHRS
p516
aVLRCX
p517
aVGS
p518
asS'01192017'
p519
(lp520
VGS
p521
aVAMG
p522
aVAMP
p523
aVULTA
p524
asS'11232015'
p525
(lp526
VULTA
p527
aVCI
p528
aVMNST
p529
aVAVGO
p530
aVVMC
p531
aVILMN
p532
asS'02092016'
p533
(lp534
VAMZN
p535
aVAVGO
p536
asS'01132016'
p537
(lp538
VUNH
p539
aVSRCL
p540
asS'07162015'
p541
(lp542
VHUM
p543
aVINTU
p544
asS'05042015'
p545
(lp546
VAGN
p547
aVHD
p548
aVCXO
p549
aVANTM
p550
aVINTU
p551
asS'05042016'
p552
(lp553
VMCK
p554
aVAAP
p555
aVGS
p556
asS'07172015'
p557
(lp558
VGILD
p559
aVINTU
p560
asS'06102015'
p561
(lp562
VEQIX
p563
aVAGN
p564
aVAYI
p565
aVUNH
p566
aVCXO
p567
asS'06102016'
p568
(lp569
VAYI
p570
aVDNB
p571
aVEFX
p572
aVPX
p573
asS'04072015'
p574
(lp575
VLH
p576
aVAVB
p577
aVNSC
p578
aVXEC
p579
asS'01242017'
p580
(lp581
VPNC
p582
aVWHR
p583
aVAMP
p584
aVAMG
p585
aVCMG
p586
asS'02252015'
p587
(lp588
VKSU
p589
aVHD
p590
aVAAPL
p591
aVWDC
p592
aVMCK
p593
aVHBI
p594
aVMLM
p595
aVALXN
p596
asS'09072016'
p597
(lp598
VISRG
p599
asS'12132016'
p600
(lp601
sS'06242015'
p602
(lp603
sS'06242016'
p604
(lp605
VTDG
p606
aVMCK
p607
aVBLK
p608
aVHSIC
p609
aVSPGI
p610
aVTAP
p611
aVEFX
p612
aVPM
p613
aVESS
p614
asS'06072016'
p615
(lp616
VSTZ
p617
aVFB
p618
aVSPGI
p619
aVEFX
p620
aVDNB
p621
aVORLY
p622
asS'02042016'
p623
(lp624
VAET
p625
aVAMGN
p626
aVUNH
p627
asS'07202015'
p628
(lp629
VNFLX
p630
aVHUM
p631
aVAVGO
p632
aVINTU
p633
asS'07202016'
p634
(lp635
VSRE
p636
aVFRT
p637
aVEW
p638
aVTDG
p639
aVMCK
p640
aVWHR
p641
aVADS
p642
aVPCLN
p643
asS'05152015'
p644
(lp645
VPXD
p646
aVCXO
p647
aVXEC
p648
aVPRGO
p649
aVAAPL
p650
asS'10042016'
p651
(lp652
VXEC
p653
asS'05182015'
p654
(lp655
VPXD
p656
aVCXO
p657
aVXEC
p658
aVEQIX
p659
aVPRGO
p660
asS'08152016'
p661
(lp662
VAGN
p663
aVSRE
p664
aVEQIX
p665
aVBLK
p666
aVEW
p667
aVCMI
p668
aVGOOG
p669
aVAVGO
p670
aVHUM
p671
asS'06172016'
p672
(lp673
VBIIB
p674
aVADS
p675
aVTDG
p676
aVMCK
p677
aVFB
p678
aVEFX
p679
asS'06172015'
p680
(lp681
VEQIX
p682
aVCF
p683
aVAGN
p684
aVROK
p685
aVILMN
p686
aVPXD
p687
asS'05222015'
p688
(lp689
VPXD
p690
aVCXO
p691
aVPRGO
p692
aVEQIX
p693
aVHD
p694
aVROK
p695
aVUNH
p696
aVGILD
p697
asS'12312015'
p698
(lp699
VAVGO
p700
asS'07272016'
p701
(lp702
VUNH
p703
aVBXP
p704
aVGS
p705
aVEW
p706
aVBIIB
p707
asS'07272015'
p708
(lp709
VAAP
p710
aVSPGI
p711
aVEW
p712
aVINTU
p713
asS'08192015'
p714
(lp715
VAGN
p716
aVEW
p717
aVAYI
p718
aVAVGO
p719
aVNOC
p720
aVBIIB
p721
asS'10142015'
p722
(lp723
VILMN
p724
aVAVGO
p725
aVMNST
p726
aVCELG
p727
asS'06042015'
p728
(lp729
VNFLX
p730
aVEQIX
p731
aVGPN
p732
aVWHR
p733
aVAGN
p734
asS'10202015'
p735
(lp736
VAVGO
p737
aVGILD
p738
asS'10202016'
p739
(lp740
VCMG
p741
aVAON
p742
aVWHR
p743
aVEQIX
p744
aVNFLX
p745
asS'06232016'
p746
(lp747
VADS
p748
aVBIIB
p749
aVMCK
p750
aVFDX
p751
aVUNH
p752
aVEFX
p753
aVPM
p754
aVMKC
p755
aVPCLN
p756
asS'11182015'
p757
(lp758
VAMZN
p759
aVGOOG
p760
aVUNH
p761
aVAVGO
p762
aVVMC
p763
asS'11182016'
p764
(lp765
VALXN
p766
aVEXPE
p767
aVLRCX
p768
aVHRS
p769
aVNSC
p770
aVBIIB
p771
aVAYI
p772
asS'06232015'
p773
(lp774
VROK
p775
aVPXD
p776
aVSTZ
p777
aVAYI
p778
aVCXO
p779
aVANTM
p780
aVAGN
p781
asS'12192016'
p782
(lp783
VHAR
p784
aVHRS
p785
aVULTA
p786
aVISRG
p787
asS'10142016'
p788
(lp789
VALXN
p790
aVEFX
p791
aVSRE
p792
asS'10162015'
p793
(lp794
VAVGO
p795
aVREGN
p796
asS'04262016'
p797
(lp798
VIBM
p799
aVSRE
p800
aVSTZ
p801
aVFB
p802
aVHD
p803
aVEFX
p804
aVAMG
p805
aVMCK
p806
asS'08272015'
p807
(lp808
VEQIX
p809
aVAYI
p810
aVPRGO
p811
aVILMN
p812
aVAVGO
p813
asS'05252016'
p814
(lp815
VSTZ
p816
aVFB
p817
aVAMT
p818
aVAMG
p819
asS'12242015'
p820
(lp821
VAVGO
p822
aVALXN
p823
aVILMN
p824
aVAYI
p825
aVEXPE
p826
aVTMO
p827
asS'04292016'
p828
(lp829
VCMG
p830
aVSPG
p831
aVSTZ
p832
aVMCK
p833
aVCVX
p834
aVEFX
p835
asS'05172016'
p836
(lp837
VFDX
p838
aVUNH
p839
aVFB
p840
asS'04292015'
p841
(lp842
VAGN
p843
aVCI
p844
aVHD
p845
aVUHS
p846
asS'11252015'
p847
(lp848
VHAR
p849
aVULTA
p850
aVVMC
p851
aVSRCL
p852
aVMNST
p853
aVAVGO
p854
aVTDG
p855
asS'11252016'
p856
(lp857
VALXN
p858
aVTDG
p859
aVHRS
p860
aVGS
p861
aVLRCX
p862
aVAYI
p863
asS'03062015'
p864
(lp865
VCXO
p866
aVMCK
p867
aVROP
p868
asS'09142016'
p869
(lp870
VPCLN
p871
aVAVGO
p872
aVTDG
p873
aVEQIX
p874
aVIBM
p875
aVBA
p876
aVCME
p877
aVEFX
p878
asS'09142015'
p879
(lp880
VPRGO
p881
aVGPN
p882
aVILMN
p883
asS'11042016'
p884
(lp885
VSTZ
p886
aVAVGO
p887
aVALXN
p888
aVFFIV
p889
aVMLM
p890
asS'11042015'
p891
(lp892
VCI
p893
aVAAP
p894
asS'07152015'
p895
(lp896
sS'07152016'
p897
(lp898
VPPG
p899
asS'08142015'
p900
(lp901
VAGN
p902
aVUHS
p903
aVCI
p904
aVAVGO
p905
aVAYI
p906
asS'02082016'
p907
(lp908
VSRCL
p909
aVPXD
p910
asS'01262016'
p911
(lp912
VBIIB
p913
aVAET
p914
asS'01262017'
p915
(lp916
VPNC
p917
aVPCLN
p918
asS'09062016'
p919
(lp920
VEQIX
p921
asS'11032015'
p922
(lp923
VCI
p924
aVXEC
p925
aVCXO
p926
aVILMN
p927
aVGOOG
p928
asS'02112016'
p929
(lp930
VAMZN
p931
aVTMO
p932
aVPXD
p933
asS'01042016'
p934
(lp935
sS'01042017'
p936
(lp937
VGS
p938
aVAMZN
p939
aVAMP
p940
aVULTA
p941
aVLRCX
p942
aVALXN
p943
asS'12162015'
p944
(lp945
VMNST
p946
aVUHS
p947
aVFB
p948
aVAVGO
p949
aVEXPE
p950
aVULTA
p951
asS'12162016'
p952
(lp953
VULTA
p954
aVISRG
p955
asS'01052017'
p956
(lp957
VGS
p958
aVHRS
p959
aVAMP
p960
aVLRCX
p961
aVULTA
p962
aVAMZN
p963
asS'01052016'
p964
(lp965
VFB
p966
aVUHS
p967
asS'03172015'
p968
(lp969
VAAPL
p970
aVILMN
p971
asS'05092016'
p972
(lp973
VGS
p974
aVCELG
p975
aVINTU
p976
aVUNH
p977
aVAET
p978
aVSTZ
p979
aVFB
p980
asS'05292015'
p981
(lp982
VPRGO
p983
aVAMGN
p984
aVEQIX
p985
aVGPN
p986
aVCXO
p987
aVWHR
p988
aVANTM
p989
asS'07122016'
p990
(lp991
VTDG
p992
aVEFX
p993
aVMCK
p994
asS'06202016'
p995
(lp996
VBIIB
p997
aVADS
p998
aVMCK
p999
aVFB
p1000
aVEFX
p1001
aVAMT
p1002
aVPM
p1003
aVFRT
p1004
asS'01282016'
p1005
(lp1006
VBIIB
p1007
aVAMZN
p1008
asS'04092015'
p1009
(lp1010
VAVB
p1011
asS'08162016'
p1012
(lp1013
VMLM
p1014
aVBLK
p1015
aVEQIX
p1016
aVGOOG
p1017
aVFFIV
p1018
aVCVX
p1019
aVAVGO
p1020
asS'09232015'
p1021
(lp1022
VMLM
p1023
aVAVGO
p1024
aVORLY
p1025
asS'09232016'
p1026
(lp1027
VEQIX
p1028
aVEFX
p1029
asS'11112016'
p1030
(lp1031
VGOOG
p1032
aVPX
p1033
aVSPGI
p1034
aVBA
p1035
aVHRS
p1036
aVGS
p1037
aVCMG
p1038
aVMLM
p1039
asS'07242015'
p1040
(lp1041
VNFLX
p1042
aVROK
p1043
aVAAP
p1044
aVINTU
p1045
aVEW
p1046
asS'08022016'
p1047
(lp1048
VHSY
p1049
aVTMO
p1050
aVADS
p1051
aVPCLN
p1052
aVGOOG
p1053
asS'06142016'
p1054
(lp1055
VFB
p1056
aVEW
p1057
asS'10082015'
p1058
(lp1059
VCI
p1060
aVEXPE
p1061
aVMNST
p1062
aVAMZN
p1063
asS'06282016'
p1064
(lp1065
VGOOGL
p1066
aVGOOG
p1067
aVMCK
p1068
aVEFX
p1069
aVFB
p1070
aVFRT
p1071
aVESS
p1072
asS'05012015'
p1073
(lp1074
VAGN
p1075
aVHD
p1076
aVANTM
p1077
aVCXO
p1078
aVSTZ
p1079
aVINTU
p1080
asS'05132015'
p1081
(lp1082
VALXN
p1083
aVCXO
p1084
aVPRGO
p1085
aVAAPL
p1086
aVUNH
p1087
aVAET
p1088
aVBA
p1089
aVCI
p1090
aVAGN
p1091
asS'05132016'
p1092
(lp1093
VFDX
p1094
aVUNH
p1095
aVCVX
p1096
aVFB
p1097
asS'07062015'
p1098
(lp1099
VANTM
p1100
aVBF-B
p1101
aVROK
p1102
asS'05262015'
p1103
(lp1104
VPXD
p1105
aVNFLX
p1106
aVPRGO
p1107
aVEQIX
p1108
aVROK
p1109
aVHD
p1110
aVANTM
p1111
aVUNH
p1112
aVGILD
p1113
asS'05262016'
p1114
(lp1115
VSTZ
p1116
aVEFX
p1117
aVULTA
p1118
aVUNH
p1119
aVAMG
p1120
asS'03032015'
p1121
(lp1122
VMLM
p1123
aVAAPL
p1124
aVFDX
p1125
aVMCK
p1126
asS'11112015'
p1127
(lp1128
VAAP
p1129
aVALXN
p1130
aVSRCL
p1131
aVMNST
p1132
aVAMZN
p1133
asS'04212015'
p1134
(lp1135
VAGN
p1136
aVAYI
p1137
aVWHR
p1138
aVGILD
p1139
aVISRG
p1140
asS'12042015'
p1141
(lp1142
VUHS
p1143
aVMNST
p1144
aVAVGO
p1145
asS'09032015'
p1146
(lp1147
VUHS
p1148
aVXEC
p1149
aVILMN
p1150
aVAVGO
p1151
asS'09022016'
p1152
(lp1153
VWHR
p1154
aVAMG
p1155
aVEFX
p1156
aVEQIX
p1157
asS'09022015'
p1158
(lp1159
VAMZN
p1160
aVMHK
p1161
aVILMN
p1162
asS'09092015'
p1163
(lp1164
VGPN
p1165
aVILMN
p1166
asS'09092016'
p1167
(lp1168
VISRG
p1169
aVSTZ
p1170
aVEQIX
p1171
aVAMG
p1172
asS'05112016'
p1173
(lp1174
VMCK
p1175
aVFB
p1176
asS'09302015'
p1177
(lp1178
VAMZN
p1179
aVAYI
p1180
aVCI
p1181
aVMNST
p1182
asS'12052016'
p1183
(lp1184
VFFIV
p1185
aVHAR
p1186
aVIBM
p1187
aVHRS
p1188
aVAYI
p1189
aVULTA
p1190
aVGS
p1191
asS'06162016'
p1192
(lp1193
VBIIB
p1194
aVTDG
p1195
aVMCK
p1196
aVCELG
p1197
aVEFX
p1198
aVFB
p1199
aVFFIV
p1200
asS'06162015'
p1201
(lp1202
VEQIX
p1203
aVAGN
p1204
aVCF
p1205
aVROK
p1206
aVPXD
p1207
aVCXO
p1208
asS'04132015'
p1209
(lp1210
VAVB
p1211
asS'06022016'
p1212
(lp1213
VESS
p1214
aVAMG
p1215
aVORLY
p1216
asS'08062015'
p1217
(lp1218
VINTU
p1219
aVNOC
p1220
aVMLM
p1221
asS'06082016'
p1222
(lp1223
VGS
p1224
aVBLK
p1225
aVDNB
p1226
aVSYK
p1227
aVPX
p1228
aVMCO
p1229
asS'06082015'
p1230
(lp1231
VEQIX
p1232
aVAGN
p1233
aVROK
p1234
aVNOC
p1235
aVCXO
p1236
asS'10282015'
p1237
(lp1238
VCXO
p1239
aVTDG
p1240
aVMNST
p1241
aVILMN
p1242
aVGOOGL
p1243
asS'10282016'
p1244
(lp1245
VCMG
p1246
aVAMG
p1247
aVEQIX
p1248
asS'05312016'
p1249
(lp1250
VSTZ
p1251
aVSPGI
p1252
aVAMG
p1253
aVULTA
p1254
asS'01232017'
p1255
(lp1256
VPNC
p1257
aVAMG
p1258
asS'05282015'
p1259
(lp1260
VPRGO
p1261
aVPXD
p1262
aVAMGN
p1263
aVROK
p1264
aVEQIX
p1265
aVANTM
p1266
aVLLL
p1267
aVAGN
p1268
asS'12282016'
p1269
(lp1270
VGS
p1271
aVHRS
p1272
aVIBM
p1273
aVLRCX
p1274
aVAMZN
p1275
asS'07302015'
p1276
(lp1277
VALXN
p1278
aVROK
p1279
aVEW
p1280
aVINTU
p1281
aVEQIX
p1282
aVAMZN
p1283
asS'12282015'
p1284
(lp1285
VAVGO
p1286
aVALXN
p1287
aVILMN
p1288
aVEXPE
p1289
aVUHS
p1290
aVCELG
p1291
asS'02202015'
p1292
(lp1293
VAVB
p1294
aVTDG
p1295
aVKSU
p1296
aVNSC
p1297
aVAAPL
p1298
aVALXN
p1299
asS'07282015'
p1300
(lp1301
VANTM
p1302
aVEW
p1303
aVAAP
p1304
aVINTU
p1305
asS'07282016'
p1306
(lp1307
VMKC
p1308
aVTMO
p1309
aVGS
p1310
aVGOOG
p1311
asS'11162016'
p1312
(lp1313
VALXN
p1314
aVNSC
p1315
aVGS
p1316
aVMLM
p1317
asS'11162015'
p1318
(lp1319
VPCLN
p1320
aVAAP
p1321
aVAMZN
p1322
aVHUM
p1323
aVAYI
p1324
aVBIIB
p1325
aVAVGO
p1326
aVSRCL
p1327
aVMNST
p1328
asS'12302016'
p1329
(lp1330
VGS
p1331
aVXEC
p1332
aVVMC
p1333
aVAMZN
p1334
aVLRCX
p1335
aVALXN
p1336
asS'08222016'
p1337
(lp1338
VMLM
p1339
aVCMG
p1340
aVFFIV
p1341
aVBLK
p1342
aVEQIX
p1343
asS'08122015'
p1344
(lp1345
VAGN
p1346
aVEW
p1347
aVANTM
p1348
aVAVGO
p1349
aVFFIV
p1350
aVHUM
p1351
asS'08122016'
p1352
(lp1353
VEQIX
p1354
aVMLM
p1355
aVEW
p1356
aVTDG
p1357
aVCMI
p1358
aVAVGO
p1359
aVGOOG
p1360
asS'01082016'
p1361
(lp1362
VTMO
p1363
asS'12302015'
p1364
(lp1365
VTMO
p1366
asS'09292016'
p1367
(lp1368
VEFX
p1369
aVSRE
p1370
aVTDG
p1371
aVFFIV
p1372
asS'09292015'
p1373
(lp1374
VAYI
p1375
aVMNST
p1376
asS'10172016'
p1377
(lp1378
VALXN
p1379
asS'09132016'
p1380
(lp1381
VPCLN
p1382
aVAVGO
p1383
aVTDG
p1384
aVEQIX
p1385
aVEFX
p1386
aVAMG
p1387
asS'04142015'
p1388
(lp1389
sS'09212016'
p1390
(lp1391
VTDG
p1392
aVEQIX
p1393
aVEFX
p1394
asS'08092016'
p1395
(lp1396
VEW
p1397
aVDNB
p1398
aVGOOG
p1399
asS'09192016'
p1400
(lp1401
VTDG
p1402
aVEQIX
p1403
asS'07112016'
p1404
(lp1405
VSRE
p1406
aVTDG
p1407
aVMCK
p1408
asS'10032016'
p1409
(lp1410
VEFX
p1411
aVCVX
p1412
aVXEC
p1413
aVFDX
p1414
aVCMI
p1415
asS'06272016'
p1416
(lp1417
VULTA
p1418
aVHUM
p1419
aVHSIC
p1420
aVSPGI
p1421
aVTAP
p1422
aVFB
p1423
aVEFX
p1424
aVPM
p1425
aVFRT
p1426
aVESS
p1427
asS'08072015'
p1428
(lp1429
VINTU
p1430
asS'03252015'
p1431
(lp1432
VBA
p1433
aVILMN
p1434
aVTDG
p1435
aVROST
p1436
aVCXO
p1437
aVXEC
p1438
asS'05062016'
p1439
(lp1440
VEW
p1441
aVMCK
p1442
aVGS
p1443
aVSTZ
p1444
aVFB
p1445
asS'05062015'
p1446
(lp1447
VWHR
p1448
aVAGN
p1449
aVINTU
p1450
aVEQIX
p1451
asS'01062016'
p1452
(lp1453
VILMN
p1454
aVPSA
p1455
asS'11212016'
p1456
(lp1457
VGOOGL
p1458
aVEXPE
p1459
aVHRS
p1460
aVIBM
p1461
aVLRCX
p1462
aVGWW
p1463
aVBIIB
p1464
aVAYI
p1465
asS'12232015'
p1466
(lp1467
VAVGO
p1468
asS'12232016'
p1469
(lp1470
VLRCX
p1471
asS'01032017'
p1472
(lp1473
VGS
p1474
aVAMZN
p1475
aVXEC
p1476
aVLRCX
p1477
aVALXN
p1478
asS'11202015'
p1479
(lp1480
VMNST
p1481
aVVMC
p1482
asS'07132016'
p1483
(lp1484
VDNB
p1485
aVACN
p1486
aVTDG
p1487
aVEFX
p1488
aVWHR
p1489
aVSHW
p1490
asS'07132015'
p1491
(lp1492
VFFIV
p1493
aVROK
p1494
aVINTU
p1495
aVEQIX
p1496
aVAYI
p1497
aVAGN
p1498
asS'09252015'
p1499
(lp1500
VREGN
p1501
aVAVGO
p1502
aVHUM
p1503
aVMNST
p1504
aVORLY
p1505
asS'11152016'
p1506
(lp1507
VAON
p1508
aVNSC
p1509
aVHRS
p1510
aVGWW
p1511
aVGS
p1512
aVCMG
p1513
aVMLM
p1514
asS'12082015'
p1515
(lp1516
VCXO
p1517
aVAYI
p1518
aVMNST
p1519
aVEXPE
p1520
aVAVGO
p1521
asS'12082016'
p1522
(lp1523
VAYI
p1524
aVLRCX
p1525
aVSHW
p1526
aVTDG
p1527
asS'06252015'
p1528
(lp1529
VPPG
p1530
aVUHS
p1531
asS'08052015'
p1532
(lp1533
VAVGO
p1534
aVROK
p1535
aVINTU
p1536
aVANTM
p1537
aVGPN
p1538
asS'08052016'
p1539
(lp1540
VMLM
p1541
aVHSY
p1542
aVSHW
p1543
aVEW
p1544
aVGOOG
p1545
aVGOOGL
p1546
asS'04222015'
p1547
(lp1548
VAGN
p1549
aVABC
p1550
aVAYI
p1551
aVWHR
p1552
aVISRG
p1553
asS'09302016'
p1554
(lp1555
VTDG
p1556
aVCVX
p1557
aVTMO
p1558
asS'04172015'
p1559
(lp1560
VAGN
p1561
aVWHR
p1562
aVUHS
p1563
aVGILD
p1564
asS'07022015'
p1565
(lp1566
VANTM
p1567
aVAGN
p1568
asS'02012016'
p1569
(lp1570
VALXN
p1571
aVBIIB
p1572
aVPXD
p1573
aVFB
p1574
asS'02012017'
p1575
(lp1576
VWYNN
p1577
asS'03182015'
p1578
(lp1579
VNFLX
p1580
aVAAPL
p1581
asS'05162016'
p1582
(lp1583
VFDX
p1584
aVAON
p1585
aVFB
p1586
asS'09172015'
p1587
(lp1588
VAYI
p1589
aVXEC
p1590
asS'10132015'
p1591
(lp1592
VAVGO
p1593
aVGILD
p1594
aVMNST
p1595
aVSRCL
p1596
aVAYI
p1597
aVREGN
p1598
asS'05192016'
p1599
(lp1600
VORLY
p1601
aVAMT
p1602
aVFB
p1603
aVTDG
p1604
asS'05192015'
p1605
(lp1606
VPXD
p1607
aVCXO
p1608
aVEQIX
p1609
aVPRGO
p1610
aVLLL
p1611
asS'10252016'
p1612
(lp1613
VAMG
p1614
aVPCLN
p1615
aVEQIX
p1616
aVNFLX
p1617
asS'07072015'
p1618
(lp1619
VANTM
p1620
asS'07072016'
p1621
(lp1622
VUNH
p1623
aVPM
p1624
aVMCK
p1625
aVGOOG
p1626
aVSHW
p1627
asS'08252016'
p1628
(lp1629
VSHW
p1630
aVFFIV
p1631
aVEQIX
p1632
aVCMG
p1633
asS'08252015'
p1634
(lp1635
VEQIX
p1636
aVBA
p1637
aVAVGO
p1638
asS'06212016'
p1639
(lp1640
VBIIB
p1641
aVMCK
p1642
aVFB
p1643
aVEFX
p1644
aVFRT
p1645
aVPCLN
p1646
asS'01252016'
p1647
(lp1648
VAET
p1649
aVPXD
p1650
asS'02122016'
p1651
(lp1652
VAMZN
p1653
asS'12032015'
p1654
(lp1655
VSRCL
p1656
aVMNST
p1657
asS'09242015'
p1658
(lp1659
VAYI
p1660
aVAVGO
p1661
aVORLY
p1662
aVCI
p1663
asS'06092016'
p1664
(lp1665
VSTZ
p1666
aVDNB
p1667
aVAYI
p1668
aVTAP
p1669
aVULTA
p1670
asS'06092015'
p1671
(lp1672
VEQIX
p1673
aVAGN
p1674
aVCXO
p1675
asS'08282015'
p1676
(lp1677
VEQIX
p1678
aVILMN
p1679
aVAVGO
p1680
asS'07182016'
p1681
(lp1682
VTDG
p1683
aVPPG
p1684
aVFDX
p1685
aVWHR
p1686
asS'03102015'
p1687
(lp1688
VMCK
p1689
aVAAPL
p1690
aVILMN
p1691
aVLH
p1692
aVAMGN
p1693
asS'01302017'
p1694
(lp1695
VCMG
p1696
asS'02192015'
p1697
(lp1698
VAVB
p1699
aVKSU
p1700
aVALXN
p1701
aVAAPL
p1702
asS'02262015'
p1703
(lp1704
VAAPL
p1705
aVISRG
p1706
aVMCK
p1707
aVALXN
p1708
aVAZO
p1709
asS'10072016'
p1710
(lp1711
VADS
p1712
aVEFX
p1713
asS'09112015'
p1714
(lp1715
VAYI
p1716
aVPRGO
p1717
aVILMN
p1718
asS'08312015'
p1719
(lp1720
VORLY
p1721
aVILMN
p1722
asS'08312016'
p1723
(lp1724
VWHR
p1725
aVFFIV
p1726
aVTMO
p1727
aVEQIX
p1728
asS'10222015'
p1729
(lp1730
VILMN
p1731
aVGILD
p1732
aVREGN
p1733
asS'06222016'
p1734
(lp1735
VBIIB
p1736
aVADS
p1737
aVMCK
p1738
aVFDX
p1739
aVTAP
p1740
aVEFX
p1741
aVPCLN
p1742
asS'06222015'
p1743
(lp1744
VPXD
p1745
aVAGN
p1746
aVUHS
p1747
aVAYI
p1748
aVCXO
p1749
asS'11012016'
p1750
(lp1751
VEQIX
p1752
aVAMG
p1753
aVPCLN
p1754
aVITW
p1755
asS'06192015'
p1756
(lp1757
VCF
p1758
aVEQIX
p1759
aVAGN
p1760
aVPXD
p1761
aVANTM
p1762
aVCXO
p1763
aVAYI
p1764
asS'07012015'
p1765
(lp1766
VFFIV
p1767
aVANTM
p1768
aVAYI
p1769
aVAGN
p1770
asS'02022017'
p1771
(lp1772
VBLK
p1773
aVWYNN
p1774
asS'10182016'
p1775
(lp1776
VMA
p1777
aVALXN
p1778
aVNFLX
p1779
aVEQIX
p1780
asS'08172015'
p1781
(lp1782
VAGN
p1783
aVAVGO
p1784
aVAYI
p1785
asS'08172016'
p1786
(lp1787
VWHR
p1788
aVGOOGL
p1789
aVCMG
p1790
aVGOOG
p1791
aVBLK
p1792
aVFFIV
p1793
aVEQIX
p1794
aVCVX
p1795
aVAVGO
p1796
asS'08012016'
p1797
(lp1798
VGS
p1799
aVTMO
p1800
asS'01122017'
p1801
(lp1802
VGS
p1803
aVAMG
p1804
aVPXD
p1805
aVBA
p1806
aVULTA
p1807
aVAMP
p1808
asS'11282016'
p1809
(lp1810
VEXPE
p1811
aVHRS
p1812
aVGS
p1813
aVGWW
p1814
aVLRCX
p1815
aVAYI
p1816
asS'01172017'
p1817
(lp1818
VAMG
p1819
aVAMP
p1820
aVULTA
p1821
asS'10062015'
p1822
(lp1823
VILMN
p1824
aVCI
p1825
aVCELG
p1826
aVAMZN
p1827
aVCXO
p1828
asS'04282016'
p1829
(lp1830
VSTZ
p1831
aVFB
p1832
aVEFX
p1833
aVMCK
p1834
asS'04282015'
p1835
(lp1836
VAGN
p1837
aVHD
p1838
aVWHR
p1839
aVROST
p1840
aVUHS
p1841
asS'02102017'
p1842
(lp1843
VXEC
p1844
aVPRU
p1845
aVHRS
p1846
asS'08182016'
p1847
(lp1848
VGOOG
p1849
aVWHR
p1850
aVMLM
p1851
aVEQIX
p1852
aVWAT
p1853
aVBLK
p1854
asS'04302015'
p1855
(lp1856
VWHR
p1857
aVAGN
p1858
aVHD
p1859
aVCXO
p1860
aVINTU
p1861
asS'09262016'
p1862
(lp1863
VEQIX
p1864
aVTDG
p1865
aVSRE
p1866
asS'08182015'
p1867
(lp1868
VAGN
p1869
aVUHS
p1870
aVAVGO
p1871
aVBIIB
p1872
asS'05052015'
p1873
(lp1874
VALXN
p1875
aVWHR
p1876
aVLLL
p1877
aVAGN
p1878
aVCXO
p1879
aVANTM
p1880
aVINTU
p1881
asS'05052016'
p1882
(lp1883
VMCK
p1884
aVGS
p1885
aVCVX
p1886
aVNEE
p1887
aVFB
p1888
asS'03092015'
p1889
(lp1890
VWYNN
p1891
aVCXO
p1892
aVAAPL
p1893
aVMCK
p1894
aVAYI
p1895
aVAZO
p1896
asS'04202015'
p1897
(lp1898
VAGN
p1899
aVWHR
p1900
aVUHS
p1901
aVGILD
p1902
asS'06112015'
p1903
(lp1904
VEQIX
p1905
aVAGN
p1906
aVAYI
p1907
aVROK
p1908
aVLLL
p1909
aVBA
p1910
aVCXO
p1911
asS'10102016'
p1912
(lp1913
VADS
p1914
aVEFX
p1915
aVWAT
p1916
asS'01072016'
p1917
(lp1918
VGOOGL
p1919
aVUHS
p1920
asS'11122015'
p1921
(lp1922
VAAP
p1923
aVGILD
p1924
aVSRCL
p1925
aVAMZN
p1926
asS'01102017'
p1927
(lp1928
VGS
p1929
aVAMG
p1930
aVVMC
p1931
aVXEC
p1932
aVULTA
p1933
asS'01312017'
p1934
(lp1935
sS'07212015'
p1936
(lp1937
VNFLX
p1938
aVANTM
p1939
aVROK
p1940
aVHUM
p1941
aVINTU
p1942
aVEQIX
p1943
asS'09202016'
p1944
(lp1945
VTDG
p1946
aVEFX
p1947
asS'07212016'
p1948
(lp1949
VFRT
p1950
aVAON
p1951
aVTDG
p1952
aVEW
p1953
aVCELG
p1954
aVWHR
p1955
asS'03272015'
p1956
(lp1957
VILMN
p1958
aVNSC
p1959
aVAAPL
p1960
asS'10192015'
p1961
(lp1962
VORLY
p1963
aVAVGO
p1964
aVGILD
p1965
asS'06022015'
p1966
(lp1967
VAMGN
p1968
aVEQIX
p1969
aVXEC
p1970
aVWHR
p1971
aVNOC
p1972
aVAGN
p1973
asS'01142016'
p1974
(lp1975
VCELG
p1976
aVUNH
p1977
aVPSA
p1978
aVAET
p1979
asS'05112015'
p1980
(lp1981
VALXN
p1982
aVCXO
p1983
aVPRGO
p1984
aVNOC
p1985
aVAAPL
p1986
aVCI
p1987
aVLLL
p1988
aVUNH
p1989
aVHD
p1990
aVFFIV
p1991
aVWHR
p1992
aVAGN
p1993
aVEQIX
p1994
asS'08292016'
p1995
(lp1996
VSHW
p1997
aVFFIV
p1998
aVEFX
p1999
aVEQIX
p2000
asS'02032016'
p2001
(lp2002
VAET
p2003
aVUNH
p2004
aVNEE
p2005
asS'04102015'
p2006
(lp2007
VAVB
p2008
asS'01152016'
p2009
(lp2010
VPSA
p2011
aVAET
p2012
asS'12012015'
p2013
(lp2014
VAET
p2015
aVMNST
p2016
aVAVGO
p2017
asS'10092015'
p2018
(lp2019
VMNST
p2020
asS'12012016'
p2021
(lp2022
VBIIB
p2023
aVLRCX
p2024
aVAYI
p2025
aVGS
p2026
asS'07082016'
p2027
(lp2028
VUNH
p2029
aVPM
p2030
aVMCK
p2031
aVSHW
p2032
asS'07082015'
p2033
(lp2034
VHUM
p2035
asS'11192015'
p2036
(lp2037
VGOOG
p2038
aVAVGO
p2039
aVVMC
p2040
asS'06032015'
p2041
(lp2042
VEQIX
p2043
aVAMGN
p2044
aVGPN
p2045
aVAAPL
p2046
aVWHR
p2047
aVAGN
p2048
asS'06032016'
p2049
(lp2050
VESS
p2051
aVSTZ
p2052
aVAMG
p2053
aVULTA
p2054
aVAGN
p2055
asS'05232016'
p2056
(lp2057
VFB
p2058
aVROP
p2059
asS'10212015'
p2060
(lp2061
VILMN
p2062
aVCELG
p2063
aVGILD
p2064
asS'04242015'
p2065
(lp2066
VAVGO
p2067
aVANTM
p2068
aVAGN
p2069
aVROST
p2070
aVWHR
p2071
aVUHS
p2072
aVKSU
p2073
asS'10212016'
p2074
(lp2075
VCMG
p2076
aVCVX
p2077
aVALXN
p2078
aVGOOG
p2079
aVEQIX
p2080
asS'11022015'
p2081
(lp2082
VXEC
p2083
aVCI
p2084
aVCXO
p2085
aVILMN
p2086
asS'10302015'
p2087
(lp2088
VCI
p2089
aVCXO
p2090
aVMNST
p2091
aVCELG
p2092
aVILMN
p2093
aVGOOGL
p2094
asS'11022016'
p2095
(lp2096
VEQIX
p2097
aVITW
p2098
aVCVX
p2099
aVMLM
p2100
asS'07292015'
p2101
(lp2102
VGILD
p2103
aVEW
p2104
aVINTU
p2105
asS'07292016'
p2106
(lp2107
VPSA
p2108
aVMKC
p2109
aVHON
p2110
aVGS
p2111
aVTMO
p2112
aVADS
p2113
asS'02242015'
p2114
(lp2115
VHD
p2116
aVKSU
p2117
aVROP
p2118
aVMCK
p2119
aVAAPL
p2120
aVALXN
p2121
aVFFIV
p2122
aVAZO
p2123
asS'05082015'
p2124
(lp2125
VALXN
p2126
aVCXO
p2127
aVNOC
p2128
aVLLL
p2129
aVAAPL
p2130
aVWHR
p2131
aVAGN
p2132
aVHD
p2133
aVFFIV
p2134
aVEQIX
p2135
asS'12122016'
p2136
(lp2137
VAYI
p2138
aVVMC
p2139
aVSHW
p2140
asS'12172015'
p2141
(lp2142
VMNST
p2143
aVAYI
p2144
aVUHS
p2145
aVAVGO
p2146
aVULTA
p2147
asS'11102015'
p2148
(lp2149
VCXO
p2150
aVAAP
p2151
asS'11102016'
p2152
(lp2153
VSTZ
p2154
aVBA
p2155
aVFFIV
p2156
aVCMG
p2157
aVGS
p2158
aVMLM
p2159
asS'07262016'
p2160
(lp2161
VHON
p2162
aVAON
p2163
aVBXP
p2164
aVEW
p2165
aVTMO
p2166
aVDNB
p2167
aVADS
p2168
asS'08262015'
p2169
(lp2170
VEQIX
p2171
aVAYI
p2172
aVBA
p2173
aVILMN
p2174
aVPRGO
p2175
aVAVGO
p2176
asS'08262016'
p2177
(lp2178
VFFIV
p2179
aVEQIX
p2180
asS'02172015'
p2181
(lp2182
VAVB
p2183
aVILMN
p2184
aVKSU
p2185
aVROP
p2186
asS'06052015'
p2187
(lp2188
VNFLX
p2189
aVEQIX
p2190
aVWHR
p2191
asS'09082015'
p2192
(lp2193
VGPN
p2194
aVILMN
p2195
aVCI
p2196
asS'09082016'
p2197
(lp2198
VISRG
p2199
aVNFLX
p2200
asS'10012015'
p2201
(lp2202
VAMZN
p2203
aVAYI
p2204
aVCI
p2205
asS'09122016'
p2206
(lp2207
VISRG
p2208
aVAMG
p2209
asS'09222015'
p2210
(lp2211
VAYI
p2212
aVMNST
p2213
aVCI
p2214
aVORLY
p2215
aVHUM
p2216
asS'09222016'
p2217
(lp2218
VEQIX
p2219
aVEFX
p2220
asS'12072016'
p2221
(lp2222
VCMG
p2223
aVLRCX
p2224
aVULTA
p2225
aVHRS
p2226
aVIBM
p2227
aVGS
p2228
asS'12072015'
p2229
(lp2230
VAMZN
p2231
aVCXO
p2232
aVAYI
p2233
aVSRCL
p2234
aVMNST
p2235
aVAET
p2236
aVAVGO
p2237
asS'06292015'
p2238
(lp2239
VNFLX
p2240
aVAYI
p2241
aVUNH
p2242
asS'06292016'
p2243
(lp2244
VGOOG
p2245
aVMCK
p2246
aVFB
p2247
aVEFX
p2248
aVESS
p2249
asS'05242016'
p2250
(lp2251
VSTZ
p2252
aVFB
p2253
aVROP
p2254
asS'08112016'
p2255
(lp2256
VCMG
p2257
aVEQIX
p2258
aVMLM
p2259
aVEW
p2260
aVCMI
p2261
aVAVGO
p2262
aVGOOG
p2263
asS'05072015'
p2264
(lp2265
VLLL
p2266
aVAGN
p2267
aVWHR
p2268
aVAAPL
p2269
aVHD
p2270
aVANTM
p2271
aVEQIX
p2272
asS'07142015'
p2273
(lp2274
VILMN
p2275
asS'10272016'
p2276
(lp2277
VCMG
p2278
aVWHR
p2279
aVAMG
p2280
aVSPGI
p2281
aVFFIV
p2282
aVGOOG
p2283
asS'10272015'
p2284
(lp2285
VHAR
p2286
aVFB
p2287
aVMNST
p2288
aVBA
p2289
aVGOOGL
p2290
asS'07142016'
p2291
(lp2292
VDNB
p2293
aVAVGO
p2294
aVTDG
p2295
aVWHR
p2296
asS'08102016'
p2297
(lp2298
VEQIX
p2299
aVMLM
p2300
aVEW
p2301
aVCMI
p2302
aVAVGO
p2303
aVHUM
p2304
aVGOOG
p2305
asS'12142016'
p2306
(lp2307
VVMC
p2308
aVSRE
p2309
aVISRG
p2310
asS'12142015'
p2311
(lp2312
VMNST
p2313
aVCXO
p2314
aVAYI
p2315
aVAVGO
p2316
asS'08102015'
p2317
(lp2318
VAGN
p2319
aVAVGO
p2320
aVHUM
p2321
asS'11142016'
p2322
(lp2323
VSTZ
p2324
aVPX
p2325
aVNSC
p2326
aVGS
p2327
aVCMG
p2328
asS'03262015'
p2329
(lp2330
VILMN
p2331
aVAAPL
p2332
aVROST
p2333
aVROP
p2334
asS'12152016'
p2335
(lp2336
VIBM
p2337
aVISRG
p2338
asS'01192016'
p2339
(lp2340
VPSA
p2341
asS'12152015'
p2342
(lp2343
VMNST
p2344
aVAYI
p2345
aVAVGO
p2346
asS'06262015'
p2347
(lp2348
VAYI
p2349
asS'02052016'
p2350
(lp2351
VTMO
p2352
aVSRCL
p2353
aVPXD
p2354
asS'04252016'
p2355
(lp2356
VTRV
p2357
aVIBM
p2358
aVSRE
p2359
aVSTZ
p2360
aVFB
p2361
aVREGN
p2362
asS'03022015'
p2363
(lp2364
VAAPL
p2365
aVKSU
p2366
aVROP
p2367
aVMCK
p2368
aVAZO
p2369
asS'10292015'
p2370
(lp2371
VCXO
p2372
aVCI
p2373
aVHAR
p2374
aVMNST
p2375
aVILMN
p2376
aVGOOGL
p2377
asS'10062016'
p2378
(lp2379
VTDG
p2380
aVFDX
p2381
aVTMO
p2382
asS'04022015'
p2383
(lp2384
VILMN
p2385
aVNSC
p2386
aVAAPL
p2387
aVXEC
p2388
aVPVH
p2389
asS'03192015'
p2390
(lp2391
VAAPL
p2392
aVILMN
p2393
aVAGN
p2394
asS'11242015'
p2395
(lp2396
VUNH
p2397
aVULTA
p2398
aVCI
p2399
aVMNST
p2400
aVVMC
p2401
aVAVGO
p2402
asS'12102015'
p2403
(lp2404
VMNST
p2405
aVAYI
p2406
aVEXPE
p2407
aVAVGO
p2408
asS'06152015'
p2409
(lp2410
VEQIX
p2411
aVCF
p2412
aVAGN
p2413
aVCXO
p2414
asS'06152016'
p2415
(lp2416
VBIIB
p2417
aVMCK
p2418
aVEFX
p2419
aVFB
p2420
aVTAP
p2421
aVPM
p2422
asS'03312015'
p2423
(lp2424
VILMN
p2425
aVNSC
p2426
aVAAPL
p2427
aVLH
p2428
aVXEC
p2429
asS'11172016'
p2430
(lp2431
VEXPE
p2432
aVALXN
p2433
aVLRCX
p2434
aVFFIV
p2435
aVNSC
p2436
aVAYI
p2437
asS'11172015'
p2438
(lp2439
VAMZN
p2440
aVGOOG
p2441
aVAYI
p2442
aVAGN
p2443
aVAVGO
p2444
aVTDG
p2445
aVMLM
p2446
asS'05032016'
p2447
(lp2448
VMCK
p2449
aVSTZ
p2450
aVGS
p2451
aVFB
p2452
asS'07252016'
p2453
(lp2454
VINTU
p2455
aVAMT
p2456
aVEW
p2457
aVTMO
p2458
aVFB
p2459
aVCMG
p2460
asS'09212015'
p2461
(lp2462
VAYI
p2463
aVMNST
p2464
aVGILD
p2465
aVORLY
p2466
asS'03052015'
p2467
(lp2468
VHBI
p2469
aVMLM
p2470
aVISRG
p2471
aVROP
p2472
aVMCK
p2473
aVLH
p2474
asS'06062016'
p2475
(lp2476
VSTZ
p2477
aVEFX
p2478
aVDNB
p2479
aVORLY
p2480
asS'08042015'
p2481
(lp2482
VINTU
p2483
aVANTM
p2484
aVGPN
p2485
asS'08042016'
p2486
(lp2487
VEQIX
p2488
aVAMT
p2489
aVPPG
p2490
aVACN
p2491
aVGOOG
p2492
asS'01272017'
p2493
(lp2494
VBA
p2495
aVCMG
p2496
asS'01272016'
p2497
(lp2498
VPXD
p2499
asS'09182015'
p2500
(lp2501
sS'01222016'
p2502
(lp2503
VAET
p2504
asS'04152015'
p2505
(lp2506
VAGN
p2507
aVUHS
p2508
asS'04272015'
p2509
(lp2510
VAGN
p2511
aVROST
p2512
aVUHS
p2513
aVWHR
p2514
asS'04272016'
p2515
(lp2516
VTRV
p2517
aVIBM
p2518
aVSTZ
p2519
aVFB
p2520
aVSRE
p2521
aVCELG
p2522
aVAMG
p2523
aVMCK
p2524
asS'05122015'
p2525
(lp2526
VCXO
p2527
aVPRGO
p2528
aVAAPL
p2529
aVUNH
p2530
aVAET
p2531
aVCI
p2532
aVROST
p2533
aVGILD
p2534
aVHD
p2535
aVEQIX
p2536
asS'05122016'
p2537
(lp2538
VPCLN
p2539
aVUNH
p2540
aVFB
p2541
asS'10072015'
p2542
(lp2543
VILMN
p2544
aVCI
p2545
aVEXPE
p2546
aVMNST
p2547
aVAMZN
p2548
aVHAR
p2549
asS'05272015'
p2550
(lp2551
VLYB
p2552
aVPRGO
p2553
aVPXD
p2554
aVFFIV
p2555
aVUNP
p2556
aVEQIX
p2557
aVHD
p2558
aVUNH
p2559
aVGILD
p2560
aVILMN
p2561
aVCF
p2562
asS'05272016'
p2563
(lp2564
VSTZ
p2565
aVAMP
p2566
aVORLY
p2567
aVULTA
p2568
asS'08242016'
p2569
(lp2570
VBLK
p2571
aVFFIV
p2572
aVSPGI
p2573
aVEQIX
p2574
aVMON
p2575
aVSTZ
p2576
asS'08242015'
p2577
(lp2578
VAMZN
p2579
aVAYI
p2580
aVAVGO
p2581
asS'11302016'
p2582
(lp2583
VBIIB
p2584
aVHRS
p2585
aVHAR
p2586
aVLRCX
p2587
asS'01062017'
p2588
(lp2589
VGS
p2590
aVPXD
p2591
aVAMP
p2592
aVXEC
p2593
asS'11302015'
p2594
(lp2595
VORLY
p2596
aVCELG
p2597
aVVMC
p2598
aVAET
p2599
aVSRCL
p2600
aVMNST
p2601
aVAVGO
p2602
asS'09042015'
p2603
(lp2604
VGILD
p2605
aVGPN
p2606
aVILMN
p2607
asS'10262016'
p2608
(lp2609
VCMG
p2610
aVAMG
p2611
aVPCLN
p2612
aVEQIX
p2613
aVNFLX
p2614
asS'10262015'
p2615
(lp2616
VXEC
p2617
aVCI
p2618
aVTDG
p2619
aVMNST
p2620
asS'07052016'
p2621
(lp2622
VHON
p2623
aVGOOG
p2624
aVFB
p2625
aVPM
p2626
aVMCK
p2627
asS'03122015'
p2628
(lp2629
VNFLX
p2630
aVCXO
p2631
aVPPG
p2632
aVAAPL
p2633
aVILMN
p2634
aVMCK
p2635
aVAMGN
p2636
aVLH
p2637
asS'03132015'
p2638
(lp2639
VNFLX
p2640
aVCXO
p2641
aVPPG
p2642
aVILMN
p2643
aVFFIV
p2644
aVLH
p2645
aVAZO
p2646
asS'01182017'
p2647
(lp2648
VPNC
p2649
aVAMP
p2650
aVULTA
p2651
asS'11222016'
p2652
(lp2653
VEXPE
p2654
aVHRS
p2655
aVLRCX
p2656
aVGWW
p2657
aVGS
p2658
asS'11052015'
p2659
(lp2660
VCXO
p2661
aVAAP
p2662
asS'01252017'
p2663
(lp2664
VGS
p2665
aVPNC
p2666
aVULTA
p2667
aVPCLN
p2668
asS'10022015'
p2669
(lp2670
VILMN
p2671
aVAMZN
p2672
aVAYI
p2673
aVCI
p2674
aVXEC
p2675
asS'01112016'
p2676
(lp2677
sS'01112017'
p2678
(lp2679
VGS
p2680
aVCVX
p2681
aVAMG
p2682
aVPXD
p2683
aVULTA
p2684
asS'09102015'
p2685
(lp2686
VPRGO
p2687
aVGPN
p2688
aVILMN
p2689
asS'07232015'
p2690
(lp2691
VGILD
p2692
aVINTU
p2693
aVORLY
p2694
asS'09152016'
p2695
(lp2696
VWHR
p2697
aVPCLN
p2698
aVTDG
p2699
aVEQIX
p2700
aVAVGO
p2701
aVCME
p2702
aVEFX
p2703
asS'01212016'
p2704
(lp2705
VAET
p2706
asS'09152015'
p2707
(lp2708
VAYI
p2709
aVGPN
p2710
aVILMN
p2711
asS'06182015'
p2712
(lp2713
VEQIX
p2714
aVAGN
p2715
aVPXD
p2716
aVAYI
p2717
asS'10192016'
p2718
(lp2719
VWHR
p2720
aVEQIX
p2721
asS'02032017'
p2722
(lp2723
VPXD
p2724
aVLRCX
p2725
asS'01202016'
p2726
(lp2727
VBIIB
p2728
aVAET
p2729
asS'01202017'
p2730
(lp2731
VAMG
p2732
aVULTA
p2733
asS'11062015'
p2734
(lp2735
VAAP
p2736
aVHUM
p2737
aVTDG
p2738
asS'02132015'
p2739
(lp2740
VTDG
p2741
aVANTM
p2742
aVKSU
p2743
aVROP
p2744
aVAZO
p2745
asS'03242015'
p2746
(lp2747
VAAPL
p2748
aVROST
p2749
aVROP
p2750
asS'01292016'
p2751
(lp2752
VPSA
p2753
aVPXD
p2754
asS'05022016'
p2755
(lp2756
VSPG
p2757
aVSTZ
p2758
aVROP
p2759
aVHD
p2760
asS'01092017'
p2761
(lp2762
VGS
p2763
aVPX
p2764
aVVMC
p2765
aVXEC
p2766
aVSRE
p2767
aVALXN
p2768
asS'10312016'
p2769
(lp2770
VEQIX
p2771
aVITW
p2772
aVALXN
p2773
asS'10112016'
p2774
(lp2775
VAYI
p2776
aVEFX
p2777
asS'08202015'
p2778
(lp2779
VAGN
p2780
aVAYI
p2781
aVAVGO
p2782
aVBIIB
p2783
asS'05212015'
p2784
(lp2785
VPXD
p2786
aVXEC
p2787
aVCXO
p2788
aVPRGO
p2789
aVROST
p2790
aVEQIX
p2791
aVHD
p2792
aVROK
p2793
asS'10052016'
p2794
(lp2795
VFDX
p2796
asS'10052015'
p2797
(lp2798
VILMN
p2799
aVAMZN
p2800
aVCI
p2801
aVXEC
p2802
asS'12272016'
p2803
(lp2804
VPCLN
p2805
aVGS
p2806
aVLRCX
p2807
aVALXN
p2808
asS'12222015'
p2809
(lp2810
VAVGO
p2811
aVMHK
p2812
aVEXPE
p2813
asS'12222016'
p2814
(lp2815
VGS
p2816
aVULTA
p2817
aVISRG
p2818
asS'07102015'
p2819
(lp2820
VROK
p2821
aVAGN
p2822
aVINTU
p2823
as.