(dp1
S'12022016'
p2
(lp3
VPCLN
p4
aVVMC
p5
aVGOOGL
p6
aVMHK
p7
aVTDG
p8
aVSPGI
p9
aVSTZ
p10
aVTMO
p11
aVADBE
p12
aVAMZN
p13
aVSNA
p14
aVBDX
p15
aVPVH
p16
aVBCR
p17
aVIBM
p18
aVPRU
p19
aVUTX
p20
aVBLK
p21
aVAMP
p22
aVAYI
p23
aVNEE
p24
aVRTN
p25
aVILMN
p26
aVROK
p27
aVPH
p28
aVCVX
p29
aVCMG
p30
aVADS
p31
aVFDX
p32
aVPX
p33
aVWHR
p34
aVIFF
p35
aVPSA
p36
aVAGN
p37
aVSHW
p38
aVAPD
p39
aVLLL
p40
aVGS
p41
aVGD
p42
aVORLY
p43
aVURI
p44
aVEOG
p45
aVCXO
p46
aVXEC
p47
asS'03232016'
p48
(lp49
VCMG
p50
aVPCLN
p51
aVAGN
p52
aVSHW
p53
aVAZO
p54
aVMCK
p55
aVALXN
p56
aVBDX
p57
aVSJM
p58
aVAET
p59
aVAYI
p60
aVKMB
p61
aVCVS
p62
aVBCR
p63
aVRTN
p64
aVMHK
p65
aVBIIB
p66
aVCXO
p67
aVFISV
p68
aVINTU
p69
aVFFIV
p70
aVCMI
p71
aVADS
p72
aVAMT
p73
aVHON
p74
aVACN
p75
aVLMT
p76
aVTRV
p77
aVEFX
p78
aVPRGO
p79
aVUHS
p80
aVSWK
p81
aVPPG
p82
aVPXD
p83
aVREGN
p84
aVMNST
p85
aVAVGO
p86
aVWHR
p87
aVROP
p88
aVEQIX
p89
aVSIG
p90
aVBA
p91
aVFDX
p92
aVULTA
p93
aVGOOGL
p94
aVGOOG
p95
asS'11072016'
p96
(lp97
VGOOGL
p98
aVGOOG
p99
aVPCLN
p100
aVEQIX
p101
aVXEC
p102
aVMCK
p103
aVFB
p104
aVCMG
p105
aVSHW
p106
aVLLL
p107
aVAMG
p108
aVSTZ
p109
aVPVH
p110
aVRTN
p111
aVADBE
p112
aVHUM
p113
aVSRE
p114
aVADS
p115
aVAYI
p116
aVCMI
p117
aVNEE
p118
aVINTU
p119
aVPH
p120
aVPSA
p121
aVSNA
p122
aVROP
p123
aVGS
p124
aVUTX
p125
aVILMN
p126
aVBCR
p127
aVIBM
p128
aVCVX
p129
aVAPD
p130
aVBDX
p131
aVBLK
p132
asS'12022015'
p133
(lp134
VREGN
p135
aVORLY
p136
aVICE
p137
aVDIS
p138
aVGOOG
p139
aVLLL
p140
aVFB
p141
aVTSO
p142
aVNOC
p143
aVBA
p144
aVGILD
p145
aVPXD
p146
aVBXP
p147
aVXEC
p148
aVVRTX
p149
aVLH
p150
aVHAR
p151
aVEQIX
p152
aVPPG
p153
aVROK
p154
aVGD
p155
aVALXN
p156
aVIFF
p157
aVSRCL
p158
aVEW
p159
aVAET
p160
aVAYI
p161
aVNKE
p162
aVUHS
p163
aVSTZ
p164
aVMNST
p165
aVUNH
p166
aVGWW
p167
aVHD
p168
aVAVB
p169
aVHUM
p170
aVNFLX
p171
aVAVGO
p172
asS'12242015'
p173
(lp174
VGOOG
p175
aVREGN
p176
aVMNST
p177
aVDIS
p178
aVACN
p179
aVBA
p180
aVSWK
p181
aVAVGO
p182
aVLLL
p183
aVICE
p184
aVIFF
p185
aVWHR
p186
aVORLY
p187
aVMCD
p188
aVGD
p189
aVNOC
p190
aVSTZ
p191
aVAYI
p192
aVEQIX
p193
aVLH
p194
aVEXPE
p195
aVGILD
p196
aVUNH
p197
aVVRTX
p198
aVBXP
p199
aVDNB
p200
aVUHS
p201
aVAVB
p202
aVAET
p203
aVHUM
p204
aVCELG
p205
asS'04292016'
p206
(lp207
VGOOGL
p208
aVGOOG
p209
aVILMN
p210
aVWHR
p211
aVSRCL
p212
aVAYI
p213
aVCMG
p214
aVALXN
p215
aVKMB
p216
aVADS
p217
aVMHK
p218
aVORLY
p219
aVFDX
p220
aVWAT
p221
aVPPG
p222
aVIBM
p223
aVEW
p224
aVSIG
p225
aVSTZ
p226
aVACN
p227
aVULTA
p228
aVMCK
p229
aVHD
p230
aVCELG
p231
aVBLK
p232
aVTMO
p233
aVFRT
p234
aVCVS
p235
aVHON
p236
aVPEP
p237
aVSNA
p238
aVPX
p239
aVXEC
p240
aVGWW
p241
aVCMI
p242
aVUNH
p243
aVEQIX
p244
aVBDX
p245
aVTDG
p246
aVAET
p247
aVBCR
p248
aVDIS
p249
aVGS
p250
aVICE
p251
aVFB
p252
aVHUM
p253
aVCXO
p254
aVPXD
p255
asS'05172016'
p256
(lp257
VPCLN
p258
aVBLK
p259
aVBIIB
p260
aVWHR
p261
aVAMG
p262
aVGS
p263
aVORLY
p264
aVFDX
p265
aVEW
p266
aVGWW
p267
aVAYI
p268
aVANTM
p269
aVALXN
p270
aVPX
p271
aVCMI
p272
aVAET
p273
aVMHK
p274
aVPPG
p275
aVHD
p276
aVAVGO
p277
aVHUM
p278
aVUHS
p279
aVPXD
p280
aVCVX
p281
aVMCK
p282
aVCXO
p283
aVSIG
p284
aVSHW
p285
aVSTZ
p286
aVHON
p287
aVFRT
p288
aVESS
p289
aVCVS
p290
aVSYK
p291
aVFB
p292
aVACN
p293
aVNOC
p294
aVSJM
p295
aVBCR
p296
aVXEC
p297
aVKMB
p298
aVROP
p299
aVFISV
p300
aVILMN
p301
aVPSA
p302
aVEQIX
p303
aVADS
p304
aVGOOGL
p305
aVGOOG
p306
aVTDG
p307
aVAMZN
p308
aVCMG
p309
asS'05272016'
p310
(lp311
VPXD
p312
aVROP
p313
aVBCR
p314
aVSIG
p315
aVSTZ
p316
aVSHW
p317
aVUHS
p318
aVBDX
p319
aVPX
p320
aVFRT
p321
aVGWW
p322
aVCMI
p323
aVXEC
p324
aVHD
p325
aVSYK
p326
aVSJM
p327
aVSRE
p328
aVITW
p329
aVFISV
p330
aVCXO
p331
aVMHK
p332
aVACN
p333
aVAET
p334
aVAYI
p335
aVTRV
p336
aVICE
p337
aVWHR
p338
aVMCK
p339
aVORLY
p340
aVBLK
p341
aVPCLN
p342
aVMON
p343
aVEQIX
p344
aVNFLX
p345
aVGOOG
p346
aVGOOGL
p347
asS'07062016'
p348
(lp349
VPCLN
p350
aVHUM
p351
aVCXO
p352
aVAVGO
p353
aVTDG
p354
aVPXD
p355
aVACN
p356
aVCMI
p357
aVPPG
p358
aVAET
p359
aVMTB
p360
aVBLK
p361
aVXEC
p362
aVIBM
p363
aVSWK
p364
aVPX
p365
aVUTX
p366
aVBRK-B
p367
aVAYI
p368
aVLLL
p369
aVALXN
p370
aVZBH
p371
aVEXPE
p372
aVSRCL
p373
aVFISV
p374
aVKMB
p375
aVDLR
p376
aVBXP
p377
aVMKC
p378
aVGPC
p379
aVGOOGL
p380
aVINTU
p381
aVGWW
p382
aVGOOG
p383
aVAAP
p384
aVSHW
p385
aVHSY
p386
aVORLY
p387
aVCMG
p388
aVBIIB
p389
aVPSA
p390
asS'11252016'
p391
(lp392
VTMO
p393
aVPSA
p394
aVSPGI
p395
aVNEE
p396
aVGOOG
p397
aVBCR
p398
aVBIIB
p399
aVTDG
p400
aVVMC
p401
aVADBE
p402
aVBDX
p403
aVAGN
p404
aVGOOGL
p405
aVEXPE
p406
aVPCLN
p407
aVPVH
p408
aVROK
p409
aVUTX
p410
aVPX
p411
aVSTZ
p412
aVFB
p413
aVCVX
p414
aVPRU
p415
aVRTN
p416
aVPH
p417
aVSNA
p418
aVPNC
p419
aVXEC
p420
aVIBM
p421
aVFDX
p422
aVINTU
p423
aVCXO
p424
aVEQIX
p425
aVROP
p426
aVAMGN
p427
aVGS
p428
aVLRCX
p429
aVWHR
p430
aVILMN
p431
aVAMG
p432
aVAMP
p433
aVLLL
p434
aVBLK
p435
aVHAR
p436
aVORLY
p437
aVAYI
p438
aVSHW
p439
aVADS
p440
aVCMG
p441
aVAMZN
p442
asS'05232016'
p443
(lp444
VPCLN
p445
aVAMZN
p446
aVGWW
p447
aVORLY
p448
aVCMI
p449
aVSTZ
p450
aVBLK
p451
aVESS
p452
aVWHR
p453
aVPXD
p454
aVBIIB
p455
aVPSA
p456
aVGS
p457
aVMHK
p458
aVUHS
p459
aVFRT
p460
aVAYI
p461
aVPX
p462
aVAMG
p463
aVSHW
p464
aVHD
p465
aVBDX
p466
aVFB
p467
aVAAP
p468
aVCXO
p469
aVPPG
p470
aVFDX
p471
aVAET
p472
aVBCR
p473
aVHON
p474
aVSYK
p475
aVFISV
p476
aVHUM
p477
aVACN
p478
aVALXN
p479
aVEQIX
p480
aVXEC
p481
aVROP
p482
aVTRV
p483
aVFFIV
p484
aVGOOGL
p485
aVSIG
p486
aVGOOG
p487
aVMCK
p488
aVILMN
p489
asS'04052016'
p490
(lp491
VAGN
p492
aVCMG
p493
aVCXO
p494
aVBA
p495
aVORLY
p496
aVPH
p497
aVAMG
p498
aVSHW
p499
aVPXD
p500
aVCMI
p501
aVMHK
p502
aVAVGO
p503
aVAET
p504
aVFDX
p505
aVWHR
p506
aVHON
p507
aVAYI
p508
aVFB
p509
aVPRGO
p510
aVIBM
p511
aVMCK
p512
aVPPG
p513
aVFISV
p514
aVGOOG
p515
aVCVS
p516
aVGWW
p517
aVSWK
p518
aVSPG
p519
aVGOOGL
p520
aVEFX
p521
aVRTN
p522
aVMKC
p523
aVESS
p524
aVCELG
p525
aVACN
p526
aVGS
p527
aVSTZ
p528
aVBCR
p529
aVNFLX
p530
aVICE
p531
aVEQIX
p532
aVREGN
p533
asS'08082016'
p534
(lp535
VPSA
p536
aVBCR
p537
aVFISV
p538
aVFRT
p539
aVDLR
p540
aVEFX
p541
aVMCK
p542
aVSYK
p543
aVSTZ
p544
aVMKC
p545
aVBDX
p546
aVNEE
p547
aVCVX
p548
aVAGN
p549
aVSHW
p550
aVPPG
p551
aVAVB
p552
aVAPD
p553
aVIBM
p554
aVGPC
p555
aVLLL
p556
aVGS
p557
aVWAT
p558
aVAAP
p559
aVAYI
p560
aVCME
p561
aVEW
p562
aVGWW
p563
aVROP
p564
aVCMI
p565
aVAMG
p566
aVORLY
p567
aVCELG
p568
aVAAPL
p569
aVILMN
p570
aVVRTX
p571
aVBLK
p572
aVPH
p573
aVXEC
p574
aVALXN
p575
aVHUM
p576
aVBIIB
p577
aVPCLN
p578
asS'03082016'
p579
(lp580
VAZO
p581
aVAPD
p582
aVBCR
p583
aVGOOGL
p584
aVAET
p585
aVHON
p586
aVCMI
p587
aVTRV
p588
aVPRGO
p589
aVACN
p590
aVPX
p591
aVEFX
p592
aVEQIX
p593
aVGOOG
p594
aVANTM
p595
aVMNST
p596
aVPXD
p597
aVALXN
p598
aVWHR
p599
aVULTA
p600
aVFDX
p601
aVBA
p602
aVGS
p603
aVSHW
p604
aVAMG
p605
aVAYI
p606
aVESS
p607
aVREGN
p608
aVPCLN
p609
asS'09142016'
p610
(lp611
VPCLN
p612
aVGOOG
p613
aVGOOGL
p614
aVAYI
p615
aVAPD
p616
aVCXO
p617
aVSHW
p618
aVFFIV
p619
aVAAP
p620
aVUTX
p621
aVPH
p622
aVSNA
p623
aVPPG
p624
aVIBM
p625
aVBDX
p626
aVTMO
p627
aVADBE
p628
aVILMN
p629
aVSTZ
p630
aVPVH
p631
aVHUM
p632
aVGS
p633
aVEW
p634
aVSYK
p635
aVPSA
p636
aVLLL
p637
aVFISV
p638
aVCVX
p639
aVPM
p640
aVCME
p641
aVCB
p642
aVEFX
p643
aVFB
p644
aVAAPL
p645
aVALXN
p646
aVNEE
p647
aVSRE
p648
aVMA
p649
aVAGN
p650
aVADS
p651
aVWYNN
p652
asS'03152016'
p653
(lp654
VALXN
p655
aVREGN
p656
aVGD
p657
aVBCR
p658
aVSJM
p659
aVAGN
p660
aVBDX
p661
aVKMB
p662
aVCVS
p663
aVFDX
p664
aVTRV
p665
aVPX
p666
aVEFX
p667
aVAET
p668
aVSRCL
p669
aVMHK
p670
aVPPG
p671
aVACN
p672
aVCXO
p673
aVAYI
p674
aVWHR
p675
aVSHW
p676
aVSIG
p677
aVPXD
p678
aVAZO
p679
aVEQIX
p680
aVAVGO
p681
aVPRGO
p682
aVPCLN
p683
aVULTA
p684
aVGOOGL
p685
aVGOOG
p686
asS'12062016'
p687
(lp688
VPCLN
p689
aVCMG
p690
aVSPGI
p691
aVMHK
p692
aVBDX
p693
aVSTZ
p694
aVSNA
p695
aVHSIC
p696
aVIBM
p697
aVTDG
p698
aVFISV
p699
aVADS
p700
aVPVH
p701
aVUTX
p702
aVBCR
p703
aVAMP
p704
aVBLK
p705
aVAYI
p706
aVILMN
p707
aVTMO
p708
aVPRU
p709
aVRTN
p710
aVROP
p711
aVITW
p712
aVEQIX
p713
aVAON
p714
aVFB
p715
aVSHW
p716
aVROK
p717
aVCVX
p718
aVPH
p719
aVFDX
p720
aVPX
p721
aVUNP
p722
aVNEE
p723
aVLLL
p724
aVCTAS
p725
aVWHR
p726
aVAPD
p727
aVAMG
p728
aVPSA
p729
aVORLY
p730
aVURI
p731
aVAMZN
p732
aVGS
p733
aVEOG
p734
aVZBH
p735
aVCXO
p736
aVXEC
p737
asS'05062016'
p738
(lp739
VGOOGL
p740
aVGOOG
p741
aVAYI
p742
aVAMG
p743
aVBLK
p744
aVALXN
p745
aVWHR
p746
aVAVGO
p747
aVFDX
p748
aVEW
p749
aVMCK
p750
aVPPG
p751
aVGS
p752
aVMHK
p753
aVPX
p754
aVILMN
p755
aVORLY
p756
aVCMI
p757
aVGWW
p758
aVROP
p759
aVPXD
p760
aVSNA
p761
aVSWK
p762
aVCXO
p763
aVADS
p764
aVHON
p765
aVXEC
p766
aVSIG
p767
aVACN
p768
aVHD
p769
aVKMB
p770
aVSYK
p771
aVUHS
p772
aVBDX
p773
aVCVS
p774
aVPSA
p775
aVBCR
p776
aVFRT
p777
aVEQIX
p778
aVCMG
p779
aVFB
p780
aVNOC
p781
aVICE
p782
asS'11022016'
p783
(lp784
VCMG
p785
aVGOOGL
p786
aVGOOG
p787
aVMCK
p788
aVSHW
p789
aVPCLN
p790
aVAYI
p791
aVLLL
p792
aVBIIB
p793
aVXEC
p794
aVAMG
p795
aVAAPL
p796
aVTMO
p797
aVHUM
p798
aVBLK
p799
aVADS
p800
aVADBE
p801
aVBCR
p802
aVPSA
p803
aVPH
p804
aVRTN
p805
aVROP
p806
aVAAP
p807
aVILMN
p808
aVMNST
p809
aVSNA
p810
aVINTU
p811
aVNEE
p812
aVIBM
p813
aVGS
p814
aVUTX
p815
aVCVX
p816
aVAPD
p817
aVALXN
p818
asS'02082017'
p819
(lp820
VGOOGL
p821
aVWHR
p822
aVCMG
p823
aVSNA
p824
aVEQIX
p825
aVAAP
p826
aVVMC
p827
aVMLM
p828
aVILMN
p829
aVBLK
p830
aVCVX
p831
aVORLY
p832
aVADS
p833
aVFISV
p834
aVDLR
p835
aVPRU
p836
aVCXO
p837
aVZBH
p838
aVBCR
p839
aVRTN
p840
aVLRCX
p841
aVAON
p842
aVMHK
p843
aVEFX
p844
aVADBE
p845
aVSTZ
p846
aVCLX
p847
aVBDX
p848
aVNVDA
p849
aVURI
p850
aVSPGI
p851
aVAVGO
p852
aVTMO
p853
aVLLL
p854
aVAYI
p855
aVSHW
p856
aVTDG
p857
aVPCLN
p858
aVAMG
p859
aVISRG
p860
asS'02082016'
p861
(lp862
VAMZN
p863
aVILMN
p864
aVREGN
p865
aVGOOG
p866
aVGOOGL
p867
aVULTA
p868
aVAZO
p869
aVSTZ
p870
aVTMO
p871
aVAYI
p872
aVWAT
p873
aVLH
p874
aVEFX
p875
aVALXN
p876
aVBIIB
p877
aVACN
p878
aVUNH
p879
aVHUM
p880
aVHSIC
p881
aVSJM
p882
aVKMB
p883
aVAVGO
p884
aVFB
p885
aVTRV
p886
aVGS
p887
aVHON
p888
aVLLL
p889
aVGD
p890
aVPXD
p891
aVAPD
p892
asS'11212016'
p893
(lp894
VTDG
p895
aVGOOG
p896
aVNEE
p897
aVEQIX
p898
aVALXN
p899
aVSYK
p900
aVIFF
p901
aVAGN
p902
aVFB
p903
aVSPGI
p904
aVSTZ
p905
aVTMO
p906
aVADBE
p907
aVPX
p908
aVPVH
p909
aVFFIV
p910
aVCVX
p911
aVUTX
p912
aVPCLN
p913
aVEFX
p914
aVXEC
p915
aVCXO
p916
aVRTN
p917
aVROK
p918
aVAPD
p919
aVFISV
p920
aVFDX
p921
aVIBM
p922
aVSNA
p923
aVAMG
p924
aVLRCX
p925
aVINTU
p926
aVPH
p927
aVCTAS
p928
aVWHR
p929
aVROP
p930
aVILMN
p931
aVAMGN
p932
aVAMZN
p933
aVLLL
p934
aVGS
p935
aVAMP
p936
aVSHW
p937
aVHUM
p938
aVBLK
p939
aVADS
p940
aVBIIB
p941
aVAYI
p942
aVHAR
p943
aVCMG
p944
asS'07292016'
p945
(lp946
VPSA
p947
aVBCR
p948
aVSRCL
p949
aVKMB
p950
aVMCK
p951
aVINTU
p952
aVGWW
p953
aVMKC
p954
aVCVX
p955
aVDLR
p956
aVAYI
p957
aVSRE
p958
aVSTZ
p959
aVSPG
p960
aVPPG
p961
aVGPC
p962
aVFISV
p963
aVBDX
p964
aVFRT
p965
aVLLL
p966
aVACN
p967
aVCME
p968
aVIBM
p969
aVGS
p970
aVAAP
p971
aVPCLN
p972
aVPH
p973
aVCMI
p974
aVCTAS
p975
aVWAT
p976
aVEW
p977
aVWYNN
p978
aVORLY
p979
aVALXN
p980
aVAGN
p981
aVBLK
p982
aVWHR
p983
aVHUM
p984
aVILMN
p985
aVCMG
p986
aVBIIB
p987
asS'11042016'
p988
(lp989
VGOOGL
p990
aVPCLN
p991
aVGOOG
p992
aVEQIX
p993
aVCMG
p994
aVMCK
p995
aVXEC
p996
aVSHW
p997
aVLLL
p998
aVFB
p999
aVAMG
p1000
aVSTZ
p1001
aVAYI
p1002
aVHUM
p1003
aVPVH
p1004
aVADS
p1005
aVTMO
p1006
aVADBE
p1007
aVRTN
p1008
aVPSA
p1009
aVPH
p1010
aVAAP
p1011
aVINTU
p1012
aVNEE
p1013
aVSNA
p1014
aVROP
p1015
aVAVGO
p1016
aVGS
p1017
aVILMN
p1018
aVBCR
p1019
aVIBM
p1020
aVBLK
p1021
aVUTX
p1022
aVCVX
p1023
aVAPD
p1024
aVALXN
p1025
asS'02242016'
p1026
(lp1027
VSTZ
p1028
aVAPD
p1029
aVHON
p1030
aVLLL
p1031
aVTRV
p1032
aVACN
p1033
aVGS
p1034
aVGD
p1035
aVNOC
p1036
aVUHS
p1037
aVBA
p1038
aVPXD
p1039
aVLMT
p1040
aVEFX
p1041
aVAET
p1042
aVLH
p1043
aVBIIB
p1044
aVEQIX
p1045
aVMCK
p1046
aVGOOG
p1047
aVALXN
p1048
aVMNST
p1049
aVROP
p1050
aVAGN
p1051
aVESS
p1052
aVAYI
p1053
aVREGN
p1054
aVAZO
p1055
asS'02092016'
p1056
(lp1057
VAMZN
p1058
aVREGN
p1059
aVGOOG
p1060
aVGOOGL
p1061
aVAZO
p1062
aVILMN
p1063
aVULTA
p1064
aVSTZ
p1065
aVICE
p1066
aVBIIB
p1067
aVAYI
p1068
aVORLY
p1069
aVTMO
p1070
aVLH
p1071
aVHUM
p1072
aVAVGO
p1073
aVUNH
p1074
aVFB
p1075
aVCLX
p1076
aVHSIC
p1077
aVSJM
p1078
aVGS
p1079
aVKMB
p1080
aVTRV
p1081
aVPXD
p1082
aVBA
p1083
aVNOC
p1084
aVHON
p1085
aVLMT
p1086
aVLLL
p1087
aVGD
p1088
aVAPD
p1089
asS'12232016'
p1090
(lp1091
VPCLN
p1092
aVAYI
p1093
aVAMG
p1094
aVFDX
p1095
aVGS
p1096
aVAAP
p1097
aVLLL
p1098
aVAMP
p1099
aVCMI
p1100
aVCXO
p1101
aVBLK
p1102
aVURI
p1103
aVCME
p1104
aVPX
p1105
aVEOG
p1106
aVHRS
p1107
aVADS
p1108
aVRTN
p1109
aVAPD
p1110
aVPH
p1111
aVSNA
p1112
aVPRU
p1113
aVSPG
p1114
aVPNC
p1115
aVIBM
p1116
aVAON
p1117
aVCELG
p1118
aVUTX
p1119
aVSHW
p1120
aVCVX
p1121
aVTMO
p1122
aVSTZ
p1123
aVPSA
p1124
aVBDX
p1125
aVLRCX
p1126
aVFISV
p1127
aVZBH
p1128
aVADBE
p1129
aVORLY
p1130
aVCLX
p1131
aVWHR
p1132
aVTDG
p1133
aVILMN
p1134
aVNVDA
p1135
aVAMZN
p1136
aVEQIX
p1137
aVGOOGL
p1138
aVCMG
p1139
asS'12122016'
p1140
(lp1141
VCMG
p1142
aVHAR
p1143
aVAYI
p1144
aVRL
p1145
aVFFIV
p1146
aVILMN
p1147
aVLRCX
p1148
aVPVH
p1149
aVPH
p1150
aVAMP
p1151
aVFISV
p1152
aVCMI
p1153
aVPRU
p1154
aVAON
p1155
aVLLL
p1156
aVROK
p1157
aVROP
p1158
aVADS
p1159
aVUNP
p1160
aVMHK
p1161
aVFDX
p1162
aVTDG
p1163
aVSNA
p1164
aVSHW
p1165
aVIBM
p1166
aVADBE
p1167
aVCVX
p1168
aVFB
p1169
aVURI
p1170
aVORLY
p1171
aVTMO
p1172
aVSTZ
p1173
aVCXO
p1174
aVNEE
p1175
aVAPD
p1176
aVEOG
p1177
aVXEC
p1178
aVZBH
p1179
aVBLK
p1180
aVAMG
p1181
aVPSA
p1182
aVAMZN
p1183
aVPCLN
p1184
aVGOOGL
p1185
asS'12232015'
p1186
(lp1187
VGOOG
p1188
aVREGN
p1189
aVMNST
p1190
aVDIS
p1191
aVICE
p1192
aVACN
p1193
aVLLL
p1194
aVBA
p1195
aVSWK
p1196
aVAVGO
p1197
aVIFF
p1198
aVFB
p1199
aVSNA
p1200
aVORLY
p1201
aVNKE
p1202
aVGD
p1203
aVEQIX
p1204
aVAYI
p1205
aVMCD
p1206
aVVRTX
p1207
aVNOC
p1208
aVSTZ
p1209
aVLH
p1210
aVWAT
p1211
aVGILD
p1212
aVDNB
p1213
aVEXPE
p1214
aVUHS
p1215
aVUNH
p1216
aVHON
p1217
aVAVB
p1218
aVAET
p1219
aVHUM
p1220
aVCELG
p1221
asS'12172015'
p1222
(lp1223
VGOOG
p1224
aVAMZN
p1225
aVICE
p1226
aVXEC
p1227
aVVRTX
p1228
aVMNST
p1229
aVLLL
p1230
aVEQIX
p1231
aVPX
p1232
aVORLY
p1233
aVGD
p1234
aVCXO
p1235
aVAYI
p1236
aVIFF
p1237
aVROK
p1238
aVSTZ
p1239
aVUHS
p1240
aVLH
p1241
aVNKE
p1242
aVAVGO
p1243
aVBA
p1244
aVRTN
p1245
aVFB
p1246
aVGILD
p1247
aVAVB
p1248
aVWAT
p1249
aVMCD
p1250
aVKMB
p1251
aVBCR
p1252
aVUNH
p1253
aVCELG
p1254
aVSRCL
p1255
aVAET
p1256
aVANTM
p1257
aVHUM
p1258
aVBIIB
p1259
asS'12182015'
p1260
(lp1261
VGOOG
p1262
aVAMZN
p1263
aVGOOGL
p1264
aVXEC
p1265
aVICE
p1266
aVWHR
p1267
aVVRTX
p1268
aVEQIX
p1269
aVCXO
p1270
aVPPG
p1271
aVLLL
p1272
aVPX
p1273
aVREGN
p1274
aVORLY
p1275
aVGD
p1276
aVAVGO
p1277
aVIFF
p1278
aVDIS
p1279
aVROK
p1280
aVSTZ
p1281
aVUHS
p1282
aVNOC
p1283
aVRTN
p1284
aVLH
p1285
aVNKE
p1286
aVGILD
p1287
aVSJM
p1288
aVMCD
p1289
aVAVB
p1290
aVFFIV
p1291
aVUNH
p1292
aVAET
p1293
aVHUM
p1294
asS'05162016'
p1295
(lp1296
VPCLN
p1297
aVBLK
p1298
aVWHR
p1299
aVAMG
p1300
aVFDX
p1301
aVGS
p1302
aVULTA
p1303
aVEW
p1304
aVGWW
p1305
aVAYI
p1306
aVORLY
p1307
aVANTM
p1308
aVCMI
p1309
aVPX
p1310
aVALXN
p1311
aVMCK
p1312
aVHUM
p1313
aVAET
p1314
aVPPG
p1315
aVAVGO
p1316
aVMHK
p1317
aVSIG
p1318
aVPXD
p1319
aVUHS
p1320
aVCVX
p1321
aVCXO
p1322
aVHD
p1323
aVHON
p1324
aVSHW
p1325
aVACN
p1326
aVSYK
p1327
aVCVS
p1328
aVFRT
p1329
aVSTZ
p1330
aVROP
p1331
aVXEC
p1332
aVFB
p1333
aVESS
p1334
aVBCR
p1335
aVSJM
p1336
aVNOC
p1337
aVADS
p1338
aVFFIV
p1339
aVKMB
p1340
aVFISV
p1341
aVILMN
p1342
aVEQIX
p1343
aVGOOGL
p1344
aVGOOG
p1345
aVCMG
p1346
aVAMZN
p1347
asS'01032017'
p1348
(lp1349
VPCLN
p1350
aVBLK
p1351
aVGS
p1352
aVFDX
p1353
aVAAP
p1354
aVGOOGL
p1355
aVMLM
p1356
aVAYI
p1357
aVAMG
p1358
aVAPD
p1359
aVLLL
p1360
aVADS
p1361
aVURI
p1362
aVAMP
p1363
aVPRU
p1364
aVCMG
p1365
aVCXO
p1366
aVAMZN
p1367
aVPH
p1368
aVEOG
p1369
aVHRS
p1370
aVORLY
p1371
aVUNP
p1372
aVBA
p1373
aVROK
p1374
aVIBM
p1375
aVCVX
p1376
aVNVDA
p1377
aVSWK
p1378
aVDIS
p1379
aVFISV
p1380
aVMMM
p1381
aVAON
p1382
aVUTX
p1383
aVFB
p1384
aVADBE
p1385
aVADP
p1386
aVBDX
p1387
aVSHW
p1388
aVSPG
p1389
aVWHR
p1390
aVAMT
p1391
aVTMO
p1392
aVCLX
p1393
aVZBH
p1394
aVPSA
p1395
aVSTZ
p1396
aVALXN
p1397
aVTDG
p1398
aVILMN
p1399
aVBIIB
p1400
asS'02052016'
p1401
(lp1402
VAMZN
p1403
aVILMN
p1404
aVREGN
p1405
aVULTA
p1406
aVTMO
p1407
aVGOOG
p1408
aVSTZ
p1409
aVWAT
p1410
aVGOOGL
p1411
aVAET
p1412
aVAYI
p1413
aVLH
p1414
aVEFX
p1415
aVACN
p1416
aVUNH
p1417
aVLMT
p1418
aVSJM
p1419
aVHSIC
p1420
aVHUM
p1421
aVTRV
p1422
aVBIIB
p1423
aVBA
p1424
aVHON
p1425
aVGS
p1426
aVLLL
p1427
aVAVGO
p1428
aVFB
p1429
aVGD
p1430
aVPXD
p1431
aVAZO
p1432
aVAPD
p1433
asS'03142016'
p1434
(lp1435
VBIIB
p1436
aVALXN
p1437
aVGD
p1438
aVBCR
p1439
aVFB
p1440
aVKMB
p1441
aVSTZ
p1442
aVREGN
p1443
aVEFX
p1444
aVAET
p1445
aVFDX
p1446
aVPX
p1447
aVACN
p1448
aVGS
p1449
aVWHR
p1450
aVAGN
p1451
aVAYI
p1452
aVPXD
p1453
aVSHW
p1454
aVBA
p1455
aVAVGO
p1456
aVPRGO
p1457
aVPCLN
p1458
aVGOOGL
p1459
aVGOOG
p1460
asS'07152016'
p1461
(lp1462
VHUM
p1463
aVDLR
p1464
aVBCR
p1465
aVSJM
p1466
aVAET
p1467
aVMKC
p1468
aVSRE
p1469
aVFRT
p1470
aVLLL
p1471
aVSTZ
p1472
aVORLY
p1473
aVFISV
p1474
aVCXO
p1475
aVCVX
p1476
aVPSA
p1477
aVAAP
p1478
aVACN
p1479
aVSRCL
p1480
aVBRK-B
p1481
aVBXP
p1482
aVTDG
p1483
aVPPG
p1484
aVAVGO
p1485
aVPX
p1486
aVEW
p1487
aVWAT
p1488
aVGWW
p1489
aVSPGI
p1490
aVAPD
p1491
aVMCK
p1492
aVMHK
p1493
aVALXN
p1494
aVAYI
p1495
aVBLK
p1496
aVBIIB
p1497
aVPCLN
p1498
asS'01072016'
p1499
(lp1500
VAMZN
p1501
aVREGN
p1502
aVAVGO
p1503
aVAYI
p1504
aVBIIB
p1505
aVBA
p1506
aVAPD
p1507
aVULTA
p1508
aVSWK
p1509
aVHD
p1510
aVDIS
p1511
aVSNA
p1512
aVROK
p1513
aVPXD
p1514
aVLH
p1515
aVUNH
p1516
aVGD
p1517
aVRTN
p1518
aVACN
p1519
aVIFF
p1520
aVVRTX
p1521
aVUHS
p1522
aVHON
p1523
aVLLL
p1524
aVLMT
p1525
aVNOC
p1526
aVCELG
p1527
aVHUM
p1528
aVGWW
p1529
aVAVB
p1530
aVAET
p1531
asS'05182016'
p1532
(lp1533
VPCLN
p1534
aVBLK
p1535
aVWHR
p1536
aVORLY
p1537
aVBIIB
p1538
aVEW
p1539
aVULTA
p1540
aVGWW
p1541
aVAMG
p1542
aVFDX
p1543
aVAYI
p1544
aVGS
p1545
aVCMI
p1546
aVMHK
p1547
aVPX
p1548
aVSTZ
p1549
aVPXD
p1550
aVHD
p1551
aVUHS
p1552
aVESS
p1553
aVAET
p1554
aVPPG
p1555
aVFRT
p1556
aVCVX
p1557
aVSHW
p1558
aVCXO
p1559
aVCVS
p1560
aVHON
p1561
aVSYK
p1562
aVFB
p1563
aVAVGO
p1564
aVSJM
p1565
aVNOC
p1566
aVBCR
p1567
aVSIG
p1568
aVACN
p1569
aVXEC
p1570
aVKMB
p1571
aVFISV
p1572
aVMCK
p1573
aVEQIX
p1574
aVROP
p1575
aVGOOG
p1576
aVGOOGL
p1577
aVAMZN
p1578
aVADS
p1579
aVTDG
p1580
asS'07192016'
p1581
(lp1582
VHUM
p1583
aVDLR
p1584
aVBCR
p1585
aVORLY
p1586
aVAET
p1587
aVSRE
p1588
aVMKC
p1589
aVGPC
p1590
aVKMB
p1591
aVFRT
p1592
aVPSA
p1593
aVSTZ
p1594
aVLLL
p1595
aVXEC
p1596
aVAAP
p1597
aVACN
p1598
aVUHS
p1599
aVFISV
p1600
aVCVX
p1601
aVAON
p1602
aVCELG
p1603
aVZBH
p1604
aVSRCL
p1605
aVCME
p1606
aVGD
p1607
aVROP
p1608
aVCMI
p1609
aVEW
p1610
aVTDG
p1611
aVPPG
p1612
aVPXD
p1613
aVMCD
p1614
aVPX
p1615
aVWAT
p1616
aVLMT
p1617
aVAVGO
p1618
aVMCK
p1619
aVAPD
p1620
aVSPGI
p1621
aVMCO
p1622
aVILMN
p1623
aVSHW
p1624
aVMHK
p1625
aVAYI
p1626
aVALXN
p1627
aVGS
p1628
aVBLK
p1629
aVBIIB
p1630
aVPCLN
p1631
aVGOOGL
p1632
asS'01302017'
p1633
(lp1634
VORLY
p1635
aVWHR
p1636
aVADS
p1637
aVAAP
p1638
aVPSA
p1639
aVBLK
p1640
aVCVX
p1641
aVEOG
p1642
aVAPD
p1643
aVADP
p1644
aVFISV
p1645
aVILMN
p1646
aVUTX
p1647
aVAMGN
p1648
aVBCR
p1649
aVAMP
p1650
aVTMO
p1651
aVGOOGL
p1652
aVPRU
p1653
aVAON
p1654
aVSTZ
p1655
aVDLR
p1656
aVCI
p1657
aVEQIX
p1658
aVPNC
p1659
aVNVDA
p1660
aVZBH
p1661
aVAYI
p1662
aVCTAS
p1663
aVPH
p1664
aVADBE
p1665
aVLRCX
p1666
aVBA
p1667
aVAMG
p1668
aVCXO
p1669
aVIBM
p1670
aVCMI
p1671
aVFDX
p1672
aVLLL
p1673
aVCMG
p1674
aVSPGI
p1675
aVMHK
p1676
aVURI
p1677
aVSHW
p1678
aVISRG
p1679
aVPCLN
p1680
asS'12112015'
p1681
(lp1682
VAMZN
p1683
aVGOOG
p1684
aVREGN
p1685
aVICE
p1686
aVAZO
p1687
aVXEC
p1688
aVORLY
p1689
aVVRTX
p1690
aVDIS
p1691
aVMNST
p1692
aVPPG
p1693
aVGD
p1694
aVAVB
p1695
aVNKE
p1696
aVWAT
p1697
aVFB
p1698
aVGILD
p1699
aVBA
p1700
aVIFF
p1701
aVSTZ
p1702
aVNOC
p1703
aVAYI
p1704
aVROK
p1705
aVLH
p1706
aVACN
p1707
aVBCR
p1708
aVRTN
p1709
aVUHS
p1710
aVCELG
p1711
aVSRCL
p1712
aVABC
p1713
aVAET
p1714
aVUNH
p1715
aVHUM
p1716
aVAVGO
p1717
asS'07262016'
p1718
(lp1719
VBCR
p1720
aVDLR
p1721
aVLLL
p1722
aVCVX
p1723
aVINTU
p1724
aVPSA
p1725
aVFRT
p1726
aVROP
p1727
aVSRE
p1728
aVBDX
p1729
aVNEE
p1730
aVMCK
p1731
aVAVB
p1732
aVPCLN
p1733
aVAET
p1734
aVFISV
p1735
aVAYI
p1736
aVACN
p1737
aVSTZ
p1738
aVORLY
p1739
aVAAP
p1740
aVPPG
p1741
aVCME
p1742
aVSRCL
p1743
aVUTX
p1744
aVEW
p1745
aVTDG
p1746
aVMCD
p1747
aVPH
p1748
aVAPD
p1749
aVWAT
p1750
aVCMI
p1751
aVIBM
p1752
aVCELG
p1753
aVILMN
p1754
aVALXN
p1755
aVBLK
p1756
aVHUM
p1757
aVCMG
p1758
aVBIIB
p1759
asS'06092016'
p1760
(lp1761
VBIIB
p1762
aVCMG
p1763
aVALXN
p1764
aVBLK
p1765
aVPSA
p1766
aVGS
p1767
aVSTZ
p1768
aVHD
p1769
aVSPGI
p1770
aVPXD
p1771
aVXEC
p1772
aVNOC
p1773
aVACN
p1774
aVBRK-B
p1775
aVAYI
p1776
aVBCR
p1777
aVINTU
p1778
aVFISV
p1779
aVCXO
p1780
aVMCK
p1781
aVSHW
p1782
aVEW
p1783
aVSYK
p1784
aVUTX
p1785
aVPH
p1786
aVGWW
p1787
aVMHK
p1788
aVFRT
p1789
aVITW
p1790
aVORLY
p1791
aVPX
p1792
aVKMB
p1793
aVDLR
p1794
aVSPG
p1795
aVWYNN
p1796
aVGOOG
p1797
aVAET
p1798
aVWHR
p1799
aVFFIV
p1800
aVGOOGL
p1801
aVULTA
p1802
aVHUM
p1803
aVPCLN
p1804
asS'07132016'
p1805
(lp1806
VHUM
p1807
aVAET
p1808
aVDLR
p1809
aVCXO
p1810
aVMKC
p1811
aVSRE
p1812
aVXEC
p1813
aVLLL
p1814
aVPM
p1815
aVCVX
p1816
aVFISV
p1817
aVACN
p1818
aVFRT
p1819
aVSRCL
p1820
aVAVGO
p1821
aVAAP
p1822
aVSTZ
p1823
aVGPC
p1824
aVTDG
p1825
aVORLY
p1826
aVINTU
p1827
aVBXP
p1828
aVPPG
p1829
aVBDX
p1830
aVZBH
p1831
aVIBM
p1832
aVSPGI
p1833
aVILMN
p1834
aVEW
p1835
aVPSA
p1836
aVWAT
p1837
aVGWW
p1838
aVALXN
p1839
aVSHW
p1840
aVAYI
p1841
aVBLK
p1842
aVBIIB
p1843
aVPCLN
p1844
asS'08262016'
p1845
(lp1846
VGOOGL
p1847
aVGOOG
p1848
aVPCLN
p1849
aVAGN
p1850
aVADS
p1851
aVISRG
p1852
aVORLY
p1853
aVCELG
p1854
aVAAP
p1855
aVAVB
p1856
aVALXN
p1857
aVBXP
p1858
aVILMN
p1859
aVIBM
p1860
aVTMO
p1861
aVAYI
p1862
aVAAPL
p1863
aVLLL
p1864
aVEW
p1865
aVFB
p1866
aVPH
p1867
aVHUM
p1868
aVCXO
p1869
aVEFX
p1870
aVGS
p1871
aVBDX
p1872
aVMCO
p1873
aVSTZ
p1874
aVSYK
p1875
aVCVX
p1876
aVFISV
p1877
aVMKC
p1878
aVADBE
p1879
aVPSA
p1880
aVXEC
p1881
aVSNA
p1882
aVAPD
p1883
aVPVH
p1884
asS'02172016'
p1885
(lp1886
VICE
p1887
aVULTA
p1888
aVEQIX
p1889
aVGOOG
p1890
aVSTZ
p1891
aVESS
p1892
aVFB
p1893
aVLMT
p1894
aVNOC
p1895
aVLLL
p1896
aVBIIB
p1897
aVGS
p1898
aVGD
p1899
aVBCR
p1900
aVTRV
p1901
aVAPD
p1902
aVHON
p1903
aVWAT
p1904
aVPXD
p1905
aVWHR
p1906
aVILMN
p1907
aVAMZN
p1908
aVAYI
p1909
aVALXN
p1910
aVREGN
p1911
aVHSIC
p1912
aVAZO
p1913
asS'01262016'
p1914
(lp1915
VBIIB
p1916
aVAYI
p1917
aVNFLX
p1918
aVEQIX
p1919
aVGS
p1920
aVHUM
p1921
aVNOC
p1922
aVGOOG
p1923
aVIFF
p1924
aVULTA
p1925
aVGWW
p1926
aVLMT
p1927
aVMNST
p1928
aVAMZN
p1929
aVBA
p1930
aVLH
p1931
aVWAT
p1932
aVAET
p1933
aVTMO
p1934
aVREGN
p1935
aVGD
p1936
aVHSIC
p1937
aVNEE
p1938
aVAPD
p1939
aVICE
p1940
aVILMN
p1941
aVEFX
p1942
aVSJM
p1943
aVSTZ
p1944
aVUNH
p1945
aVACN
p1946
aVBCR
p1947
aVORLY
p1948
asS'01262017'
p1949
(lp1950
VORLY
p1951
aVADS
p1952
aVGS
p1953
aVWHR
p1954
aVAAP
p1955
aVBCR
p1956
aVAMGN
p1957
aVPSA
p1958
aVADP
p1959
aVTMO
p1960
aVFISV
p1961
aVEOG
p1962
aVCVX
p1963
aVNVDA
p1964
aVAON
p1965
aVBLK
p1966
aVPRU
p1967
aVPNC
p1968
aVAMP
p1969
aVLH
p1970
aVDLR
p1971
aVAMG
p1972
aVAPD
p1973
aVCI
p1974
aVAYI
p1975
aVSTZ
p1976
aVZBH
p1977
aVILMN
p1978
aVPH
p1979
aVLLL
p1980
aVLRCX
p1981
aVFDX
p1982
aVADBE
p1983
aVITW
p1984
aVEQIX
p1985
aVBA
p1986
aVCMI
p1987
aVIBM
p1988
aVCXO
p1989
aVURI
p1990
aVSHW
p1991
aVSPGI
p1992
aVVMC
p1993
aVCMG
p1994
aVPCLN
p1995
asS'09062016'
p1996
(lp1997
VPCLN
p1998
aVGOOGL
p1999
aVGOOG
p2000
aVAGN
p2001
aVALXN
p2002
aVILMN
p2003
aVAYI
p2004
aVCXO
p2005
aVHUM
p2006
aVPH
p2007
aVAAPL
p2008
aVUTX
p2009
aVTMO
p2010
aVFFIV
p2011
aVGPC
p2012
aVEW
p2013
aVIBM
p2014
aVPVH
p2015
aVXEC
p2016
aVSTZ
p2017
aVAAP
p2018
aVSNA
p2019
aVCVX
p2020
aVSRE
p2021
aVMON
p2022
aVGS
p2023
aVAPD
p2024
aVAMG
p2025
aVCME
p2026
aVMKC
p2027
aVLLL
p2028
aVADBE
p2029
aVESS
p2030
aVPM
p2031
aVFISV
p2032
aVEFX
p2033
aVMCO
p2034
aVSYK
p2035
aVPSA
p2036
aVADS
p2037
asS'04042016'
p2038
(lp2039
VCMG
p2040
aVCXO
p2041
aVBA
p2042
aVAGN
p2043
aVPXD
p2044
aVAYI
p2045
aVSHW
p2046
aVORLY
p2047
aVCMI
p2048
aVAMG
p2049
aVMHK
p2050
aVPRGO
p2051
aVAVGO
p2052
aVHON
p2053
aVAET
p2054
aVUNH
p2055
aVWHR
p2056
aVFB
p2057
aVRTN
p2058
aVROP
p2059
aVFDX
p2060
aVPPG
p2061
aVIBM
p2062
aVGWW
p2063
aVMCK
p2064
aVFISV
p2065
aVCVS
p2066
aVCELG
p2067
aVSWK
p2068
aVSPG
p2069
aVEFX
p2070
aVNFLX
p2071
aVICE
p2072
aVESS
p2073
aVSTZ
p2074
aVACN
p2075
aVBCR
p2076
aVGOOGL
p2077
aVGOOG
p2078
aVEQIX
p2079
aVALXN
p2080
aVREGN
p2081
asS'05102016'
p2082
(lp2083
VPCLN
p2084
aVAMG
p2085
aVAYI
p2086
aVBLK
p2087
aVWHR
p2088
aVALXN
p2089
aVFDX
p2090
aVAVGO
p2091
aVGS
p2092
aVEW
p2093
aVPPG
p2094
aVSHW
p2095
aVPX
p2096
aVMCK
p2097
aVPXD
p2098
aVCMI
p2099
aVGWW
p2100
aVCXO
p2101
aVCVX
p2102
aVSWK
p2103
aVHON
p2104
aVROP
p2105
aVORLY
p2106
aVMHK
p2107
aVSIG
p2108
aVXEC
p2109
aVSNA
p2110
aVIBM
p2111
aVACN
p2112
aVGOOGL
p2113
aVAET
p2114
aVUHS
p2115
aVHD
p2116
aVSYK
p2117
aVADS
p2118
aVGOOG
p2119
aVSTZ
p2120
aVSJM
p2121
aVBDX
p2122
aVCVS
p2123
aVBCR
p2124
aVFRT
p2125
aVFISV
p2126
aVFB
p2127
aVEQIX
p2128
aVNOC
p2129
aVICE
p2130
aVCMG
p2131
aVAMZN
p2132
asS'09162016'
p2133
(lp2134
VAYI
p2135
aVGOOG
p2136
aVAPD
p2137
aVGOOGL
p2138
aVXEC
p2139
aVCXO
p2140
aVAAP
p2141
aVSLG
p2142
aVSHW
p2143
aVUTX
p2144
aVPPG
p2145
aVGS
p2146
aVIBM
p2147
aVPH
p2148
aVHUM
p2149
aVPVH
p2150
aVSNA
p2151
aVPSA
p2152
aVLLL
p2153
aVEW
p2154
aVSTZ
p2155
aVILMN
p2156
aVAVB
p2157
aVTMO
p2158
aVSYK
p2159
aVFB
p2160
aVCME
p2161
aVNEE
p2162
aVSRE
p2163
aVAMG
p2164
aVALXN
p2165
aVAGN
p2166
aVADS
p2167
aVWYNN
p2168
asS'02232016'
p2169
(lp2170
VSTZ
p2171
aVCLX
p2172
aVFB
p2173
aVAPD
p2174
aVLLL
p2175
aVHON
p2176
aVTRV
p2177
aVGS
p2178
aVUHS
p2179
aVLMT
p2180
aVGD
p2181
aVNOC
p2182
aVBA
p2183
aVAVGO
p2184
aVEFX
p2185
aVLH
p2186
aVPXD
p2187
aVAET
p2188
aVMNST
p2189
aVEQIX
p2190
aVGOOG
p2191
aVBIIB
p2192
aVALXN
p2193
aVROP
p2194
aVHSIC
p2195
aVAGN
p2196
aVAYI
p2197
aVREGN
p2198
aVAZO
p2199
aVAMZN
p2200
asS'09082016'
p2201
(lp2202
VAVGO
p2203
aVGOOG
p2204
aVAYI
p2205
aVGOOGL
p2206
aVILMN
p2207
aVPCLN
p2208
aVWHR
p2209
aVALXN
p2210
aVHUM
p2211
aVGPC
p2212
aVAAPL
p2213
aVUTX
p2214
aVPH
p2215
aVRTN
p2216
aVCXO
p2217
aVTMO
p2218
aVSNA
p2219
aVEW
p2220
aVPVH
p2221
aVMKC
p2222
aVSTZ
p2223
aVAPD
p2224
aVSHW
p2225
aVADBE
p2226
aVMON
p2227
aVPPG
p2228
aVGS
p2229
aVCB
p2230
aVFISV
p2231
aVAMP
p2232
aVNFLX
p2233
aVSYK
p2234
aVCVX
p2235
aVSRE
p2236
aVDLR
p2237
aVPSA
p2238
aVAMG
p2239
aVADS
p2240
asS'06082016'
p2241
(lp2242
VBIIB
p2243
aVCMG
p2244
aVSTZ
p2245
aVALXN
p2246
aVHD
p2247
aVGS
p2248
aVSPGI
p2249
aVBLK
p2250
aVFB
p2251
aVPXD
p2252
aVNOC
p2253
aVBCR
p2254
aVXEC
p2255
aVBRK-B
p2256
aVACN
p2257
aVAYI
p2258
aVCVX
p2259
aVSYK
p2260
aVEW
p2261
aVFISV
p2262
aVTRV
p2263
aVINTU
p2264
aVUTX
p2265
aVCXO
p2266
aVSHW
p2267
aVFRT
p2268
aVORLY
p2269
aVPX
p2270
aVMCK
p2271
aVTDG
p2272
aVNFLX
p2273
aVITW
p2274
aVSJM
p2275
aVMHK
p2276
aVKMB
p2277
aVMCO
p2278
aVGWW
p2279
aVGOOG
p2280
aVWHR
p2281
aVFFIV
p2282
aVAET
p2283
aVGOOGL
p2284
aVHUM
p2285
aVULTA
p2286
aVPCLN
p2287
asS'08032016'
p2288
(lp2289
VPSA
p2290
aVBCR
p2291
aVMCK
p2292
aVEFX
p2293
aVINTU
p2294
aVSYK
p2295
aVKMB
p2296
aVAYI
p2297
aVMKC
p2298
aVFISV
p2299
aVDLR
p2300
aVSTZ
p2301
aVGWW
p2302
aVGS
p2303
aVSRE
p2304
aVPPG
p2305
aVFRT
p2306
aVMTB
p2307
aVIBM
p2308
aVAVB
p2309
aVGPC
p2310
aVPM
p2311
aVLLL
p2312
aVAAP
p2313
aVACN
p2314
aVPH
p2315
aVROP
p2316
aVCMI
p2317
aVAGN
p2318
aVWAT
p2319
aVZBH
p2320
aVEW
p2321
aVWHR
p2322
aVORLY
p2323
aVBLK
p2324
aVALXN
p2325
aVPCLN
p2326
aVBIIB
p2327
asS'12212016'
p2328
(lp2329
VPCLN
p2330
aVAYI
p2331
aVAMG
p2332
aVAMP
p2333
aVLLL
p2334
aVFDX
p2335
aVGS
p2336
aVRTN
p2337
aVCXO
p2338
aVURI
p2339
aVHRS
p2340
aVVMC
p2341
aVADS
p2342
aVEOG
p2343
aVPH
p2344
aVPX
p2345
aVSNA
p2346
aVSWK
p2347
aVPRU
p2348
aVCELG
p2349
aVAPD
p2350
aVUNP
p2351
aVAON
p2352
aVPNC
p2353
aVBXP
p2354
aVLRCX
p2355
aVIBM
p2356
aVCVX
p2357
aVTMO
p2358
aVSPG
p2359
aVPSA
p2360
aVFISV
p2361
aVZBH
p2362
aVADBE
p2363
aVFB
p2364
aVSTZ
p2365
aVBLK
p2366
aVWHR
p2367
aVNVDA
p2368
aVORLY
p2369
aVTDG
p2370
aVILMN
p2371
aVCMG
p2372
aVAMZN
p2373
aVGOOGL
p2374
asS'12212015'
p2375
(lp2376
VGOOG
p2377
aVGOOGL
p2378
aVAMZN
p2379
aVREGN
p2380
aVICE
p2381
aVLLL
p2382
aVVRTX
p2383
aVEQIX
p2384
aVAYI
p2385
aVIFF
p2386
aVORLY
p2387
aVGD
p2388
aVAVGO
p2389
aVROK
p2390
aVRTN
p2391
aVSTZ
p2392
aVTRV
p2393
aVNOC
p2394
aVUHS
p2395
aVLH
p2396
aVSJM
p2397
aVMCD
p2398
aVHON
p2399
aVGILD
p2400
aVAVB
p2401
aVUNH
p2402
aVCELG
p2403
aVAET
p2404
aVHUM
p2405
aVPCLN
p2406
asS'02112016'
p2407
(lp2408
VAMZN
p2409
aVREGN
p2410
aVGOOG
p2411
aVAZO
p2412
aVEQIX
p2413
aVULTA
p2414
aVICE
p2415
aVILMN
p2416
aVSTZ
p2417
aVBIIB
p2418
aVAYI
p2419
aVTMO
p2420
aVLH
p2421
aVGS
p2422
aVPXD
p2423
aVBA
p2424
aVWAT
p2425
aVUNH
p2426
aVROP
p2427
aVKMB
p2428
aVBCR
p2429
aVTRV
p2430
aVNOC
p2431
aVHON
p2432
aVGD
p2433
aVLLL
p2434
aVAPD
p2435
aVHSIC
p2436
asS'07222016'
p2437
(lp2438
VBCR
p2439
aVDLR
p2440
aVSHW
p2441
aVORLY
p2442
aVGPC
p2443
aVMKC
p2444
aVLLL
p2445
aVFRT
p2446
aVINTU
p2447
aVSRE
p2448
aVPSA
p2449
aVBDX
p2450
aVACN
p2451
aVCVX
p2452
aVAAP
p2453
aVFISV
p2454
aVAET
p2455
aVZBH
p2456
aVLMT
p2457
aVSTZ
p2458
aVMCK
p2459
aVUTX
p2460
aVCME
p2461
aVUHS
p2462
aVPXD
p2463
aVSRCL
p2464
aVTDG
p2465
aVEW
p2466
aVPX
p2467
aVWAT
p2468
aVPPG
p2469
aVBXP
p2470
aVGD
p2471
aVAVGO
p2472
aVTMO
p2473
aVROP
p2474
aVAYI
p2475
aVIBM
p2476
aVITW
p2477
aVMCD
p2478
aVHUM
p2479
aVILMN
p2480
aVMHK
p2481
aVALXN
p2482
aVBLK
p2483
aVPCLN
p2484
aVBIIB
p2485
aVGOOGL
p2486
asS'02022017'
p2487
(lp2488
VGOOGL
p2489
aVWHR
p2490
aVORLY
p2491
aVTDG
p2492
aVAAP
p2493
aVBLK
p2494
aVADP
p2495
aVEQIX
p2496
aVCVX
p2497
aVEOG
p2498
aVILMN
p2499
aVFISV
p2500
aVADS
p2501
aVUTX
p2502
aVPRU
p2503
aVFDX
p2504
aVRTN
p2505
aVCLX
p2506
aVDLR
p2507
aVMLM
p2508
aVAON
p2509
aVBA
p2510
aVSTZ
p2511
aVPNC
p2512
aVCI
p2513
aVBCR
p2514
aVAMP
p2515
aVCTAS
p2516
aVADBE
p2517
aVIBM
p2518
aVZBH
p2519
aVAMGN
p2520
aVCXO
p2521
aVLRCX
p2522
aVCME
p2523
aVCMI
p2524
aVNVDA
p2525
aVBDX
p2526
aVSPGI
p2527
aVAYI
p2528
aVMHK
p2529
aVCMG
p2530
aVTMO
p2531
aVLLL
p2532
aVURI
p2533
aVAMG
p2534
aVPCLN
p2535
aVSHW
p2536
asS'11032016'
p2537
(lp2538
VGOOGL
p2539
aVGOOG
p2540
aVPCLN
p2541
aVCMG
p2542
aVMCK
p2543
aVSHW
p2544
aVXEC
p2545
aVAYI
p2546
aVLLL
p2547
aVAMG
p2548
aVAAPL
p2549
aVFB
p2550
aVHUM
p2551
aVPVH
p2552
aVTMO
p2553
aVADS
p2554
aVPSA
p2555
aVADBE
p2556
aVPH
p2557
aVMNST
p2558
aVSRE
p2559
aVRTN
p2560
aVBLK
p2561
aVSNA
p2562
aVINTU
p2563
aVAAP
p2564
aVBCR
p2565
aVROP
p2566
aVILMN
p2567
aVNEE
p2568
aVGS
p2569
aVIBM
p2570
aVSYK
p2571
aVUTX
p2572
aVCVX
p2573
aVAPD
p2574
aVALXN
p2575
aVMLM
p2576
asS'11152016'
p2577
(lp2578
VAMZN
p2579
aVGOOGL
p2580
aVGOOG
p2581
aVEQIX
p2582
aVSTZ
p2583
aVNEE
p2584
aVIFF
p2585
aVFB
p2586
aVALXN
p2587
aVSYK
p2588
aVTDG
p2589
aVADBE
p2590
aVBCR
p2591
aVMA
p2592
aVXEC
p2593
aVCXO
p2594
aVPX
p2595
aVCVX
p2596
aVFISV
p2597
aVINTU
p2598
aVORLY
p2599
aVUTX
p2600
aVFFIV
p2601
aVPSA
p2602
aVAPD
p2603
aVFDX
p2604
aVILMN
p2605
aVAMG
p2606
aVADS
p2607
aVNSC
p2608
aVITW
p2609
aVPNC
p2610
aVHRS
p2611
aVROP
p2612
aVSNA
p2613
aVRTN
p2614
aVWHR
p2615
aVLLL
p2616
aVPH
p2617
aVAAP
p2618
aVGWW
p2619
aVSHW
p2620
aVPCLN
p2621
aVAMP
p2622
aVHUM
p2623
aVGS
p2624
aVBLK
p2625
aVCMG
p2626
aVAYI
p2627
asS'12202016'
p2628
(lp2629
VPCLN
p2630
aVAYI
p2631
aVAMG
p2632
aVAMP
p2633
aVHAR
p2634
aVRTN
p2635
aVVMC
p2636
aVADS
p2637
aVURI
p2638
aVLLL
p2639
aVCXO
p2640
aVHRS
p2641
aVGS
p2642
aVPH
p2643
aVFDX
p2644
aVSNA
p2645
aVSWK
p2646
aVEOG
p2647
aVPRU
p2648
aVAON
p2649
aVAPD
p2650
aVPNC
p2651
aVLRCX
p2652
aVCVX
p2653
aVIBM
p2654
aVTMO
p2655
aVDIS
p2656
aVFISV
p2657
aVMMM
p2658
aVADBE
p2659
aVWHR
p2660
aVZBH
p2661
aVFB
p2662
aVSPG
p2663
aVNVDA
p2664
aVPSA
p2665
aVORLY
p2666
aVNEE
p2667
aVSTZ
p2668
aVTDG
p2669
aVBLK
p2670
aVCMG
p2671
aVILMN
p2672
aVAMZN
p2673
aVGOOGL
p2674
asS'01102017'
p2675
(lp2676
VAYI
p2677
aVBLK
p2678
aVGS
p2679
aVMLM
p2680
aVNVDA
p2681
aVAAP
p2682
aVFDX
p2683
aVCVX
p2684
aVURI
p2685
aVAMG
p2686
aVORLY
p2687
aVPRU
p2688
aVPH
p2689
aVLLL
p2690
aVCXO
p2691
aVAPD
p2692
aVITW
p2693
aVHRS
p2694
aVIBM
p2695
aVPNC
p2696
aVWHR
p2697
aVEOG
p2698
aVSTZ
p2699
aVBA
p2700
aVSNA
p2701
aVSYK
p2702
aVFISV
p2703
aVADS
p2704
aVLRCX
p2705
aVCLX
p2706
aVNEE
p2707
aVAMP
p2708
aVAON
p2709
aVSWK
p2710
aVADBE
p2711
aVWAT
p2712
aVPSA
p2713
aVDLR
p2714
aVSPGI
p2715
aVSHW
p2716
aVBCR
p2717
aVTMO
p2718
aVFB
p2719
aVSPG
p2720
aVTDG
p2721
aVZBH
p2722
aVEQIX
p2723
aVGOOGL
p2724
aVBIIB
p2725
aVALXN
p2726
aVCMG
p2727
aVILMN
p2728
aVPCLN
p2729
asS'01042016'
p2730
(lp2731
VREGN
p2732
aVAYI
p2733
aVAVGO
p2734
aVULTA
p2735
aVRTN
p2736
aVDIS
p2737
aVEXPE
p2738
aVPXD
p2739
aVHD
p2740
aVSWK
p2741
aVACN
p2742
aVSJM
p2743
aVGILD
p2744
aVBA
p2745
aVSNA
p2746
aVSTZ
p2747
aVIFF
p2748
aVLMT
p2749
aVLLL
p2750
aVORLY
p2751
aVGD
p2752
aVLH
p2753
aVUNH
p2754
aVPRGO
p2755
aVMCK
p2756
aVUHS
p2757
aVAVB
p2758
aVHUM
p2759
aVVRTX
p2760
aVTDG
p2761
aVBIIB
p2762
aVGWW
p2763
asS'09122016'
p2764
(lp2765
VPCLN
p2766
aVGOOG
p2767
aVAYI
p2768
aVGOOGL
p2769
aVWHR
p2770
aVILMN
p2771
aVAPD
p2772
aVTMO
p2773
aVSHW
p2774
aVRTN
p2775
aVAAPL
p2776
aVUTX
p2777
aVSNA
p2778
aVCXO
p2779
aVPH
p2780
aVZBH
p2781
aVHUM
p2782
aVADBE
p2783
aVIBM
p2784
aVSTZ
p2785
aVEW
p2786
aVAGN
p2787
aVPVH
p2788
aVALXN
p2789
aVCME
p2790
aVDLR
p2791
aVSYK
p2792
aVFISV
p2793
aVGS
p2794
aVSRE
p2795
aVPSA
p2796
aVCVX
p2797
aVAMG
p2798
aVADS
p2799
asS'09222016'
p2800
(lp2801
VAYI
p2802
aVAPD
p2803
aVEQIX
p2804
aVAAP
p2805
aVGS
p2806
aVUTX
p2807
aVPVH
p2808
aVIBM
p2809
aVHUM
p2810
aVPH
p2811
aVCME
p2812
aVFB
p2813
aVSWK
p2814
aVLH
p2815
aVINTU
p2816
aVLLL
p2817
aVORLY
p2818
aVAMG
p2819
aVEW
p2820
aVSNA
p2821
aVAGN
p2822
aVWYNN
p2823
aVGOOGL
p2824
aVILMN
p2825
aVBDX
p2826
aVSYK
p2827
aVADBE
p2828
aVGOOG
p2829
aVPSA
p2830
aVALXN
p2831
aVNEE
p2832
aVSRE
p2833
aVADS
p2834
aVPCLN
p2835
aVTMO
p2836
aVISRG
p2837
asS'12072016'
p2838
(lp2839
VCMG
p2840
aVPCLN
p2841
aVSPGI
p2842
aVBDX
p2843
aVUHS
p2844
aVILMN
p2845
aVMHK
p2846
aVFISV
p2847
aVSTZ
p2848
aVSNA
p2849
aVRTN
p2850
aVADBE
p2851
aVAMP
p2852
aVIBM
p2853
aVAYI
p2854
aVTMO
p2855
aVROP
p2856
aVPRU
p2857
aVADS
p2858
aVFB
p2859
aVBLK
p2860
aVPVH
p2861
aVSHW
p2862
aVAON
p2863
aVCVX
p2864
aVROK
p2865
aVPH
p2866
aVFDX
p2867
aVTDG
p2868
aVUNP
p2869
aVECL
p2870
aVNEE
p2871
aVEQIX
p2872
aVLLL
p2873
aVCTAS
p2874
aVAPD
p2875
aVEOG
p2876
aVURI
p2877
aVWHR
p2878
aVCXO
p2879
aVAMG
p2880
aVZBH
p2881
aVGS
p2882
aVORLY
p2883
aVPSA
p2884
aVXEC
p2885
aVAMZN
p2886
asS'10242016'
p2887
(lp2888
VILMN
p2889
aVPCLN
p2890
aVBLK
p2891
aVROP
p2892
aVADS
p2893
aVAMG
p2894
aVTMO
p2895
aVIBM
p2896
aVLLL
p2897
aVPH
p2898
aVBDX
p2899
aVCTAS
p2900
aVEW
p2901
aVAGN
p2902
aVBCR
p2903
aVFFIV
p2904
aVAAP
p2905
aVSWK
p2906
aVCMI
p2907
aVSYK
p2908
aVVAR
p2909
aVCVX
p2910
aVAYI
p2911
aVADBE
p2912
aVAAPL
p2913
aVEFX
p2914
aVMA
p2915
aVRTN
p2916
aVALXN
p2917
aVSRE
p2918
aVPSA
p2919
aVHUM
p2920
aVINTU
p2921
aVNEE
p2922
aVAPD
p2923
aVFB
p2924
aVMCK
p2925
aVVMC
p2926
aVMNST
p2927
aVGS
p2928
aVSHW
p2929
aVSNA
p2930
aVGOOGL
p2931
aVGOOG
p2932
asS'12162015'
p2933
(lp2934
VAMZN
p2935
aVGOOG
p2936
aVICE
p2937
aVVRTX
p2938
aVXEC
p2939
aVORLY
p2940
aVEQIX
p2941
aVMNST
p2942
aVLLL
p2943
aVPX
p2944
aVREGN
p2945
aVGD
p2946
aVIFF
p2947
aVSTZ
p2948
aVNKE
p2949
aVLH
p2950
aVUHS
p2951
aVAYI
p2952
aVROK
p2953
aVFB
p2954
aVAVB
p2955
aVGILD
p2956
aVBA
p2957
aVRTN
p2958
aVWAT
p2959
aVCXO
p2960
aVMCD
p2961
aVGWW
p2962
aVAVGO
p2963
aVBXP
p2964
aVBCR
p2965
aVUNH
p2966
aVSRCL
p2967
aVAET
p2968
aVCELG
p2969
aVHUM
p2970
asS'12082015'
p2971
(lp2972
VREGN
p2973
aVAZO
p2974
aVORLY
p2975
aVXEC
p2976
aVVRTX
p2977
aVGOOG
p2978
aVCXO
p2979
aVTSO
p2980
aVDIS
p2981
aVAYI
p2982
aVGILD
p2983
aVBA
p2984
aVFB
p2985
aVLLL
p2986
aVGD
p2987
aVNOC
p2988
aVUHS
p2989
aVBXP
p2990
aVEQIX
p2991
aVSRCL
p2992
aVNKE
p2993
aVSNA
p2994
aVAVB
p2995
aVMNST
p2996
aVCELG
p2997
aVACN
p2998
aVIFF
p2999
aVLH
p3000
aVSTZ
p3001
aVAET
p3002
aVGWW
p3003
aVMCK
p3004
aVBCR
p3005
aVUNH
p3006
aVHUM
p3007
aVAVGO
p3008
asS'12072015'
p3009
(lp3010
VAZO
p3011
aVREGN
p3012
aVGOOGL
p3013
aVORLY
p3014
aVVRTX
p3015
aVXEC
p3016
aVGOOG
p3017
aVCXO
p3018
aVPXD
p3019
aVDIS
p3020
aVICE
p3021
aVAYI
p3022
aVWAT
p3023
aVGILD
p3024
aVFB
p3025
aVNOC
p3026
aVHAR
p3027
aVUHS
p3028
aVGD
p3029
aVPRGO
p3030
aVBA
p3031
aVCELG
p3032
aVSRCL
p3033
aVEQIX
p3034
aVECL
p3035
aVNKE
p3036
aVACN
p3037
aVMNST
p3038
aVLH
p3039
aVMCO
p3040
aVAVB
p3041
aVIFF
p3042
aVROK
p3043
aVAET
p3044
aVSTZ
p3045
aVSNA
p3046
aVBCR
p3047
aVMCK
p3048
aVHUM
p3049
aVUNH
p3050
aVFFIV
p3051
aVULTA
p3052
asS'12162016'
p3053
(lp3054
VPCLN
p3055
aVRL
p3056
aVPVH
p3057
aVRTN
p3058
aVAYI
p3059
aVVMC
p3060
aVAMP
p3061
aVHAR
p3062
aVADS
p3063
aVROK
p3064
aVURI
p3065
aVHRS
p3066
aVPH
p3067
aVAMG
p3068
aVLLL
p3069
aVCXO
p3070
aVPNC
p3071
aVSWK
p3072
aVSNA
p3073
aVPRU
p3074
aVAON
p3075
aVFDX
p3076
aVLRCX
p3077
aVUTX
p3078
aVFFIV
p3079
aVSHW
p3080
aVCMG
p3081
aVMHK
p3082
aVEOG
p3083
aVAPD
p3084
aVFISV
p3085
aVDIS
p3086
aVORLY
p3087
aVCME
p3088
aVCVX
p3089
aVIBM
p3090
aVADBE
p3091
aVBDX
p3092
aVWHR
p3093
aVFB
p3094
aVNEE
p3095
aVPSA
p3096
aVZBH
p3097
aVTDG
p3098
aVILMN
p3099
aVBLK
p3100
aVSTZ
p3101
aVAGN
p3102
aVAMZN
p3103
aVGOOGL
p3104
asS'10192016'
p3105
(lp3106
VPCLN
p3107
aVILMN
p3108
aVCMG
p3109
aVROP
p3110
aVAMG
p3111
aVTMO
p3112
aVHSIC
p3113
aVBDX
p3114
aVFFIV
p3115
aVEW
p3116
aVIBM
p3117
aVCTAS
p3118
aVHUM
p3119
aVBCR
p3120
aVLLL
p3121
aVADBE
p3122
aVAPD
p3123
aVSYK
p3124
aVPVH
p3125
aVPH
p3126
aVEFX
p3127
aVAAP
p3128
aVALXN
p3129
aVMA
p3130
aVBLK
p3131
aVAYI
p3132
aVCMI
p3133
aVADS
p3134
aVINTU
p3135
aVCVX
p3136
aVPX
p3137
aVSNA
p3138
aVSRE
p3139
aVAAPL
p3140
aVRTN
p3141
aVORLY
p3142
aVSHW
p3143
aVNEE
p3144
aVMNST
p3145
aVPSA
p3146
aVGS
p3147
aVGOOG
p3148
asS'12292015'
p3149
(lp3150
VMNST
p3151
aVDIS
p3152
aVAAPL
p3153
aVREGN
p3154
aVULTA
p3155
aVAVGO
p3156
aVACN
p3157
aVHD
p3158
aVSWK
p3159
aVAYI
p3160
aVLLL
p3161
aVFB
p3162
aVIFF
p3163
aVBA
p3164
aVSJM
p3165
aVGOOG
p3166
aVEXPE
p3167
aVNOC
p3168
aVBF-B
p3169
aVSTZ
p3170
aVLH
p3171
aVTRV
p3172
aVGILD
p3173
aVGD
p3174
aVSNA
p3175
aVMCO
p3176
aVUNH
p3177
aVBXP
p3178
aVPRGO
p3179
aVUHS
p3180
aVAET
p3181
aVORLY
p3182
aVICE
p3183
aVHUM
p3184
aVVRTX
p3185
aVAVB
p3186
aVEQIX
p3187
aVCELG
p3188
asS'03072016'
p3189
(lp3190
VHSIC
p3191
aVAPD
p3192
aVBCR
p3193
aVSYK
p3194
aVTRV
p3195
aVHON
p3196
aVCMI
p3197
aVAET
p3198
aVPX
p3199
aVACN
p3200
aVEFX
p3201
aVMNST
p3202
aVANTM
p3203
aVGOOGL
p3204
aVAZO
p3205
aVEQIX
p3206
aVPXD
p3207
aVBA
p3208
aVWHR
p3209
aVFDX
p3210
aVGOOG
p3211
aVULTA
p3212
aVSHW
p3213
aVALXN
p3214
aVGS
p3215
aVESS
p3216
aVAMG
p3217
aVAYI
p3218
aVREGN
p3219
aVPCLN
p3220
asS'04182016'
p3221
(lp3222
VEQIX
p3223
aVAVGO
p3224
aVFB
p3225
aVGWW
p3226
aVFDX
p3227
aVAET
p3228
aVSPG
p3229
aVIBM
p3230
aVFRT
p3231
aVWHR
p3232
aVACN
p3233
aVKMB
p3234
aVHD
p3235
aVUHS
p3236
aVPPG
p3237
aVPXD
p3238
aVLMT
p3239
aVSPGI
p3240
aVHON
p3241
aVBCR
p3242
aVRTN
p3243
aVCXO
p3244
aVBDX
p3245
aVNFLX
p3246
aVCMI
p3247
aVICE
p3248
aVXEC
p3249
aVEW
p3250
aVGOOG
p3251
aVGOOGL
p3252
aVCMG
p3253
aVALXN
p3254
aVMCK
p3255
aVAYI
p3256
aVPCLN
p3257
aVREGN
p3258
asS'03112016'
p3259
(lp3260
VCMG
p3261
aVGD
p3262
aVBIIB
p3263
aVKMB
p3264
aVFB
p3265
aVBCR
p3266
aVAPD
p3267
aVSTZ
p3268
aVALXN
p3269
aVBDX
p3270
aVCVS
p3271
aVHON
p3272
aVTRV
p3273
aVEFX
p3274
aVAET
p3275
aVACN
p3276
aVFDX
p3277
aVPX
p3278
aVWHR
p3279
aVGS
p3280
aVAZO
p3281
aVREGN
p3282
aVPXD
p3283
aVSNA
p3284
aVAYI
p3285
aVBA
p3286
aVPRGO
p3287
aVESS
p3288
aVGOOGL
p3289
aVPCLN
p3290
aVULTA
p3291
aVGOOG
p3292
asS'08172016'
p3293
(lp3294
VAAP
p3295
aVGOOGL
p3296
aVBIIB
p3297
aVCMG
p3298
aVGOOG
p3299
aVORLY
p3300
aVFISV
p3301
aVTMO
p3302
aVBLK
p3303
aVPSA
p3304
aVZBH
p3305
aVIBM
p3306
aVSRE
p3307
aVEFX
p3308
aVFFIV
p3309
aVCELG
p3310
aVEW
p3311
aVESS
p3312
aVNEE
p3313
aVFB
p3314
aVVRTX
p3315
aVSYK
p3316
aVBXP
p3317
aVDLR
p3318
aVILMN
p3319
aVSTZ
p3320
aVMKC
p3321
aVALXN
p3322
aVAMG
p3323
aVAAPL
p3324
aVWYNN
p3325
aVCVX
p3326
aVADBE
p3327
aVCI
p3328
aVAPD
p3329
aVGS
p3330
aVFDX
p3331
aVPH
p3332
aVAYI
p3333
aVPVH
p3334
aVHUM
p3335
aVCXO
p3336
aVPXD
p3337
aVPCLN
p3338
asS'09292016'
p3339
(lp3340
VBLK
p3341
aVGS
p3342
aVALXN
p3343
aVAGN
p3344
aVCME
p3345
aVPVH
p3346
aVAMG
p3347
aVWYNN
p3348
aVPCLN
p3349
aVFB
p3350
aVXEC
p3351
aVADS
p3352
aVMA
p3353
aVGOOGL
p3354
aVPH
p3355
aVAYI
p3356
aVUTX
p3357
aVEFX
p3358
aVAPD
p3359
aVAAP
p3360
aVFISV
p3361
aVEW
p3362
aVNEE
p3363
aVILMN
p3364
aVWAT
p3365
aVSRE
p3366
aVZBH
p3367
aVSNA
p3368
aVGOOG
p3369
aVIBM
p3370
aVSYK
p3371
aVKMB
p3372
aVORLY
p3373
aVCMG
p3374
aVCMI
p3375
aVFFIV
p3376
aVADBE
p3377
aVAVB
p3378
aVTMO
p3379
aVPSA
p3380
asS'03222016'
p3381
(lp3382
VCMG
p3383
aVPCLN
p3384
aVAGN
p3385
aVAZO
p3386
aVSHW
p3387
aVALXN
p3388
aVMCK
p3389
aVSJM
p3390
aVBDX
p3391
aVBCR
p3392
aVAET
p3393
aVKMB
p3394
aVRTN
p3395
aVCVS
p3396
aVFISV
p3397
aVINTU
p3398
aVAYI
p3399
aVADS
p3400
aVMHK
p3401
aVFFIV
p3402
aVLMT
p3403
aVUHS
p3404
aVCXO
p3405
aVACN
p3406
aVCMI
p3407
aVEFX
p3408
aVNFLX
p3409
aVSWK
p3410
aVPRGO
p3411
aVGS
p3412
aVREGN
p3413
aVMNST
p3414
aVAVGO
p3415
aVPXD
p3416
aVEQIX
p3417
aVWHR
p3418
aVSIG
p3419
aVBA
p3420
aVFDX
p3421
aVULTA
p3422
aVGOOGL
p3423
aVGOOG
p3424
asS'08052016'
p3425
(lp3426
VPSA
p3427
aVFISV
p3428
aVISRG
p3429
aVEFX
p3430
aVDLR
p3431
aVINTU
p3432
aVSYK
p3433
aVFRT
p3434
aVMKC
p3435
aVCVX
p3436
aVSTZ
p3437
aVBDX
p3438
aVAVB
p3439
aVPPG
p3440
aVGS
p3441
aVAYI
p3442
aVGPC
p3443
aVSHW
p3444
aVAPD
p3445
aVIBM
p3446
aVBRK-B
p3447
aVLLL
p3448
aVUTX
p3449
aVGWW
p3450
aVCME
p3451
aVAAP
p3452
aVAGN
p3453
aVWAT
p3454
aVROP
p3455
aVACN
p3456
aVEW
p3457
aVCMI
p3458
aVZBH
p3459
aVPH
p3460
aVAAPL
p3461
aVORLY
p3462
aVVRTX
p3463
aVBLK
p3464
aVCELG
p3465
aVALXN
p3466
aVHUM
p3467
aVPXD
p3468
aVBIIB
p3469
aVPCLN
p3470
asS'01052016'
p3471
(lp3472
VAMZN
p3473
aVREGN
p3474
aVGOOG
p3475
aVGOOGL
p3476
aVAVGO
p3477
aVULTA
p3478
aVAYI
p3479
aVDIS
p3480
aVRTN
p3481
aVSWK
p3482
aVHD
p3483
aVFB
p3484
aVORLY
p3485
aVBA
p3486
aVGILD
p3487
aVSJM
p3488
aVAPD
p3489
aVPXD
p3490
aVUNH
p3491
aVGD
p3492
aVMCK
p3493
aVSTZ
p3494
aVMCO
p3495
aVIBM
p3496
aVNOC
p3497
aVUHS
p3498
aVAET
p3499
aVAVB
p3500
aVVRTX
p3501
aVHUM
p3502
aVTDG
p3503
asS'03172016'
p3504
(lp3505
VCMG
p3506
aVAGN
p3507
aVALXN
p3508
aVREGN
p3509
aVBCR
p3510
aVGD
p3511
aVRTN
p3512
aVAZO
p3513
aVSJM
p3514
aVCVS
p3515
aVAET
p3516
aVFB
p3517
aVGS
p3518
aVEFX
p3519
aVTRV
p3520
aVACN
p3521
aVCXO
p3522
aVAYI
p3523
aVESS
p3524
aVPRGO
p3525
aVFDX
p3526
aVPXD
p3527
aVEQIX
p3528
aVBA
p3529
aVWHR
p3530
aVPCLN
p3531
aVULTA
p3532
aVGOOG
p3533
aVGOOGL
p3534
asS'01122017'
p3535
(lp3536
VAYI
p3537
aVBLK
p3538
aVGS
p3539
aVNVDA
p3540
aVMLM
p3541
aVLLL
p3542
aVURI
p3543
aVCVX
p3544
aVFDX
p3545
aVPSA
p3546
aVWHR
p3547
aVPRU
p3548
aVORLY
p3549
aVAMG
p3550
aVSTZ
p3551
aVAAP
p3552
aVCLX
p3553
aVPNC
p3554
aVIBM
p3555
aVADP
p3556
aVCXO
p3557
aVMHK
p3558
aVADS
p3559
aVITW
p3560
aVBA
p3561
aVAPD
p3562
aVCELG
p3563
aVPH
p3564
aVINTU
p3565
aVLRCX
p3566
aVEOG
p3567
aVFISV
p3568
aVNEE
p3569
aVBXP
p3570
aVRTN
p3571
aVDLR
p3572
aVADBE
p3573
aVTMO
p3574
aVSPGI
p3575
aVBIIB
p3576
aVTDG
p3577
aVAMGN
p3578
aVBCR
p3579
aVSHW
p3580
aVEQIX
p3581
aVZBH
p3582
aVALXN
p3583
aVGOOGL
p3584
aVILMN
p3585
aVPCLN
p3586
asS'07072016'
p3587
(lp3588
VHUM
p3589
aVCXO
p3590
aVAVGO
p3591
aVPCLN
p3592
aVAET
p3593
aVTDG
p3594
aVPXD
p3595
aVACN
p3596
aVCMI
p3597
aVPPG
p3598
aVXEC
p3599
aVBLK
p3600
aVTAP
p3601
aVUHS
p3602
aVSPGI
p3603
aVBRK-B
p3604
aVPX
p3605
aVLLL
p3606
aVIBM
p3607
aVSRE
p3608
aVSWK
p3609
aVSRCL
p3610
aVILMN
p3611
aVFISV
p3612
aVDLR
p3613
aVBXP
p3614
aVZBH
p3615
aVMKC
p3616
aVAYI
p3617
aVGPC
p3618
aVAAP
p3619
aVINTU
p3620
aVWAT
p3621
aVGWW
p3622
aVALXN
p3623
aVGOOGL
p3624
aVGOOG
p3625
aVSTZ
p3626
aVHSY
p3627
aVORLY
p3628
aVCMG
p3629
aVSHW
p3630
aVBIIB
p3631
asS'04222016'
p3632
(lp3633
VGOOGL
p3634
aVGOOG
p3635
aVAVGO
p3636
aVEQIX
p3637
aVGWW
p3638
aVKMB
p3639
aVIBM
p3640
aVFRT
p3641
aVSIG
p3642
aVWHR
p3643
aVSTZ
p3644
aVNEE
p3645
aVPPG
p3646
aVORLY
p3647
aVACN
p3648
aVMHK
p3649
aVSJM
p3650
aVCVS
p3651
aVPRGO
p3652
aVHD
p3653
aVFB
p3654
aVSHW
p3655
aVEFX
p3656
aVLMT
p3657
aVBCR
p3658
aVHSIC
p3659
aVHON
p3660
aVEW
p3661
aVRTN
p3662
aVLH
p3663
aVBDX
p3664
aVUHS
p3665
aVZBH
p3666
aVSWK
p3667
aVMCO
p3668
aVAET
p3669
aVAYI
p3670
aVPX
p3671
aVXEC
p3672
aVSPGI
p3673
aVCMI
p3674
aVLLL
p3675
aVPXD
p3676
aVUNH
p3677
aVDIS
p3678
aVICE
p3679
aVALXN
p3680
aVMCK
p3681
aVBLK
p3682
asS'06302016'
p3683
(lp3684
VPCLN
p3685
aVGOOGL
p3686
aVGOOG
p3687
aVADS
p3688
aVWHR
p3689
aVALXN
p3690
aVBLK
p3691
aVPXD
p3692
aVACN
p3693
aVCXO
p3694
aVAYI
p3695
aVCMI
p3696
aVPPG
p3697
aVIBM
p3698
aVLLL
p3699
aVAET
p3700
aVHON
p3701
aVMCK
p3702
aVPX
p3703
aVXEC
p3704
aVFISV
p3705
aVGS
p3706
aVCVX
p3707
aVBRK-B
p3708
aVINTU
p3709
aVGWW
p3710
aVBIIB
p3711
aVDLR
p3712
aVMKC
p3713
aVBXP
p3714
aVAAP
p3715
aVSTZ
p3716
aVORLY
p3717
aVCMG
p3718
aVPSA
p3719
asS'01132016'
p3720
(lp3721
VAMZN
p3722
aVREGN
p3723
aVGOOG
p3724
aVAYI
p3725
aVBIIB
p3726
aVVRTX
p3727
aVAVGO
p3728
aVGWW
p3729
aVHUM
p3730
aVBA
p3731
aVHSIC
p3732
aVWHR
p3733
aVLH
p3734
aVHD
p3735
aVAPD
p3736
aVULTA
p3737
aVUNH
p3738
aVGD
p3739
aVTRV
p3740
aVPXD
p3741
aVSJM
p3742
aVNOC
p3743
aVAET
p3744
aVLLL
p3745
aVIFF
p3746
aVICE
p3747
aVLMT
p3748
aVPRGO
p3749
aVEQIX
p3750
asS'05092016'
p3751
(lp3752
VPCLN
p3753
aVAMG
p3754
aVAYI
p3755
aVBLK
p3756
aVGOOGL
p3757
aVGOOG
p3758
aVALXN
p3759
aVWHR
p3760
aVSHW
p3761
aVAVGO
p3762
aVFDX
p3763
aVGS
p3764
aVEW
p3765
aVPPG
p3766
aVPX
p3767
aVMCK
p3768
aVCMI
p3769
aVPXD
p3770
aVMHK
p3771
aVGWW
p3772
aVCXO
p3773
aVORLY
p3774
aVSWK
p3775
aVSNA
p3776
aVCVX
p3777
aVHON
p3778
aVXEC
p3779
aVZBH
p3780
aVSIG
p3781
aVACN
p3782
aVILMN
p3783
aVADS
p3784
aVHD
p3785
aVSYK
p3786
aVAET
p3787
aVUHS
p3788
aVSJM
p3789
aVBDX
p3790
aVCVS
p3791
aVBCR
p3792
aVFRT
p3793
aVFB
p3794
aVEQIX
p3795
aVNOC
p3796
aVICE
p3797
aVCMG
p3798
asS'10282016'
p3799
(lp3800
VCMG
p3801
aVSHW
p3802
aVORLY
p3803
aVLH
p3804
aVAYI
p3805
aVAGN
p3806
aVBLK
p3807
aVXEC
p3808
aVLLL
p3809
aVBCR
p3810
aVILMN
p3811
aVZBH
p3812
aVROP
p3813
aVTMO
p3814
aVBDX
p3815
aVAMG
p3816
aVADS
p3817
aVAAPL
p3818
aVPCLN
p3819
aVPSA
p3820
aVADBE
p3821
aVPH
p3822
aVSYK
p3823
aVCMI
p3824
aVCTAS
p3825
aVAAP
p3826
aVHUM
p3827
aVCVX
p3828
aVIBM
p3829
aVGOOGL
p3830
aVFB
p3831
aVINTU
p3832
aVSRE
p3833
aVMA
p3834
aVNEE
p3835
aVUTX
p3836
aVGOOG
p3837
aVSNA
p3838
aVAPD
p3839
aVGS
p3840
aVFFIV
p3841
aVALXN
p3842
asS'02012016'
p3843
(lp3844
VREGN
p3845
aVILMN
p3846
aVWAT
p3847
aVLMT
p3848
aVAYI
p3849
aVHUM
p3850
aVULTA
p3851
aVNOC
p3852
aVLH
p3853
aVBIIB
p3854
aVUNH
p3855
aVEFX
p3856
aVNEE
p3857
aVEQIX
p3858
aVLLL
p3859
aVHSIC
p3860
aVACN
p3861
aVBCR
p3862
aVSJM
p3863
aVGS
p3864
aVGD
p3865
aVAMG
p3866
aVAVGO
p3867
aVAPD
p3868
aVGOOG
p3869
aVGOOGL
p3870
asS'10072016'
p3871
(lp3872
VAYI
p3873
aVSPG
p3874
aVAPD
p3875
aVBXP
p3876
aVBLK
p3877
aVPSA
p3878
aVSRE
p3879
aVNEE
p3880
aVGOOG
p3881
aVBCR
p3882
aVPPG
p3883
aVADS
p3884
aVSHW
p3885
aVEFX
p3886
aVBDX
p3887
aVFB
p3888
aVAAPL
p3889
aVALXN
p3890
aVEW
p3891
aVMA
p3892
aVSYK
p3893
aVAON
p3894
aVUTX
p3895
aVADBE
p3896
aVAGN
p3897
aVLLL
p3898
aVWAT
p3899
aVAMP
p3900
aVPH
p3901
aVPX
p3902
aVCVX
p3903
aVTMO
p3904
aVILMN
p3905
aVGS
p3906
aVPVH
p3907
aVFFIV
p3908
aVSTZ
p3909
aVNFLX
p3910
aVPCLN
p3911
aVCMI
p3912
aVAMG
p3913
aVXEC
p3914
asS'01042017'
p3915
(lp3916
VPCLN
p3917
aVGS
p3918
aVBLK
p3919
aVFDX
p3920
aVAAP
p3921
aVGOOGL
p3922
aVMLM
p3923
aVAPD
p3924
aVLLL
p3925
aVAMZN
p3926
aVNVDA
p3927
aVURI
p3928
aVPRU
p3929
aVAMG
p3930
aVCXO
p3931
aVPH
p3932
aVAVGO
p3933
aVORLY
p3934
aVCMG
p3935
aVHRS
p3936
aVEOG
p3937
aVAMP
p3938
aVCVX
p3939
aVADS
p3940
aVAYI
p3941
aVBA
p3942
aVIBM
p3943
aVMMM
p3944
aVLRCX
p3945
aVSWK
p3946
aVFISV
p3947
aVDIS
p3948
aVADBE
p3949
aVAON
p3950
aVBDX
p3951
aVFB
p3952
aVWAT
p3953
aVRTN
p3954
aVWHR
p3955
aVCLX
p3956
aVSHW
p3957
aVBXP
p3958
aVZBH
p3959
aVTMO
p3960
aVSPG
p3961
aVPSA
p3962
aVALXN
p3963
aVSTZ
p3964
aVTDG
p3965
aVILMN
p3966
asS'10062016'
p3967
(lp3968
VSPG
p3969
aVAYI
p3970
aVAPD
p3971
aVGOOGL
p3972
aVBLK
p3973
aVNEE
p3974
aVPSA
p3975
aVBCR
p3976
aVSRE
p3977
aVCME
p3978
aVGOOG
p3979
aVALXN
p3980
aVFB
p3981
aVAMT
p3982
aVAAPL
p3983
aVBDX
p3984
aVAGN
p3985
aVSHW
p3986
aVEW
p3987
aVADS
p3988
aVINTU
p3989
aVGS
p3990
aVMA
p3991
aVPPG
p3992
aVSYK
p3993
aVLH
p3994
aVWAT
p3995
aVLLL
p3996
aVUTX
p3997
aVHUM
p3998
aVADBE
p3999
aVAMP
p4000
aVPVH
p4001
aVPH
p4002
aVCVX
p4003
aVAAP
p4004
aVSNA
p4005
aVZBH
p4006
aVILMN
p4007
aVTMO
p4008
aVSTZ
p4009
aVNFLX
p4010
aVCMI
p4011
aVPCLN
p4012
asS'11302016'
p4013
(lp4014
VPCLN
p4015
aVVMC
p4016
aVTMO
p4017
aVSPGI
p4018
aVSNA
p4019
aVPVH
p4020
aVPNC
p4021
aVADBE
p4022
aVROK
p4023
aVPH
p4024
aVBLK
p4025
aVBCR
p4026
aVUTX
p4027
aVCVX
p4028
aVTDG
p4029
aVBDX
p4030
aVMMM
p4031
aVNEE
p4032
aVSTZ
p4033
aVAMP
p4034
aVMHK
p4035
aVFB
p4036
aVPSA
p4037
aVGS
p4038
aVFISV
p4039
aVRTN
p4040
aVWHR
p4041
aVFDX
p4042
aVIBM
p4043
aVUNP
p4044
aVHAR
p4045
aVPX
p4046
aVCMG
p4047
aVCXO
p4048
aVAYI
p4049
aVAGN
p4050
aVGOOGL
p4051
aVAPD
p4052
aVXEC
p4053
aVILMN
p4054
aVLLL
p4055
aVORLY
p4056
aVAMZN
p4057
aVADS
p4058
aVSHW
p4059
asS'07142016'
p4060
(lp4061
VHUM
p4062
aVDLR
p4063
aVAET
p4064
aVMKC
p4065
aVSRE
p4066
aVFRT
p4067
aVLLL
p4068
aVCXO
p4069
aVSTZ
p4070
aVFISV
p4071
aVCVX
p4072
aVDIS
p4073
aVAAP
p4074
aVGPC
p4075
aVSRCL
p4076
aVACN
p4077
aVORLY
p4078
aVINTU
p4079
aVBXP
p4080
aVTDG
p4081
aVEFX
p4082
aVPPG
p4083
aVPSA
p4084
aVPX
p4085
aVPH
p4086
aVIBM
p4087
aVSPGI
p4088
aVEW
p4089
aVWHR
p4090
aVWAT
p4091
aVGWW
p4092
aVMCK
p4093
aVALXN
p4094
aVSHW
p4095
aVAYI
p4096
aVBIIB
p4097
aVBLK
p4098
aVPCLN
p4099
asS'08102016'
p4100
(lp4101
VPSA
p4102
aVSPG
p4103
aVFRT
p4104
aVFISV
p4105
aVSRE
p4106
aVDLR
p4107
aVSHW
p4108
aVAGN
p4109
aVEFX
p4110
aVAAP
p4111
aVNEE
p4112
aVBDX
p4113
aVSYK
p4114
aVMKC
p4115
aVCVX
p4116
aVIBM
p4117
aVKMB
p4118
aVINTU
p4119
aVAPD
p4120
aVSTZ
p4121
aVWAT
p4122
aVPPG
p4123
aVGPC
p4124
aVLLL
p4125
aVCME
p4126
aVEW
p4127
aVBLK
p4128
aVORLY
p4129
aVACN
p4130
aVWYNN
p4131
aVZBH
p4132
aVILMN
p4133
aVAMG
p4134
aVCMI
p4135
aVVRTX
p4136
aVTDG
p4137
aVAYI
p4138
aVALXN
p4139
aVPH
p4140
aVBIIB
p4141
aVHUM
p4142
aVPCLN
p4143
asS'12142016'
p4144
(lp4145
VCMG
p4146
aVRTN
p4147
aVAYI
p4148
aVRL
p4149
aVHAR
p4150
aVVMC
p4151
aVPVH
p4152
aVAMP
p4153
aVPH
p4154
aVHRS
p4155
aVROK
p4156
aVPRU
p4157
aVPNC
p4158
aVLRCX
p4159
aVADS
p4160
aVURI
p4161
aVLLL
p4162
aVSHW
p4163
aVAON
p4164
aVUNP
p4165
aVSNA
p4166
aVFISV
p4167
aVUTX
p4168
aVCXO
p4169
aVILMN
p4170
aVFDX
p4171
aVCVX
p4172
aVMHK
p4173
aVROP
p4174
aVORLY
p4175
aVPX
p4176
aVAPD
p4177
aVIBM
p4178
aVEOG
p4179
aVADBE
p4180
aVTDG
p4181
aVXEC
p4182
aVFB
p4183
aVNEE
p4184
aVAMG
p4185
aVPSA
p4186
aVSTZ
p4187
aVWHR
p4188
aVZBH
p4189
aVBLK
p4190
aVPCLN
p4191
aVAMZN
p4192
aVGOOGL
p4193
asS'12142015'
p4194
(lp4195
VAMZN
p4196
aVGOOG
p4197
aVREGN
p4198
aVICE
p4199
aVAZO
p4200
aVXEC
p4201
aVVRTX
p4202
aVORLY
p4203
aVPPG
p4204
aVDIS
p4205
aVMNST
p4206
aVEQIX
p4207
aVAVB
p4208
aVGD
p4209
aVCXO
p4210
aVHON
p4211
aVSTZ
p4212
aVIFF
p4213
aVNKE
p4214
aVBA
p4215
aVGILD
p4216
aVWAT
p4217
aVFB
p4218
aVHD
p4219
aVLH
p4220
aVBIIB
p4221
aVNOC
p4222
aVAYI
p4223
aVUHS
p4224
aVROK
p4225
aVRTN
p4226
aVBCR
p4227
aVMCD
p4228
aVCELG
p4229
aVUNH
p4230
aVSRCL
p4231
aVABC
p4232
aVAET
p4233
aVAVGO
p4234
aVHUM
p4235
asS'05202016'
p4236
(lp4237
VPCLN
p4238
aVGWW
p4239
aVBLK
p4240
aVCMI
p4241
aVORLY
p4242
aVSTZ
p4243
aVESS
p4244
aVGS
p4245
aVAYI
p4246
aVAMG
p4247
aVSHW
p4248
aVPXD
p4249
aVMHK
p4250
aVPX
p4251
aVPSA
p4252
aVFRT
p4253
aVHD
p4254
aVFDX
p4255
aVUHS
p4256
aVCVX
p4257
aVPPG
p4258
aVFB
p4259
aVCXO
p4260
aVAET
p4261
aVBCR
p4262
aVHON
p4263
aVSYK
p4264
aVIBM
p4265
aVACN
p4266
aVFISV
p4267
aVXEC
p4268
aVEQIX
p4269
aVSIG
p4270
aVGOOGL
p4271
aVGOOG
p4272
aVROP
p4273
aVMCK
p4274
aVTDG
p4275
asS'07122016'
p4276
(lp4277
VHUM
p4278
aVAET
p4279
aVCXO
p4280
aVDLR
p4281
aVMKC
p4282
aVXEC
p4283
aVLLL
p4284
aVACN
p4285
aVCVX
p4286
aVMTB
p4287
aVPM
p4288
aVAVGO
p4289
aVFISV
p4290
aVSRCL
p4291
aVFRT
p4292
aVPPG
p4293
aVAAP
p4294
aVBXP
p4295
aVIBM
p4296
aVCMI
p4297
aVHSY
p4298
aVSTZ
p4299
aVAPD
p4300
aVZBH
p4301
aVINTU
p4302
aVORLY
p4303
aVEW
p4304
aVWAT
p4305
aVGWW
p4306
aVGS
p4307
aVALXN
p4308
aVSHW
p4309
aVISRG
p4310
aVADS
p4311
aVBLK
p4312
aVAYI
p4313
aVCMG
p4314
aVBIIB
p4315
aVGOOG
p4316
aVPCLN
p4317
asS'11142016'
p4318
(lp4319
VAMZN
p4320
aVGOOGL
p4321
aVEQIX
p4322
aVSTZ
p4323
aVNEE
p4324
aVIFF
p4325
aVFB
p4326
aVALXN
p4327
aVADBE
p4328
aVSYK
p4329
aVBCR
p4330
aVXEC
p4331
aVTDG
p4332
aVMA
p4333
aVORLY
p4334
aVCVX
p4335
aVSPGI
p4336
aVINTU
p4337
aVUTX
p4338
aVFFIV
p4339
aVAPD
p4340
aVILMN
p4341
aVFDX
p4342
aVNSC
p4343
aVAMG
p4344
aVROP
p4345
aVPNC
p4346
aVADS
p4347
aVITW
p4348
aVSNA
p4349
aVHRS
p4350
aVRTN
p4351
aVWHR
p4352
aVLLL
p4353
aVPH
p4354
aVSHW
p4355
aVGWW
p4356
aVAMP
p4357
aVGS
p4358
aVHUM
p4359
aVBLK
p4360
aVCMG
p4361
aVAYI
p4362
aVPCLN
p4363
asS'03182016'
p4364
(lp4365
VCMG
p4366
aVAGN
p4367
aVALXN
p4368
aVAZO
p4369
aVREGN
p4370
aVBCR
p4371
aVMCK
p4372
aVGD
p4373
aVRTN
p4374
aVSJM
p4375
aVAET
p4376
aVCVS
p4377
aVUHS
p4378
aVKMB
p4379
aVTRV
p4380
aVCMI
p4381
aVEFX
p4382
aVACN
p4383
aVPRGO
p4384
aVGS
p4385
aVAYI
p4386
aVCXO
p4387
aVPCLN
p4388
aVMNST
p4389
aVEQIX
p4390
aVSIG
p4391
aVPXD
p4392
aVWHR
p4393
aVBA
p4394
aVFDX
p4395
aVULTA
p4396
aVGOOGL
p4397
aVGOOG
p4398
asS'12152016'
p4399
(lp4400
VRL
p4401
aVCMG
p4402
aVAYI
p4403
aVPVH
p4404
aVPCLN
p4405
aVRTN
p4406
aVHAR
p4407
aVAMP
p4408
aVPH
p4409
aVROK
p4410
aVADS
p4411
aVURI
p4412
aVLLL
p4413
aVSHW
p4414
aVPNC
p4415
aVFFIV
p4416
aVPRU
p4417
aVSWK
p4418
aVAON
p4419
aVLRCX
p4420
aVCXO
p4421
aVUNP
p4422
aVUTX
p4423
aVSNA
p4424
aVFDX
p4425
aVFISV
p4426
aVMHK
p4427
aVAMG
p4428
aVCVX
p4429
aVEOG
p4430
aVORLY
p4431
aVAPD
p4432
aVBDX
p4433
aVIBM
p4434
aVADBE
p4435
aVNEE
p4436
aVFB
p4437
aVILMN
p4438
aVPSA
p4439
aVWHR
p4440
aVTDG
p4441
aVZBH
p4442
aVSTZ
p4443
aVBLK
p4444
aVAGN
p4445
aVAMZN
p4446
aVGOOGL
p4447
asS'11232016'
p4448
(lp4449
VTDG
p4450
aVPSA
p4451
aVTMO
p4452
aVNEE
p4453
aVSPGI
p4454
aVBCR
p4455
aVGOOG
p4456
aVGOOGL
p4457
aVAGN
p4458
aVBDX
p4459
aVADBE
p4460
aVMA
p4461
aVFFIV
p4462
aVSTZ
p4463
aVPX
p4464
aVPVH
p4465
aVFB
p4466
aVUTX
p4467
aVROK
p4468
aVCVX
p4469
aVRTN
p4470
aVPCLN
p4471
aVEQIX
p4472
aVPRU
p4473
aVPH
p4474
aVSNA
p4475
aVBRK-B
p4476
aVFDX
p4477
aVIBM
p4478
aVXEC
p4479
aVBIIB
p4480
aVINTU
p4481
aVAMGN
p4482
aVWHR
p4483
aVILMN
p4484
aVROP
p4485
aVCXO
p4486
aVLLL
p4487
aVGS
p4488
aVAMP
p4489
aVBLK
p4490
aVHAR
p4491
aVAYI
p4492
aVHUM
p4493
aVSHW
p4494
aVADS
p4495
aVCMG
p4496
aVAMZN
p4497
asS'12152015'
p4498
(lp4499
VAMZN
p4500
aVGOOG
p4501
aVICE
p4502
aVREGN
p4503
aVVRTX
p4504
aVORLY
p4505
aVXEC
p4506
aVEQIX
p4507
aVMNST
p4508
aVPX
p4509
aVLLL
p4510
aVGD
p4511
aVSTZ
p4512
aVAVB
p4513
aVIFF
p4514
aVNKE
p4515
aVFB
p4516
aVBA
p4517
aVGILD
p4518
aVROK
p4519
aVWAT
p4520
aVLH
p4521
aVAYI
p4522
aVNOC
p4523
aVACN
p4524
aVUHS
p4525
aVRTN
p4526
aVGWW
p4527
aVBIIB
p4528
aVBCR
p4529
aVUNH
p4530
aVCELG
p4531
aVSRCL
p4532
aVAVGO
p4533
aVAET
p4534
aVHUM
p4535
asS'07202016'
p4536
(lp4537
VHUM
p4538
aVDLR
p4539
aVBCR
p4540
aVGWW
p4541
aVORLY
p4542
aVGPC
p4543
aVAET
p4544
aVSRE
p4545
aVMKC
p4546
aVFRT
p4547
aVPSA
p4548
aVLLL
p4549
aVAAP
p4550
aVINTU
p4551
aVSTZ
p4552
aVCVX
p4553
aVXEC
p4554
aVUHS
p4555
aVFISV
p4556
aVAON
p4557
aVACN
p4558
aVCXO
p4559
aVSRCL
p4560
aVZBH
p4561
aVCELG
p4562
aVUTX
p4563
aVCME
p4564
aVCMI
p4565
aVPXD
p4566
aVEW
p4567
aVLMT
p4568
aVTDG
p4569
aVPX
p4570
aVROP
p4571
aVPPG
p4572
aVWAT
p4573
aVMCD
p4574
aVIBM
p4575
aVAVGO
p4576
aVTMO
p4577
aVAPD
p4578
aVSPGI
p4579
aVSHW
p4580
aVILMN
p4581
aVMHK
p4582
aVAYI
p4583
aVALXN
p4584
aVGS
p4585
aVBLK
p4586
aVBIIB
p4587
aVPCLN
p4588
aVGOOGL
p4589
asS'03282016'
p4590
(lp4591
VCMG
p4592
aVAYI
p4593
aVSHW
p4594
aVCXO
p4595
aVKMB
p4596
aVAET
p4597
aVMCK
p4598
aVMHK
p4599
aVFISV
p4600
aVCMI
p4601
aVCVS
p4602
aVRTN
p4603
aVPXD
p4604
aVBIIB
p4605
aVALXN
p4606
aVBCR
p4607
aVAZO
p4608
aVFFIV
p4609
aVEFX
p4610
aVWHR
p4611
aVAVGO
p4612
aVSWK
p4613
aVADS
p4614
aVESS
p4615
aVROP
p4616
aVREGN
p4617
aVACN
p4618
aVBA
p4619
aVEQIX
p4620
aVGOOGL
p4621
aVFDX
p4622
aVGOOG
p4623
asS'01192017'
p4624
(lp4625
VGS
p4626
aVAYI
p4627
aVBLK
p4628
aVPSA
p4629
aVNVDA
p4630
aVADS
p4631
aVORLY
p4632
aVCELG
p4633
aVAMG
p4634
aVFDX
p4635
aVCVX
p4636
aVWHR
p4637
aVPRU
p4638
aVIBM
p4639
aVURI
p4640
aVADP
p4641
aVBA
p4642
aVLLL
p4643
aVMLM
p4644
aVUTX
p4645
aVAAP
p4646
aVCLX
p4647
aVAPD
p4648
aVMHK
p4649
aVCXO
p4650
aVEOG
p4651
aVFISV
p4652
aVBXP
p4653
aVITW
p4654
aVSTZ
p4655
aVAMGN
p4656
aVRTN
p4657
aVDLR
p4658
aVTDG
p4659
aVGOOGL
p4660
aVSHW
p4661
aVSPGI
p4662
aVFB
p4663
aVEQIX
p4664
aVZBH
p4665
aVCMG
p4666
aVILMN
p4667
aVPCLN
p4668
asS'04012016'
p4669
(lp4670
VCMG
p4671
aVAGN
p4672
aVCXO
p4673
aVSHW
p4674
aVAYI
p4675
aVPXD
p4676
aVPRGO
p4677
aVCMI
p4678
aVAET
p4679
aVKMB
p4680
aVHON
p4681
aVWHR
p4682
aVAVGO
p4683
aVMHK
p4684
aVAMG
p4685
aVMCK
p4686
aVIBM
p4687
aVCVS
p4688
aVPPG
p4689
aVFISV
p4690
aVFDX
p4691
aVEFX
p4692
aVSWK
p4693
aVGWW
p4694
aVROP
p4695
aVICE
p4696
aVNFLX
p4697
aVBCR
p4698
aVESS
p4699
aVACN
p4700
aVEQIX
p4701
aVGOOGL
p4702
aVGOOG
p4703
aVREGN
p4704
asS'11282016'
p4705
(lp4706
VTMO
p4707
aVVMC
p4708
aVSPGI
p4709
aVBCR
p4710
aVPCLN
p4711
aVPSA
p4712
aVNEE
p4713
aVADBE
p4714
aVEXPE
p4715
aVROK
p4716
aVBDX
p4717
aVAGN
p4718
aVPVH
p4719
aVTDG
p4720
aVPRU
p4721
aVUTX
p4722
aVCVX
p4723
aVPH
p4724
aVBRK-B
p4725
aVPX
p4726
aVSNA
p4727
aVXEC
p4728
aVCXO
p4729
aVFB
p4730
aVSTZ
p4731
aVRTN
p4732
aVRL
p4733
aVGS
p4734
aVFDX
p4735
aVGOOGL
p4736
aVWHR
p4737
aVIBM
p4738
aVUNP
p4739
aVBLK
p4740
aVFISV
p4741
aVMHK
p4742
aVAMP
p4743
aVAMGN
p4744
aVZBH
p4745
aVILMN
p4746
aVEQIX
p4747
aVHAR
p4748
aVLLL
p4749
aVAYI
p4750
aVORLY
p4751
aVWYNN
p4752
aVCMG
p4753
aVSHW
p4754
aVADS
p4755
aVAMZN
p4756
asS'12092015'
p4757
(lp4758
VAMZN
p4759
aVREGN
p4760
aVGOOG
p4761
aVXEC
p4762
aVORLY
p4763
aVVRTX
p4764
aVAZO
p4765
aVDIS
p4766
aVAYI
p4767
aVLLL
p4768
aVBA
p4769
aVGD
p4770
aVGILD
p4771
aVFB
p4772
aVNOC
p4773
aVMNST
p4774
aVUHS
p4775
aVSNA
p4776
aVNKE
p4777
aVRTN
p4778
aVAAPL
p4779
aVSTZ
p4780
aVACN
p4781
aVGWW
p4782
aVLH
p4783
aVIFF
p4784
aVCELG
p4785
aVAET
p4786
aVMHK
p4787
aVUNH
p4788
aVHUM
p4789
aVAVGO
p4790
asS'02222016'
p4791
(lp4792
VULTA
p4793
aVSTZ
p4794
aVFB
p4795
aVKMB
p4796
aVICE
p4797
aVAPD
p4798
aVLLL
p4799
aVUHS
p4800
aVHON
p4801
aVTRV
p4802
aVGS
p4803
aVBCR
p4804
aVEFX
p4805
aVGD
p4806
aVNOC
p4807
aVAVGO
p4808
aVAET
p4809
aVLH
p4810
aVMNST
p4811
aVPXD
p4812
aVEQIX
p4813
aVMCK
p4814
aVGOOG
p4815
aVPSA
p4816
aVAGN
p4817
aVESS
p4818
aVBIIB
p4819
aVALXN
p4820
aVHSIC
p4821
aVAYI
p4822
aVREGN
p4823
aVAZO
p4824
aVAMZN
p4825
asS'11112016'
p4826
(lp4827
VAMZN
p4828
aVGOOGL
p4829
aVEQIX
p4830
aVSTZ
p4831
aVZBH
p4832
aVNEE
p4833
aVIFF
p4834
aVAMT
p4835
aVFB
p4836
aVALXN
p4837
aVXEC
p4838
aVADBE
p4839
aVCXO
p4840
aVORLY
p4841
aVFISV
p4842
aVCVX
p4843
aVSPGI
p4844
aVINTU
p4845
aVPVH
p4846
aVTDG
p4847
aVAAP
p4848
aVUTX
p4849
aVFDX
p4850
aVFFIV
p4851
aVPNC
p4852
aVILMN
p4853
aVAMG
p4854
aVADS
p4855
aVAPD
p4856
aVPSA
p4857
aVROP
p4858
aVSNA
p4859
aVITW
p4860
aVHRS
p4861
aVRTN
p4862
aVPH
p4863
aVSHW
p4864
aVAMP
p4865
aVHUM
p4866
aVCMG
p4867
aVGWW
p4868
aVAYI
p4869
aVBLK
p4870
aVPCLN
p4871
asS'12092016'
p4872
(lp4873
VCMG
p4874
aVHAR
p4875
aVAYI
p4876
aVRTN
p4877
aVSPGI
p4878
aVILMN
p4879
aVFISV
p4880
aVPH
p4881
aVPVH
p4882
aVPRU
p4883
aVROP
p4884
aVADBE
p4885
aVROK
p4886
aVMHK
p4887
aVLLL
p4888
aVSNA
p4889
aVFDX
p4890
aVIBM
p4891
aVSHW
p4892
aVCVX
p4893
aVUNP
p4894
aVSTZ
p4895
aVTDG
p4896
aVFB
p4897
aVTMO
p4898
aVADS
p4899
aVECL
p4900
aVNFLX
p4901
aVPX
p4902
aVNEE
p4903
aVURI
p4904
aVBCR
p4905
aVORLY
p4906
aVCXO
p4907
aVAPD
p4908
aVEOG
p4909
aVBLK
p4910
aVZBH
p4911
aVXEC
p4912
aVAMG
p4913
aVGS
p4914
aVPSA
p4915
aVEQIX
p4916
aVAMZN
p4917
aVGOOGL
p4918
asS'06012016'
p4919
(lp4920
VPXD
p4921
aVCMG
p4922
aVSTZ
p4923
aVBCR
p4924
aVEW
p4925
aVXEC
p4926
aVSHW
p4927
aVSWK
p4928
aVFB
p4929
aVPX
p4930
aVBRK-B
p4931
aVFRT
p4932
aVSYK
p4933
aVCXO
p4934
aVUTX
p4935
aVACN
p4936
aVFISV
p4937
aVPPG
p4938
aVGWW
p4939
aVITW
p4940
aVMHK
p4941
aVUNH
p4942
aVAYI
p4943
aVADBE
p4944
aVTRV
p4945
aVIBM
p4946
aVMCK
p4947
aVWHR
p4948
aVAMG
p4949
aVBLK
p4950
aVORLY
p4951
aVAAPL
p4952
aVAAP
p4953
aVMON
p4954
aVALXN
p4955
aVEQIX
p4956
aVNFLX
p4957
aVREGN
p4958
aVGOOG
p4959
aVGOOGL
p4960
asS'04252016'
p4961
(lp4962
VGOOGL
p4963
aVGOOG
p4964
aVPRGO
p4965
aVAVGO
p4966
aVKMB
p4967
aVGWW
p4968
aVADS
p4969
aVEQIX
p4970
aVWHR
p4971
aVSIG
p4972
aVIBM
p4973
aVFRT
p4974
aVPPG
p4975
aVSTZ
p4976
aVACN
p4977
aVMHK
p4978
aVAYI
p4979
aVFB
p4980
aVSHW
p4981
aVBCR
p4982
aVLMT
p4983
aVHON
p4984
aVEFX
p4985
aVHD
p4986
aVEW
p4987
aVUHS
p4988
aVXEC
p4989
aVBDX
p4990
aVCMG
p4991
aVSWK
p4992
aVCMI
p4993
aVWAT
p4994
aVPX
p4995
aVSPGI
p4996
aVAET
p4997
aVPXD
p4998
aVLLL
p4999
aVCELG
p5000
aVCXO
p5001
aVICE
p5002
aVALXN
p5003
aVMCK
p5004
aVBLK
p5005
asS'06272016'
p5006
(lp5007
VPCLN
p5008
aVGOOGL
p5009
aVGOOG
p5010
aVBLK
p5011
aVALXN
p5012
aVBIIB
p5013
aVWHR
p5014
aVAYI
p5015
aVMHK
p5016
aVWYNN
p5017
aVPXD
p5018
aVACN
p5019
aVMCO
p5020
aVLLL
p5021
aVIBM
p5022
aVAPD
p5023
aVXEC
p5024
aVAET
p5025
aVPPG
p5026
aVCXO
p5027
aVEXPE
p5028
aVFISV
p5029
aVZBH
p5030
aVPM
p5031
aVCMG
p5032
aVROP
p5033
aVDHR
p5034
aVHD
p5035
aVKMB
p5036
aVDLR
p5037
aVAAP
p5038
aVMKC
p5039
aVSRCL
p5040
aVPSA
p5041
aVORLY
p5042
asS'03022016'
p5043
(lp5044
VKMB
p5045
aVHON
p5046
aVAPD
p5047
aVBCR
p5048
aVHSIC
p5049
aVLMT
p5050
aVACN
p5051
aVAET
p5052
aVMNST
p5053
aVEFX
p5054
aVBA
p5055
aVPXD
p5056
aVFDX
p5057
aVGS
p5058
aVALXN
p5059
aVEQIX
p5060
aVWHR
p5061
aVSHW
p5062
aVESS
p5063
aVGOOGL
p5064
aVMHK
p5065
aVGOOG
p5066
aVAZO
p5067
aVAYI
p5068
aVREGN
p5069
asS'11222016'
p5070
(lp5071
VTDG
p5072
aVPSA
p5073
aVNEE
p5074
aVAGN
p5075
aVTMO
p5076
aVGOOGL
p5077
aVSPGI
p5078
aVGOOG
p5079
aVBCR
p5080
aVIFF
p5081
aVADBE
p5082
aVPX
p5083
aVFB
p5084
aVSTZ
p5085
aVFFIV
p5086
aVPVH
p5087
aVUTX
p5088
aVEQIX
p5089
aVCVX
p5090
aVROK
p5091
aVRTN
p5092
aVXEC
p5093
aVFDX
p5094
aVAPD
p5095
aVPH
p5096
aVFISV
p5097
aVIBM
p5098
aVSNA
p5099
aVCXO
p5100
aVINTU
p5101
aVAMG
p5102
aVAMGN
p5103
aVLRCX
p5104
aVWHR
p5105
aVILMN
p5106
aVROP
p5107
aVCTAS
p5108
aVPCLN
p5109
aVLLL
p5110
aVGS
p5111
aVAMP
p5112
aVBLK
p5113
aVHUM
p5114
aVSHW
p5115
aVHAR
p5116
aVAYI
p5117
aVADS
p5118
aVCMG
p5119
asS'01282016'
p5120
(lp5121
VREGN
p5122
aVAYI
p5123
aVILMN
p5124
aVBIIB
p5125
aVNOC
p5126
aVHUM
p5127
aVWAT
p5128
aVBA
p5129
aVAET
p5130
aVULTA
p5131
aVTMO
p5132
aVIFF
p5133
aVLH
p5134
aVAVGO
p5135
aVLLL
p5136
aVEFX
p5137
aVHSIC
p5138
aVGS
p5139
aVNEE
p5140
aVUNH
p5141
aVGWW
p5142
aVGD
p5143
aVAPD
p5144
aVBCR
p5145
aVACN
p5146
aVAMG
p5147
aVWHR
p5148
aVSJM
p5149
aVICE
p5150
aVGOOG
p5151
aVORLY
p5152
aVAMZN
p5153
asS'12082016'
p5154
(lp5155
VCMG
p5156
aVUHS
p5157
aVSPGI
p5158
aVBDX
p5159
aVAYI
p5160
aVILMN
p5161
aVRTN
p5162
aVFISV
p5163
aVAMT
p5164
aVSWK
p5165
aVSNA
p5166
aVROP
p5167
aVADBE
p5168
aVSTZ
p5169
aVIBM
p5170
aVMHK
p5171
aVPRU
p5172
aVTMO
p5173
aVROK
p5174
aVPVH
p5175
aVCVX
p5176
aVFB
p5177
aVSHW
p5178
aVBCR
p5179
aVFDX
p5180
aVPCLN
p5181
aVTDG
p5182
aVUNP
p5183
aVLLL
p5184
aVECL
p5185
aVPX
p5186
aVNEE
p5187
aVADS
p5188
aVURI
p5189
aVAPD
p5190
aVEOG
p5191
aVBLK
p5192
aVCXO
p5193
aVWHR
p5194
aVORLY
p5195
aVZBH
p5196
aVEQIX
p5197
aVAMG
p5198
aVGS
p5199
aVPSA
p5200
aVXEC
p5201
aVAMZN
p5202
asS'01052017'
p5203
(lp5204
VBLK
p5205
aVGS
p5206
aVFDX
p5207
aVPCLN
p5208
aVNVDA
p5209
aVAAP
p5210
aVAPD
p5211
aVAVGO
p5212
aVMLM
p5213
aVLLL
p5214
aVSNA
p5215
aVPRU
p5216
aVITW
p5217
aVPH
p5218
aVURI
p5219
aVCXO
p5220
aVCVX
p5221
aVGOOGL
p5222
aVAMG
p5223
aVPNC
p5224
aVHRS
p5225
aVORLY
p5226
aVEOG
p5227
aVAMP
p5228
aVBA
p5229
aVADS
p5230
aVLRCX
p5231
aVROK
p5232
aVSYK
p5233
aVIBM
p5234
aVFISV
p5235
aVAON
p5236
aVADBE
p5237
aVAYI
p5238
aVSWK
p5239
aVNEE
p5240
aVSTZ
p5241
aVWAT
p5242
aVAMT
p5243
aVWHR
p5244
aVMA
p5245
aVFB
p5246
aVCLX
p5247
aVCMG
p5248
aVZBH
p5249
aVSHW
p5250
aVTMO
p5251
aVPSA
p5252
aVAMZN
p5253
aVTDG
p5254
aVSPG
p5255
aVBCR
p5256
aVILMN
p5257
aVBIIB
p5258
aVALXN
p5259
asS'05192016'
p5260
(lp5261
VPCLN
p5262
aVBLK
p5263
aVEW
p5264
aVGWW
p5265
aVORLY
p5266
aVAYI
p5267
aVAMG
p5268
aVCMI
p5269
aVGS
p5270
aVFDX
p5271
aVESS
p5272
aVSTZ
p5273
aVMHK
p5274
aVPXD
p5275
aVPX
p5276
aVSHW
p5277
aVFRT
p5278
aVANTM
p5279
aVHD
p5280
aVUHS
p5281
aVCVX
p5282
aVPSA
p5283
aVPPG
p5284
aVAET
p5285
aVALXN
p5286
aVCVS
p5287
aVCXO
p5288
aVHON
p5289
aVFB
p5290
aVSYK
p5291
aVBCR
p5292
aVAMZN
p5293
aVACN
p5294
aVFISV
p5295
aVXEC
p5296
aVSNA
p5297
aVEQIX
p5298
aVSIG
p5299
aVGOOG
p5300
aVGOOGL
p5301
aVROP
p5302
asS'08162016'
p5303
(lp5304
VISRG
p5305
aVCMG
p5306
aVFRT
p5307
aVAAP
p5308
aVBIIB
p5309
aVGOOGL
p5310
aVFISV
p5311
aVPSA
p5312
aVORLY
p5313
aVBLK
p5314
aVSRE
p5315
aVTMO
p5316
aVAGN
p5317
aVEFX
p5318
aVGOOG
p5319
aVNEE
p5320
aVIBM
p5321
aVLLL
p5322
aVZBH
p5323
aVFFIV
p5324
aVSNA
p5325
aVCELG
p5326
aVDLR
p5327
aVEW
p5328
aVFB
p5329
aVBXP
p5330
aVSYK
p5331
aVESS
p5332
aVMKC
p5333
aVSTZ
p5334
aVVRTX
p5335
aVTDG
p5336
aVINTU
p5337
aVGPC
p5338
aVILMN
p5339
aVAMG
p5340
aVALXN
p5341
aVAPD
p5342
aVCMI
p5343
aVCVX
p5344
aVAAPL
p5345
aVGS
p5346
aVADBE
p5347
aVPH
p5348
aVAYI
p5349
aVHUM
p5350
aVPXD
p5351
aVPCLN
p5352
asS'03042016'
p5353
(lp5354
VAPD
p5355
aVNOC
p5356
aVHSIC
p5357
aVLLL
p5358
aVHON
p5359
aVTRV
p5360
aVBCR
p5361
aVAET
p5362
aVACN
p5363
aVMNST
p5364
aVEFX
p5365
aVANTM
p5366
aVPXD
p5367
aVALXN
p5368
aVFDX
p5369
aVGS
p5370
aVWHR
p5371
aVSHW
p5372
aVULTA
p5373
aVEQIX
p5374
aVAZO
p5375
aVGOOGL
p5376
aVGOOG
p5377
aVAMG
p5378
aVAYI
p5379
aVREGN
p5380
aVPCLN
p5381
asS'07082016'
p5382
(lp5383
VHUM
p5384
aVCXO
p5385
aVAET
p5386
aVAVGO
p5387
aVPXD
p5388
aVACN
p5389
aVXEC
p5390
aVTDG
p5391
aVCMI
p5392
aVPPG
p5393
aVTAP
p5394
aVAPD
p5395
aVBRK-B
p5396
aVKMB
p5397
aVUHS
p5398
aVHON
p5399
aVDLR
p5400
aVLLL
p5401
aVPX
p5402
aVIBM
p5403
aVSRCL
p5404
aVFISV
p5405
aVSWK
p5406
aVMKC
p5407
aVBXP
p5408
aVZBH
p5409
aVBLK
p5410
aVAAP
p5411
aVINTU
p5412
aVEW
p5413
aVWAT
p5414
aVGWW
p5415
aVHSY
p5416
aVSTZ
p5417
aVALXN
p5418
aVAYI
p5419
aVORLY
p5420
aVCMG
p5421
aVGOOG
p5422
aVSHW
p5423
aVGOOGL
p5424
aVBIIB
p5425
aVPCLN
p5426
asS'09232016'
p5427
(lp5428
VXEC
p5429
aVAYI
p5430
aVAPD
p5431
aVGS
p5432
aVEQIX
p5433
aVPX
p5434
aVAAP
p5435
aVCME
p5436
aVPVH
p5437
aVPH
p5438
aVIBM
p5439
aVAMP
p5440
aVHUM
p5441
aVFB
p5442
aVUTX
p5443
aVRTN
p5444
aVAMG
p5445
aVINTU
p5446
aVWAT
p5447
aVPM
p5448
aVLLL
p5449
aVFISV
p5450
aVEW
p5451
aVWYNN
p5452
aVALXN
p5453
aVORLY
p5454
aVPCLN
p5455
aVSNA
p5456
aVAGN
p5457
aVBDX
p5458
aVILMN
p5459
aVSYK
p5460
aVNEE
p5461
aVSHW
p5462
aVADS
p5463
aVSRE
p5464
aVPSA
p5465
aVGOOGL
p5466
aVTMO
p5467
aVGOOG
p5468
aVAVB
p5469
aVISRG
p5470
asS'01202017'
p5471
(lp5472
VGS
p5473
aVAYI
p5474
aVPSA
p5475
aVORLY
p5476
aVADS
p5477
aVNVDA
p5478
aVBLK
p5479
aVCELG
p5480
aVFDX
p5481
aVWHR
p5482
aVCVX
p5483
aVADP
p5484
aVAMG
p5485
aVAAP
p5486
aVPRU
p5487
aVBA
p5488
aVURI
p5489
aVUTX
p5490
aVCLX
p5491
aVIBM
p5492
aVLLL
p5493
aVTMO
p5494
aVAMGN
p5495
aVFISV
p5496
aVEFX
p5497
aVBXP
p5498
aVAPD
p5499
aVEOG
p5500
aVITW
p5501
aVCXO
p5502
aVSTZ
p5503
aVDLR
p5504
aVLRCX
p5505
aVGOOGL
p5506
aVSHW
p5507
aVFB
p5508
aVZBH
p5509
aVCMG
p5510
aVILMN
p5511
aVPCLN
p5512
asS'10252016'
p5513
(lp5514
VILMN
p5515
aVCMG
p5516
aVBLK
p5517
aVADS
p5518
aVTMO
p5519
aVROP
p5520
aVBCR
p5521
aVAMG
p5522
aVEW
p5523
aVSHW
p5524
aVPH
p5525
aVAGN
p5526
aVPCLN
p5527
aVAYI
p5528
aVIBM
p5529
aVBDX
p5530
aVLLL
p5531
aVCTAS
p5532
aVCMI
p5533
aVFFIV
p5534
aVSYK
p5535
aVCVX
p5536
aVADBE
p5537
aVAAPL
p5538
aVPSA
p5539
aVINTU
p5540
aVRTN
p5541
aVALXN
p5542
aVHUM
p5543
aVSRE
p5544
aVMCK
p5545
aVNEE
p5546
aVFB
p5547
aVAPD
p5548
aVGS
p5549
aVEXPE
p5550
aVSNA
p5551
aVGOOGL
p5552
aVGOOG
p5553
asS'10122016'
p5554
(lp5555
VILMN
p5556
aVPCLN
p5557
aVAYI
p5558
aVAPD
p5559
aVBLK
p5560
aVADS
p5561
aVSPG
p5562
aVROP
p5563
aVSHW
p5564
aVPSA
p5565
aVSRE
p5566
aVHUM
p5567
aVALXN
p5568
aVEW
p5569
aVTMO
p5570
aVFFIV
p5571
aVSYK
p5572
aVSNA
p5573
aVFDX
p5574
aVMA
p5575
aVINTU
p5576
aVLLL
p5577
aVWAT
p5578
aVPX
p5579
aVPH
p5580
aVNEE
p5581
aVFB
p5582
aVIBM
p5583
aVAMP
p5584
aVZBH
p5585
aVRTN
p5586
aVAGN
p5587
aVCMG
p5588
aVNFLX
p5589
aVGOOGL
p5590
aVFISV
p5591
aVAAPL
p5592
aVAMG
p5593
aVCVX
p5594
aVAAP
p5595
aVCMI
p5596
aVSTZ
p5597
aVGOOG
p5598
aVLRCX
p5599
aVGS
p5600
asS'12292016'
p5601
(lp5602
VBLK
p5603
aVFDX
p5604
aVAYI
p5605
aVAMG
p5606
aVAAP
p5607
aVLLL
p5608
aVADS
p5609
aVURI
p5610
aVCXO
p5611
aVMLM
p5612
aVAPD
p5613
aVEOG
p5614
aVPH
p5615
aVPRU
p5616
aVHRS
p5617
aVSPG
p5618
aVGOOGL
p5619
aVPNC
p5620
aVRTN
p5621
aVIBM
p5622
aVUNP
p5623
aVCVX
p5624
aVDIS
p5625
aVAON
p5626
aVORLY
p5627
aVUTX
p5628
aVFISV
p5629
aVFB
p5630
aVMMM
p5631
aVWAT
p5632
aVADBE
p5633
aVTMO
p5634
aVPSA
p5635
aVADP
p5636
aVSTZ
p5637
aVZBH
p5638
aVCLX
p5639
aVWHR
p5640
aVTDG
p5641
aVBIIB
p5642
aVILMN
p5643
aVEQIX
p5644
aVNVDA
p5645
aVAMZN
p5646
asS'02162016'
p5647
(lp5648
VGOOG
p5649
aVAMZN
p5650
aVICE
p5651
aVEQIX
p5652
aVULTA
p5653
aVSTZ
p5654
aVBIIB
p5655
aVREGN
p5656
aVFB
p5657
aVILMN
p5658
aVLMT
p5659
aVNOC
p5660
aVAYI
p5661
aVKMB
p5662
aVPXD
p5663
aVGS
p5664
aVGD
p5665
aVLLL
p5666
aVWAT
p5667
aVBCR
p5668
aVTRV
p5669
aVWHR
p5670
aVHON
p5671
aVAZO
p5672
aVAPD
p5673
aVHSIC
p5674
asS'08022016'
p5675
(lp5676
VPSA
p5677
aVINTU
p5678
aVAYI
p5679
aVSYK
p5680
aVCVX
p5681
aVEFX
p5682
aVKMB
p5683
aVGWW
p5684
aVMKC
p5685
aVSTZ
p5686
aVGS
p5687
aVPPG
p5688
aVDLR
p5689
aVSRE
p5690
aVAET
p5691
aVNEE
p5692
aVFISV
p5693
aVGPC
p5694
aVIBM
p5695
aVPM
p5696
aVAVB
p5697
aVACN
p5698
aVLLL
p5699
aVAAP
p5700
aVPH
p5701
aVROP
p5702
aVAVGO
p5703
aVCMI
p5704
aVSPGI
p5705
aVZBH
p5706
aVAGN
p5707
aVWAT
p5708
aVEW
p5709
aVORLY
p5710
aVWHR
p5711
aVBLK
p5712
aVPCLN
p5713
aVHUM
p5714
aVALXN
p5715
aVBIIB
p5716
asS'06142016'
p5717
(lp5718
VCMG
p5719
aVBIIB
p5720
aVAMZN
p5721
aVBLK
p5722
aVALXN
p5723
aVAMG
p5724
aVGS
p5725
aVAYI
p5726
aVXEC
p5727
aVGWW
p5728
aVSPGI
p5729
aVMHK
p5730
aVFB
p5731
aVMCK
p5732
aVUHS
p5733
aVHD
p5734
aVPXD
p5735
aVSWK
p5736
aVMTB
p5737
aVCXO
p5738
aVILMN
p5739
aVGOOG
p5740
aVACN
p5741
aVIBM
p5742
aVTRV
p5743
aVFISV
p5744
aVITW
p5745
aVGOOGL
p5746
aVBRK-B
p5747
aVCVX
p5748
aVSTZ
p5749
aVBXP
p5750
aVHON
p5751
aVEW
p5752
aVAPD
p5753
aVUTX
p5754
aVORLY
p5755
aVDLR
p5756
aVLLL
p5757
aVBCR
p5758
aVSYK
p5759
aVFRT
p5760
aVAAP
p5761
aVPX
p5762
aVWHR
p5763
aVWYNN
p5764
aVKMB
p5765
aVFFIV
p5766
aVSPG
p5767
aVSRCL
p5768
aVPCLN
p5769
asS'03102016'
p5770
(lp5771
VGD
p5772
aVBIIB
p5773
aVFB
p5774
aVAPD
p5775
aVLMT
p5776
aVBCR
p5777
aVBDX
p5778
aVAZO
p5779
aVALXN
p5780
aVHON
p5781
aVTRV
p5782
aVROP
p5783
aVEFX
p5784
aVCI
p5785
aVACN
p5786
aVEQIX
p5787
aVWHR
p5788
aVULTA
p5789
aVPXD
p5790
aVFDX
p5791
aVGS
p5792
aVMNST
p5793
aVGOOGL
p5794
aVSHW
p5795
aVBA
p5796
aVGOOG
p5797
aVAYI
p5798
aVPCLN
p5799
aVAMG
p5800
aVREGN
p5801
aVESS
p5802
asS'08252016'
p5803
(lp5804
VGOOGL
p5805
aVGOOG
p5806
aVBIIB
p5807
aVADS
p5808
aVAGN
p5809
aVPCLN
p5810
aVISRG
p5811
aVORLY
p5812
aVAAP
p5813
aVAVB
p5814
aVVRTX
p5815
aVTMO
p5816
aVILMN
p5817
aVBXP
p5818
aVIBM
p5819
aVALXN
p5820
aVLLL
p5821
aVAAPL
p5822
aVFFIV
p5823
aVFB
p5824
aVEFX
p5825
aVEW
p5826
aVAYI
p5827
aVPH
p5828
aVCXO
p5829
aVHUM
p5830
aVECL
p5831
aVSYK
p5832
aVGS
p5833
aVCME
p5834
aVFISV
p5835
aVFDX
p5836
aVSTZ
p5837
aVADBE
p5838
aVCVX
p5839
aVPSA
p5840
aVMKC
p5841
aVSNA
p5842
aVXEC
p5843
aVPXD
p5844
aVAPD
p5845
aVPPG
p5846
aVPVH
p5847
asS'07012016'
p5848
(lp5849
VPCLN
p5850
aVPXD
p5851
aVGOOGL
p5852
aVTDG
p5853
aVCXO
p5854
aVGOOG
p5855
aVACN
p5856
aVALXN
p5857
aVBLK
p5858
aVCMI
p5859
aVPPG
p5860
aVAET
p5861
aVIBM
p5862
aVLLL
p5863
aVAYI
p5864
aVHON
p5865
aVPX
p5866
aVXEC
p5867
aVZBH
p5868
aVFISV
p5869
aVMCK
p5870
aVGS
p5871
aVDLR
p5872
aVKMB
p5873
aVMKC
p5874
aVBXP
p5875
aVGWW
p5876
aVAAP
p5877
aVBIIB
p5878
aVORLY
p5879
aVPSA
p5880
asS'03162016'
p5881
(lp5882
VAGN
p5883
aVBIIB
p5884
aVALXN
p5885
aVREGN
p5886
aVBCR
p5887
aVGD
p5888
aVLMT
p5889
aVSJM
p5890
aVBDX
p5891
aVHON
p5892
aVKMB
p5893
aVCVS
p5894
aVFDX
p5895
aVMHK
p5896
aVPX
p5897
aVSTZ
p5898
aVSPG
p5899
aVAET
p5900
aVTRV
p5901
aVEFX
p5902
aVPPG
p5903
aVACN
p5904
aVAZO
p5905
aVCXO
p5906
aVAYI
p5907
aVSHW
p5908
aVSIG
p5909
aVPXD
p5910
aVMNST
p5911
aVWHR
p5912
aVBA
p5913
aVEQIX
p5914
aVPRGO
p5915
aVPCLN
p5916
aVULTA
p5917
aVGOOG
p5918
aVGOOGL
p5919
asS'06212016'
p5920
(lp5921
VGOOG
p5922
aVGOOGL
p5923
aVBIIB
p5924
aVCMG
p5925
aVALXN
p5926
aVAMG
p5927
aVMCK
p5928
aVBLK
p5929
aVPXD
p5930
aVAYI
p5931
aVAVGO
p5932
aVUHS
p5933
aVGS
p5934
aVLLL
p5935
aVXEC
p5936
aVFISV
p5937
aVITW
p5938
aVGWW
p5939
aVCXO
p5940
aVAPD
p5941
aVACN
p5942
aVHD
p5943
aVCMI
p5944
aVCVX
p5945
aVPPG
p5946
aVWYNN
p5947
aVBCR
p5948
aVUTX
p5949
aVDLR
p5950
aVSTZ
p5951
aVNEE
p5952
aVPX
p5953
aVSYK
p5954
aVBRK-B
p5955
aVMKC
p5956
aVWHR
p5957
aVFRT
p5958
aVORLY
p5959
aVSRCL
p5960
aVPCLN
p5961
asS'10212016'
p5962
(lp5963
VILMN
p5964
aVPCLN
p5965
aVAMG
p5966
aVROP
p5967
aVTMO
p5968
aVBLK
p5969
aVIBM
p5970
aVLLL
p5971
aVBDX
p5972
aVCTAS
p5973
aVFFIV
p5974
aVEW
p5975
aVBCR
p5976
aVPH
p5977
aVAAP
p5978
aVSYK
p5979
aVADBE
p5980
aVCMI
p5981
aVAYI
p5982
aVORLY
p5983
aVAAPL
p5984
aVCVX
p5985
aVRTN
p5986
aVHUM
p5987
aVALXN
p5988
aVINTU
p5989
aVSRE
p5990
aVAPD
p5991
aVFB
p5992
aVNEE
p5993
aVPSA
p5994
aVMCK
p5995
aVMNST
p5996
aVGS
p5997
aVSHW
p5998
aVSNA
p5999
aVGOOGL
p6000
aVGOOG
p6001
asS'11082016'
p6002
(lp6003
VGOOGL
p6004
aVXEC
p6005
aVEQIX
p6006
aVAMG
p6007
aVLLL
p6008
aVCXO
p6009
aVALXN
p6010
aVSTZ
p6011
aVCMG
p6012
aVADBE
p6013
aVSHW
p6014
aVIFF
p6015
aVPVH
p6016
aVRTN
p6017
aVAMT
p6018
aVADS
p6019
aVNEE
p6020
aVMA
p6021
aVINTU
p6022
aVSWK
p6023
aVCMI
p6024
aVGS
p6025
aVSNA
p6026
aVSPGI
p6027
aVPH
p6028
aVROP
p6029
aVHUM
p6030
aVCVX
p6031
aVIBM
p6032
aVILMN
p6033
aVPSA
p6034
aVBCR
p6035
aVBLK
p6036
aVPCLN
p6037
asS'05132016'
p6038
(lp6039
VPCLN
p6040
aVBLK
p6041
aVWHR
p6042
aVAMG
p6043
aVFDX
p6044
aVULTA
p6045
aVALXN
p6046
aVGS
p6047
aVMCK
p6048
aVAYI
p6049
aVGWW
p6050
aVHUM
p6051
aVEW
p6052
aVORLY
p6053
aVCMI
p6054
aVPX
p6055
aVAVGO
p6056
aVPPG
p6057
aVAET
p6058
aVSIG
p6059
aVPXD
p6060
aVCXO
p6061
aVCVX
p6062
aVMHK
p6063
aVHD
p6064
aVUHS
p6065
aVSHW
p6066
aVHON
p6067
aVSWK
p6068
aVROP
p6069
aVACN
p6070
aVSYK
p6071
aVIBM
p6072
aVXEC
p6073
aVCVS
p6074
aVFRT
p6075
aVSTZ
p6076
aVADS
p6077
aVBCR
p6078
aVILMN
p6079
aVESS
p6080
aVFB
p6081
aVSJM
p6082
aVKMB
p6083
aVNOC
p6084
aVFISV
p6085
aVGOOGL
p6086
aVGOOG
p6087
aVEQIX
p6088
aVMNST
p6089
aVICE
p6090
aVTDG
p6091
aVCMG
p6092
aVAMZN
p6093
asS'11092016'
p6094
(lp6095
VXEC
p6096
aVEQIX
p6097
aVSTZ
p6098
aVISRG
p6099
aVORLY
p6100
aVNEE
p6101
aVAMT
p6102
aVIFF
p6103
aVCMG
p6104
aVCXO
p6105
aVADBE
p6106
aVALXN
p6107
aVAMG
p6108
aVPVH
p6109
aVINTU
p6110
aVLLL
p6111
aVADS
p6112
aVSPGI
p6113
aVCVX
p6114
aVTMO
p6115
aVUTX
p6116
aVIBM
p6117
aVRTN
p6118
aVILMN
p6119
aVROP
p6120
aVBCR
p6121
aVBRK-B
p6122
aVSHW
p6123
aVCMI
p6124
aVITW
p6125
aVPH
p6126
aVAET
p6127
aVAPD
p6128
aVGS
p6129
aVPSA
p6130
aVFFIV
p6131
aVBLK
p6132
aVPCLN
p6133
asS'04122016'
p6134
(lp6135
VCMG
p6136
aVGOOG
p6137
aVEQIX
p6138
aVGOOGL
p6139
aVESS
p6140
aVAET
p6141
aVGWW
p6142
aVAVGO
p6143
aVCMI
p6144
aVFB
p6145
aVFDX
p6146
aVWHR
p6147
aVMNST
p6148
aVBA
p6149
aVGS
p6150
aVACN
p6151
aVSPG
p6152
aVHON
p6153
aVMKC
p6154
aVBCR
p6155
aVPRGO
p6156
aVSWK
p6157
aVPXD
p6158
aVICE
p6159
aVCXO
p6160
aVKMB
p6161
aVNFLX
p6162
aVBDX
p6163
aVXEC
p6164
aVCELG
p6165
aVMCK
p6166
aVEW
p6167
aVALXN
p6168
aVAYI
p6169
aVREGN
p6170
asS'02122016'
p6171
(lp6172
VAMZN
p6173
aVGOOG
p6174
aVEQIX
p6175
aVREGN
p6176
aVAZO
p6177
aVICE
p6178
aVULTA
p6179
aVBIIB
p6180
aVSTZ
p6181
aVILMN
p6182
aVAYI
p6183
aVFB
p6184
aVLH
p6185
aVGS
p6186
aVPXD
p6187
aVNOC
p6188
aVROP
p6189
aVGD
p6190
aVTRV
p6191
aVLLL
p6192
aVWHR
p6193
aVHON
p6194
aVAPD
p6195
aVHSIC
p6196
asS'12102015'
p6197
(lp6198
VAMZN
p6199
aVGOOGL
p6200
aVGOOG
p6201
aVREGN
p6202
aVXEC
p6203
aVVRTX
p6204
aVORLY
p6205
aVTSO
p6206
aVDIS
p6207
aVCXO
p6208
aVPPG
p6209
aVLLL
p6210
aVWAT
p6211
aVMNST
p6212
aVGD
p6213
aVAVB
p6214
aVAYI
p6215
aVGILD
p6216
aVMCO
p6217
aVBA
p6218
aVFB
p6219
aVNKE
p6220
aVSNA
p6221
aVSTZ
p6222
aVHD
p6223
aVIFF
p6224
aVRTN
p6225
aVROK
p6226
aVUHS
p6227
aVLH
p6228
aVGWW
p6229
aVACN
p6230
aVSRCL
p6231
aVABC
p6232
aVAET
p6233
aVCELG
p6234
aVUNH
p6235
aVHUM
p6236
aVAVGO
p6237
asS'06132016'
p6238
(lp6239
VCMG
p6240
aVBIIB
p6241
aVBLK
p6242
aVALXN
p6243
aVAMG
p6244
aVGS
p6245
aVXEC
p6246
aVAYI
p6247
aVGWW
p6248
aVSPGI
p6249
aVFB
p6250
aVPXD
p6251
aVHD
p6252
aVCXO
p6253
aVMHK
p6254
aVSTZ
p6255
aVFDX
p6256
aVMCK
p6257
aVACN
p6258
aVNOC
p6259
aVMTB
p6260
aVPH
p6261
aVDHR
p6262
aVIBM
p6263
aVBRK-B
p6264
aVFISV
p6265
aVGOOG
p6266
aVILMN
p6267
aVSHW
p6268
aVCVX
p6269
aVITW
p6270
aVMCO
p6271
aVBCR
p6272
aVEW
p6273
aVHON
p6274
aVGOOGL
p6275
aVBXP
p6276
aVSYK
p6277
aVUTX
p6278
aVPPG
p6279
aVORLY
p6280
aVLLL
p6281
aVDLR
p6282
aVFRT
p6283
aVPX
p6284
aVKMB
p6285
aVWYNN
p6286
aVWHR
p6287
aVSPG
p6288
aVFFIV
p6289
aVSRCL
p6290
aVPCLN
p6291
asS'12032015'
p6292
(lp6293
VREGN
p6294
aVORLY
p6295
aVICE
p6296
aVGOOG
p6297
aVDIS
p6298
aVNOC
p6299
aVVRTX
p6300
aVFB
p6301
aVGILD
p6302
aVALXN
p6303
aVBA
p6304
aVAMP
p6305
aVBXP
p6306
aVRL
p6307
aVPXD
p6308
aVXEC
p6309
aVAMT
p6310
aVEQIX
p6311
aVACN
p6312
aVAYI
p6313
aVLH
p6314
aVGD
p6315
aVEW
p6316
aVHAR
p6317
aVSRCL
p6318
aVPPG
p6319
aVROK
p6320
aVUHS
p6321
aVNKE
p6322
aVIFF
p6323
aVAET
p6324
aVAVB
p6325
aVSTZ
p6326
aVHD
p6327
aVUNH
p6328
aVHUM
p6329
aVNFLX
p6330
asS'06152016'
p6331
(lp6332
VCMG
p6333
aVBIIB
p6334
aVBLK
p6335
aVAMG
p6336
aVALXN
p6337
aVGS
p6338
aVAYI
p6339
aVXEC
p6340
aVMCK
p6341
aVGWW
p6342
aVUHS
p6343
aVSPGI
p6344
aVHD
p6345
aVGOOG
p6346
aVSWK
p6347
aVMTB
p6348
aVPXD
p6349
aVCXO
p6350
aVACN
p6351
aVIBM
p6352
aVGOOGL
p6353
aVTRV
p6354
aVITW
p6355
aVFISV
p6356
aVCMI
p6357
aVCVX
p6358
aVEW
p6359
aVBRK-B
p6360
aVPPG
p6361
aVAPD
p6362
aVBXP
p6363
aVBCR
p6364
aVDLR
p6365
aVUTX
p6366
aVSTZ
p6367
aVSYK
p6368
aVORLY
p6369
aVPX
p6370
aVWHR
p6371
aVFRT
p6372
aVAAP
p6373
aVWYNN
p6374
aVFFIV
p6375
aVKMB
p6376
aVSPG
p6377
aVSRCL
p6378
aVPCLN
p6379
asS'08182016'
p6380
(lp6381
VISRG
p6382
aVGOOG
p6383
aVBIIB
p6384
aVCMG
p6385
aVFRT
p6386
aVORLY
p6387
aVTMO
p6388
aVCELG
p6389
aVFISV
p6390
aVESS
p6391
aVAGN
p6392
aVFFIV
p6393
aVBLK
p6394
aVIBM
p6395
aVPSA
p6396
aVEFX
p6397
aVBDX
p6398
aVFB
p6399
aVEW
p6400
aVBXP
p6401
aVSNA
p6402
aVLLL
p6403
aVALXN
p6404
aVSYK
p6405
aVNEE
p6406
aVDLR
p6407
aVILMN
p6408
aVSTZ
p6409
aVMKC
p6410
aVWYNN
p6411
aVCME
p6412
aVAAPL
p6413
aVGS
p6414
aVCVX
p6415
aVCI
p6416
aVFDX
p6417
aVPH
p6418
aVHUM
p6419
aVXEC
p6420
aVAYI
p6421
aVPVH
p6422
aVCXO
p6423
aVPXD
p6424
aVPCLN
p6425
asS'01182017'
p6426
(lp6427
VGS
p6428
aVAYI
p6429
aVBLK
p6430
aVPSA
p6431
aVNVDA
p6432
aVADS
p6433
aVLLL
p6434
aVORLY
p6435
aVMLM
p6436
aVFDX
p6437
aVAMG
p6438
aVURI
p6439
aVCVX
p6440
aVCELG
p6441
aVWHR
p6442
aVPRU
p6443
aVIBM
p6444
aVBA
p6445
aVUTX
p6446
aVXEC
p6447
aVCLX
p6448
aVAAP
p6449
aVAPD
p6450
aVITW
p6451
aVCXO
p6452
aVEOG
p6453
aVFISV
p6454
aVNEE
p6455
aVRTN
p6456
aVSTZ
p6457
aVBXP
p6458
aVDLR
p6459
aVTDG
p6460
aVAMGN
p6461
aVBCR
p6462
aVSPGI
p6463
aVEQIX
p6464
aVSHW
p6465
aVFB
p6466
aVGOOGL
p6467
aVZBH
p6468
aVCMG
p6469
aVILMN
p6470
aVPCLN
p6471
asS'04062016'
p6472
(lp6473
VPCLN
p6474
aVAGN
p6475
aVCMG
p6476
aVBA
p6477
aVAMG
p6478
aVCMI
p6479
aVFDX
p6480
aVCB
p6481
aVPXD
p6482
aVAET
p6483
aVWHR
p6484
aVAVGO
p6485
aVMHK
p6486
aVSHW
p6487
aVFB
p6488
aVTRV
p6489
aVHON
p6490
aVPPG
p6491
aVGOOG
p6492
aVFISV
p6493
aVGWW
p6494
aVCVS
p6495
aVSYK
p6496
aVSWK
p6497
aVSPG
p6498
aVESS
p6499
aVPRGO
p6500
aVMKC
p6501
aVGOOGL
p6502
aVGS
p6503
aVACN
p6504
aVEQIX
p6505
aVNFLX
p6506
aVBCR
p6507
aVUHS
p6508
aVSTZ
p6509
aVAYI
p6510
aVEW
p6511
aVALXN
p6512
aVREGN
p6513
asS'06032016'
p6514
(lp6515
VCMG
p6516
aVPXD
p6517
aVSTZ
p6518
aVXEC
p6519
aVBCR
p6520
aVSWK
p6521
aVCXO
p6522
aVSHW
p6523
aVCVX
p6524
aVHD
p6525
aVBRK-B
p6526
aVPX
p6527
aVAYI
p6528
aVHON
p6529
aVACN
p6530
aVSYK
p6531
aVBLK
p6532
aVFRT
p6533
aVFISV
p6534
aVCMI
p6535
aVSJM
p6536
aVMHK
p6537
aVGWW
p6538
aVIBM
p6539
aVORLY
p6540
aVMCK
p6541
aVAAP
p6542
aVAET
p6543
aVNFLX
p6544
aVALXN
p6545
aVHUM
p6546
aVGOOG
p6547
aVGOOGL
p6548
aVULTA
p6549
asS'09272016'
p6550
(lp6551
VPCLN
p6552
aVGS
p6553
aVCME
p6554
aVPVH
p6555
aVAYI
p6556
aVPX
p6557
aVAPD
p6558
aVFB
p6559
aVPH
p6560
aVWYNN
p6561
aVEFX
p6562
aVSWK
p6563
aVIBM
p6564
aVHUM
p6565
aVUTX
p6566
aVPPG
p6567
aVAGN
p6568
aVEQIX
p6569
aVMA
p6570
aVINTU
p6571
aVADS
p6572
aVAAP
p6573
aVFISV
p6574
aVZBH
p6575
aVEW
p6576
aVHON
p6577
aVSNA
p6578
aVKMB
p6579
aVILMN
p6580
aVSYK
p6581
aVBIIB
p6582
aVSRE
p6583
aVGOOGL
p6584
aVORLY
p6585
aVGOOG
p6586
aVTMO
p6587
aVPSA
p6588
aVAVB
p6589
asS'10202016'
p6590
(lp6591
VILMN
p6592
aVPCLN
p6593
aVCMG
p6594
aVAMG
p6595
aVROP
p6596
aVTMO
p6597
aVHSIC
p6598
aVBDX
p6599
aVFFIV
p6600
aVIBM
p6601
aVEW
p6602
aVLLL
p6603
aVADS
p6604
aVBCR
p6605
aVAAP
p6606
aVPH
p6607
aVBLK
p6608
aVPVH
p6609
aVADBE
p6610
aVTAP
p6611
aVSYK
p6612
aVEFX
p6613
aVHUM
p6614
aVCMI
p6615
aVMA
p6616
aVAYI
p6617
aVAPD
p6618
aVORLY
p6619
aVCVX
p6620
aVAAPL
p6621
aVALXN
p6622
aVFISV
p6623
aVSRE
p6624
aVNEE
p6625
aVMNST
p6626
aVPSA
p6627
aVSHW
p6628
aVSNA
p6629
aVGS
p6630
aVGOOGL
p6631
aVGOOG
p6632
asS'08302016'
p6633
(lp6634
VGOOGL
p6635
aVGOOG
p6636
aVPCLN
p6637
aVAGN
p6638
aVISRG
p6639
aVALXN
p6640
aVILMN
p6641
aVAAP
p6642
aVAAPL
p6643
aVBXP
p6644
aVAVB
p6645
aVAYI
p6646
aVIBM
p6647
aVCXO
p6648
aVPH
p6649
aVTMO
p6650
aVHUM
p6651
aVEW
p6652
aVLLL
p6653
aVSRE
p6654
aVEFX
p6655
aVSTZ
p6656
aVGS
p6657
aVCVX
p6658
aVCME
p6659
aVXEC
p6660
aVMKC
p6661
aVADBE
p6662
aVFISV
p6663
aVMCO
p6664
aVAPD
p6665
aVPVH
p6666
aVMON
p6667
aVSYK
p6668
aVPSA
p6669
asS'08232016'
p6670
(lp6671
VGOOGL
p6672
aVGOOG
p6673
aVBIIB
p6674
aVAAP
p6675
aVISRG
p6676
aVAVB
p6677
aVORLY
p6678
aVIBM
p6679
aVAGN
p6680
aVLLL
p6681
aVCELG
p6682
aVFFIV
p6683
aVFB
p6684
aVEFX
p6685
aVAAPL
p6686
aVUTX
p6687
aVILMN
p6688
aVDLR
p6689
aVBDX
p6690
aVFISV
p6691
aVSYK
p6692
aVPSA
p6693
aVSNA
p6694
aVSTZ
p6695
aVCME
p6696
aVALXN
p6697
aVEW
p6698
aVINTU
p6699
aVGS
p6700
aVPH
p6701
aVCVX
p6702
aVMKC
p6703
aVACN
p6704
aVHUM
p6705
aVCXO
p6706
aVFDX
p6707
aVXEC
p6708
aVAYI
p6709
aVPVH
p6710
aVPCLN
p6711
asS'03312016'
p6712
(lp6713
VCMG
p6714
aVAGN
p6715
aVAYI
p6716
aVSHW
p6717
aVCXO
p6718
aVAZO
p6719
aVPXD
p6720
aVAET
p6721
aVCMI
p6722
aVWHR
p6723
aVHON
p6724
aVPRGO
p6725
aVRTN
p6726
aVAVGO
p6727
aVSJM
p6728
aVMHK
p6729
aVAMG
p6730
aVMCK
p6731
aVIBM
p6732
aVCVS
p6733
aVFISV
p6734
aVPPG
p6735
aVSWK
p6736
aVROP
p6737
aVGWW
p6738
aVBCR
p6739
aVFDX
p6740
aVREGN
p6741
aVESS
p6742
aVACN
p6743
aVALXN
p6744
aVEQIX
p6745
aVGOOGL
p6746
aVGOOG
p6747
asS'03292016'
p6748
(lp6749
VCMG
p6750
aVAYI
p6751
aVSHW
p6752
aVGD
p6753
aVCXO
p6754
aVKMB
p6755
aVAET
p6756
aVAZO
p6757
aVPXD
p6758
aVBDX
p6759
aVRTN
p6760
aVCMI
p6761
aVCVS
p6762
aVSJM
p6763
aVHON
p6764
aVMCK
p6765
aVPRGO
p6766
aVSPG
p6767
aVWHR
p6768
aVMNST
p6769
aVMHK
p6770
aVAVGO
p6771
aVEFX
p6772
aVGWW
p6773
aVBIIB
p6774
aVGS
p6775
aVBCR
p6776
aVALXN
p6777
aVSWK
p6778
aVBA
p6779
aVROP
p6780
aVESS
p6781
aVSRCL
p6782
aVREGN
p6783
aVACN
p6784
aVFDX
p6785
aVEQIX
p6786
aVSIG
p6787
aVGOOG
p6788
aVGOOGL
p6789
asS'11172016'
p6790
(lp6791
VAMZN
p6792
aVGOOGL
p6793
aVGOOG
p6794
aVEQIX
p6795
aVNEE
p6796
aVSTZ
p6797
aVFB
p6798
aVTDG
p6799
aVIFF
p6800
aVSYK
p6801
aVEXPE
p6802
aVALXN
p6803
aVADBE
p6804
aVMA
p6805
aVBCR
p6806
aVPSA
p6807
aVPX
p6808
aVCXO
p6809
aVAGN
p6810
aVTMO
p6811
aVXEC
p6812
aVCVX
p6813
aVUTX
p6814
aVFFIV
p6815
aVLH
p6816
aVINTU
p6817
aVFISV
p6818
aVFDX
p6819
aVPCLN
p6820
aVAPD
p6821
aVRTN
p6822
aVILMN
p6823
aVNSC
p6824
aVAMG
p6825
aVITW
p6826
aVSNA
p6827
aVROK
p6828
aVPNC
p6829
aVORLY
p6830
aVROP
p6831
aVBRK-B
p6832
aVWHR
p6833
aVPH
p6834
aVLLL
p6835
aVADS
p6836
aVSHW
p6837
aVGS
p6838
aVAMP
p6839
aVBLK
p6840
aVHUM
p6841
aVHAR
p6842
aVBIIB
p6843
aVAYI
p6844
aVCMG
p6845
asS'02102017'
p6846
(lp6847
VGOOGL
p6848
aVSNA
p6849
aVCMG
p6850
aVWHR
p6851
aVEQIX
p6852
aVILMN
p6853
aVAAP
p6854
aVCI
p6855
aVCVX
p6856
aVDLR
p6857
aVZBH
p6858
aVADS
p6859
aVLRCX
p6860
aVSPG
p6861
aVFISV
p6862
aVECL
p6863
aVFDX
p6864
aVPNC
p6865
aVPRU
p6866
aVPSA
p6867
aVCXO
p6868
aVIBM
p6869
aVBCR
p6870
aVURI
p6871
aVADBE
p6872
aVBLK
p6873
aVAVGO
p6874
aVNVDA
p6875
aVSHW
p6876
aVCLX
p6877
aVSTZ
p6878
aVSPGI
p6879
aVTMO
p6880
aVLLL
p6881
aVAMP
p6882
aVAMGN
p6883
aVAYI
p6884
aVAMG
p6885
aVTDG
p6886
aVPCLN
p6887
asS'05032016'
p6888
(lp6889
VGOOGL
p6890
aVGOOG
p6891
aVAYI
p6892
aVILMN
p6893
aVWHR
p6894
aVALXN
p6895
aVAVGO
p6896
aVMCK
p6897
aVMHK
p6898
aVKMB
p6899
aVEW
p6900
aVADS
p6901
aVPPG
p6902
aVORLY
p6903
aVFDX
p6904
aVWAT
p6905
aVCELG
p6906
aVESS
p6907
aVSNA
p6908
aVACN
p6909
aVCMG
p6910
aVXEC
p6911
aVPX
p6912
aVULTA
p6913
aVTRV
p6914
aVSIG
p6915
aVINTU
p6916
aVHD
p6917
aVTDG
p6918
aVSYK
p6919
aVSTZ
p6920
aVHON
p6921
aVGWW
p6922
aVSWK
p6923
aVBDX
p6924
aVFRT
p6925
aVCVS
p6926
aVCMI
p6927
aVGS
p6928
aVAET
p6929
aVCXO
p6930
aVNEE
p6931
aVICE
p6932
aVEQIX
p6933
aVBCR
p6934
aVPCLN
p6935
aVUHS
p6936
aVNOC
p6937
aVPXD
p6938
aVAMZN
p6939
asS'05262016'
p6940
(lp6941
VPXD
p6942
aVEW
p6943
aVSHW
p6944
aVROP
p6945
aVSTZ
p6946
aVBCR
p6947
aVUHS
p6948
aVFRT
p6949
aVBDX
p6950
aVCMI
p6951
aVPX
p6952
aVGWW
p6953
aVESS
p6954
aVFB
p6955
aVSIG
p6956
aVPCLN
p6957
aVCVX
p6958
aVHD
p6959
aVSYK
p6960
aVMHK
p6961
aVHON
p6962
aVXEC
p6963
aVULTA
p6964
aVCXO
p6965
aVFISV
p6966
aVACN
p6967
aVAYI
p6968
aVAET
p6969
aVWHR
p6970
aVORLY
p6971
aVTRV
p6972
aVIBM
p6973
aVICE
p6974
aVBLK
p6975
aVHUM
p6976
aVMCK
p6977
aVILMN
p6978
aVEQIX
p6979
aVBIIB
p6980
aVMON
p6981
aVGOOGL
p6982
aVGOOG
p6983
asS'07252016'
p6984
(lp6985
VBCR
p6986
aVDLR
p6987
aVSYK
p6988
aVKMB
p6989
aVLLL
p6990
aVORLY
p6991
aVINTU
p6992
aVFRT
p6993
aVSRE
p6994
aVPSA
p6995
aVCVX
p6996
aVACN
p6997
aVZBH
p6998
aVFISV
p6999
aVROP
p7000
aVMCK
p7001
aVBRK-B
p7002
aVAET
p7003
aVAAP
p7004
aVSTZ
p7005
aVUTX
p7006
aVWAT
p7007
aVCME
p7008
aVPPG
p7009
aVUHS
p7010
aVTDG
p7011
aVSRCL
p7012
aVAYI
p7013
aVEW
p7014
aVPH
p7015
aVGD
p7016
aVIBM
p7017
aVMCD
p7018
aVPCLN
p7019
aVILMN
p7020
aVMHK
p7021
aVALXN
p7022
aVHUM
p7023
aVBLK
p7024
aVGOOGL
p7025
aVBIIB
p7026
asS'08112016'
p7027
(lp7028
VCMG
p7029
aVFRT
p7030
aVPSA
p7031
aVISRG
p7032
aVFISV
p7033
aVSRE
p7034
aVDLR
p7035
aVAAP
p7036
aVAGN
p7037
aVEFX
p7038
aVAVB
p7039
aVSYK
p7040
aVBLK
p7041
aVKMB
p7042
aVMKC
p7043
aVAPD
p7044
aVBDX
p7045
aVIBM
p7046
aVCVX
p7047
aVSTZ
p7048
aVCME
p7049
aVGPC
p7050
aVINTU
p7051
aVEW
p7052
aVORLY
p7053
aVBXP
p7054
aVCELG
p7055
aVACN
p7056
aVILMN
p7057
aVGS
p7058
aVVRTX
p7059
aVAMG
p7060
aVWYNN
p7061
aVCMI
p7062
aVALXN
p7063
aVBIIB
p7064
aVAYI
p7065
aVPH
p7066
aVHUM
p7067
aVGOOGL
p7068
aVGOOG
p7069
aVPCLN
p7070
asS'02182016'
p7071
(lp7072
VULTA
p7073
aVSTZ
p7074
aVICE
p7075
aVEQIX
p7076
aVGOOG
p7077
aVFB
p7078
aVKMB
p7079
aVESS
p7080
aVMNST
p7081
aVLLL
p7082
aVLMT
p7083
aVLH
p7084
aVAPD
p7085
aVGS
p7086
aVGD
p7087
aVTRV
p7088
aVNOC
p7089
aVHON
p7090
aVAET
p7091
aVPXD
p7092
aVWHR
p7093
aVALXN
p7094
aVAYI
p7095
aVHSIC
p7096
aVREGN
p7097
aVAMZN
p7098
aVAZO
p7099
asS'01192016'
p7100
(lp7101
VAMZN
p7102
aVREGN
p7103
aVGOOG
p7104
aVAYI
p7105
aVBIIB
p7106
aVVRTX
p7107
aVAVGO
p7108
aVAMG
p7109
aVAZO
p7110
aVHUM
p7111
aVULTA
p7112
aVBA
p7113
aVLH
p7114
aVFDX
p7115
aVGWW
p7116
aVWHR
p7117
aVORLY
p7118
aVHSIC
p7119
aVLLL
p7120
aVEQIX
p7121
aVTDG
p7122
aVTMO
p7123
aVWAT
p7124
aVNOC
p7125
aVAPD
p7126
aVICE
p7127
aVUNH
p7128
aVIFF
p7129
aVSJM
p7130
aVAET
p7131
aVTRV
p7132
aVMNST
p7133
aVPXD
p7134
aVSTZ
p7135
aVACN
p7136
aVPRGO
p7137
asS'04112016'
p7138
(lp7139
VAGN
p7140
aVCMG
p7141
aVGOOG
p7142
aVGOOGL
p7143
aVEQIX
p7144
aVCMI
p7145
aVAET
p7146
aVFDX
p7147
aVFB
p7148
aVESS
p7149
aVAVGO
p7150
aVWHR
p7151
aVBA
p7152
aVGWW
p7153
aVGS
p7154
aVACN
p7155
aVFISV
p7156
aVPPG
p7157
aVSPG
p7158
aVSNA
p7159
aVHON
p7160
aVADS
p7161
aVPXD
p7162
aVCXO
p7163
aVBCR
p7164
aVSWK
p7165
aVNFLX
p7166
aVKMB
p7167
aVPRGO
p7168
aVICE
p7169
aVSHW
p7170
aVMCK
p7171
aVCELG
p7172
aVEW
p7173
aVALXN
p7174
aVAYI
p7175
aVREGN
p7176
asS'03032016'
p7177
(lp7178
VKMB
p7179
aVCMI
p7180
aVAPD
p7181
aVHON
p7182
aVLLL
p7183
aVTRV
p7184
aVHSIC
p7185
aVBCR
p7186
aVACN
p7187
aVAET
p7188
aVMNST
p7189
aVEFX
p7190
aVBA
p7191
aVUHS
p7192
aVPXD
p7193
aVTMO
p7194
aVFDX
p7195
aVGS
p7196
aVALXN
p7197
aVSHW
p7198
aVWHR
p7199
aVEQIX
p7200
aVGOOGL
p7201
aVAMG
p7202
aVGOOG
p7203
aVAZO
p7204
aVAYI
p7205
aVREGN
p7206
aVPCLN
p7207
asS'04212016'
p7208
(lp7209
VEQIX
p7210
aVAVGO
p7211
aVESS
p7212
aVGWW
p7213
aVIBM
p7214
aVSIG
p7215
aVFRT
p7216
aVKMB
p7217
aVWHR
p7218
aVADS
p7219
aVPPG
p7220
aVSTZ
p7221
aVACN
p7222
aVORLY
p7223
aVHUM
p7224
aVSJM
p7225
aVHD
p7226
aVCVS
p7227
aVLMT
p7228
aVEFX
p7229
aVFB
p7230
aVMHK
p7231
aVBCR
p7232
aVHON
p7233
aVUHS
p7234
aVAET
p7235
aVEW
p7236
aVBDX
p7237
aVUNH
p7238
aVPX
p7239
aVGOOG
p7240
aVSPGI
p7241
aVPXD
p7242
aVXEC
p7243
aVGOOGL
p7244
aVCMI
p7245
aVCXO
p7246
aVAYI
p7247
aVICE
p7248
aVREGN
p7249
aVCMG
p7250
aVALXN
p7251
aVMCK
p7252
aVBLK
p7253
aVPCLN
p7254
asS'10132016'
p7255
(lp7256
VILMN
p7257
aVPCLN
p7258
aVAPD
p7259
aVAYI
p7260
aVBLK
p7261
aVCMG
p7262
aVADS
p7263
aVBDX
p7264
aVFFIV
p7265
aVTMO
p7266
aVSPG
p7267
aVHSIC
p7268
aVFDX
p7269
aVALXN
p7270
aVSHW
p7271
aVEW
p7272
aVSNA
p7273
aVSYK
p7274
aVSRE
p7275
aVMA
p7276
aVLLL
p7277
aVGOOGL
p7278
aVADBE
p7279
aVPX
p7280
aVPH
p7281
aVINTU
p7282
aVIBM
p7283
aVFB
p7284
aVPSA
p7285
aVAGN
p7286
aVNFLX
p7287
aVPVH
p7288
aVCVX
p7289
aVGOOG
p7290
aVNEE
p7291
aVAAPL
p7292
aVCMI
p7293
aVAAP
p7294
aVGS
p7295
asS'07182016'
p7296
(lp7297
VHUM
p7298
aVDLR
p7299
aVBCR
p7300
aVMKC
p7301
aVSRE
p7302
aVAET
p7303
aVFRT
p7304
aVKMB
p7305
aVORLY
p7306
aVFFIV
p7307
aVSTZ
p7308
aVSYK
p7309
aVLLL
p7310
aVPSA
p7311
aVFISV
p7312
aVACN
p7313
aVAAP
p7314
aVCVX
p7315
aVAON
p7316
aVCXO
p7317
aVBDX
p7318
aVCELG
p7319
aVSRCL
p7320
aVGD
p7321
aVUTX
p7322
aVFB
p7323
aVCME
p7324
aVBXP
p7325
aVTDG
p7326
aVEW
p7327
aVPPG
p7328
aVPH
p7329
aVPXD
p7330
aVPX
p7331
aVCMI
p7332
aVWAT
p7333
aVIBM
p7334
aVAVGO
p7335
aVMCK
p7336
aVAPD
p7337
aVSPGI
p7338
aVSHW
p7339
aVMHK
p7340
aVAYI
p7341
aVALXN
p7342
aVGS
p7343
aVBLK
p7344
aVBIIB
p7345
aVPCLN
p7346
asS'06062016'
p7347
(lp7348
VPXD
p7349
aVCMG
p7350
aVSTZ
p7351
aVXEC
p7352
aVBCR
p7353
aVHD
p7354
aVAYI
p7355
aVCXO
p7356
aVSWK
p7357
aVCVX
p7358
aVZBH
p7359
aVBRK-B
p7360
aVSHW
p7361
aVEW
p7362
aVPX
p7363
aVACN
p7364
aVBLK
p7365
aVUTX
p7366
aVSYK
p7367
aVPPG
p7368
aVFISV
p7369
aVFRT
p7370
aVMHK
p7371
aVTRV
p7372
aVORLY
p7373
aVSJM
p7374
aVGWW
p7375
aVIBM
p7376
aVPH
p7377
aVMCK
p7378
aVWHR
p7379
aVCELG
p7380
aVTDG
p7381
aVNFLX
p7382
aVALXN
p7383
aVGOOG
p7384
aVGOOGL
p7385
aVULTA
p7386
aVPCLN
p7387
asS'12042015'
p7388
(lp7389
VREGN
p7390
aVAZO
p7391
aVORLY
p7392
aVGOOGL
p7393
aVICE
p7394
aVTSO
p7395
aVVRTX
p7396
aVDIS
p7397
aVGOOG
p7398
aVGS
p7399
aVWAT
p7400
aVNOC
p7401
aVRL
p7402
aVGILD
p7403
aVFB
p7404
aVAYI
p7405
aVCXO
p7406
aVBA
p7407
aVPXD
p7408
aVHAR
p7409
aVGD
p7410
aVUHS
p7411
aVSRCL
p7412
aVACN
p7413
aVLH
p7414
aVMCO
p7415
aVEQIX
p7416
aVNKE
p7417
aVROK
p7418
aVIFF
p7419
aVAET
p7420
aVHD
p7421
aVAVB
p7422
aVANTM
p7423
aVSTZ
p7424
aVUNH
p7425
aVHUM
p7426
aVGWW
p7427
asS'08042016'
p7428
(lp7429
VPSA
p7430
aVEFX
p7431
aVMCK
p7432
aVINTU
p7433
aVSYK
p7434
aVDLR
p7435
aVMKC
p7436
aVAYI
p7437
aVKMB
p7438
aVSTZ
p7439
aVGS
p7440
aVFRT
p7441
aVSRE
p7442
aVAVB
p7443
aVPPG
p7444
aVGWW
p7445
aVBRK-B
p7446
aVIBM
p7447
aVGPC
p7448
aVAPD
p7449
aVLLL
p7450
aVCME
p7451
aVAAP
p7452
aVACN
p7453
aVAGN
p7454
aVCMI
p7455
aVWAT
p7456
aVWHR
p7457
aVPH
p7458
aVEW
p7459
aVXEC
p7460
aVBLK
p7461
aVORLY
p7462
aVPXD
p7463
aVHUM
p7464
aVALXN
p7465
aVPCLN
p7466
aVBIIB
p7467
asS'05042016'
p7468
(lp7469
VGOOGL
p7470
aVPCLN
p7471
aVGOOG
p7472
aVAYI
p7473
aVILMN
p7474
aVWHR
p7475
aVALXN
p7476
aVAMG
p7477
aVBLK
p7478
aVMCK
p7479
aVEW
p7480
aVMHK
p7481
aVPPG
p7482
aVADS
p7483
aVXEC
p7484
aVPX
p7485
aVSNA
p7486
aVKMB
p7487
aVORLY
p7488
aVGWW
p7489
aVULTA
p7490
aVACN
p7491
aVTRV
p7492
aVGS
p7493
aVSIG
p7494
aVHON
p7495
aVSWK
p7496
aVCXO
p7497
aVHD
p7498
aVCMI
p7499
aVSTZ
p7500
aVBDX
p7501
aVCMG
p7502
aVPEP
p7503
aVPXD
p7504
aVAET
p7505
aVSJM
p7506
aVCVS
p7507
aVFRT
p7508
aVUHS
p7509
aVBCR
p7510
aVNEE
p7511
aVEQIX
p7512
aVNOC
p7513
aVICE
p7514
asS'05242016'
p7515
(lp7516
VPCLN
p7517
aVAMZN
p7518
aVCMI
p7519
aVPXD
p7520
aVSTZ
p7521
aVGWW
p7522
aVESS
p7523
aVORLY
p7524
aVPSA
p7525
aVUHS
p7526
aVGS
p7527
aVPX
p7528
aVSHW
p7529
aVFRT
p7530
aVFB
p7531
aVHD
p7532
aVCXO
p7533
aVMHK
p7534
aVBLK
p7535
aVWHR
p7536
aVBCR
p7537
aVROP
p7538
aVAYI
p7539
aVPPG
p7540
aVSYK
p7541
aVHON
p7542
aVAMG
p7543
aVBIIB
p7544
aVFISV
p7545
aVFDX
p7546
aVXEC
p7547
aVHUM
p7548
aVACN
p7549
aVSIG
p7550
aVEQIX
p7551
aVICE
p7552
aVTDG
p7553
aVMCK
p7554
aVILMN
p7555
aVGOOGL
p7556
aVGOOG
p7557
aVCMG
p7558
asS'01272017'
p7559
(lp7560
VTDG
p7561
aVWHR
p7562
aVADS
p7563
aVAAP
p7564
aVPSA
p7565
aVBCR
p7566
aVADP
p7567
aVBLK
p7568
aVEOG
p7569
aVCVX
p7570
aVFISV
p7571
aVAMGN
p7572
aVUTX
p7573
aVTMO
p7574
aVAPD
p7575
aVLH
p7576
aVAON
p7577
aVPRU
p7578
aVILMN
p7579
aVDLR
p7580
aVNVDA
p7581
aVSTZ
p7582
aVPNC
p7583
aVCI
p7584
aVEQIX
p7585
aVAMG
p7586
aVAYI
p7587
aVZBH
p7588
aVPH
p7589
aVADBE
p7590
aVLRCX
p7591
aVBA
p7592
aVLLL
p7593
aVFDX
p7594
aVCMI
p7595
aVIBM
p7596
aVCXO
p7597
aVSPGI
p7598
aVMHK
p7599
aVCMG
p7600
aVURI
p7601
aVSHW
p7602
aVPCLN
p7603
asS'01272016'
p7604
(lp7605
VAYI
p7606
aVREGN
p7607
aVBIIB
p7608
aVGOOG
p7609
aVNOC
p7610
aVEQIX
p7611
aVHUM
p7612
aVBA
p7613
aVULTA
p7614
aVIFF
p7615
aVILMN
p7616
aVAVGO
p7617
aVAET
p7618
aVGWW
p7619
aVGS
p7620
aVAMZN
p7621
aVLH
p7622
aVTMO
p7623
aVHSIC
p7624
aVNEE
p7625
aVEFX
p7626
aVGD
p7627
aVAPD
p7628
aVUNH
p7629
aVSJM
p7630
aVICE
p7631
aVACN
p7632
aVORLY
p7633
asS'01222016'
p7634
(lp7635
VAMZN
p7636
aVAYI
p7637
aVBIIB
p7638
aVGOOG
p7639
aVEQIX
p7640
aVREGN
p7641
aVAVGO
p7642
aVGS
p7643
aVNFLX
p7644
aVBA
p7645
aVULTA
p7646
aVGWW
p7647
aVHUM
p7648
aVLH
p7649
aVNOC
p7650
aVLLL
p7651
aVHSIC
p7652
aVIFF
p7653
aVGD
p7654
aVICE
p7655
aVMNST
p7656
aVWAT
p7657
aVAET
p7658
aVAPD
p7659
aVSJM
p7660
aVSTZ
p7661
aVORLY
p7662
aVPXD
p7663
aVUNH
p7664
aVAZO
p7665
asS'09022016'
p7666
(lp7667
VPCLN
p7668
aVGOOG
p7669
aVAGN
p7670
aVALXN
p7671
aVILMN
p7672
aVISRG
p7673
aVAYI
p7674
aVCXO
p7675
aVAAPL
p7676
aVPH
p7677
aVHUM
p7678
aVTMO
p7679
aVEW
p7680
aVBXP
p7681
aVIBM
p7682
aVAAP
p7683
aVZBH
p7684
aVAVB
p7685
aVSTZ
p7686
aVCVX
p7687
aVXEC
p7688
aVESS
p7689
aVGPC
p7690
aVPVH
p7691
aVLLL
p7692
aVAPD
p7693
aVSNA
p7694
aVGS
p7695
aVMON
p7696
aVCME
p7697
aVADBE
p7698
aVCB
p7699
aVEFX
p7700
aVPPG
p7701
aVFISV
p7702
aVSYK
p7703
aVAMP
p7704
aVPSA
p7705
asS'02262016'
p7706
(lp7707
VPRGO
p7708
aVHON
p7709
aVAPD
p7710
aVSTZ
p7711
aVPXD
p7712
aVGS
p7713
aVUHS
p7714
aVLMT
p7715
aVBA
p7716
aVALXN
p7717
aVEFX
p7718
aVAET
p7719
aVCI
p7720
aVBIIB
p7721
aVMNST
p7722
aVGOOG
p7723
aVEQIX
p7724
aVAYI
p7725
aVREGN
p7726
aVAZO
p7727
aVPCLN
p7728
asS'02192016'
p7729
(lp7730
VULTA
p7731
aVSTZ
p7732
aVMCD
p7733
aVFB
p7734
aVICE
p7735
aVLLL
p7736
aVAPD
p7737
aVGS
p7738
aVLMT
p7739
aVEFX
p7740
aVGOOG
p7741
aVTRV
p7742
aVMNST
p7743
aVGD
p7744
aVAVGO
p7745
aVEQIX
p7746
aVLH
p7747
aVHON
p7748
aVNOC
p7749
aVAET
p7750
aVPSA
p7751
aVESS
p7752
aVBIIB
p7753
aVPXD
p7754
aVALXN
p7755
aVAYI
p7756
aVHSIC
p7757
aVREGN
p7758
aVAMZN
p7759
asS'09262016'
p7760
(lp7761
VGS
p7762
aVAYI
p7763
aVPCLN
p7764
aVAPD
p7765
aVCME
p7766
aVPVH
p7767
aVPX
p7768
aVAMP
p7769
aVPH
p7770
aVFB
p7771
aVIBM
p7772
aVAMG
p7773
aVHUM
p7774
aVEQIX
p7775
aVAAP
p7776
aVALXN
p7777
aVUTX
p7778
aVWYNN
p7779
aVPM
p7780
aVINTU
p7781
aVGPC
p7782
aVRTN
p7783
aVWAT
p7784
aVEW
p7785
aVFISV
p7786
aVAGN
p7787
aVLLL
p7788
aVADS
p7789
aVBIIB
p7790
aVBDX
p7791
aVSNA
p7792
aVSPG
p7793
aVGOOGL
p7794
aVORLY
p7795
aVILMN
p7796
aVSYK
p7797
aVNEE
p7798
aVGOOG
p7799
aVSRE
p7800
aVSHW
p7801
aVTMO
p7802
aVPSA
p7803
aVAVB
p7804
aVISRG
p7805
asS'06102016'
p7806
(lp7807
VBIIB
p7808
aVCMG
p7809
aVALXN
p7810
aVBLK
p7811
aVAMG
p7812
aVGS
p7813
aVSPGI
p7814
aVPXD
p7815
aVXEC
p7816
aVHD
p7817
aVAYI
p7818
aVSTZ
p7819
aVCXO
p7820
aVACN
p7821
aVGWW
p7822
aVDHR
p7823
aVNOC
p7824
aVBRK-B
p7825
aVMCK
p7826
aVMHK
p7827
aVCVX
p7828
aVFISV
p7829
aVIBM
p7830
aVSHW
p7831
aVBCR
p7832
aVEW
p7833
aVUTX
p7834
aVBXP
p7835
aVITW
p7836
aVORLY
p7837
aVPPG
p7838
aVFRT
p7839
aVGOOG
p7840
aVPX
p7841
aVKMB
p7842
aVDLR
p7843
aVWYNN
p7844
aVSPG
p7845
aVWHR
p7846
aVFFIV
p7847
aVULTA
p7848
aVHUM
p7849
aVPCLN
p7850
asS'09092016'
p7851
(lp7852
VPCLN
p7853
aVGOOG
p7854
aVGOOGL
p7855
aVAYI
p7856
aVISRG
p7857
aVILMN
p7858
aVGPC
p7859
aVTMO
p7860
aVAAPL
p7861
aVSHW
p7862
aVALXN
p7863
aVUTX
p7864
aVRTN
p7865
aVPH
p7866
aVHUM
p7867
aVAPD
p7868
aVCXO
p7869
aVSNA
p7870
aVMKC
p7871
aVSTZ
p7872
aVEW
p7873
aVPPG
p7874
aVPVH
p7875
aVCME
p7876
aVADBE
p7877
aVAAP
p7878
aVSYK
p7879
aVCB
p7880
aVGS
p7881
aVFISV
p7882
aVDLR
p7883
aVAMP
p7884
aVSRE
p7885
aVCVX
p7886
aVPSA
p7887
aVADS
p7888
asS'04152016'
p7889
(lp7890
VAGN
p7891
aVESS
p7892
aVEQIX
p7893
aVFB
p7894
aVAVGO
p7895
aVFDX
p7896
aVAET
p7897
aVWHR
p7898
aVIBM
p7899
aVSPG
p7900
aVFISV
p7901
aVGWW
p7902
aVACN
p7903
aVAPD
p7904
aVKMB
p7905
aVPPG
p7906
aVNOC
p7907
aVUHS
p7908
aVBCR
p7909
aVHON
p7910
aVLMT
p7911
aVPXD
p7912
aVLLL
p7913
aVADS
p7914
aVCXO
p7915
aVEXPE
p7916
aVCMI
p7917
aVGOOG
p7918
aVBDX
p7919
aVICE
p7920
aVGOOGL
p7921
aVNFLX
p7922
aVXEC
p7923
aVCMG
p7924
aVEW
p7925
aVMCK
p7926
aVALXN
p7927
aVAYI
p7928
aVREGN
p7929
asS'09212016'
p7930
(lp7931
VAYI
p7932
aVAPD
p7933
aVEQIX
p7934
aVAAP
p7935
aVGS
p7936
aVGOOGL
p7937
aVGOOG
p7938
aVUTX
p7939
aVORLY
p7940
aVIBM
p7941
aVHUM
p7942
aVPVH
p7943
aVSPG
p7944
aVPH
p7945
aVSHW
p7946
aVLLL
p7947
aVCB
p7948
aVFB
p7949
aVCME
p7950
aVEW
p7951
aVSNA
p7952
aVAMG
p7953
aVPSA
p7954
aVAGN
p7955
aVSYK
p7956
aVILMN
p7957
aVALXN
p7958
aVPCLN
p7959
aVTMO
p7960
aVSRE
p7961
aVADS
p7962
aVWYNN
p7963
aVISRG
p7964
asS'01132017'
p7965
(lp7966
VAYI
p7967
aVBLK
p7968
aVNVDA
p7969
aVGS
p7970
aVPSA
p7971
aVMLM
p7972
aVLLL
p7973
aVURI
p7974
aVFDX
p7975
aVORLY
p7976
aVCVX
p7977
aVWHR
p7978
aVAMG
p7979
aVPRU
p7980
aVCLX
p7981
aVPNC
p7982
aVIBM
p7983
aVMHK
p7984
aVSTZ
p7985
aVADP
p7986
aVCXO
p7987
aVCELG
p7988
aVAPD
p7989
aVADS
p7990
aVITW
p7991
aVINTU
p7992
aVEOG
p7993
aVAON
p7994
aVFISV
p7995
aVLRCX
p7996
aVAMP
p7997
aVBXP
p7998
aVDLR
p7999
aVRTN
p8000
aVADBE
p8001
aVSPGI
p8002
aVTDG
p8003
aVAMGN
p8004
aVBCR
p8005
aVSHW
p8006
aVALXN
p8007
aVEQIX
p8008
aVZBH
p8009
aVGOOGL
p8010
aVILMN
p8011
aVPCLN
p8012
asS'01242017'
p8013
(lp8014
VTDG
p8015
aVGS
p8016
aVORLY
p8017
aVADS
p8018
aVAAP
p8019
aVAYI
p8020
aVNVDA
p8021
aVBLK
p8022
aVBCR
p8023
aVPSA
p8024
aVAMGN
p8025
aVPNC
p8026
aVTMO
p8027
aVCVX
p8028
aVPRU
p8029
aVEOG
p8030
aVWHR
p8031
aVAMP
p8032
aVFISV
p8033
aVAON
p8034
aVUTX
p8035
aVCLX
p8036
aVSHW
p8037
aVAMG
p8038
aVLLL
p8039
aVFDX
p8040
aVURI
p8041
aVLH
p8042
aVAPD
p8043
aVDLR
p8044
aVITW
p8045
aVSTZ
p8046
aVCXO
p8047
aVLRCX
p8048
aVIBM
p8049
aVSJM
p8050
aVZBH
p8051
aVFB
p8052
aVSPGI
p8053
aVILMN
p8054
aVEQIX
p8055
aVCMG
p8056
aVPCLN
p8057
asS'08312016'
p8058
(lp8059
VGOOGL
p8060
aVPCLN
p8061
aVGOOG
p8062
aVAGN
p8063
aVISRG
p8064
aVALXN
p8065
aVILMN
p8066
aVAAPL
p8067
aVCXO
p8068
aVAAP
p8069
aVAYI
p8070
aVBXP
p8071
aVPH
p8072
aVIBM
p8073
aVAVB
p8074
aVEW
p8075
aVTMO
p8076
aVHUM
p8077
aVSTZ
p8078
aVZBH
p8079
aVLLL
p8080
aVSRE
p8081
aVXEC
p8082
aVDLR
p8083
aVCVX
p8084
aVEFX
p8085
aVTRV
p8086
aVAPD
p8087
aVPVH
p8088
aVMKC
p8089
aVADBE
p8090
aVCME
p8091
aVGS
p8092
aVSNA
p8093
aVCB
p8094
aVMON
p8095
aVFISV
p8096
aVAMG
p8097
aVMCO
p8098
aVPPG
p8099
aVSYK
p8100
aVPSA
p8101
asS'04272016'
p8102
(lp8103
VGOOGL
p8104
aVGOOG
p8105
aVILMN
p8106
aVWHR
p8107
aVKMB
p8108
aVCMG
p8109
aVAAPL
p8110
aVADS
p8111
aVAVGO
p8112
aVAYI
p8113
aVPPG
p8114
aVSIG
p8115
aVIBM
p8116
aVSTZ
p8117
aVMHK
p8118
aVFB
p8119
aVSHW
p8120
aVACN
p8121
aVFRT
p8122
aVWAT
p8123
aVEW
p8124
aVSYK
p8125
aVBCR
p8126
aVHD
p8127
aVALXN
p8128
aVORLY
p8129
aVHON
p8130
aVGWW
p8131
aVEQIX
p8132
aVCVS
p8133
aVEFX
p8134
aVCELG
p8135
aVPX
p8136
aVSWK
p8137
aVRTN
p8138
aVXEC
p8139
aVUNH
p8140
aVAET
p8141
aVLMT
p8142
aVSPGI
p8143
aVHUM
p8144
aVICE
p8145
aVGS
p8146
aVMCK
p8147
aVCXO
p8148
aVBLK
p8149
aVPXD
p8150
asS'12052016'
p8151
(lp8152
VPCLN
p8153
aVRL
p8154
aVSPGI
p8155
aVMHK
p8156
aVTDG
p8157
aVBDX
p8158
aVSTZ
p8159
aVSNA
p8160
aVTMO
p8161
aVIBM
p8162
aVPVH
p8163
aVFISV
p8164
aVCMG
p8165
aVADS
p8166
aVGOOGL
p8167
aVBCR
p8168
aVUTX
p8169
aVPRU
p8170
aVAMP
p8171
aVBLK
p8172
aVROP
p8173
aVAYI
p8174
aVFB
p8175
aVILMN
p8176
aVRTN
p8177
aVROK
p8178
aVEQIX
p8179
aVCOST
p8180
aVPH
p8181
aVCVX
p8182
aVNEE
p8183
aVAMZN
p8184
aVFDX
p8185
aVCMI
p8186
aVUNP
p8187
aVPX
p8188
aVSHW
p8189
aVIFF
p8190
aVWHR
p8191
aVLLL
p8192
aVAMG
p8193
aVPSA
p8194
aVAPD
p8195
aVORLY
p8196
aVGS
p8197
aVURI
p8198
aVEOG
p8199
aVCXO
p8200
aVXEC
p8201
asS'06162016'
p8202
(lp8203
VCMG
p8204
aVBIIB
p8205
aVBLK
p8206
aVAMG
p8207
aVALXN
p8208
aVAYI
p8209
aVGS
p8210
aVXEC
p8211
aVGOOG
p8212
aVMCK
p8213
aVPXD
p8214
aVGOOGL
p8215
aVUHS
p8216
aVGWW
p8217
aVSPGI
p8218
aVCXO
p8219
aVHD
p8220
aVIBM
p8221
aVACN
p8222
aVITW
p8223
aVCMI
p8224
aVFISV
p8225
aVCVX
p8226
aVEW
p8227
aVLLL
p8228
aVPPG
p8229
aVBCR
p8230
aVBRK-B
p8231
aVAPD
p8232
aVBXP
p8233
aVDLR
p8234
aVUTX
p8235
aVSYK
p8236
aVWHR
p8237
aVORLY
p8238
aVPX
p8239
aVSTZ
p8240
aVWYNN
p8241
aVFRT
p8242
aVKMB
p8243
aVSPG
p8244
asS'02252016'
p8245
(lp8246
VHON
p8247
aVAPD
p8248
aVSTZ
p8249
aVLLL
p8250
aVGS
p8251
aVGD
p8252
aVPXD
p8253
aVUHS
p8254
aVBA
p8255
aVLMT
p8256
aVEFX
p8257
aVAET
p8258
aVCI
p8259
aVALXN
p8260
aVMCK
p8261
aVROP
p8262
aVBIIB
p8263
aVBLK
p8264
aVMNST
p8265
aVGOOG
p8266
aVEQIX
p8267
aVAGN
p8268
aVAYI
p8269
aVREGN
p8270
aVAZO
p8271
asS'05122016'
p8272
(lp8273
VPCLN
p8274
aVBLK
p8275
aVWHR
p8276
aVAMG
p8277
aVALXN
p8278
aVULTA
p8279
aVFDX
p8280
aVGS
p8281
aVMCK
p8282
aVAYI
p8283
aVEW
p8284
aVGWW
p8285
aVHUM
p8286
aVPPG
p8287
aVPX
p8288
aVCMI
p8289
aVSIG
p8290
aVAET
p8291
aVCVX
p8292
aVCXO
p8293
aVPXD
p8294
aVSHW
p8295
aVMHK
p8296
aVHD
p8297
aVUHS
p8298
aVHON
p8299
aVROP
p8300
aVACN
p8301
aVSYK
p8302
aVHSIC
p8303
aVCVS
p8304
aVADS
p8305
aVSTZ
p8306
aVFRT
p8307
aVBDX
p8308
aVKMB
p8309
aVSJM
p8310
aVBCR
p8311
aVFB
p8312
aVESS
p8313
aVFISV
p8314
aVNOC
p8315
aVGOOGL
p8316
aVGOOG
p8317
aVEQIX
p8318
aVICE
p8319
aVAMZN
p8320
asS'06222016'
p8321
(lp8322
VGOOG
p8323
aVGOOGL
p8324
aVBIIB
p8325
aVCMG
p8326
aVALXN
p8327
aVAMG
p8328
aVMCK
p8329
aVAVGO
p8330
aVBLK
p8331
aVAYI
p8332
aVPXD
p8333
aVLLL
p8334
aVUHS
p8335
aVGS
p8336
aVFISV
p8337
aVXEC
p8338
aVMTB
p8339
aVAPD
p8340
aVACN
p8341
aVAET
p8342
aVWYNN
p8343
aVHD
p8344
aVCMI
p8345
aVGWW
p8346
aVCXO
p8347
aVNEE
p8348
aVCVX
p8349
aVPPG
p8350
aVSTZ
p8351
aVUTX
p8352
aVMKC
p8353
aVDLR
p8354
aVFRT
p8355
aVSYK
p8356
aVWHR
p8357
aVORLY
p8358
aVSRCL
p8359
aVPCLN
p8360
asS'12132016'
p8361
(lp8362
VCMG
p8363
aVRTN
p8364
aVHAR
p8365
aVRL
p8366
aVAYI
p8367
aVPVH
p8368
aVAMP
p8369
aVHRS
p8370
aVPH
p8371
aVPRU
p8372
aVROK
p8373
aVLLL
p8374
aVAON
p8375
aVFISV
p8376
aVILMN
p8377
aVADS
p8378
aVUNP
p8379
aVURI
p8380
aVSNA
p8381
aVSHW
p8382
aVBDX
p8383
aVROP
p8384
aVMHK
p8385
aVFDX
p8386
aVCVX
p8387
aVTDG
p8388
aVDIS
p8389
aVIBM
p8390
aVCXO
p8391
aVADBE
p8392
aVFB
p8393
aVAPD
p8394
aVORLY
p8395
aVNEE
p8396
aVEOG
p8397
aVSTZ
p8398
aVXEC
p8399
aVAGN
p8400
aVWHR
p8401
aVPSA
p8402
aVZBH
p8403
aVAMG
p8404
aVBLK
p8405
aVPCLN
p8406
aVAMZN
p8407
aVGOOGL
p8408
asS'04132016'
p8409
(lp8410
VCMG
p8411
aVEQIX
p8412
aVESS
p8413
aVFB
p8414
aVGOOG
p8415
aVAET
p8416
aVGWW
p8417
aVGOOGL
p8418
aVAVGO
p8419
aVFDX
p8420
aVWHR
p8421
aVSPG
p8422
aVADS
p8423
aVACN
p8424
aVCMI
p8425
aVBA
p8426
aVHON
p8427
aVKMB
p8428
aVBCR
p8429
aVGS
p8430
aVPXD
p8431
aVLMT
p8432
aVCXO
p8433
aVICE
p8434
aVBDX
p8435
aVCELG
p8436
aVXEC
p8437
aVMCK
p8438
aVEW
p8439
aVAYI
p8440
aVREGN
p8441
asS'03212016'
p8442
(lp8443
VCMG
p8444
aVALXN
p8445
aVSHW
p8446
aVREGN
p8447
aVBCR
p8448
aVBDX
p8449
aVSJM
p8450
aVGD
p8451
aVAET
p8452
aVRTN
p8453
aVCVS
p8454
aVKMB
p8455
aVINTU
p8456
aVUHS
p8457
aVFISV
p8458
aVADS
p8459
aVPCLN
p8460
aVMHK
p8461
aVTRV
p8462
aVAYI
p8463
aVEFX
p8464
aVACN
p8465
aVSWK
p8466
aVPRGO
p8467
aVCMI
p8468
aVCXO
p8469
aVAMT
p8470
aVPPG
p8471
aVGS
p8472
aVMNST
p8473
aVEQIX
p8474
aVROP
p8475
aVSIG
p8476
aVPXD
p8477
aVWHR
p8478
aVBA
p8479
aVFDX
p8480
aVULTA
p8481
aVGOOGL
p8482
aVGOOG
p8483
asS'11012016'
p8484
(lp8485
VCMG
p8486
aVSHW
p8487
aVZBH
p8488
aVGOOGL
p8489
aVLH
p8490
aVAYI
p8491
aVGOOG
p8492
aVLLL
p8493
aVXEC
p8494
aVAMG
p8495
aVAAPL
p8496
aVTMO
p8497
aVBDX
p8498
aVPCLN
p8499
aVBLK
p8500
aVPVH
p8501
aVBCR
p8502
aVADS
p8503
aVADBE
p8504
aVHUM
p8505
aVPH
p8506
aVILMN
p8507
aVROP
p8508
aVPSA
p8509
aVCTAS
p8510
aVRTN
p8511
aVMNST
p8512
aVAAP
p8513
aVSNA
p8514
aVSYK
p8515
aVINTU
p8516
aVSRE
p8517
aVIBM
p8518
aVMA
p8519
aVNEE
p8520
aVCVX
p8521
aVUTX
p8522
aVAPD
p8523
aVGS
p8524
aVALXN
p8525
asS'08242016'
p8526
(lp8527
VGOOGL
p8528
aVGOOG
p8529
aVBIIB
p8530
aVAAP
p8531
aVAGN
p8532
aVAVB
p8533
aVORLY
p8534
aVPCLN
p8535
aVVRTX
p8536
aVTMO
p8537
aVBXP
p8538
aVCELG
p8539
aVIBM
p8540
aVBLK
p8541
aVLLL
p8542
aVILMN
p8543
aVFFIV
p8544
aVFB
p8545
aVAAPL
p8546
aVEFX
p8547
aVDLR
p8548
aVUTX
p8549
aVALXN
p8550
aVEW
p8551
aVSYK
p8552
aVFISV
p8553
aVPSA
p8554
aVPH
p8555
aVGS
p8556
aVCME
p8557
aVROK
p8558
aVSTZ
p8559
aVCXO
p8560
aVSNA
p8561
aVHUM
p8562
aVAYI
p8563
aVCVX
p8564
aVMKC
p8565
aVXEC
p8566
aVAPD
p8567
aVPVH
p8568
asS'09302016'
p8569
(lp8570
VGS
p8571
aVAGN
p8572
aVBLK
p8573
aVALXN
p8574
aVWYNN
p8575
aVCME
p8576
aVGOOGL
p8577
aVFB
p8578
aVAMG
p8579
aVPVH
p8580
aVADS
p8581
aVNEE
p8582
aVMA
p8583
aVPCLN
p8584
aVUTX
p8585
aVFISV
p8586
aVGOOG
p8587
aVINTU
p8588
aVSRE
p8589
aVEW
p8590
aVPH
p8591
aVPX
p8592
aVAPD
p8593
aVPPG
p8594
aVAAP
p8595
aVWAT
p8596
aVSYK
p8597
aVILMN
p8598
aVORLY
p8599
aVAYI
p8600
aVZBH
p8601
aVSNA
p8602
aVCVX
p8603
aVKMB
p8604
aVIBM
p8605
aVAVB
p8606
aVADBE
p8607
aVCMI
p8608
aVTMO
p8609
aVPSA
p8610
asS'01062016'
p8611
(lp8612
VAMZN
p8613
aVREGN
p8614
aVAVGO
p8615
aVAYI
p8616
aVULTA
p8617
aVDIS
p8618
aVSWK
p8619
aVHD
p8620
aVBA
p8621
aVAPD
p8622
aVSNA
p8623
aVRTN
p8624
aVLH
p8625
aVACN
p8626
aVIFF
p8627
aVROK
p8628
aVUNH
p8629
aVESS
p8630
aVLLL
p8631
aVSTZ
p8632
aVHON
p8633
aVUHS
p8634
aVNOC
p8635
aVHUM
p8636
aVVRTX
p8637
aVAET
p8638
aVAVB
p8639
aVGWW
p8640
aVEQIX
p8641
asS'06282016'
p8642
(lp8643
VPCLN
p8644
aVGOOGL
p8645
aVGOOG
p8646
aVBLK
p8647
aVWHR
p8648
aVALXN
p8649
aVBIIB
p8650
aVMHK
p8651
aVAYI
p8652
aVPXD
p8653
aVMCK
p8654
aVACN
p8655
aVIBM
p8656
aVCMI
p8657
aVLLL
p8658
aVAPD
p8659
aVPPG
p8660
aVAET
p8661
aVEXPE
p8662
aVXEC
p8663
aVGWW
p8664
aVHON
p8665
aVFISV
p8666
aVILMN
p8667
aVBRK-B
p8668
aVCVX
p8669
aVCMG
p8670
aVSYK
p8671
aVDLR
p8672
aVSRCL
p8673
aVMKC
p8674
aVSTZ
p8675
aVFRT
p8676
aVPSA
p8677
aVORLY
p8678
asS'11302015'
p8679
(lp8680
VREGN
p8681
aVGOOGL
p8682
aVGOOG
p8683
aVICE
p8684
aVAZO
p8685
aVORLY
p8686
aVFB
p8687
aVDIS
p8688
aVLLL
p8689
aVBA
p8690
aVEQIX
p8691
aVLH
p8692
aVNOC
p8693
aVBIIB
p8694
aVTSO
p8695
aVBXP
p8696
aVGILD
p8697
aVAET
p8698
aVHAR
p8699
aVUNH
p8700
aVHUM
p8701
aVROK
p8702
aVGD
p8703
aVSNA
p8704
aVULTA
p8705
aVPH
p8706
aVGWW
p8707
aVIFF
p8708
aVUHS
p8709
aVVRTX
p8710
aVSRCL
p8711
aVEW
p8712
aVNKE
p8713
aVSTZ
p8714
aVMNST
p8715
aVALXN
p8716
aVMHK
p8717
aVAYI
p8718
aVAVB
p8719
aVAVGO
p8720
aVHD
p8721
aVMCK
p8722
aVNFLX
p8723
asS'09202016'
p8724
(lp8725
VAYI
p8726
aVAPD
p8727
aVGOOG
p8728
aVGOOGL
p8729
aVAAP
p8730
aVORLY
p8731
aVGS
p8732
aVUTX
p8733
aVIBM
p8734
aVSPG
p8735
aVSHW
p8736
aVPPG
p8737
aVHUM
p8738
aVPVH
p8739
aVPH
p8740
aVSTZ
p8741
aVLLL
p8742
aVPCLN
p8743
aVCB
p8744
aVEW
p8745
aVFB
p8746
aVSNA
p8747
aVPSA
p8748
aVCME
p8749
aVHON
p8750
aVAMG
p8751
aVILMN
p8752
aVSYK
p8753
aVNEE
p8754
aVAVB
p8755
aVCI
p8756
aVALXN
p8757
aVSRE
p8758
aVAGN
p8759
aVISRG
p8760
aVADS
p8761
aVWYNN
p8762
asS'06242016'
p8763
(lp8764
VGOOGL
p8765
aVGOOG
p8766
aVPCLN
p8767
aVBIIB
p8768
aVALXN
p8769
aVAMG
p8770
aVMCK
p8771
aVBLK
p8772
aVWYNN
p8773
aVPXD
p8774
aVLLL
p8775
aVWHR
p8776
aVMHK
p8777
aVAYI
p8778
aVACN
p8779
aVFISV
p8780
aVAET
p8781
aVIBM
p8782
aVSWK
p8783
aVMTB
p8784
aVGS
p8785
aVPSA
p8786
aVCMI
p8787
aVPPG
p8788
aVEXPE
p8789
aVGWW
p8790
aVSTZ
p8791
aVCXO
p8792
aVCMG
p8793
aVHD
p8794
aVCVX
p8795
aVFRT
p8796
aVDLR
p8797
aVBRK-B
p8798
aVAAP
p8799
aVMKC
p8800
aVSYK
p8801
aVILMN
p8802
aVSRCL
p8803
aVORLY
p8804
asS'10262016'
p8805
(lp8806
VWAT
p8807
aVEW
p8808
aVILMN
p8809
aVSHW
p8810
aVBLK
p8811
aVTMO
p8812
aVADS
p8813
aVROP
p8814
aVAYI
p8815
aVBCR
p8816
aVAGN
p8817
aVBDX
p8818
aVAMG
p8819
aVPCLN
p8820
aVITW
p8821
aVPH
p8822
aVSYK
p8823
aVCMI
p8824
aVIBM
p8825
aVCTAS
p8826
aVAAPL
p8827
aVLLL
p8828
aVCVX
p8829
aVFFIV
p8830
aVEFX
p8831
aVFISV
p8832
aVINTU
p8833
aVORLY
p8834
aVSRE
p8835
aVFB
p8836
aVPSA
p8837
aVALXN
p8838
aVAPD
p8839
aVNEE
p8840
aVEXPE
p8841
aVGS
p8842
aVSNA
p8843
aVGOOGL
p8844
aVGOOG
p8845
asS'03302016'
p8846
(lp8847
VCMG
p8848
aVAYI
p8849
aVSHW
p8850
aVCXO
p8851
aVCB
p8852
aVBLK
p8853
aVPXD
p8854
aVWHR
p8855
aVCMI
p8856
aVKMB
p8857
aVAET
p8858
aVHON
p8859
aVRTN
p8860
aVPRGO
p8861
aVAON
p8862
aVSJM
p8863
aVPEP
p8864
aVSPG
p8865
aVCVS
p8866
aVMHK
p8867
aVEFX
p8868
aVAVGO
p8869
aVUNH
p8870
aVPPG
p8871
aVLH
p8872
aVGWW
p8873
aVSWK
p8874
aVNFLX
p8875
aVBCR
p8876
aVROP
p8877
aVALXN
p8878
aVREGN
p8879
aVESS
p8880
aVACN
p8881
aVEQIX
p8882
asS'06072016'
p8883
(lp8884
VCMG
p8885
aVSTZ
p8886
aVPXD
p8887
aVHD
p8888
aVNOC
p8889
aVBIIB
p8890
aVBCR
p8891
aVSPGI
p8892
aVXEC
p8893
aVGS
p8894
aVSWK
p8895
aVBLK
p8896
aVAYI
p8897
aVBRK-B
p8898
aVCVX
p8899
aVACN
p8900
aVCXO
p8901
aVEW
p8902
aVSYK
p8903
aVSHW
p8904
aVPX
p8905
aVPPG
p8906
aVFISV
p8907
aVUTX
p8908
aVALXN
p8909
aVFRT
p8910
aVTRV
p8911
aVORLY
p8912
aVINTU
p8913
aVIBM
p8914
aVMHK
p8915
aVMCK
p8916
aVGWW
p8917
aVSJM
p8918
aVAAP
p8919
aVKMB
p8920
aVCELG
p8921
aVGOOG
p8922
aVWHR
p8923
aVGOOGL
p8924
aVAET
p8925
aVHUM
p8926
aVULTA
p8927
aVPCLN
p8928
asS'02022016'
p8929
(lp8930
VREGN
p8931
aVILMN
p8932
aVAMZN
p8933
aVAET
p8934
aVLMT
p8935
aVAYI
p8936
aVLH
p8937
aVHUM
p8938
aVBIIB
p8939
aVNOC
p8940
aVUNH
p8941
aVEFX
p8942
aVTRV
p8943
aVHON
p8944
aVGS
p8945
aVACN
p8946
aVHSIC
p8947
aVLLL
p8948
aVSJM
p8949
aVEQIX
p8950
aVBCR
p8951
aVGD
p8952
aVAVGO
p8953
aVAPD
p8954
aVPXD
p8955
aVORLY
p8956
aVGOOGL
p8957
aVGOOG
p8958
aVAZO
p8959
asS'07052016'
p8960
(lp8961
VPCLN
p8962
aVHUM
p8963
aVCXO
p8964
aVPXD
p8965
aVMHK
p8966
aVACN
p8967
aVCMI
p8968
aVPPG
p8969
aVAET
p8970
aVBLK
p8971
aVALXN
p8972
aVAYI
p8973
aVGOOGL
p8974
aVSWK
p8975
aVIBM
p8976
aVLLL
p8977
aVXEC
p8978
aVPX
p8979
aVUTX
p8980
aVMCD
p8981
aVZBH
p8982
aVBRK-B
p8983
aVFISV
p8984
aVSRCL
p8985
aVDLR
p8986
aVGPC
p8987
aVKMB
p8988
aVMKC
p8989
aVBXP
p8990
aVGWW
p8991
aVAAP
p8992
aVORLY
p8993
aVHSY
p8994
aVBIIB
p8995
aVPSA
p8996
asS'04082016'
p8997
(lp8998
VAGN
p8999
aVCMG
p9000
aVGOOG
p9001
aVFFIV
p9002
aVCMI
p9003
aVGOOGL
p9004
aVFDX
p9005
aVAET
p9006
aVWHR
p9007
aVIBM
p9008
aVAVGO
p9009
aVGWW
p9010
aVGS
p9011
aVEQIX
p9012
aVFB
p9013
aVCXO
p9014
aVPPG
p9015
aVESS
p9016
aVSNA
p9017
aVHON
p9018
aVACN
p9019
aVFISV
p9020
aVSPG
p9021
aVMHK
p9022
aVPXD
p9023
aVSWK
p9024
aVBCR
p9025
aVUHS
p9026
aVAMT
p9027
aVNFLX
p9028
aVPRGO
p9029
aVICE
p9030
aVSHW
p9031
aVMCK
p9032
aVCELG
p9033
aVEW
p9034
aVALXN
p9035
aVAYI
p9036
aVREGN
p9037
asS'02042016'
p9038
(lp9039
VAMZN
p9040
aVREGN
p9041
aVTMO
p9042
aVWAT
p9043
aVAET
p9044
aVLH
p9045
aVSTZ
p9046
aVEFX
p9047
aVUNH
p9048
aVAYI
p9049
aVBA
p9050
aVACN
p9051
aVTRV
p9052
aVHUM
p9053
aVSJM
p9054
aVHSIC
p9055
aVHON
p9056
aVGS
p9057
aVBIIB
p9058
aVLLL
p9059
aVGD
p9060
aVAVGO
p9061
aVFB
p9062
aVGOOG
p9063
aVAPD
p9064
aVAZO
p9065
asS'08012016'
p9066
(lp9067
VPSA
p9068
aVSRCL
p9069
aVBCR
p9070
aVMCK
p9071
aVINTU
p9072
aVCVX
p9073
aVKMB
p9074
aVAYI
p9075
aVEFX
p9076
aVMKC
p9077
aVGWW
p9078
aVSTZ
p9079
aVSRE
p9080
aVDLR
p9081
aVPPG
p9082
aVFISV
p9083
aVGS
p9084
aVGPC
p9085
aVACN
p9086
aVBDX
p9087
aVIBM
p9088
aVLLL
p9089
aVCME
p9090
aVROP
p9091
aVAAP
p9092
aVPH
p9093
aVCTAS
p9094
aVZBH
p9095
aVCMI
p9096
aVWYNN
p9097
aVEW
p9098
aVWAT
p9099
aVCMG
p9100
aVAGN
p9101
aVORLY
p9102
aVBLK
p9103
aVALXN
p9104
aVPCLN
p9105
aVWHR
p9106
aVILMN
p9107
aVBIIB
p9108
asS'09012016'
p9109
(lp9110
VGOOGL
p9111
aVPCLN
p9112
aVGOOG
p9113
aVAGN
p9114
aVALXN
p9115
aVILMN
p9116
aVISRG
p9117
aVCXO
p9118
aVAYI
p9119
aVAAPL
p9120
aVPH
p9121
aVBXP
p9122
aVHUM
p9123
aVAAP
p9124
aVFFIV
p9125
aVTMO
p9126
aVIBM
p9127
aVEW
p9128
aVAVB
p9129
aVZBH
p9130
aVSTZ
p9131
aVSRE
p9132
aVESS
p9133
aVCVX
p9134
aVXEC
p9135
aVLLL
p9136
aVPVH
p9137
aVAPD
p9138
aVMKC
p9139
aVSNA
p9140
aVGS
p9141
aVEFX
p9142
aVADBE
p9143
aVMON
p9144
aVCME
p9145
aVCB
p9146
aVFISV
p9147
aVMCO
p9148
aVSYK
p9149
aVAMP
p9150
aVPSA
p9151
asS'05312016'
p9152
(lp9153
VPXD
p9154
aVROP
p9155
aVSTZ
p9156
aVBCR
p9157
aVUHS
p9158
aVSHW
p9159
aVBDX
p9160
aVXEC
p9161
aVPX
p9162
aVFB
p9163
aVFRT
p9164
aVCVX
p9165
aVHD
p9166
aVBRK-B
p9167
aVSYK
p9168
aVNEE
p9169
aVAPD
p9170
aVESS
p9171
aVGWW
p9172
aVCMI
p9173
aVCXO
p9174
aVFISV
p9175
aVITW
p9176
aVMHK
p9177
aVCMG
p9178
aVACN
p9179
aVPPG
p9180
aVAET
p9181
aVSPGI
p9182
aVAYI
p9183
aVMCK
p9184
aVIBM
p9185
aVWHR
p9186
aVAMG
p9187
aVBLK
p9188
aVORLY
p9189
aVAAPL
p9190
aVMON
p9191
aVNFLX
p9192
aVREGN
p9193
aVGOOG
p9194
aVGOOGL
p9195
asS'01122016'
p9196
(lp9197
VAMZN
p9198
aVREGN
p9199
aVGOOG
p9200
aVAYI
p9201
aVBIIB
p9202
aVAVGO
p9203
aVVRTX
p9204
aVBA
p9205
aVGWW
p9206
aVHSIC
p9207
aVWHR
p9208
aVHUM
p9209
aVLH
p9210
aVAPD
p9211
aVSNA
p9212
aVUNH
p9213
aVPXD
p9214
aVULTA
p9215
aVTRV
p9216
aVGD
p9217
aVSJM
p9218
aVNOC
p9219
aVMNST
p9220
aVLLL
p9221
aVIFF
p9222
aVAET
p9223
aVNFLX
p9224
aVICE
p9225
aVPRGO
p9226
aVEQIX
p9227
asS'05252016'
p9228
(lp9229
VPCLN
p9230
aVPXD
p9231
aVEW
p9232
aVSTZ
p9233
aVCMI
p9234
aVGWW
p9235
aVESS
p9236
aVSHW
p9237
aVFRT
p9238
aVUHS
p9239
aVFB
p9240
aVBDX
p9241
aVROP
p9242
aVPX
p9243
aVBCR
p9244
aVHD
p9245
aVCXO
p9246
aVMHK
p9247
aVORLY
p9248
aVGS
p9249
aVSYK
p9250
aVHON
p9251
aVPPG
p9252
aVFISV
p9253
aVXEC
p9254
aVAYI
p9255
aVWHR
p9256
aVACN
p9257
aVIBM
p9258
aVFDX
p9259
aVBLK
p9260
aVSIG
p9261
aVHUM
p9262
aVICE
p9263
aVALXN
p9264
aVBIIB
p9265
aVEQIX
p9266
aVTDG
p9267
aVMCK
p9268
aVADS
p9269
aVILMN
p9270
aVGOOGL
p9271
aVGOOG
p9272
asS'10112016'
p9273
(lp9274
VILMN
p9275
aVPCLN
p9276
aVAYI
p9277
aVAPD
p9278
aVSPG
p9279
aVBXP
p9280
aVADS
p9281
aVBLK
p9282
aVPSA
p9283
aVSHW
p9284
aVSRE
p9285
aVROP
p9286
aVBDX
p9287
aVNEE
p9288
aVEW
p9289
aVSYK
p9290
aVFDX
p9291
aVSNA
p9292
aVUTX
p9293
aVHSIC
p9294
aVFB
p9295
aVADBE
p9296
aVALXN
p9297
aVPH
p9298
aVPX
p9299
aVTMO
p9300
aVWAT
p9301
aVIBM
p9302
aVAMP
p9303
aVAAPL
p9304
aVFFIV
p9305
aVGOOG
p9306
aVAAP
p9307
aVCVX
p9308
aVNFLX
p9309
aVAGN
p9310
aVSTZ
p9311
aVAMG
p9312
aVCMI
p9313
aVGS
p9314
aVLRCX
p9315
asS'01232017'
p9316
(lp9317
VGS
p9318
aVADS
p9319
aVAYI
p9320
aVBLK
p9321
aVPSA
p9322
aVCELG
p9323
aVAAP
p9324
aVPNC
p9325
aVFDX
p9326
aVCVX
p9327
aVADP
p9328
aVWHR
p9329
aVPRU
p9330
aVAMP
p9331
aVAMGN
p9332
aVAMG
p9333
aVURI
p9334
aVUTX
p9335
aVTMO
p9336
aVEOG
p9337
aVAON
p9338
aVFISV
p9339
aVCLX
p9340
aVLLL
p9341
aVAPD
p9342
aVIBM
p9343
aVLH
p9344
aVRTN
p9345
aVITW
p9346
aVCXO
p9347
aVDLR
p9348
aVSTZ
p9349
aVMLM
p9350
aVLRCX
p9351
aVSHW
p9352
aVMHK
p9353
aVZBH
p9354
aVFB
p9355
aVCMG
p9356
aVEQIX
p9357
aVILMN
p9358
aVPCLN
p9359
asS'01172017'
p9360
(lp9361
VAYI
p9362
aVBLK
p9363
aVGS
p9364
aVNVDA
p9365
aVPSA
p9366
aVMLM
p9367
aVURI
p9368
aVLLL
p9369
aVPNC
p9370
aVORLY
p9371
aVFDX
p9372
aVADS
p9373
aVAMG
p9374
aVCVX
p9375
aVPRU
p9376
aVWHR
p9377
aVCELG
p9378
aVMHK
p9379
aVBA
p9380
aVIBM
p9381
aVUTX
p9382
aVCLX
p9383
aVAMP
p9384
aVAPD
p9385
aVCXO
p9386
aVITW
p9387
aVPH
p9388
aVEOG
p9389
aVAON
p9390
aVRTN
p9391
aVFISV
p9392
aVSTZ
p9393
aVBXP
p9394
aVDLR
p9395
aVTDG
p9396
aVAMGN
p9397
aVSPGI
p9398
aVALXN
p9399
aVBCR
p9400
aVSHW
p9401
aVEQIX
p9402
aVFB
p9403
aVGOOGL
p9404
aVZBH
p9405
aVCMG
p9406
aVILMN
p9407
aVPCLN
p9408
asS'02092017'
p9409
(lp9410
VGOOGL
p9411
aVSNA
p9412
aVWHR
p9413
aVCMG
p9414
aVMLM
p9415
aVEQIX
p9416
aVILMN
p9417
aVEOG
p9418
aVAAP
p9419
aVCVX
p9420
aVDLR
p9421
aVBLK
p9422
aVADS
p9423
aVFISV
p9424
aVSPG
p9425
aVZBH
p9426
aVCI
p9427
aVPSA
p9428
aVCXO
p9429
aVLRCX
p9430
aVPRU
p9431
aVMHK
p9432
aVPNC
p9433
aVIBM
p9434
aVBCR
p9435
aVADBE
p9436
aVURI
p9437
aVBDX
p9438
aVORLY
p9439
aVCLX
p9440
aVAVGO
p9441
aVNVDA
p9442
aVSPGI
p9443
aVSHW
p9444
aVAMP
p9445
aVLLL
p9446
aVTMO
p9447
aVAMGN
p9448
aVAYI
p9449
aVAMG
p9450
aVISRG
p9451
aVPCLN
p9452
aVTDG
p9453
asS'01252017'
p9454
(lp9455
VORLY
p9456
aVGS
p9457
aVADS
p9458
aVAAP
p9459
aVBCR
p9460
aVPSA
p9461
aVAMGN
p9462
aVTMO
p9463
aVNVDA
p9464
aVADP
p9465
aVEOG
p9466
aVFISV
p9467
aVCVX
p9468
aVPNC
p9469
aVSHW
p9470
aVAYI
p9471
aVUTX
p9472
aVAON
p9473
aVPRU
p9474
aVWHR
p9475
aVCLX
p9476
aVAMP
p9477
aVSNA
p9478
aVLLL
p9479
aVLH
p9480
aVBXP
p9481
aVBLK
p9482
aVURI
p9483
aVAMG
p9484
aVAPD
p9485
aVDLR
p9486
aVPH
p9487
aVBA
p9488
aVPX
p9489
aVFDX
p9490
aVCI
p9491
aVZBH
p9492
aVSTZ
p9493
aVITW
p9494
aVLRCX
p9495
aVILMN
p9496
aVCXO
p9497
aVIBM
p9498
aVEQIX
p9499
aVSPGI
p9500
aVVMC
p9501
aVCMG
p9502
aVPCLN
p9503
asS'01252016'
p9504
(lp9505
VAYI
p9506
aVBIIB
p9507
aVAMZN
p9508
aVEQIX
p9509
aVGOOG
p9510
aVNFLX
p9511
aVGS
p9512
aVULTA
p9513
aVHUM
p9514
aVBA
p9515
aVGWW
p9516
aVNOC
p9517
aVIFF
p9518
aVREGN
p9519
aVLH
p9520
aVCI
p9521
aVHSIC
p9522
aVKMB
p9523
aVGD
p9524
aVLMT
p9525
aVMNST
p9526
aVICE
p9527
aVAET
p9528
aVAPD
p9529
aVWAT
p9530
aVEFX
p9531
aVILMN
p9532
aVSJM
p9533
aVSTZ
p9534
aVWHR
p9535
aVUNH
p9536
aVORLY
p9537
asS'12282016'
p9538
(lp9539
VPCLN
p9540
aVAYI
p9541
aVBLK
p9542
aVFDX
p9543
aVAMG
p9544
aVGS
p9545
aVAAP
p9546
aVLLL
p9547
aVAMP
p9548
aVURI
p9549
aVADS
p9550
aVCMI
p9551
aVCXO
p9552
aVMLM
p9553
aVEOG
p9554
aVAPD
p9555
aVSPG
p9556
aVPH
p9557
aVHRS
p9558
aVSNA
p9559
aVPRU
p9560
aVRTN
p9561
aVBA
p9562
aVIBM
p9563
aVPNC
p9564
aVUNP
p9565
aVDIS
p9566
aVCVX
p9567
aVVMC
p9568
aVAON
p9569
aVUTX
p9570
aVCELG
p9571
aVSHW
p9572
aVFISV
p9573
aVORLY
p9574
aVFB
p9575
aVWAT
p9576
aVPSA
p9577
aVADBE
p9578
aVTMO
p9579
aVBDX
p9580
aVSTZ
p9581
aVADP
p9582
aVGOOGL
p9583
aVZBH
p9584
aVCLX
p9585
aVWHR
p9586
aVTDG
p9587
aVCMG
p9588
aVNVDA
p9589
aVAMZN
p9590
asS'04282016'
p9591
(lp9592
VGOOGL
p9593
aVGOOG
p9594
aVILMN
p9595
aVWHR
p9596
aVCMG
p9597
aVAAPL
p9598
aVAYI
p9599
aVKMB
p9600
aVAVGO
p9601
aVADS
p9602
aVALXN
p9603
aVPCLN
p9604
aVMHK
p9605
aVFDX
p9606
aVSIG
p9607
aVWAT
p9608
aVORLY
p9609
aVPPG
p9610
aVSTZ
p9611
aVEW
p9612
aVACN
p9613
aVHD
p9614
aVFRT
p9615
aVSYK
p9616
aVHON
p9617
aVCVS
p9618
aVEQIX
p9619
aVCELG
p9620
aVPX
p9621
aVCMI
p9622
aVSNA
p9623
aVFB
p9624
aVEFX
p9625
aVBCR
p9626
aVBDX
p9627
aVUNH
p9628
aVXEC
p9629
aVMCK
p9630
aVAET
p9631
aVBLK
p9632
aVLMT
p9633
aVICE
p9634
aVHUM
p9635
aVCXO
p9636
aVPXD
p9637
asS'02102016'
p9638
(lp9639
VAMZN
p9640
aVAZO
p9641
aVREGN
p9642
aVGOOG
p9643
aVEQIX
p9644
aVULTA
p9645
aVILMN
p9646
aVICE
p9647
aVSTZ
p9648
aVORLY
p9649
aVBIIB
p9650
aVAYI
p9651
aVTMO
p9652
aVLH
p9653
aVHUM
p9654
aVPXD
p9655
aVUNH
p9656
aVGS
p9657
aVBA
p9658
aVBCR
p9659
aVKMB
p9660
aVTRV
p9661
aVNOC
p9662
aVHON
p9663
aVHSIC
p9664
aVGD
p9665
aVLLL
p9666
aVAPD
p9667
asS'12282015'
p9668
(lp9669
VGOOG
p9670
aVREGN
p9671
aVMNST
p9672
aVDIS
p9673
aVACN
p9674
aVAVGO
p9675
aVSWK
p9676
aVHD
p9677
aVLLL
p9678
aVBA
p9679
aVMTB
p9680
aVPPG
p9681
aVIFF
p9682
aVMCD
p9683
aVSNA
p9684
aVTRV
p9685
aVSJM
p9686
aVAYI
p9687
aVNOC
p9688
aVEXPE
p9689
aVSTZ
p9690
aVICE
p9691
aVGILD
p9692
aVLH
p9693
aVBF-B
p9694
aVORLY
p9695
aVUNH
p9696
aVPRGO
p9697
aVBXP
p9698
aVHON
p9699
aVUHS
p9700
aVVRTX
p9701
aVAET
p9702
aVAVB
p9703
aVHUM
p9704
aVCELG
p9705
asS'01112016'
p9706
(lp9707
VAMZN
p9708
aVGOOG
p9709
aVREGN
p9710
aVAYI
p9711
aVBIIB
p9712
aVAVGO
p9713
aVVRTX
p9714
aVBA
p9715
aVAPD
p9716
aVHSIC
p9717
aVSNA
p9718
aVUNH
p9719
aVLH
p9720
aVULTA
p9721
aVHUM
p9722
aVPXD
p9723
aVGD
p9724
aVSJM
p9725
aVNFLX
p9726
aVUHS
p9727
aVLLL
p9728
aVNOC
p9729
aVIFF
p9730
aVAVB
p9731
aVAET
p9732
aVPRGO
p9733
aVICE
p9734
aVEQIX
p9735
asS'01112017'
p9736
(lp9737
VAYI
p9738
aVBLK
p9739
aVGS
p9740
aVMLM
p9741
aVNVDA
p9742
aVLLL
p9743
aVCVX
p9744
aVAAP
p9745
aVFDX
p9746
aVURI
p9747
aVHAR
p9748
aVORLY
p9749
aVWHR
p9750
aVAMG
p9751
aVPRU
p9752
aVADP
p9753
aVIBM
p9754
aVCXO
p9755
aVAPD
p9756
aVITW
p9757
aVSTZ
p9758
aVCLX
p9759
aVPH
p9760
aVADS
p9761
aVPNC
p9762
aVBA
p9763
aVEOG
p9764
aVFISV
p9765
aVPSA
p9766
aVLRCX
p9767
aVNEE
p9768
aVCMI
p9769
aVAMP
p9770
aVSYK
p9771
aVBXP
p9772
aVDLR
p9773
aVADBE
p9774
aVSPGI
p9775
aVTMO
p9776
aVTDG
p9777
aVBCR
p9778
aVSHW
p9779
aVAMGN
p9780
aVBIIB
p9781
aVZBH
p9782
aVEQIX
p9783
aVGOOGL
p9784
aVALXN
p9785
aVILMN
p9786
aVPCLN
p9787
asS'04072016'
p9788
(lp9789
VAGN
p9790
aVCMG
p9791
aVCMI
p9792
aVBA
p9793
aVGOOG
p9794
aVWHR
p9795
aVAVGO
p9796
aVAET
p9797
aVIBM
p9798
aVSNA
p9799
aVNEE
p9800
aVGOOGL
p9801
aVGWW
p9802
aVPXD
p9803
aVMHK
p9804
aVPPG
p9805
aVHON
p9806
aVFB
p9807
aVCVS
p9808
aVFISV
p9809
aVEQIX
p9810
aVESS
p9811
aVACN
p9812
aVSPG
p9813
aVSWK
p9814
aVSHW
p9815
aVADS
p9816
aVBCR
p9817
aVUHS
p9818
aVPRGO
p9819
aVNFLX
p9820
aVICE
p9821
aVMCK
p9822
aVCELG
p9823
aVEW
p9824
aVALXN
p9825
aVAYI
p9826
aVREGN
p9827
asS'07282016'
p9828
(lp9829
VBCR
p9830
aVPSA
p9831
aVSYK
p9832
aVPCLN
p9833
aVKMB
p9834
aVGWW
p9835
aVMKC
p9836
aVINTU
p9837
aVMCK
p9838
aVCVX
p9839
aVDLR
p9840
aVSRE
p9841
aVMCD
p9842
aVAYI
p9843
aVSTZ
p9844
aVNEE
p9845
aVLLL
p9846
aVAET
p9847
aVGPC
p9848
aVBDX
p9849
aVPPG
p9850
aVBRK-B
p9851
aVFISV
p9852
aVACN
p9853
aVSRCL
p9854
aVANTM
p9855
aVAAP
p9856
aVIBM
p9857
aVPH
p9858
aVGS
p9859
aVTDG
p9860
aVFFIV
p9861
aVAVGO
p9862
aVORLY
p9863
aVCMI
p9864
aVWAT
p9865
aVEW
p9866
aVCTAS
p9867
aVAMG
p9868
aVBLK
p9869
aVWYNN
p9870
aVAGN
p9871
aVILMN
p9872
aVHUM
p9873
aVWHR
p9874
aVCMG
p9875
aVBIIB
p9876
asS'10042016'
p9877
(lp9878
VBLK
p9879
aVSPG
p9880
aVAPD
p9881
aVGS
p9882
aVAGN
p9883
aVALXN
p9884
aVCME
p9885
aVNEE
p9886
aVGOOG
p9887
aVSRE
p9888
aVBCR
p9889
aVORLY
p9890
aVFB
p9891
aVAAPL
p9892
aVADS
p9893
aVMA
p9894
aVEW
p9895
aVSHW
p9896
aVINTU
p9897
aVAYI
p9898
aVPH
p9899
aVUTX
p9900
aVSWK
p9901
aVAAP
p9902
aVSYK
p9903
aVHUM
p9904
aVPPG
p9905
aVPSA
p9906
aVAMG
p9907
aVILMN
p9908
aVWAT
p9909
aVSNA
p9910
aVIBM
p9911
aVADBE
p9912
aVZBH
p9913
aVCVX
p9914
aVTMO
p9915
aVXEC
p9916
aVCMG
p9917
aVPCLN
p9918
asS'09072016'
p9919
(lp9920
VPCLN
p9921
aVGOOG
p9922
aVGOOGL
p9923
aVAYI
p9924
aVALXN
p9925
aVILMN
p9926
aVHUM
p9927
aVCXO
p9928
aVUTX
p9929
aVPH
p9930
aVAAPL
p9931
aVTMO
p9932
aVEW
p9933
aVSNA
p9934
aVZBH
p9935
aVCME
p9936
aVPVH
p9937
aVIBM
p9938
aVSHW
p9939
aVMKC
p9940
aVINTU
p9941
aVGS
p9942
aVAPD
p9943
aVADBE
p9944
aVCVX
p9945
aVSRE
p9946
aVCB
p9947
aVAAP
p9948
aVFISV
p9949
aVAMP
p9950
aVDLR
p9951
aVSYK
p9952
aVESS
p9953
aVAMG
p9954
aVPSA
p9955
aVADS
p9956
asS'05052016'
p9957
(lp9958
VPCLN
p9959
aVGOOGL
p9960
aVGOOG
p9961
aVAYI
p9962
aVAMG
p9963
aVBLK
p9964
aVALXN
p9965
aVWHR
p9966
aVILMN
p9967
aVEW
p9968
aVFDX
p9969
aVMCK
p9970
aVMHK
p9971
aVPPG
p9972
aVULTA
p9973
aVPX
p9974
aVORLY
p9975
aVADS
p9976
aVGS
p9977
aVROP
p9978
aVSNA
p9979
aVGWW
p9980
aVCMI
p9981
aVACN
p9982
aVSWK
p9983
aVPSA
p9984
aVKMB
p9985
aVHON
p9986
aVXEC
p9987
aVSIG
p9988
aVHD
p9989
aVSYK
p9990
aVCXO
p9991
aVPXD
p9992
aVAET
p9993
aVPEP
p9994
aVBDX
p9995
aVUHS
p9996
aVCVS
p9997
aVEQIX
p9998
aVFRT
p9999
aVNEE
p10000
aVBCR
p10001
aVCMG
p10002
aVNOC
p10003
aVICE
p10004
asS'11182016'
p10005
(lp10006
VGOOGL
p10007
aVGOOG
p10008
aVTDG
p10009
aVAMZN
p10010
aVEQIX
p10011
aVNEE
p10012
aVFB
p10013
aVSTZ
p10014
aVSYK
p10015
aVALXN
p10016
aVADBE
p10017
aVMA
p10018
aVAGN
p10019
aVSPGI
p10020
aVPCLN
p10021
aVPX
p10022
aVBCR
p10023
aVCXO
p10024
aVPVH
p10025
aVXEC
p10026
aVCVX
p10027
aVFFIV
p10028
aVUTX
p10029
aVFISV
p10030
aVAPD
p10031
aVLRCX
p10032
aVFDX
p10033
aVRTN
p10034
aVILMN
p10035
aVINTU
p10036
aVAMG
p10037
aVCTAS
p10038
aVROK
p10039
aVSNA
p10040
aVROP
p10041
aVWHR
p10042
aVPH
p10043
aVPNC
p10044
aVMCK
p10045
aVADS
p10046
aVSHW
p10047
aVAMP
p10048
aVGS
p10049
aVBLK
p10050
aVHUM
p10051
aVBIIB
p10052
aVHAR
p10053
aVAYI
p10054
aVCMG
p10055
asS'03092016'
p10056
(lp10057
VGD
p10058
aVFB
p10059
aVAPD
p10060
aVBCR
p10061
aVCMI
p10062
aVAET
p10063
aVTRV
p10064
aVHON
p10065
aVEQIX
p10066
aVCI
p10067
aVEFX
p10068
aVACN
p10069
aVCXO
p10070
aVULTA
p10071
aVPRGO
p10072
aVPXD
p10073
aVALXN
p10074
aVGOOG
p10075
aVMNST
p10076
aVWHR
p10077
aVGS
p10078
aVFDX
p10079
aVSHW
p10080
aVBA
p10081
aVAYI
p10082
aVESS
p10083
aVREGN
p10084
aVPCLN
p10085
asS'08152016'
p10086
(lp10087
VAZO
p10088
aVFRT
p10089
aVPSA
p10090
aVFISV
p10091
aVAGN
p10092
aVSRE
p10093
aVAVB
p10094
aVBIIB
p10095
aVORLY
p10096
aVEFX
p10097
aVBLK
p10098
aVDLR
p10099
aVIBM
p10100
aVZBH
p10101
aVFFIV
p10102
aVEW
p10103
aVCELG
p10104
aVSYK
p10105
aVBXP
p10106
aVMKC
p10107
aVCME
p10108
aVSTZ
p10109
aVAPD
p10110
aVGPC
p10111
aVINTU
p10112
aVMNST
p10113
aVCVX
p10114
aVVRTX
p10115
aVTDG
p10116
aVILMN
p10117
aVAMG
p10118
aVGOOGL
p10119
aVCMI
p10120
aVALXN
p10121
aVAAPL
p10122
aVWYNN
p10123
aVADBE
p10124
aVGOOG
p10125
aVPH
p10126
aVAYI
p10127
aVXEC
p10128
aVHUM
p10129
aVCXO
p10130
aVPCLN
p10131
asS'10182016'
p10132
(lp10133
VPCLN
p10134
aVILMN
p10135
aVCMG
p10136
aVROP
p10137
aVAMG
p10138
aVTMO
p10139
aVHSIC
p10140
aVFFIV
p10141
aVBDX
p10142
aVHUM
p10143
aVEW
p10144
aVAPD
p10145
aVADS
p10146
aVCTAS
p10147
aVBCR
p10148
aVIBM
p10149
aVLLL
p10150
aVSYK
p10151
aVADBE
p10152
aVEFX
p10153
aVPVH
p10154
aVMA
p10155
aVALXN
p10156
aVAYI
p10157
aVCMI
p10158
aVINTU
p10159
aVBLK
p10160
aVAAP
p10161
aVCME
p10162
aVSNA
p10163
aVCVX
p10164
aVSRE
p10165
aVUTX
p10166
aVSHW
p10167
aVFISV
p10168
aVAAPL
p10169
aVNEE
p10170
aVPSA
p10171
aVGOOGL
p10172
aVGS
p10173
aVGOOG
p10174
asS'02012017'
p10175
(lp10176
VGOOGL
p10177
aVTDG
p10178
aVORLY
p10179
aVWHR
p10180
aVGS
p10181
aVAAP
p10182
aVBLK
p10183
aVADP
p10184
aVCVX
p10185
aVEQIX
p10186
aVILMN
p10187
aVEOG
p10188
aVADS
p10189
aVFISV
p10190
aVUTX
p10191
aVAMP
p10192
aVCLX
p10193
aVPRU
p10194
aVDLR
p10195
aVAON
p10196
aVBCR
p10197
aVCI
p10198
aVSTZ
p10199
aVPNC
p10200
aVVMC
p10201
aVDIS
p10202
aVCTAS
p10203
aVAMGN
p10204
aVCELG
p10205
aVBA
p10206
aVZBH
p10207
aVADBE
p10208
aVMLM
p10209
aVIBM
p10210
aVNVDA
p10211
aVLRCX
p10212
aVCXO
p10213
aVCME
p10214
aVAYI
p10215
aVCMI
p10216
aVBDX
p10217
aVSPGI
p10218
aVCMG
p10219
aVMHK
p10220
aVTMO
p10221
aVWYNN
p10222
aVLLL
p10223
aVAMG
p10224
aVURI
p10225
aVSHW
p10226
aVPCLN
p10227
asS'11162016'
p10228
(lp10229
VAMZN
p10230
aVGOOGL
p10231
aVGOOG
p10232
aVEQIX
p10233
aVSTZ
p10234
aVNEE
p10235
aVFB
p10236
aVTDG
p10237
aVIFF
p10238
aVSYK
p10239
aVALXN
p10240
aVADBE
p10241
aVBCR
p10242
aVMA
p10243
aVCXO
p10244
aVPX
p10245
aVXEC
p10246
aVCVX
p10247
aVFISV
p10248
aVINTU
p10249
aVPSA
p10250
aVLH
p10251
aVUTX
p10252
aVFFIV
p10253
aVFDX
p10254
aVAPD
p10255
aVORLY
p10256
aVILMN
p10257
aVAMG
p10258
aVNSC
p10259
aVPNC
p10260
aVRTN
p10261
aVADS
p10262
aVITW
p10263
aVSNA
p10264
aVPCLN
p10265
aVROP
p10266
aVWHR
p10267
aVLLL
p10268
aVPH
p10269
aVGWW
p10270
aVSHW
p10271
aVAAP
p10272
aVAMP
p10273
aVHUM
p10274
aVBLK
p10275
aVHAR
p10276
aVAYI
p10277
aVCMG
p10278
asS'04202016'
p10279
(lp10280
VAVGO
p10281
aVESS
p10282
aVNFLX
p10283
aVEQIX
p10284
aVIBM
p10285
aVSIG
p10286
aVGWW
p10287
aVAAPL
p10288
aVHUM
p10289
aVFRT
p10290
aVWHR
p10291
aVACN
p10292
aVFB
p10293
aVKMB
p10294
aVSTZ
p10295
aVHD
p10296
aVLMT
p10297
aVAET
p10298
aVEFX
p10299
aVHSIC
p10300
aVSWK
p10301
aVPPG
p10302
aVSJM
p10303
aVUHS
p10304
aVHON
p10305
aVRTN
p10306
aVMHK
p10307
aVBCR
p10308
aVBDX
p10309
aVGOOG
p10310
aVEW
p10311
aVPX
p10312
aVADS
p10313
aVSPGI
p10314
aVGOOGL
p10315
aVCXO
p10316
aVPXD
p10317
aVCI
p10318
aVXEC
p10319
aVCMI
p10320
aVICE
p10321
aVALXN
p10322
aVAYI
p10323
aVREGN
p10324
aVCMG
p10325
aVMCK
p10326
aVBLK
p10327
aVPCLN
p10328
asS'10102016'
p10329
(lp10330
VAYI
p10331
aVAPD
p10332
aVSPG
p10333
aVHON
p10334
aVBXP
p10335
aVPPG
p10336
aVADS
p10337
aVPSA
p10338
aVBLK
p10339
aVSRE
p10340
aVSHW
p10341
aVNEE
p10342
aVGOOGL
p10343
aVEFX
p10344
aVPCLN
p10345
aVBCR
p10346
aVFB
p10347
aVBDX
p10348
aVEW
p10349
aVFDX
p10350
aVAAPL
p10351
aVRTN
p10352
aVUTX
p10353
aVGOOG
p10354
aVALXN
p10355
aVADBE
p10356
aVSYK
p10357
aVPX
p10358
aVPH
p10359
aVSNA
p10360
aVIBM
p10361
aVWAT
p10362
aVAMP
p10363
aVFISV
p10364
aVHUM
p10365
aVILMN
p10366
aVTMO
p10367
aVFFIV
p10368
aVAAP
p10369
aVCVX
p10370
aVZBH
p10371
aVSTZ
p10372
aVGS
p10373
aVNFLX
p10374
aVCMI
p10375
aVLRCX
p10376
aVAMG
p10377
aVXEC
p10378
asS'09152016'
p10379
(lp10380
VGOOG
p10381
aVAYI
p10382
aVGOOGL
p10383
aVAPD
p10384
aVXEC
p10385
aVPCLN
p10386
aVCXO
p10387
aVAAP
p10388
aVSLG
p10389
aVSHW
p10390
aVUTX
p10391
aVPPG
p10392
aVIBM
p10393
aVHUM
p10394
aVSNA
p10395
aVGS
p10396
aVPVH
p10397
aVSWK
p10398
aVPSA
p10399
aVEW
p10400
aVLLL
p10401
aVTMO
p10402
aVSTZ
p10403
aVSYK
p10404
aVILMN
p10405
aVCB
p10406
aVCME
p10407
aVFB
p10408
aVCMG
p10409
aVNEE
p10410
aVSRE
p10411
aVALXN
p10412
aVAMG
p10413
aVAGN
p10414
aVADS
p10415
aVWYNN
p10416
asS'01212016'
p10417
(lp10418
VAMZN
p10419
aVREGN
p10420
aVGOOG
p10421
aVBIIB
p10422
aVAYI
p10423
aVEQIX
p10424
aVAVGO
p10425
aVGS
p10426
aVULTA
p10427
aVBA
p10428
aVGWW
p10429
aVHUM
p10430
aVLH
p10431
aVICE
p10432
aVNOC
p10433
aVLLL
p10434
aVHSIC
p10435
aVGD
p10436
aVIFF
p10437
aVMNST
p10438
aVTMO
p10439
aVTRV
p10440
aVWAT
p10441
aVAET
p10442
aVLMT
p10443
aVSJM
p10444
aVAPD
p10445
aVORLY
p10446
aVAZO
p10447
aVSTZ
p10448
aVPXD
p10449
aVACN
p10450
aVUNH
p10451
asS'06172016'
p10452
(lp10453
VCMG
p10454
aVBIIB
p10455
aVGOOG
p10456
aVBLK
p10457
aVGOOGL
p10458
aVALXN
p10459
aVAMG
p10460
aVAYI
p10461
aVMCK
p10462
aVPXD
p10463
aVGS
p10464
aVXEC
p10465
aVUHS
p10466
aVCXO
p10467
aVGWW
p10468
aVAVGO
p10469
aVHD
p10470
aVACN
p10471
aVIBM
p10472
aVFISV
p10473
aVITW
p10474
aVLLL
p10475
aVCMI
p10476
aVCVX
p10477
aVBCR
p10478
aVBRK-B
p10479
aVPPG
p10480
aVBXP
p10481
aVDLR
p10482
aVSYK
p10483
aVWHR
p10484
aVORLY
p10485
aVSTZ
p10486
aVPX
p10487
aVWYNN
p10488
aVFRT
p10489
aVSRCL
p10490
asS'02032016'
p10491
(lp10492
VAMZN
p10493
aVREGN
p10494
aVWAT
p10495
aVAET
p10496
aVBA
p10497
aVLH
p10498
aVLMT
p10499
aVAYI
p10500
aVUNH
p10501
aVEFX
p10502
aVHUM
p10503
aVSTZ
p10504
aVACN
p10505
aVTRV
p10506
aVBIIB
p10507
aVGS
p10508
aVHON
p10509
aVHSIC
p10510
aVSJM
p10511
aVLLL
p10512
aVBCR
p10513
aVGD
p10514
aVAVGO
p10515
aVAPD
p10516
aVGOOG
p10517
aVGOOGL
p10518
aVAZO
p10519
asS'02032017'
p10520
(lp10521
VGOOGL
p10522
aVWHR
p10523
aVAAP
p10524
aVEQIX
p10525
aVTDG
p10526
aVILMN
p10527
aVBLK
p10528
aVEOG
p10529
aVCMG
p10530
aVCVX
p10531
aVFISV
p10532
aVADS
p10533
aVMLM
p10534
aVVMC
p10535
aVDLR
p10536
aVPRU
p10537
aVRTN
p10538
aVSTZ
p10539
aVEFX
p10540
aVINTU
p10541
aVAON
p10542
aVBCR
p10543
aVPNC
p10544
aVCTAS
p10545
aVZBH
p10546
aVCLX
p10547
aVADBE
p10548
aVITW
p10549
aVLRCX
p10550
aVCME
p10551
aVCMI
p10552
aVCXO
p10553
aVMHK
p10554
aVAMP
p10555
aVNVDA
p10556
aVSPGI
p10557
aVBDX
p10558
aVAYI
p10559
aVTMO
p10560
aVLLL
p10561
aVPCLN
p10562
aVAVGO
p10563
aVURI
p10564
aVSHW
p10565
aVAMG
p10566
aVISRG
p10567
asS'01202016'
p10568
(lp10569
VAMZN
p10570
aVREGN
p10571
aVGOOG
p10572
aVAYI
p10573
aVBIIB
p10574
aVAVGO
p10575
aVAMG
p10576
aVULTA
p10577
aVGS
p10578
aVHUM
p10579
aVBA
p10580
aVGWW
p10581
aVEQIX
p10582
aVLH
p10583
aVAZO
p10584
aVWHR
p10585
aVLLL
p10586
aVICE
p10587
aVGD
p10588
aVHSIC
p10589
aVNOC
p10590
aVIFF
p10591
aVORLY
p10592
aVWAT
p10593
aVAET
p10594
aVMNST
p10595
aVTRV
p10596
aVAPD
p10597
aVSJM
p10598
aVPXD
p10599
aVSTZ
p10600
asS'03012016'
p10601
(lp10602
VHON
p10603
aVAPD
p10604
aVTRV
p10605
aVACN
p10606
aVLMT
p10607
aVHSIC
p10608
aVBCR
p10609
aVUHS
p10610
aVPXD
p10611
aVEFX
p10612
aVAET
p10613
aVBA
p10614
aVMNST
p10615
aVGS
p10616
aVALXN
p10617
aVBIIB
p10618
aVEQIX
p10619
aVSHW
p10620
aVGOOGL
p10621
aVGOOG
p10622
aVAYI
p10623
aVAZO
p10624
aVREGN
p10625
asS'08222016'
p10626
(lp10627
VGOOG
p10628
aVISRG
p10629
aVBIIB
p10630
aVAVB
p10631
aVCMG
p10632
aVORLY
p10633
aVTMO
p10634
aVIBM
p10635
aVFFIV
p10636
aVCELG
p10637
aVAGN
p10638
aVFB
p10639
aVLLL
p10640
aVEFX
p10641
aVFISV
p10642
aVCMI
p10643
aVPSA
p10644
aVBDX
p10645
aVSNA
p10646
aVALXN
p10647
aVAAPL
p10648
aVSYK
p10649
aVUTX
p10650
aVDLR
p10651
aVILMN
p10652
aVEW
p10653
aVINTU
p10654
aVCME
p10655
aVACN
p10656
aVMKC
p10657
aVGS
p10658
aVCVX
p10659
aVPH
p10660
aVHUM
p10661
aVXEC
p10662
aVCXO
p10663
aVCI
p10664
aVAYI
p10665
aVAPD
p10666
aVPVH
p10667
aVPXD
p10668
aVPCLN
p10669
asS'08192016'
p10670
(lp10671
VISRG
p10672
aVGOOG
p10673
aVBIIB
p10674
aVCMG
p10675
aVAVB
p10676
aVORLY
p10677
aVCELG
p10678
aVIBM
p10679
aVAGN
p10680
aVFFIV
p10681
aVPSA
p10682
aVFISV
p10683
aVFB
p10684
aVBLK
p10685
aVALXN
p10686
aVEFX
p10687
aVBDX
p10688
aVLLL
p10689
aVWYNN
p10690
aVNEE
p10691
aVSNA
p10692
aVSYK
p10693
aVDLR
p10694
aVILMN
p10695
aVEW
p10696
aVSTZ
p10697
aVUTX
p10698
aVAAPL
p10699
aVACN
p10700
aVCME
p10701
aVGS
p10702
aVCVX
p10703
aVPH
p10704
aVHUM
p10705
aVCI
p10706
aVFDX
p10707
aVAPD
p10708
aVXEC
p10709
aVAYI
p10710
aVCXO
p10711
aVPVH
p10712
aVPXD
p10713
aVPCLN
p10714
asS'06202016'
p10715
(lp10716
VBIIB
p10717
aVCMG
p10718
aVGOOG
p10719
aVGOOGL
p10720
aVALXN
p10721
aVAMG
p10722
aVBLK
p10723
aVAYI
p10724
aVPXD
p10725
aVMCK
p10726
aVGS
p10727
aVUHS
p10728
aVXEC
p10729
aVAVGO
p10730
aVCXO
p10731
aVLLL
p10732
aVGWW
p10733
aVFISV
p10734
aVHD
p10735
aVACN
p10736
aVITW
p10737
aVCMI
p10738
aVAPD
p10739
aVCVX
p10740
aVBCR
p10741
aVBRK-B
p10742
aVDLR
p10743
aVPPG
p10744
aVHON
p10745
aVWYNN
p10746
aVSYK
p10747
aVSTZ
p10748
aVMKC
p10749
aVPX
p10750
aVNEE
p10751
aVORLY
p10752
aVFRT
p10753
aVANTM
p10754
aVSRCL
p10755
aVPCLN
p10756
asS'08122016'
p10757
(lp10758
VFRT
p10759
aVPSA
p10760
aVMLM
p10761
aVFISV
p10762
aVAGN
p10763
aVAAP
p10764
aVSRE
p10765
aVBLK
p10766
aVEFX
p10767
aVDLR
p10768
aVWAT
p10769
aVORLY
p10770
aVBDX
p10771
aVIBM
p10772
aVSYK
p10773
aVAPD
p10774
aVEW
p10775
aVCME
p10776
aVMKC
p10777
aVCELG
p10778
aVBXP
p10779
aVGPC
p10780
aVINTU
p10781
aVSTZ
p10782
aVILMN
p10783
aVCVX
p10784
aVBIIB
p10785
aVAMG
p10786
aVALXN
p10787
aVCMI
p10788
aVBRK-B
p10789
aVAAPL
p10790
aVADBE
p10791
aVAYI
p10792
aVPH
p10793
aVGOOGL
p10794
aVCXO
p10795
aVGOOG
p10796
aVHUM
p10797
aVPXD
p10798
aVPCLN
p10799
asS'10272016'
p10800
(lp10801
VCMG
p10802
aVEW
p10803
aVSHW
p10804
aVORLY
p10805
aVLH
p10806
aVBLK
p10807
aVILMN
p10808
aVAYI
p10809
aVBCR
p10810
aVPCLN
p10811
aVXEC
p10812
aVZBH
p10813
aVLLL
p10814
aVROP
p10815
aVAGN
p10816
aVADS
p10817
aVBDX
p10818
aVTMO
p10819
aVAMG
p10820
aVSYK
p10821
aVAAPL
p10822
aVPH
p10823
aVPSA
p10824
aVADBE
p10825
aVCMI
p10826
aVCTAS
p10827
aVCVX
p10828
aVIBM
p10829
aVMA
p10830
aVFB
p10831
aVINTU
p10832
aVSRE
p10833
aVUTX
p10834
aVNEE
p10835
aVAPD
p10836
aVGOOGL
p10837
aVSNA
p10838
aVFFIV
p10839
aVGS
p10840
aVALXN
p10841
aVGOOG
p10842
asS'09282016'
p10843
(lp10844
VPCLN
p10845
aVGS
p10846
aVBLK
p10847
aVCME
p10848
aVALXN
p10849
aVPVH
p10850
aVAMG
p10851
aVWYNN
p10852
aVFB
p10853
aVAPD
p10854
aVAGN
p10855
aVAYI
p10856
aVPH
p10857
aVEFX
p10858
aVHUM
p10859
aVMA
p10860
aVADS
p10861
aVUTX
p10862
aVINTU
p10863
aVFISV
p10864
aVIBM
p10865
aVAAP
p10866
aVEW
p10867
aVZBH
p10868
aVHON
p10869
aVCMI
p10870
aVBIIB
p10871
aVSNA
p10872
aVSRE
p10873
aVKMB
p10874
aVSYK
p10875
aVTDG
p10876
aVILMN
p10877
aVGOOGL
p10878
aVORLY
p10879
aVGOOG
p10880
aVAVB
p10881
aVTMO
p10882
aVPSA
p10883
asS'03242016'
p10884
(lp10885
VPCLN
p10886
aVCMG
p10887
aVAGN
p10888
aVSHW
p10889
aVAYI
p10890
aVMCK
p10891
aVBDX
p10892
aVKMB
p10893
aVAET
p10894
aVMHK
p10895
aVCVS
p10896
aVALXN
p10897
aVCXO
p10898
aVRTN
p10899
aVBCR
p10900
aVCMI
p10901
aVCELG
p10902
aVFFIV
p10903
aVEFX
p10904
aVPXD
p10905
aVIBM
p10906
aVPRGO
p10907
aVUHS
p10908
aVSWK
p10909
aVWHR
p10910
aVAVGO
p10911
aVESS
p10912
aVACN
p10913
aVROP
p10914
aVEQIX
p10915
aVREGN
p10916
aVBA
p10917
aVSIG
p10918
aVFDX
p10919
aVGOOGL
p10920
aVGOOG
p10921
asS'11102016'
p10922
(lp10923
VAMZN
p10924
aVEQIX
p10925
aVZBH
p10926
aVSTZ
p10927
aVXEC
p10928
aVFB
p10929
aVNEE
p10930
aVIFF
p10931
aVAMT
p10932
aVTAP
p10933
aVSRE
p10934
aVADBE
p10935
aVORLY
p10936
aVALXN
p10937
aVFISV
p10938
aVINTU
p10939
aVCVX
p10940
aVTDG
p10941
aVBCR
p10942
aVUTX
p10943
aVAMG
p10944
aVADS
p10945
aVIBM
p10946
aVILMN
p10947
aVLLL
p10948
aVFDX
p10949
aVSNA
p10950
aVROP
p10951
aVRTN
p10952
aVITW
p10953
aVFFIV
p10954
aVAPD
p10955
aVBRK-B
p10956
aVPSA
p10957
aVCMG
p10958
aVPH
p10959
aVSHW
p10960
aVGS
p10961
aVHUM
p10962
aVBLK
p10963
aVPCLN
p10964
asS'12312015'
p10965
(lp10966
VAYI
p10967
aVPXD
p10968
aVAVGO
p10969
aVULTA
p10970
aVDIS
p10971
aVHD
p10972
aVSWK
p10973
aVSJM
p10974
aVMCD
p10975
aVBF-B
p10976
aVNOC
p10977
aVIFF
p10978
aVLLL
p10979
aVLH
p10980
aVPPG
p10981
aVGILD
p10982
aVBXP
p10983
aVSTZ
p10984
aVGD
p10985
aVSNA
p10986
aVUNH
p10987
aVBA
p10988
aVLMT
p10989
aVAET
p10990
aVMCO
p10991
aVREGN
p10992
aVTDG
p10993
aVUHS
p10994
aVORLY
p10995
aVHUM
p10996
aVAVB
p10997
aVRCL
p10998
aVVRTX
p10999
aVGWW
p11000
asS'01082016'
p11001
(lp11002
VAMZN
p11003
aVREGN
p11004
aVAVGO
p11005
aVAYI
p11006
aVBIIB
p11007
aVBA
p11008
aVAPD
p11009
aVSWK
p11010
aVHD
p11011
aVVRTX
p11012
aVSNA
p11013
aVULTA
p11014
aVUNH
p11015
aVLH
p11016
aVHSIC
p11017
aVNFLX
p11018
aVRTN
p11019
aVACN
p11020
aVSJM
p11021
aVUHS
p11022
aVHON
p11023
aVGILD
p11024
aVIFF
p11025
aVHUM
p11026
aVLLL
p11027
aVNOC
p11028
aVLMT
p11029
aVGWW
p11030
aVAVB
p11031
aVSTZ
p11032
asS'01292016'
p11033
(lp11034
VREGN
p11035
aVILMN
p11036
aVAYI
p11037
aVAET
p11038
aVWAT
p11039
aVHUM
p11040
aVNOC
p11041
aVBIIB
p11042
aVULTA
p11043
aVZBH
p11044
aVKMB
p11045
aVLH
p11046
aVEQIX
p11047
aVPSA
p11048
aVEFX
p11049
aVUNH
p11050
aVNEE
p11051
aVHSIC
p11052
aVLLL
p11053
aVSTZ
p11054
aVACN
p11055
aVGS
p11056
aVSJM
p11057
aVGD
p11058
aVGWW
p11059
aVAPD
p11060
aVAMG
p11061
aVICE
p11062
aVAMZN
p11063
aVGOOG
p11064
aVORLY
p11065
asS'05022016'
p11066
(lp11067
VGOOGL
p11068
aVGOOG
p11069
aVSRCL
p11070
aVILMN
p11071
aVAYI
p11072
aVWHR
p11073
aVALXN
p11074
aVCMG
p11075
aVAVGO
p11076
aVKMB
p11077
aVORLY
p11078
aVADS
p11079
aVMHK
p11080
aVMCK
p11081
aVWAT
p11082
aVEW
p11083
aVPPG
p11084
aVFDX
p11085
aVTRV
p11086
aVBLK
p11087
aVSIG
p11088
aVCELG
p11089
aVACN
p11090
aVULTA
p11091
aVSTZ
p11092
aVHD
p11093
aVSNA
p11094
aVSYK
p11095
aVPX
p11096
aVHON
p11097
aVCVS
p11098
aVFRT
p11099
aVTDG
p11100
aVPEP
p11101
aVCMI
p11102
aVXEC
p11103
aVUNH
p11104
aVGWW
p11105
aVSJM
p11106
aVBDX
p11107
aVAET
p11108
aVNEE
p11109
aVEQIX
p11110
aVGS
p11111
aVNOC
p11112
aVBCR
p11113
aVICE
p11114
aVCXO
p11115
aVFB
p11116
aVPXD
p11117
aVAMZN
p11118
asS'07272016'
p11119
(lp11120
VSHW
p11121
aVBCR
p11122
aVPCLN
p11123
aVDLR
p11124
aVPSA
p11125
aVMKC
p11126
aVCVX
p11127
aVINTU
p11128
aVAVB
p11129
aVLLL
p11130
aVFRT
p11131
aVSRE
p11132
aVGPC
p11133
aVROP
p11134
aVAYI
p11135
aVNEE
p11136
aVMCK
p11137
aVBDX
p11138
aVSTZ
p11139
aVUHS
p11140
aVAET
p11141
aVAAP
p11142
aVMCD
p11143
aVPPG
p11144
aVORLY
p11145
aVACN
p11146
aVSRCL
p11147
aVCME
p11148
aVAPD
p11149
aVTDG
p11150
aVIBM
p11151
aVPH
p11152
aVGS
p11153
aVCMI
p11154
aVWAT
p11155
aVEW
p11156
aVALXN
p11157
aVAMG
p11158
aVILMN
p11159
aVBLK
p11160
aVAGN
p11161
aVHUM
p11162
aVCMG
p11163
aVBIIB
p11164
asS'10142016'
p11165
(lp11166
VPCLN
p11167
aVILMN
p11168
aVCMG
p11169
aVAPD
p11170
aVBCR
p11171
aVFFIV
p11172
aVHUM
p11173
aVADS
p11174
aVTMO
p11175
aVBDX
p11176
aVHON
p11177
aVHSIC
p11178
aVBLK
p11179
aVAYI
p11180
aVFDX
p11181
aVAMG
p11182
aVEW
p11183
aVALXN
p11184
aVGOOGL
p11185
aVSPG
p11186
aVSYK
p11187
aVAMP
p11188
aVSNA
p11189
aVLLL
p11190
aVSHW
p11191
aVMA
p11192
aVADBE
p11193
aVPX
p11194
aVFB
p11195
aVIBM
p11196
aVSRE
p11197
aVINTU
p11198
aVPH
p11199
aVGOOG
p11200
aVLH
p11201
aVCMI
p11202
aVCVX
p11203
aVPSA
p11204
aVRTN
p11205
aVFISV
p11206
aVAAPL
p11207
aVNEE
p11208
aVAAP
p11209
aVGS
p11210
asS'01092017'
p11211
(lp11212
VAYI
p11213
aVBLK
p11214
aVGS
p11215
aVNVDA
p11216
aVAAP
p11217
aVFDX
p11218
aVURI
p11219
aVPRU
p11220
aVCVX
p11221
aVORLY
p11222
aVPH
p11223
aVAPD
p11224
aVAMG
p11225
aVITW
p11226
aVLLL
p11227
aVSNA
p11228
aVCXO
p11229
aVPNC
p11230
aVSYK
p11231
aVHRS
p11232
aVEOG
p11233
aVWHR
p11234
aVBA
p11235
aVIBM
p11236
aVSTZ
p11237
aVLRCX
p11238
aVFISV
p11239
aVNEE
p11240
aVAMP
p11241
aVADS
p11242
aVAMT
p11243
aVCLX
p11244
aVSWK
p11245
aVADBE
p11246
aVZBH
p11247
aVBXP
p11248
aVSHW
p11249
aVDLR
p11250
aVPSA
p11251
aVBCR
p11252
aVFB
p11253
aVSPG
p11254
aVTDG
p11255
aVGOOGL
p11256
aVEQIX
p11257
aVILMN
p11258
aVALXN
p11259
aVPCLN
p11260
aVAMZN
p11261
asS'04142016'
p11262
(lp11263
VAGN
p11264
aVESS
p11265
aVEQIX
p11266
aVCMG
p11267
aVFB
p11268
aVAET
p11269
aVFDX
p11270
aVGWW
p11271
aVAVGO
p11272
aVWHR
p11273
aVFISV
p11274
aVSPG
p11275
aVACN
p11276
aVAPD
p11277
aVGOOG
p11278
aVPPG
p11279
aVKMB
p11280
aVADS
p11281
aVUHS
p11282
aVHON
p11283
aVBCR
p11284
aVGOOGL
p11285
aVLMT
p11286
aVCMI
p11287
aVSWK
p11288
aVPXD
p11289
aVCXO
p11290
aVICE
p11291
aVGS
p11292
aVBDX
p11293
aVNFLX
p11294
aVCELG
p11295
aVXEC
p11296
aVMCK
p11297
aVEW
p11298
aVAYI
p11299
aVREGN
p11300
asS'10172016'
p11301
(lp11302
VPCLN
p11303
aVILMN
p11304
aVCMG
p11305
aVROP
p11306
aVAGN
p11307
aVTMO
p11308
aVAMG
p11309
aVHSIC
p11310
aVFFIV
p11311
aVHUM
p11312
aVAPD
p11313
aVADS
p11314
aVBDX
p11315
aVBCR
p11316
aVEW
p11317
aVHON
p11318
aVAYI
p11319
aVBLK
p11320
aVALXN
p11321
aVGOOGL
p11322
aVSYK
p11323
aVLLL
p11324
aVADBE
p11325
aVMA
p11326
aVSPG
p11327
aVPX
p11328
aVGOOG
p11329
aVPVH
p11330
aVSNA
p11331
aVINTU
p11332
aVPH
p11333
aVIBM
p11334
aVSHW
p11335
aVCMI
p11336
aVLH
p11337
aVSRE
p11338
aVCVX
p11339
aVAAP
p11340
aVTAP
p11341
aVAAPL
p11342
aVPSA
p11343
aVNEE
p11344
aVGS
p11345
asS'09132016'
p11346
(lp11347
VPCLN
p11348
aVGOOG
p11349
aVAYI
p11350
aVGOOGL
p11351
aVAPD
p11352
aVCXO
p11353
aVSHW
p11354
aVTMO
p11355
aVILMN
p11356
aVSNA
p11357
aVUTX
p11358
aVPH
p11359
aVAAP
p11360
aVBDX
p11361
aVPPG
p11362
aVSTZ
p11363
aVHUM
p11364
aVIBM
p11365
aVPVH
p11366
aVEW
p11367
aVAAPL
p11368
aVSYK
p11369
aVGS
p11370
aVLLL
p11371
aVALXN
p11372
aVPSA
p11373
aVFISV
p11374
aVCME
p11375
aVAGN
p11376
aVEFX
p11377
aVCVX
p11378
aVSRE
p11379
aVNEE
p11380
aVAMG
p11381
aVADS
p11382
asS'01312017'
p11383
(lp11384
VTDG
p11385
aVWHR
p11386
aVORLY
p11387
aVGOOGL
p11388
aVGS
p11389
aVAAP
p11390
aVADS
p11391
aVBLK
p11392
aVPSA
p11393
aVAPD
p11394
aVCVX
p11395
aVEOG
p11396
aVILMN
p11397
aVADP
p11398
aVFISV
p11399
aVUTX
p11400
aVAMP
p11401
aVCLX
p11402
aVPRU
p11403
aVEQIX
p11404
aVCELG
p11405
aVAON
p11406
aVDLR
p11407
aVBCR
p11408
aVCI
p11409
aVSTZ
p11410
aVPNC
p11411
aVNVDA
p11412
aVCTAS
p11413
aVZBH
p11414
aVPH
p11415
aVLRCX
p11416
aVADBE
p11417
aVBA
p11418
aVAYI
p11419
aVCME
p11420
aVFDX
p11421
aVIBM
p11422
aVCXO
p11423
aVCMI
p11424
aVMLM
p11425
aVSPGI
p11426
aVMHK
p11427
aVAMG
p11428
aVCMG
p11429
aVLLL
p11430
aVWYNN
p11431
aVURI
p11432
aVSHW
p11433
aVPCLN
p11434
asS'10312016'
p11435
(lp11436
VCMG
p11437
aVSHW
p11438
aVZBH
p11439
aVAGN
p11440
aVLH
p11441
aVAYI
p11442
aVLLL
p11443
aVXEC
p11444
aVAMG
p11445
aVBLK
p11446
aVGOOG
p11447
aVTMO
p11448
aVPVH
p11449
aVILMN
p11450
aVAAPL
p11451
aVBDX
p11452
aVBCR
p11453
aVADS
p11454
aVADBE
p11455
aVROP
p11456
aVPCLN
p11457
aVPH
p11458
aVCMI
p11459
aVHUM
p11460
aVCTAS
p11461
aVAAP
p11462
aVSYK
p11463
aVMNST
p11464
aVPSA
p11465
aVINTU
p11466
aVIBM
p11467
aVSRE
p11468
aVSNA
p11469
aVMA
p11470
aVUTX
p11471
aVNEE
p11472
aVAPD
p11473
aVGS
p11474
aVALXN
p11475
aVFFIV
p11476
asS'11292016'
p11477
(lp11478
VVMC
p11479
aVPCLN
p11480
aVTMO
p11481
aVSPGI
p11482
aVROK
p11483
aVCXO
p11484
aVADBE
p11485
aVPH
p11486
aVPNC
p11487
aVPRU
p11488
aVSNA
p11489
aVCVX
p11490
aVXEC
p11491
aVBCR
p11492
aVGS
p11493
aVPSA
p11494
aVUTX
p11495
aVNEE
p11496
aVBLK
p11497
aVBDX
p11498
aVAGN
p11499
aVTDG
p11500
aVFB
p11501
aVSTZ
p11502
aVFDX
p11503
aVAMP
p11504
aVRTN
p11505
aVUNP
p11506
aVWHR
p11507
aVIBM
p11508
aVMHK
p11509
aVAMG
p11510
aVHAR
p11511
aVAYI
p11512
aVILMN
p11513
aVGOOGL
p11514
aVCMG
p11515
aVLLL
p11516
aVORLY
p11517
aVWYNN
p11518
aVADS
p11519
aVSHW
p11520
aVAMZN
p11521
asS'02292016'
p11522
(lp11523
VHON
p11524
aVAPD
p11525
aVTRV
p11526
aVACN
p11527
aVPXD
p11528
aVLMT
p11529
aVHSIC
p11530
aVUHS
p11531
aVGS
p11532
aVALXN
p11533
aVBA
p11534
aVEFX
p11535
aVAET
p11536
aVCI
p11537
aVBLK
p11538
aVMNST
p11539
aVBIIB
p11540
aVGOOG
p11541
aVSHW
p11542
aVEQIX
p11543
aVAYI
p11544
aVREGN
p11545
aVAZO
p11546
asS'07212016'
p11547
(lp11548
VDLR
p11549
aVORLY
p11550
aVMKC
p11551
aVSRE
p11552
aVFRT
p11553
aVPSA
p11554
aVAET
p11555
aVLLL
p11556
aVSHW
p11557
aVINTU
p11558
aVAAP
p11559
aVHUM
p11560
aVACN
p11561
aVCVX
p11562
aVFISV
p11563
aVAON
p11564
aVSTZ
p11565
aVBDX
p11566
aVCXO
p11567
aVUHS
p11568
aVLMT
p11569
aVZBH
p11570
aVSRCL
p11571
aVCME
p11572
aVTDG
p11573
aVPXD
p11574
aVUTX
p11575
aVMCK
p11576
aVEW
p11577
aVCMI
p11578
aVGD
p11579
aVWAT
p11580
aVFFIV
p11581
aVPPG
p11582
aVROP
p11583
aVTMO
p11584
aVAVGO
p11585
aVIBM
p11586
aVITW
p11587
aVMCD
p11588
aVAYI
p11589
aVMHK
p11590
aVILMN
p11591
aVALXN
p11592
aVBLK
p11593
aVPCLN
p11594
aVBIIB
p11595
aVGOOGL
p11596
asS'04192016'
p11597
(lp11598
VEQIX
p11599
aVSIG
p11600
aVAVGO
p11601
aVHUM
p11602
aVIBM
p11603
aVGWW
p11604
aVNFLX
p11605
aVFB
p11606
aVACN
p11607
aVFRT
p11608
aVAET
p11609
aVWHR
p11610
aVUNH
p11611
aVKMB
p11612
aVNEE
p11613
aVHD
p11614
aVEFX
p11615
aVUHS
p11616
aVSTZ
p11617
aVPPG
p11618
aVMHK
p11619
aVAPD
p11620
aVSWK
p11621
aVHON
p11622
aVRTN
p11623
aVBCR
p11624
aVCB
p11625
aVPX
p11626
aVPXD
p11627
aVBDX
p11628
aVCXO
p11629
aVCI
p11630
aVEW
p11631
aVXEC
p11632
aVCMI
p11633
aVGOOG
p11634
aVICE
p11635
aVGOOGL
p11636
aVALXN
p11637
aVMCK
p11638
aVAYI
p11639
aVREGN
p11640
aVPCLN
p11641
asS'08092016'
p11642
(lp11643
VCMG
p11644
aVPSA
p11645
aVFRT
p11646
aVFISV
p11647
aVSRE
p11648
aVDLR
p11649
aVEFX
p11650
aVMCK
p11651
aVSHW
p11652
aVAGN
p11653
aVBDX
p11654
aVSYK
p11655
aVNEE
p11656
aVMKC
p11657
aVSTZ
p11658
aVMCO
p11659
aVCVX
p11660
aVAAP
p11661
aVPPG
p11662
aVIBM
p11663
aVAPD
p11664
aVLLL
p11665
aVWAT
p11666
aVAVB
p11667
aVEW
p11668
aVCME
p11669
aVACN
p11670
aVORLY
p11671
aVGWW
p11672
aVAYI
p11673
aVTDG
p11674
aVROP
p11675
aVAET
p11676
aVAMG
p11677
aVCMI
p11678
aVCELG
p11679
aVILMN
p11680
aVBLK
p11681
aVAAPL
p11682
aVVRTX
p11683
aVPH
p11684
aVALXN
p11685
aVXEC
p11686
aVHUM
p11687
aVBIIB
p11688
aVPCLN
p11689
asS'06232016'
p11690
(lp11691
VGOOG
p11692
aVGOOGL
p11693
aVBIIB
p11694
aVALXN
p11695
aVAMG
p11696
aVAVGO
p11697
aVMCK
p11698
aVCMG
p11699
aVLLL
p11700
aVPXD
p11701
aVPSA
p11702
aVAYI
p11703
aVFISV
p11704
aVITW
p11705
aVAET
p11706
aVWYNN
p11707
aVACN
p11708
aVNEE
p11709
aVMHK
p11710
aVXEC
p11711
aVBLK
p11712
aVHD
p11713
aVSWK
p11714
aVGS
p11715
aVPM
p11716
aVFRT
p11717
aVCVX
p11718
aVDLR
p11719
aVMKC
p11720
aVCMI
p11721
aVGWW
p11722
aVSYK
p11723
aVWHR
p11724
aVPX
p11725
aVCXO
p11726
aVILMN
p11727
aVORLY
p11728
aVSRCL
p11729
aVPCLN
p11730
asS'09192016'
p11731
(lp11732
VGOOG
p11733
aVAYI
p11734
aVGOOGL
p11735
aVAPD
p11736
aVCXO
p11737
aVAAP
p11738
aVSLG
p11739
aVUTX
p11740
aVGS
p11741
aVSHW
p11742
aVIBM
p11743
aVHUM
p11744
aVPH
p11745
aVPVH
p11746
aVLLL
p11747
aVSNA
p11748
aVPSA
p11749
aVEW
p11750
aVCB
p11751
aVBDX
p11752
aVPCLN
p11753
aVILMN
p11754
aVFB
p11755
aVISRG
p11756
aVCME
p11757
aVSYK
p11758
aVAVB
p11759
aVNEE
p11760
aVAMG
p11761
aVSRE
p11762
aVALXN
p11763
aVAGN
p11764
aVADS
p11765
aVWYNN
p11766
asS'07112016'
p11767
(lp11768
VHUM
p11769
aVAET
p11770
aVCXO
p11771
aVXEC
p11772
aVAVGO
p11773
aVPXD
p11774
aVACN
p11775
aVDLR
p11776
aVBRK-B
p11777
aVLLL
p11778
aVPPG
p11779
aVMKC
p11780
aVHON
p11781
aVCMI
p11782
aVPM
p11783
aVILMN
p11784
aVSRCL
p11785
aVFISV
p11786
aVAPD
p11787
aVSPGI
p11788
aVIBM
p11789
aVBXP
p11790
aVSWK
p11791
aVHSIC
p11792
aVAAP
p11793
aVZBH
p11794
aVEW
p11795
aVSTZ
p11796
aVHSY
p11797
aVGS
p11798
aVWAT
p11799
aVGWW
p11800
aVBLK
p11801
aVORLY
p11802
aVALXN
p11803
aVSHW
p11804
aVAYI
p11805
aVCMG
p11806
aVGOOG
p11807
aVBIIB
p11808
asS'12192016'
p11809
(lp11810
VPCLN
p11811
aVAMP
p11812
aVRTN
p11813
aVAYI
p11814
aVAMG
p11815
aVVMC
p11816
aVHAR
p11817
aVADS
p11818
aVURI
p11819
aVLLL
p11820
aVHRS
p11821
aVGS
p11822
aVPH
p11823
aVCXO
p11824
aVSNA
p11825
aVSWK
p11826
aVFDX
p11827
aVPRU
p11828
aVPNC
p11829
aVAON
p11830
aVSHW
p11831
aVEOG
p11832
aVFFIV
p11833
aVPXD
p11834
aVUTX
p11835
aVLRCX
p11836
aVAPD
p11837
aVFISV
p11838
aVMCK
p11839
aVPX
p11840
aVCVX
p11841
aVIBM
p11842
aVDIS
p11843
aVTMO
p11844
aVADBE
p11845
aVWHR
p11846
aVORLY
p11847
aVSRE
p11848
aVFB
p11849
aVCMG
p11850
aVZBH
p11851
aVBLK
p11852
aVNEE
p11853
aVPSA
p11854
aVTDG
p11855
aVILMN
p11856
aVSTZ
p11857
aVAGN
p11858
aVAMZN
p11859
aVGOOGL
p11860
asS'10032016'
p11861
(lp11862
VAGN
p11863
aVGS
p11864
aVBLK
p11865
aVALXN
p11866
aVGOOGL
p11867
aVWYNN
p11868
aVCME
p11869
aVSPG
p11870
aVAPD
p11871
aVGOOG
p11872
aVNEE
p11873
aVFB
p11874
aVAAPL
p11875
aVSRE
p11876
aVRTN
p11877
aVBCR
p11878
aVMA
p11879
aVORLY
p11880
aVAMG
p11881
aVEW
p11882
aVPVH
p11883
aVINTU
p11884
aVAVB
p11885
aVADS
p11886
aVLH
p11887
aVHUM
p11888
aVUTX
p11889
aVEFX
p11890
aVPH
p11891
aVSYK
p11892
aVWAT
p11893
aVPX
p11894
aVILMN
p11895
aVKMB
p11896
aVSNA
p11897
aVZBH
p11898
aVIBM
p11899
aVCVX
p11900
aVADBE
p11901
aVAYI
p11902
aVFFIV
p11903
aVPSA
p11904
aVTMO
p11905
aVCMI
p11906
aVPCLN
p11907
asS'05112016'
p11908
(lp11909
VPCLN
p11910
aVBLK
p11911
aVAMG
p11912
aVWHR
p11913
aVALXN
p11914
aVAYI
p11915
aVFDX
p11916
aVGS
p11917
aVEW
p11918
aVMCK
p11919
aVPPG
p11920
aVPX
p11921
aVCMI
p11922
aVSHW
p11923
aVPXD
p11924
aVGWW
p11925
aVORLY
p11926
aVSIG
p11927
aVCVX
p11928
aVCXO
p11929
aVHON
p11930
aVMHK
p11931
aVROP
p11932
aVHD
p11933
aVAET
p11934
aVDIS
p11935
aVACN
p11936
aVUHS
p11937
aVIBM
p11938
aVHSIC
p11939
aVXEC
p11940
aVSYK
p11941
aVADS
p11942
aVCVS
p11943
aVSTZ
p11944
aVFRT
p11945
aVBDX
p11946
aVSJM
p11947
aVBCR
p11948
aVFB
p11949
aVGOOGL
p11950
aVFISV
p11951
aVGOOG
p11952
aVNOC
p11953
aVEQIX
p11954
aVICE
p11955
aVAMZN
p11956
asS'01142016'
p11957
(lp11958
VAMZN
p11959
aVREGN
p11960
aVGOOG
p11961
aVAYI
p11962
aVBIIB
p11963
aVVRTX
p11964
aVAVGO
p11965
aVAMG
p11966
aVHUM
p11967
aVBA
p11968
aVHSIC
p11969
aVLH
p11970
aVHD
p11971
aVFDX
p11972
aVWHR
p11973
aVAPD
p11974
aVNFLX
p11975
aVGD
p11976
aVNOC
p11977
aVTRV
p11978
aVSJM
p11979
aVMNST
p11980
aVLLL
p11981
aVICE
p11982
aVAET
p11983
aVIFF
p11984
aVPXD
p11985
aVACN
p11986
aVSRCL
p11987
aVSTZ
p11988
aVLMT
p11989
aVEQIX
p11990
asS'06022016'
p11991
(lp11992
VPXD
p11993
aVCMG
p11994
aVSTZ
p11995
aVBCR
p11996
aVXEC
p11997
aVSWK
p11998
aVSHW
p11999
aVCVX
p12000
aVFB
p12001
aVHD
p12002
aVPX
p12003
aVBRK-B
p12004
aVCXO
p12005
aVHON
p12006
aVSYK
p12007
aVFRT
p12008
aVACN
p12009
aVAYI
p12010
aVFISV
p12011
aVCMI
p12012
aVPSA
p12013
aVHSIC
p12014
aVMHK
p12015
aVGWW
p12016
aVBLK
p12017
aVAMG
p12018
aVMCK
p12019
aVAET
p12020
aVWHR
p12021
aVORLY
p12022
aVAAP
p12023
aVNFLX
p12024
aVALXN
p12025
aVULTA
p12026
aVGOOG
p12027
aVGOOGL
p12028
asS'08292016'
p12029
(lp12030
VGOOGL
p12031
aVGOOG
p12032
aVAGN
p12033
aVPCLN
p12034
aVISRG
p12035
aVALXN
p12036
aVAAP
p12037
aVILMN
p12038
aVBXP
p12039
aVAVB
p12040
aVAYI
p12041
aVAAPL
p12042
aVIBM
p12043
aVTMO
p12044
aVHUM
p12045
aVPH
p12046
aVCXO
p12047
aVEW
p12048
aVLLL
p12049
aVEFX
p12050
aVSRE
p12051
aVGS
p12052
aVCME
p12053
aVSTZ
p12054
aVMCO
p12055
aVCVX
p12056
aVXEC
p12057
aVMKC
p12058
aVFISV
p12059
aVADBE
p12060
aVBDX
p12061
aVAPD
p12062
aVSYK
p12063
aVMON
p12064
aVSNA
p12065
aVPSA
p12066
aVPVH
p12067
asS'10052016'
p12068
(lp12069
VSPG
p12070
aVAPD
p12071
aVGOOGL
p12072
aVAYI
p12073
aVBLK
p12074
aVAVB
p12075
aVNEE
p12076
aVCME
p12077
aVSRE
p12078
aVGOOG
p12079
aVAGN
p12080
aVPSA
p12081
aVALXN
p12082
aVGS
p12083
aVAAPL
p12084
aVSHW
p12085
aVEW
p12086
aVMA
p12087
aVINTU
p12088
aVADS
p12089
aVPPG
p12090
aVLLL
p12091
aVSYK
p12092
aVUTX
p12093
aVAMP
p12094
aVHUM
p12095
aVWAT
p12096
aVPVH
p12097
aVSTZ
p12098
aVPH
p12099
aVAAP
p12100
aVIBM
p12101
aVSNA
p12102
aVADBE
p12103
aVCVX
p12104
aVILMN
p12105
aVTMO
p12106
aVFFIV
p12107
aVNFLX
p12108
aVCMI
p12109
aVXEC
p12110
aVPCLN
p12111
asS'01062017'
p12112
(lp12113
VBLK
p12114
aVGS
p12115
aVNVDA
p12116
aVMLM
p12117
aVFDX
p12118
aVAAP
p12119
aVAVGO
p12120
aVAPD
p12121
aVPRU
p12122
aVPH
p12123
aVSNA
p12124
aVURI
p12125
aVCVX
p12126
aVITW
p12127
aVLLL
p12128
aVCXO
p12129
aVORLY
p12130
aVFFIV
p12131
aVPNC
p12132
aVREGN
p12133
aVAMG
p12134
aVHRS
p12135
aVCMI
p12136
aVBA
p12137
aVEOG
p12138
aVLRCX
p12139
aVADS
p12140
aVROK
p12141
aVAMP
p12142
aVIBM
p12143
aVSTZ
p12144
aVNEE
p12145
aVDIS
p12146
aVAMT
p12147
aVWHR
p12148
aVSWK
p12149
aVCLX
p12150
aVADBE
p12151
aVMA
p12152
aVZBH
p12153
aVGOOGL
p12154
aVSHW
p12155
aVBCR
p12156
aVPSA
p12157
aVDLR
p12158
aVTDG
p12159
aVSPG
p12160
aVPCLN
p12161
aVCMG
p12162
aVBIIB
p12163
aVEQIX
p12164
aVILMN
p12165
aVALXN
p12166
aVAMZN
p12167
asS'01152016'
p12168
(lp12169
VAMZN
p12170
aVGOOG
p12171
aVREGN
p12172
aVAYI
p12173
aVBIIB
p12174
aVAVGO
p12175
aVAZO
p12176
aVAMG
p12177
aVHUM
p12178
aVULTA
p12179
aVBA
p12180
aVHD
p12181
aVFDX
p12182
aVLH
p12183
aVORLY
p12184
aVWHR
p12185
aVHSIC
p12186
aVAPD
p12187
aVGD
p12188
aVNOC
p12189
aVICE
p12190
aVMNST
p12191
aVSJM
p12192
aVLLL
p12193
aVTRV
p12194
aVTDG
p12195
aVAET
p12196
aVIFF
p12197
aVSTZ
p12198
aVPXD
p12199
aVEQIX
p12200
aVPRGO
p12201
asS'04262016'
p12202
(lp12203
VGOOGL
p12204
aVGOOG
p12205
aVKMB
p12206
aVWHR
p12207
aVAVGO
p12208
aVADS
p12209
aVAAPL
p12210
aVSIG
p12211
aVGWW
p12212
aVIBM
p12213
aVAYI
p12214
aVFRT
p12215
aVPPG
p12216
aVSTZ
p12217
aVEQIX
p12218
aVACN
p12219
aVBCR
p12220
aVFB
p12221
aVULTA
p12222
aVMHK
p12223
aVORLY
p12224
aVSHW
p12225
aVSYK
p12226
aVHD
p12227
aVEW
p12228
aVHON
p12229
aVEFX
p12230
aVCVS
p12231
aVWAT
p12232
aVLMT
p12233
aVCMI
p12234
aVXEC
p12235
aVSWK
p12236
aVPX
p12237
aVCMG
p12238
aVCELG
p12239
aVALXN
p12240
aVSPGI
p12241
aVAET
p12242
aVUNH
p12243
aVHUM
p12244
aVAGN
p12245
aVICE
p12246
aVGS
p12247
aVCXO
p12248
aVPXD
p12249
aVMCK
p12250
asS'12012015'
p12251
(lp12252
VREGN
p12253
aVORLY
p12254
aVICE
p12255
aVGOOG
p12256
aVDIS
p12257
aVLLL
p12258
aVFB
p12259
aVBA
p12260
aVNOC
p12261
aVCELG
p12262
aVTSO
p12263
aVGILD
p12264
aVEQIX
p12265
aVLH
p12266
aVBXP
p12267
aVCXO
p12268
aVHAR
p12269
aVPH
p12270
aVROK
p12271
aVPPG
p12272
aVVRTX
p12273
aVAET
p12274
aVGD
p12275
aVSNA
p12276
aVXEC
p12277
aVIFF
p12278
aVSRCL
p12279
aVHUM
p12280
aVGWW
p12281
aVNKE
p12282
aVEW
p12283
aVSTZ
p12284
aVALXN
p12285
aVMNST
p12286
aVAYI
p12287
aVHD
p12288
aVNFLX
p12289
aVAVB
p12290
aVAVGO
p12291
asS'12012016'
p12292
(lp12293
VVMC
p12294
aVRL
p12295
aVTMO
p12296
aVSPGI
p12297
aVTDG
p12298
aVADBE
p12299
aVSNA
p12300
aVSTZ
p12301
aVMHK
p12302
aVBCR
p12303
aVGOOGL
p12304
aVBDX
p12305
aVPVH
p12306
aVUTX
p12307
aVFB
p12308
aVIBM
p12309
aVNEE
p12310
aVFISV
p12311
aVROK
p12312
aVAMP
p12313
aVCVX
p12314
aVPH
p12315
aVWHR
p12316
aVRTN
p12317
aVBLK
p12318
aVCOST
p12319
aVFDX
p12320
aVPSA
p12321
aVAYI
p12322
aVPX
p12323
aVILMN
p12324
aVUNP
p12325
aVAMZN
p12326
aVCMG
p12327
aVBXP
p12328
aVAGN
p12329
aVGD
p12330
aVAPD
p12331
aVGS
p12332
aVCXO
p12333
aVLLL
p12334
aVORLY
p12335
aVSHW
p12336
aVADS
p12337
aVMCK
p12338
aVXEC
p12339
asS'12272016'
p12340
(lp12341
VPCLN
p12342
aVAYI
p12343
aVAMG
p12344
aVFDX
p12345
aVGS
p12346
aVAAP
p12347
aVBLK
p12348
aVLLL
p12349
aVAMP
p12350
aVCMI
p12351
aVMLM
p12352
aVCXO
p12353
aVURI
p12354
aVPX
p12355
aVEOG
p12356
aVHRS
p12357
aVADS
p12358
aVAPD
p12359
aVRTN
p12360
aVPRU
p12361
aVPH
p12362
aVSNA
p12363
aVVMC
p12364
aVIBM
p12365
aVUNP
p12366
aVPNC
p12367
aVAON
p12368
aVCVX
p12369
aVUTX
p12370
aVCELG
p12371
aVSTZ
p12372
aVSHW
p12373
aVFB
p12374
aVTMO
p12375
aVBDX
p12376
aVPSA
p12377
aVADBE
p12378
aVZBH
p12379
aVADP
p12380
aVORLY
p12381
aVCLX
p12382
aVWHR
p12383
aVTDG
p12384
aVGOOGL
p12385
aVALXN
p12386
aVEQIX
p12387
aVAMZN
p12388
aVCMG
p12389
aVNVDA
p12390
asS'12302015'
p12391
(lp12392
VMNST
p12393
aVRTN
p12394
aVAYI
p12395
aVDIS
p12396
aVULTA
p12397
aVAAPL
p12398
aVAVGO
p12399
aVHD
p12400
aVSWK
p12401
aVACN
p12402
aVSJM
p12403
aVLLL
p12404
aVMCD
p12405
aVIFF
p12406
aVNOC
p12407
aVAGN
p12408
aVLH
p12409
aVGILD
p12410
aVBA
p12411
aVSNA
p12412
aVSTZ
p12413
aVGD
p12414
aVTRV
p12415
aVUNH
p12416
aVPRGO
p12417
aVREGN
p12418
aVMCO
p12419
aVAET
p12420
aVUHS
p12421
aVHUM
p12422
aVGOOG
p12423
aVORLY
p12424
aVAVB
p12425
aVVRTX
p12426
aVICE
p12427
aVEQIX
p12428
aVGWW
p12429
asS'12222015'
p12430
(lp12431
VGOOG
p12432
aVREGN
p12433
aVMNST
p12434
aVICE
p12435
aVDIS
p12436
aVLLL
p12437
aVBA
p12438
aVAVGO
p12439
aVSNA
p12440
aVIFF
p12441
aVVRTX
p12442
aVRTN
p12443
aVAYI
p12444
aVORLY
p12445
aVEQIX
p12446
aVFB
p12447
aVSTZ
p12448
aVNOC
p12449
aVMCD
p12450
aVUHS
p12451
aVLH
p12452
aVGILD
p12453
aVHON
p12454
aVEXPE
p12455
aVCELG
p12456
aVAET
p12457
aVHUM
p12458
asS'12222016'
p12459
(lp12460
VPCLN
p12461
aVAYI
p12462
aVAMG
p12463
aVFDX
p12464
aVGS
p12465
aVAMP
p12466
aVLLL
p12467
aVCXO
p12468
aVURI
p12469
aVRTN
p12470
aVADS
p12471
aVPX
p12472
aVHRS
p12473
aVVMC
p12474
aVEOG
p12475
aVPH
p12476
aVAPD
p12477
aVSNA
p12478
aVPRU
p12479
aVSWK
p12480
aVSHW
p12481
aVBLK
p12482
aVAON
p12483
aVPNC
p12484
aVIBM
p12485
aVUTX
p12486
aVTMO
p12487
aVCVX
p12488
aVPSA
p12489
aVBDX
p12490
aVSTZ
p12491
aVFISV
p12492
aVZBH
p12493
aVFB
p12494
aVADBE
p12495
aVORLY
p12496
aVTDG
p12497
aVWHR
p12498
aVCLX
p12499
aVILMN
p12500
aVNVDA
p12501
aVEQIX
p12502
aVCMG
p12503
aVAMZN
p12504
aVGOOGL
p12505
asS'12302016'
p12506
(lp12507
VBLK
p12508
aVGS
p12509
aVFDX
p12510
aVGOOGL
p12511
aVAYI
p12512
aVAAP
p12513
aVAMG
p12514
aVADS
p12515
aVMLM
p12516
aVURI
p12517
aVLLL
p12518
aVCXO
p12519
aVAPD
p12520
aVPH
p12521
aVPRU
p12522
aVEOG
p12523
aVHRS
p12524
aVBA
p12525
aVORLY
p12526
aVPNC
p12527
aVIBM
p12528
aVUNP
p12529
aVSPG
p12530
aVSWK
p12531
aVRTN
p12532
aVCVX
p12533
aVDIS
p12534
aVCMG
p12535
aVSHW
p12536
aVFISV
p12537
aVAON
p12538
aVFB
p12539
aVAMZN
p12540
aVLRCX
p12541
aVMMM
p12542
aVADBE
p12543
aVADP
p12544
aVBDX
p12545
aVTMO
p12546
aVWHR
p12547
aVZBH
p12548
aVSTZ
p12549
aVPSA
p12550
aVNVDA
p12551
aVBIIB
p12552
aVTDG
p12553
aVALXN
p12554
aVILMN
p12555
aVEQIX
p12556
asS'06292016'
p12557
(lp12558
VPCLN
p12559
aVGOOGL
p12560
aVGOOG
p12561
aVBLK
p12562
aVWHR
p12563
aVALXN
p12564
aVMHK
p12565
aVPXD
p12566
aVACN
p12567
aVAYI
p12568
aVCMI
p12569
aVIBM
p12570
aVAPD
p12571
aVLLL
p12572
aVMCK
p12573
aVCXO
p12574
aVBIIB
p12575
aVAET
p12576
aVGWW
p12577
aVHON
p12578
aVXEC
p12579
aVFISV
p12580
aVINTU
p12581
aVBRK-B
p12582
aVCVX
p12583
aVANTM
p12584
aVSYK
p12585
aVMKC
p12586
aVDLR
p12587
aVSTZ
p12588
aVCMG
p12589
aVORLY
p12590
aVPSA
p12591
as.