(dp1
S'12022016'
p2
(lp3
VCAD=X
p4
aVCHF=X
p5
aVAUD=X
p6
aVJPY=X
p7
aVNZD=X
p8
asS'03232016'
p9
(lp10
VCAD=X
p11
aVCHF=X
p12
aVAUD=X
p13
aVJPY=X
p14
aVNZD=X
p15
asS'03232015'
p16
(lp17
VEUR=X
p18
aVCAD=X
p19
aVCHF=X
p20
aVAUD=X
p21
aVJPY=X
p22
aVNZD=X
p23
asS'12022015'
p24
(lp25
VCAD=X
p26
aVAUD=X
p27
aVJPY=X
p28
asS'09012015'
p29
(lp30
VCAD=X
p31
aVCHF=X
p32
aVAUD=X
p33
aVJPY=X
p34
aVNZD=X
p35
asS'09012016'
p36
(lp37
VCAD=X
p38
aVAUD=X
p39
asS'07312015'
p40
(lp41
VCHF=X
p42
aVAUD=X
p43
aVJPY=X
p44
aVNZD=X
p45
asS'08132015'
p46
(lp47
VCHF=X
p48
aVAUD=X
p49
aVJPY=X
p50
aVNZD=X
p51
asS'11072016'
p52
(lp53
VEUR=X
p54
aVCAD=X
p55
aVAUD=X
p56
aVJPY=X
p57
aVNZD=X
p58
asS'08082016'
p59
(lp60
VCAD=X
p61
aVAUD=X
p62
aVJPY=X
p63
aVNZD=X
p64
asS'06302016'
p65
(lp66
VAUD=X
p67
aVJPY=X
p68
aVNZD=X
p69
asS'06302015'
p70
(lp71
VCHF=X
p72
aVAUD=X
p73
aVNZD=X
p74
asS'12062016'
p75
(lp76
VEUR=X
p77
aVCAD=X
p78
aVCHF=X
p79
aVAUD=X
p80
aVJPY=X
p81
aVNZD=X
p82
asS'02082017'
p83
(lp84
VCAD=X
p85
aVAUD=X
p86
aVJPY=X
p87
aVNZD=X
p88
asS'10122016'
p89
(lp90
VCAD=X
p91
aVAUD=X
p92
asS'10122015'
p93
(lp94
VCHF=X
p95
aVAUD=X
p96
aVJPY=X
p97
aVNZD=X
p98
asS'09272016'
p99
(lp100
VCAD=X
p101
aVAUD=X
p102
aVJPY=X
p103
asS'04232015'
p104
(lp105
VCAD=X
p106
aVCHF=X
p107
aVAUD=X
p108
aVJPY=X
p109
asS'10132016'
p110
(lp111
VCHF=X
p112
aVAUD=X
p113
asS'02092017'
p114
(lp115
VCAD=X
p116
aVAUD=X
p117
aVJPY=X
p118
aVNZD=X
p119
asS'06122015'
p120
(lp121
VCHF=X
p122
aVAUD=X
p123
aVJPY=X
p124
aVNZD=X
p125
asS'12182015'
p126
(lp127
VCHF=X
p128
aVAUD=X
p129
aVJPY=X
p130
asS'05182016'
p131
(lp132
VCHF=X
p133
aVAUD=X
p134
aVJPY=X
p135
aVGBP=X
p136
asS'05182015'
p137
(lp138
VCHF=X
p139
aVAUD=X
p140
aVJPY=X
p141
asS'02272015'
p142
(lp143
VCAD=X
p144
aVCHF=X
p145
aVAUD=X
p146
aVJPY=X
p147
asS'12112015'
p148
(lp149
VAUD=X
p150
aVJPY=X
p151
asS'09282016'
p152
(lp153
VCAD=X
p154
aVJPY=X
p155
asS'09282015'
p156
(lp157
VCHF=X
p158
aVAUD=X
p159
aVJPY=X
p160
aVNZD=X
p161
asS'04162015'
p162
(lp163
VCAD=X
p164
aVCHF=X
p165
aVAUD=X
p166
aVJPY=X
p167
aVNZD=X
p168
asS'05102016'
p169
(lp170
VCAD=X
p171
aVAUD=X
p172
aVJPY=X
p173
aVNZD=X
p174
asS'02232016'
p175
(lp176
VCAD=X
p177
aVCHF=X
p178
aVAUD=X
p179
aVJPY=X
p180
aVNZD=X
p181
asS'02232015'
p182
(lp183
VCAD=X
p184
aVCHF=X
p185
aVAUD=X
p186
aVJPY=X
p187
asS'08032016'
p188
(lp189
VCAD=X
p190
aVAUD=X
p191
aVJPY=X
p192
aVNZD=X
p193
asS'12212016'
p194
(lp195
VEUR=X
p196
aVCAD=X
p197
aVCHF=X
p198
aVAUD=X
p199
aVJPY=X
p200
asS'12212015'
p201
(lp202
VCHF=X
p203
aVAUD=X
p204
aVJPY=X
p205
asS'08032015'
p206
(lp207
VCHF=X
p208
aVAUD=X
p209
aVNZD=X
p210
asS'07222016'
p211
(lp212
VCHF=X
p213
aVAUD=X
p214
aVJPY=X
p215
asS'11032015'
p216
(lp217
VCAD=X
p218
aVCHF=X
p219
aVAUD=X
p220
aVJPY=X
p221
aVNZD=X
p222
asS'11032016'
p223
(lp224
VEUR=X
p225
aVCAD=X
p226
aVAUD=X
p227
aVJPY=X
p228
aVNZD=X
p229
asS'07222015'
p230
(lp231
VCAD=X
p232
aVCHF=X
p233
aVAUD=X
p234
aVJPY=X
p235
aVNZD=X
p236
asS'12202016'
p237
(lp238
VEUR=X
p239
aVCAD=X
p240
aVCHF=X
p241
aVAUD=X
p242
aVJPY=X
p243
asS'02022016'
p244
(lp245
VCAD=X
p246
aVCHF=X
p247
aVAUD=X
p248
aVJPY=X
p249
aVNZD=X
p250
asS'11132015'
p251
(lp252
VCHF=X
p253
aVAUD=X
p254
aVJPY=X
p255
aVNZD=X
p256
asS'08172015'
p257
(lp258
VCAD=X
p259
aVCHF=X
p260
aVAUD=X
p261
aVJPY=X
p262
aVNZD=X
p263
asS'10242016'
p264
(lp265
VEUR=X
p266
aVCAD=X
p267
aVAUD=X
p268
aVNZD=X
p269
asS'06012016'
p270
(lp271
VCAD=X
p272
aVCHF=X
p273
aVAUD=X
p274
asS'06012015'
p275
(lp276
VEUR=X
p277
aVCHF=X
p278
aVAUD=X
p279
aVJPY=X
p280
aVNZD=X
p281
asS'12292016'
p282
(lp283
VCAD=X
p284
aVEUR=X
p285
aVAUD=X
p286
aVJPY=X
p287
aVNZD=X
p288
asS'12292015'
p289
(lp290
VCAD=X
p291
aVCHF=X
p292
aVAUD=X
p293
aVJPY=X
p294
asS'04182016'
p295
(lp296
VCAD=X
p297
aVCHF=X
p298
aVAUD=X
p299
aVJPY=X
p300
aVGBP=X
p301
aVNZD=X
p302
asS'03112015'
p303
(lp304
VCAD=X
p305
aVCHF=X
p306
aVAUD=X
p307
aVJPY=X
p308
aVNZD=X
p309
asS'03112016'
p310
(lp311
VCAD=X
p312
aVCHF=X
p313
aVAUD=X
p314
aVJPY=X
p315
aVNZD=X
p316
asS'08212015'
p317
(lp318
VCAD=X
p319
aVCHF=X
p320
aVAUD=X
p321
aVJPY=X
p322
aVNZD=X
p323
asS'08172016'
p324
(lp325
VCAD=X
p326
aVAUD=X
p327
aVJPY=X
p328
aVNZD=X
p329
asS'01132016'
p330
(lp331
VCAD=X
p332
aVCHF=X
p333
aVAUD=X
p334
aVJPY=X
p335
asS'01132017'
p336
(lp337
VCAD=X
p338
aVAUD=X
p339
aVJPY=X
p340
aVNZD=X
p341
asS'05202016'
p342
(lp343
VCHF=X
p344
aVAUD=X
p345
aVJPY=X
p346
asS'05202015'
p347
(lp348
VEUR=X
p349
aVCAD=X
p350
aVCHF=X
p351
aVAUD=X
p352
aVJPY=X
p353
asS'07092015'
p354
(lp355
VEUR=X
p356
aVCHF=X
p357
aVAUD=X
p358
aVJPY=X
p359
aVNZD=X
p360
asS'04012015'
p361
(lp362
VEUR=X
p363
aVCAD=X
p364
aVCHF=X
p365
aVAUD=X
p366
aVJPY=X
p367
aVNZD=X
p368
asS'04012016'
p369
(lp370
VCAD=X
p371
aVAUD=X
p372
aVJPY=X
p373
aVNZD=X
p374
asS'11282016'
p375
(lp376
VEUR=X
p377
aVCAD=X
p378
aVCHF=X
p379
aVAUD=X
p380
aVJPY=X
p381
aVNZD=X
p382
asS'12092015'
p383
(lp384
VCAD=X
p385
aVAUD=X
p386
asS'12092016'
p387
(lp388
VEUR=X
p389
aVCAD=X
p390
aVAUD=X
p391
aVJPY=X
p392
aVNZD=X
p393
asS'10232015'
p394
(lp395
VCHF=X
p396
aVAUD=X
p397
aVJPY=X
p398
asS'03042016'
p399
(lp400
VCHF=X
p401
aVGBP=X
p402
aVNZD=X
p403
asS'03042015'
p404
(lp405
VCAD=X
p406
aVCHF=X
p407
aVJPY=X
p408
asS'05142015'
p409
(lp410
VCAD=X
p411
aVCHF=X
p412
aVAUD=X
p413
aVJPY=X
p414
asS'03162016'
p415
(lp416
VCAD=X
p417
aVAUD=X
p418
aVNZD=X
p419
asS'07012015'
p420
(lp421
VEUR=X
p422
aVCHF=X
p423
aVAUD=X
p424
aVJPY=X
p425
aVNZD=X
p426
asS'11082016'
p427
(lp428
VEUR=X
p429
aVCAD=X
p430
aVAUD=X
p431
aVJPY=X
p432
aVNZD=X
p433
asS'11092016'
p434
(lp435
VEUR=X
p436
aVCAD=X
p437
aVAUD=X
p438
aVJPY=X
p439
asS'11092015'
p440
(lp441
VCHF=X
p442
aVAUD=X
p443
aVJPY=X
p444
aVNZD=X
p445
asS'06132016'
p446
(lp447
VAUD=X
p448
aVJPY=X
p449
aVNZD=X
p450
asS'04062016'
p451
(lp452
VCAD=X
p453
aVAUD=X
p454
aVJPY=X
p455
aVGBP=X
p456
aVNZD=X
p457
asS'04062015'
p458
(lp459
VEUR=X
p460
aVCAD=X
p461
aVCHF=X
p462
aVAUD=X
p463
aVJPY=X
p464
aVNZD=X
p465
asS'11272015'
p466
(lp467
VCHF=X
p468
aVAUD=X
p469
aVJPY=X
p470
aVNZD=X
p471
asS'08302016'
p472
(lp473
VCAD=X
p474
aVAUD=X
p475
aVJPY=X
p476
asS'08232016'
p477
(lp478
VCAD=X
p479
aVAUD=X
p480
aVJPY=X
p481
asS'09162015'
p482
(lp483
VCHF=X
p484
aVAUD=X
p485
aVJPY=X
p486
aVNZD=X
p487
asS'04282015'
p488
(lp489
VCAD=X
p490
aVCHF=X
p491
aVAUD=X
p492
aVJPY=X
p493
asS'09162016'
p494
(lp495
VCAD=X
p496
aVAUD=X
p497
asS'02082016'
p498
(lp499
VCAD=X
p500
aVCHF=X
p501
aVAUD=X
p502
aVJPY=X
p503
aVNZD=X
p504
asS'08022016'
p505
(lp506
VAUD=X
p507
aVJPY=X
p508
aVNZD=X
p509
asS'02182015'
p510
(lp511
VCAD=X
p512
aVCHF=X
p513
aVJPY=X
p514
asS'02182016'
p515
(lp516
VCAD=X
p517
aVCHF=X
p518
aVAUD=X
p519
aVJPY=X
p520
aVNZD=X
p521
asS'01192016'
p522
(lp523
VCAD=X
p524
aVCHF=X
p525
aVAUD=X
p526
aVJPY=X
p527
aVNZD=X
p528
asS'01192017'
p529
(lp530
VEUR=X
p531
aVCAD=X
p532
aVAUD=X
p533
aVJPY=X
p534
aVNZD=X
p535
asS'11232015'
p536
(lp537
VCHF=X
p538
aVAUD=X
p539
aVJPY=X
p540
aVNZD=X
p541
asS'02092016'
p542
(lp543
VCAD=X
p544
aVAUD=X
p545
aVJPY=X
p546
aVNZD=X
p547
asS'07162015'
p548
(lp549
VCAD=X
p550
aVCHF=X
p551
aVAUD=X
p552
aVJPY=X
p553
aVNZD=X
p554
asS'05042015'
p555
(lp556
VCHF=X
p557
aVAUD=X
p558
aVJPY=X
p559
asS'05042016'
p560
(lp561
VCAD=X
p562
aVAUD=X
p563
aVJPY=X
p564
aVNZD=X
p565
asS'08182016'
p566
(lp567
VCAD=X
p568
aVAUD=X
p569
aVJPY=X
p570
aVNZD=X
p571
asS'07172015'
p572
(lp573
VCAD=X
p574
aVCHF=X
p575
aVAUD=X
p576
aVJPY=X
p577
aVNZD=X
p578
asS'06102015'
p579
(lp580
VCHF=X
p581
aVAUD=X
p582
aVJPY=X
p583
aVNZD=X
p584
asS'06102016'
p585
(lp586
VAUD=X
p587
aVJPY=X
p588
aVNZD=X
p589
asS'08182015'
p590
(lp591
VCAD=X
p592
aVCHF=X
p593
aVAUD=X
p594
aVJPY=X
p595
aVNZD=X
p596
asS'01242017'
p597
(lp598
VCAD=X
p599
aVAUD=X
p600
aVJPY=X
p601
aVNZD=X
p602
asS'02252015'
p603
(lp604
VEUR=X
p605
aVCHF=X
p606
aVAUD=X
p607
asS'02252016'
p608
(lp609
VCAD=X
p610
aVCHF=X
p611
aVAUD=X
p612
aVJPY=X
p613
aVNZD=X
p614
asS'09072016'
p615
(lp616
VCAD=X
p617
aVAUD=X
p618
aVJPY=X
p619
asS'12132016'
p620
(lp621
VEUR=X
p622
aVCAD=X
p623
aVCHF=X
p624
aVAUD=X
p625
aVJPY=X
p626
aVNZD=X
p627
asS'06242015'
p628
(lp629
VCHF=X
p630
aVAUD=X
p631
aVJPY=X
p632
aVNZD=X
p633
asS'06242016'
p634
(lp635
VCAD=X
p636
aVAUD=X
p637
aVJPY=X
p638
aVNZD=X
p639
asS'06072016'
p640
(lp641
VCAD=X
p642
aVAUD=X
p643
aVJPY=X
p644
asS'06032015'
p645
(lp646
VEUR=X
p647
aVCHF=X
p648
aVAUD=X
p649
aVJPY=X
p650
asS'02042016'
p651
(lp652
VCAD=X
p653
aVCHF=X
p654
aVAUD=X
p655
aVJPY=X
p656
aVNZD=X
p657
asS'07202015'
p658
(lp659
VCAD=X
p660
aVCHF=X
p661
aVAUD=X
p662
aVJPY=X
p663
aVNZD=X
p664
asS'07202016'
p665
(lp666
VCAD=X
p667
aVCHF=X
p668
aVAUD=X
p669
aVJPY=X
p670
asS'05152015'
p671
(lp672
VCAD=X
p673
aVCHF=X
p674
aVAUD=X
p675
aVJPY=X
p676
asS'10042016'
p677
(lp678
VCAD=X
p679
aVJPY=X
p680
asS'07192016'
p681
(lp682
VCHF=X
p683
aVAUD=X
p684
aVJPY=X
p685
asS'08152016'
p686
(lp687
VCAD=X
p688
aVAUD=X
p689
aVJPY=X
p690
aVNZD=X
p691
asS'06172016'
p692
(lp693
VAUD=X
p694
aVJPY=X
p695
aVNZD=X
p696
asS'06172015'
p697
(lp698
VCHF=X
p699
aVAUD=X
p700
aVJPY=X
p701
aVNZD=X
p702
asS'05222015'
p703
(lp704
VEUR=X
p705
aVCHF=X
p706
aVAUD=X
p707
aVJPY=X
p708
asS'12312015'
p709
(lp710
VCAD=X
p711
aVCHF=X
p712
aVAUD=X
p713
aVJPY=X
p714
aVNZD=X
p715
asS'05282015'
p716
(lp717
VEUR=X
p718
aVCHF=X
p719
aVAUD=X
p720
aVJPY=X
p721
asS'07272015'
p722
(lp723
VCHF=X
p724
aVAUD=X
p725
aVJPY=X
p726
aVNZD=X
p727
asS'08192015'
p728
(lp729
VCAD=X
p730
aVCHF=X
p731
aVAUD=X
p732
aVJPY=X
p733
aVNZD=X
p734
asS'06152015'
p735
(lp736
VCHF=X
p737
aVAUD=X
p738
aVJPY=X
p739
aVNZD=X
p740
asS'06042015'
p741
(lp742
VEUR=X
p743
aVCHF=X
p744
aVAUD=X
p745
aVJPY=X
p746
asS'10202015'
p747
(lp748
VCHF=X
p749
aVAUD=X
p750
aVJPY=X
p751
asS'10202016'
p752
(lp753
VCAD=X
p754
aVCHF=X
p755
aVAUD=X
p756
aVJPY=X
p757
aVNZD=X
p758
asS'06232016'
p759
(lp760
VAUD=X
p761
aVJPY=X
p762
aVNZD=X
p763
asS'11182015'
p764
(lp765
VCAD=X
p766
aVCHF=X
p767
aVAUD=X
p768
aVJPY=X
p769
aVNZD=X
p770
asS'11182016'
p771
(lp772
VEUR=X
p773
aVCAD=X
p774
aVCHF=X
p775
aVAUD=X
p776
asS'06232015'
p777
(lp778
VCHF=X
p779
aVAUD=X
p780
aVJPY=X
p781
aVNZD=X
p782
asS'12192016'
p783
(lp784
VEUR=X
p785
aVCAD=X
p786
aVCHF=X
p787
aVAUD=X
p788
aVJPY=X
p789
aVNZD=X
p790
asS'06152016'
p791
(lp792
VAUD=X
p793
aVJPY=X
p794
asS'10162015'
p795
(lp796
VCAD=X
p797
aVCHF=X
p798
aVAUD=X
p799
aVJPY=X
p800
aVNZD=X
p801
asS'04262016'
p802
(lp803
VCAD=X
p804
aVCHF=X
p805
aVAUD=X
p806
aVJPY=X
p807
aVNZD=X
p808
asS'08272015'
p809
(lp810
VCAD=X
p811
aVCHF=X
p812
aVAUD=X
p813
aVJPY=X
p814
aVNZD=X
p815
asS'05252016'
p816
(lp817
VCHF=X
p818
aVAUD=X
p819
asS'12242015'
p820
(lp821
VCAD=X
p822
aVCHF=X
p823
aVAUD=X
p824
aVJPY=X
p825
asS'04292016'
p826
(lp827
VCAD=X
p828
aVCHF=X
p829
aVAUD=X
p830
aVJPY=X
p831
aVNZD=X
p832
asS'05172016'
p833
(lp834
VCAD=X
p835
aVCHF=X
p836
aVAUD=X
p837
aVJPY=X
p838
aVGBP=X
p839
asS'04292015'
p840
(lp841
VCAD=X
p842
aVCHF=X
p843
aVAUD=X
p844
aVJPY=X
p845
asS'11252015'
p846
(lp847
VCAD=X
p848
aVCHF=X
p849
aVAUD=X
p850
aVJPY=X
p851
asS'11252016'
p852
(lp853
VEUR=X
p854
aVCAD=X
p855
aVCHF=X
p856
aVAUD=X
p857
aVJPY=X
p858
aVNZD=X
p859
asS'04052016'
p860
(lp861
VCAD=X
p862
aVAUD=X
p863
aVJPY=X
p864
aVNZD=X
p865
asS'03062015'
p866
(lp867
VCAD=X
p868
aVCHF=X
p869
aVAUD=X
p870
aVJPY=X
p871
asS'03082016'
p872
(lp873
VCAD=X
p874
aVCHF=X
p875
aVAUD=X
p876
aVJPY=X
p877
aVNZD=X
p878
asS'07022015'
p879
(lp880
VEUR=X
p881
aVCHF=X
p882
aVAUD=X
p883
aVJPY=X
p884
aVNZD=X
p885
asS'09142015'
p886
(lp887
VCAD=X
p888
aVCHF=X
p889
aVAUD=X
p890
aVJPY=X
p891
aVNZD=X
p892
asS'11042016'
p893
(lp894
VEUR=X
p895
aVCAD=X
p896
aVAUD=X
p897
aVJPY=X
p898
aVNZD=X
p899
asS'11042015'
p900
(lp901
VCAD=X
p902
aVCHF=X
p903
aVAUD=X
p904
aVJPY=X
p905
aVNZD=X
p906
asS'07152015'
p907
(lp908
VCHF=X
p909
aVAUD=X
p910
aVNZD=X
p911
asS'07152016'
p912
(lp913
VAUD=X
p914
aVJPY=X
p915
aVNZD=X
p916
asS'08142015'
p917
(lp918
VCHF=X
p919
aVAUD=X
p920
aVJPY=X
p921
aVNZD=X
p922
asS'01262016'
p923
(lp924
VCAD=X
p925
aVCHF=X
p926
aVAUD=X
p927
aVJPY=X
p928
aVNZD=X
p929
asS'01262017'
p930
(lp931
VCAD=X
p932
aVAUD=X
p933
aVJPY=X
p934
aVNZD=X
p935
asS'09062016'
p936
(lp937
VCAD=X
p938
aVAUD=X
p939
asS'03292016'
p940
(lp941
VCAD=X
p942
aVCHF=X
p943
aVAUD=X
p944
aVGBP=X
p945
asS'02112016'
p946
(lp947
VCAD=X
p948
aVCHF=X
p949
aVAUD=X
p950
aVJPY=X
p951
aVNZD=X
p952
asS'01042016'
p953
(lp954
VCAD=X
p955
aVCHF=X
p956
aVAUD=X
p957
aVJPY=X
p958
aVNZD=X
p959
asS'01042017'
p960
(lp961
VCAD=X
p962
aVAUD=X
p963
aVJPY=X
p964
aVNZD=X
p965
asS'12162015'
p966
(lp967
VAUD=X
p968
aVJPY=X
p969
asS'12162016'
p970
(lp971
VCAD=X
p972
aVCHF=X
p973
aVAUD=X
p974
aVJPY=X
p975
aVNZD=X
p976
asS'07272016'
p977
(lp978
VCAD=X
p979
aVAUD=X
p980
aVJPY=X
p981
asS'01052017'
p982
(lp983
VCAD=X
p984
aVAUD=X
p985
aVJPY=X
p986
aVNZD=X
p987
asS'01052016'
p988
(lp989
VCAD=X
p990
aVCHF=X
p991
aVAUD=X
p992
aVJPY=X
p993
aVNZD=X
p994
asS'03172016'
p995
(lp996
VCAD=X
p997
aVAUD=X
p998
aVJPY=X
p999
asS'03172015'
p1000
(lp1001
VEUR=X
p1002
aVCAD=X
p1003
aVCHF=X
p1004
aVAUD=X
p1005
aVJPY=X
p1006
aVNZD=X
p1007
asS'05092016'
p1008
(lp1009
VCAD=X
p1010
aVAUD=X
p1011
aVJPY=X
p1012
aVNZD=X
p1013
asS'05292015'
p1014
(lp1015
VEUR=X
p1016
aVCHF=X
p1017
aVAUD=X
p1018
aVJPY=X
p1019
asS'07122016'
p1020
(lp1021
VAUD=X
p1022
aVJPY=X
p1023
aVNZD=X
p1024
asS'06202016'
p1025
(lp1026
VCAD=X
p1027
aVAUD=X
p1028
aVJPY=X
p1029
aVNZD=X
p1030
asS'03282016'
p1031
(lp1032
VCAD=X
p1033
aVCHF=X
p1034
aVAUD=X
p1035
aVJPY=X
p1036
asS'01282016'
p1037
(lp1038
VCAD=X
p1039
aVCHF=X
p1040
aVAUD=X
p1041
aVJPY=X
p1042
aVNZD=X
p1043
asS'04212016'
p1044
(lp1045
VCAD=X
p1046
aVCHF=X
p1047
aVAUD=X
p1048
aVJPY=X
p1049
aVNZD=X
p1050
asS'04092015'
p1051
(lp1052
VEUR=X
p1053
aVCAD=X
p1054
aVCHF=X
p1055
aVAUD=X
p1056
aVJPY=X
p1057
aVNZD=X
p1058
asS'08162016'
p1059
(lp1060
VCAD=X
p1061
aVAUD=X
p1062
aVJPY=X
p1063
aVNZD=X
p1064
asS'09232015'
p1065
(lp1066
VCHF=X
p1067
aVAUD=X
p1068
aVJPY=X
p1069
aVNZD=X
p1070
asS'09232016'
p1071
(lp1072
VCAD=X
p1073
aVCHF=X
p1074
aVAUD=X
p1075
aVJPY=X
p1076
asS'11112016'
p1077
(lp1078
VEUR=X
p1079
aVCAD=X
p1080
aVAUD=X
p1081
aVJPY=X
p1082
aVNZD=X
p1083
asS'07242015'
p1084
(lp1085
VCAD=X
p1086
aVCHF=X
p1087
aVAUD=X
p1088
aVJPY=X
p1089
aVNZD=X
p1090
asS'02162016'
p1091
(lp1092
VCAD=X
p1093
aVCHF=X
p1094
aVAUD=X
p1095
aVJPY=X
p1096
aVNZD=X
p1097
asS'10152015'
p1098
(lp1099
VCAD=X
p1100
aVCHF=X
p1101
aVAUD=X
p1102
aVJPY=X
p1103
aVNZD=X
p1104
asS'06142016'
p1105
(lp1106
VAUD=X
p1107
aVJPY=X
p1108
aVNZD=X
p1109
asS'10082015'
p1110
(lp1111
VCHF=X
p1112
aVAUD=X
p1113
aVJPY=X
p1114
aVNZD=X
p1115
asS'06282016'
p1116
(lp1117
VCAD=X
p1118
aVAUD=X
p1119
aVJPY=X
p1120
asS'11292016'
p1121
(lp1122
VEUR=X
p1123
aVCAD=X
p1124
aVCHF=X
p1125
aVAUD=X
p1126
aVJPY=X
p1127
aVNZD=X
p1128
asS'05012015'
p1129
(lp1130
VCAD=X
p1131
aVCHF=X
p1132
aVAUD=X
p1133
aVJPY=X
p1134
asS'05132015'
p1135
(lp1136
VCAD=X
p1137
aVCHF=X
p1138
aVAUD=X
p1139
aVJPY=X
p1140
asS'05132016'
p1141
(lp1142
VCAD=X
p1143
aVCHF=X
p1144
aVAUD=X
p1145
aVGBP=X
p1146
aVNZD=X
p1147
asS'07062015'
p1148
(lp1149
VEUR=X
p1150
aVCHF=X
p1151
aVAUD=X
p1152
aVNZD=X
p1153
asS'07062016'
p1154
(lp1155
VCAD=X
p1156
aVJPY=X
p1157
asS'05262015'
p1158
(lp1159
VCHF=X
p1160
aVAUD=X
p1161
aVJPY=X
p1162
asS'05262016'
p1163
(lp1164
VCAD=X
p1165
aVCHF=X
p1166
aVAUD=X
p1167
asS'03032015'
p1168
(lp1169
VCAD=X
p1170
aVCHF=X
p1171
aVAUD=X
p1172
aVJPY=X
p1173
asS'03032016'
p1174
(lp1175
VCHF=X
p1176
aVAUD=X
p1177
aVJPY=X
p1178
aVNZD=X
p1179
asS'11112015'
p1180
(lp1181
VCAD=X
p1182
aVCHF=X
p1183
aVAUD=X
p1184
aVJPY=X
p1185
aVNZD=X
p1186
asS'04212015'
p1187
(lp1188
VCAD=X
p1189
aVCHF=X
p1190
aVAUD=X
p1191
aVJPY=X
p1192
asS'12042015'
p1193
(lp1194
VCAD=X
p1195
aVAUD=X
p1196
aVJPY=X
p1197
asS'09032015'
p1198
(lp1199
VCAD=X
p1200
aVCHF=X
p1201
aVAUD=X
p1202
aVJPY=X
p1203
aVNZD=X
p1204
asS'09022016'
p1205
(lp1206
VCAD=X
p1207
aVAUD=X
p1208
aVJPY=X
p1209
asS'09022015'
p1210
(lp1211
VCAD=X
p1212
aVCHF=X
p1213
aVAUD=X
p1214
aVJPY=X
p1215
aVNZD=X
p1216
asS'09092015'
p1217
(lp1218
VCAD=X
p1219
aVCHF=X
p1220
aVAUD=X
p1221
aVJPY=X
p1222
aVNZD=X
p1223
asS'09092016'
p1224
(lp1225
VCAD=X
p1226
aVAUD=X
p1227
aVJPY=X
p1228
asS'05112016'
p1229
(lp1230
VCAD=X
p1231
aVAUD=X
p1232
aVJPY=X
p1233
aVGBP=X
p1234
aVNZD=X
p1235
asS'04222015'
p1236
(lp1237
VCAD=X
p1238
aVCHF=X
p1239
aVAUD=X
p1240
aVJPY=X
p1241
asS'12052016'
p1242
(lp1243
VCAD=X
p1244
aVCHF=X
p1245
aVAUD=X
p1246
aVJPY=X
p1247
aVNZD=X
p1248
asS'06162016'
p1249
(lp1250
VAUD=X
p1251
aVJPY=X
p1252
aVNZD=X
p1253
asS'06162015'
p1254
(lp1255
VCHF=X
p1256
aVAUD=X
p1257
aVJPY=X
p1258
aVNZD=X
p1259
asS'04132015'
p1260
(lp1261
VCAD=X
p1262
aVEUR=X
p1263
aVCHF=X
p1264
aVAUD=X
p1265
aVJPY=X
p1266
asS'04132016'
p1267
(lp1268
VCAD=X
p1269
aVAUD=X
p1270
aVJPY=X
p1271
aVNZD=X
p1272
asS'08062015'
p1273
(lp1274
VCHF=X
p1275
aVAUD=X
p1276
aVNZD=X
p1277
asS'09302016'
p1278
(lp1279
VCAD=X
p1280
aVJPY=X
p1281
asS'06082016'
p1282
(lp1283
VAUD=X
p1284
aVJPY=X
p1285
aVNZD=X
p1286
asS'06082015'
p1287
(lp1288
VCHF=X
p1289
aVAUD=X
p1290
aVJPY=X
p1291
asS'10282015'
p1292
(lp1293
VCAD=X
p1294
aVCHF=X
p1295
aVAUD=X
p1296
aVJPY=X
p1297
asS'10282016'
p1298
(lp1299
VEUR=X
p1300
aVCAD=X
p1301
aVCHF=X
p1302
aVAUD=X
p1303
aVJPY=X
p1304
aVNZD=X
p1305
asS'05312016'
p1306
(lp1307
VCAD=X
p1308
aVCHF=X
p1309
aVAUD=X
p1310
aVNZD=X
p1311
asS'01232017'
p1312
(lp1313
VEUR=X
p1314
aVCAD=X
p1315
aVAUD=X
p1316
aVJPY=X
p1317
aVNZD=X
p1318
asS'09112015'
p1319
(lp1320
VCHF=X
p1321
aVAUD=X
p1322
aVJPY=X
p1323
aVNZD=X
p1324
asS'12282016'
p1325
(lp1326
VEUR=X
p1327
aVCAD=X
p1328
aVAUD=X
p1329
aVJPY=X
p1330
aVNZD=X
p1331
asS'07302015'
p1332
(lp1333
VCHF=X
p1334
aVAUD=X
p1335
aVJPY=X
p1336
aVNZD=X
p1337
asS'12282015'
p1338
(lp1339
VCAD=X
p1340
aVCHF=X
p1341
aVAUD=X
p1342
aVJPY=X
p1343
asS'02202015'
p1344
(lp1345
VCAD=X
p1346
aVCHF=X
p1347
aVJPY=X
p1348
asS'07282015'
p1349
(lp1350
VEUR=X
p1351
aVCHF=X
p1352
aVAUD=X
p1353
aVJPY=X
p1354
aVNZD=X
p1355
asS'07282016'
p1356
(lp1357
VCAD=X
p1358
aVAUD=X
p1359
aVJPY=X
p1360
asS'11162016'
p1361
(lp1362
VEUR=X
p1363
aVCAD=X
p1364
aVAUD=X
p1365
asS'11162015'
p1366
(lp1367
VCAD=X
p1368
aVCHF=X
p1369
aVAUD=X
p1370
aVJPY=X
p1371
aVNZD=X
p1372
asS'08222016'
p1373
(lp1374
VCAD=X
p1375
aVAUD=X
p1376
aVJPY=X
p1377
aVNZD=X
p1378
asS'08122015'
p1379
(lp1380
VCHF=X
p1381
aVAUD=X
p1382
aVJPY=X
p1383
aVNZD=X
p1384
asS'08122016'
p1385
(lp1386
VCAD=X
p1387
aVAUD=X
p1388
aVJPY=X
p1389
aVNZD=X
p1390
asS'01082016'
p1391
(lp1392
VCAD=X
p1393
aVCHF=X
p1394
aVAUD=X
p1395
aVJPY=X
p1396
aVNZD=X
p1397
asS'12302015'
p1398
(lp1399
VCAD=X
p1400
aVCHF=X
p1401
aVAUD=X
p1402
aVJPY=X
p1403
aVNZD=X
p1404
asS'09292016'
p1405
(lp1406
VCAD=X
p1407
aVJPY=X
p1408
asS'09292015'
p1409
(lp1410
VCHF=X
p1411
aVAUD=X
p1412
aVNZD=X
p1413
asS'04142016'
p1414
(lp1415
VCAD=X
p1416
aVAUD=X
p1417
aVJPY=X
p1418
aVNZD=X
p1419
asS'10172016'
p1420
(lp1421
VCAD=X
p1422
aVCHF=X
p1423
aVAUD=X
p1424
aVNZD=X
p1425
asS'09132016'
p1426
(lp1427
VCAD=X
p1428
aVCHF=X
p1429
asS'04142015'
p1430
(lp1431
VEUR=X
p1432
aVCAD=X
p1433
aVCHF=X
p1434
aVAUD=X
p1435
aVJPY=X
p1436
asS'09212016'
p1437
(lp1438
VCAD=X
p1439
aVAUD=X
p1440
aVJPY=X
p1441
asS'08092016'
p1442
(lp1443
VCAD=X
p1444
aVAUD=X
p1445
aVJPY=X
p1446
aVNZD=X
p1447
asS'09192016'
p1448
(lp1449
VCAD=X
p1450
aVAUD=X
p1451
aVJPY=X
p1452
asS'07112016'
p1453
(lp1454
VAUD=X
p1455
aVJPY=X
p1456
asS'10032016'
p1457
(lp1458
VCAD=X
p1459
aVAUD=X
p1460
aVJPY=X
p1461
asS'06272016'
p1462
(lp1463
VCAD=X
p1464
aVAUD=X
p1465
aVJPY=X
p1466
asS'08072015'
p1467
(lp1468
VCAD=X
p1469
aVCHF=X
p1470
aVAUD=X
p1471
aVJPY=X
p1472
aVNZD=X
p1473
asS'03252015'
p1474
(lp1475
VEUR=X
p1476
aVCAD=X
p1477
aVCHF=X
p1478
aVAUD=X
p1479
aVJPY=X
p1480
aVNZD=X
p1481
asS'05062016'
p1482
(lp1483
VCAD=X
p1484
aVAUD=X
p1485
aVJPY=X
p1486
asS'05062015'
p1487
(lp1488
VCAD=X
p1489
aVCHF=X
p1490
aVAUD=X
p1491
aVJPY=X
p1492
aVNZD=X
p1493
asS'01062016'
p1494
(lp1495
VCAD=X
p1496
aVCHF=X
p1497
aVAUD=X
p1498
aVJPY=X
p1499
aVNZD=X
p1500
asS'11212016'
p1501
(lp1502
VEUR=X
p1503
aVCAD=X
p1504
aVCHF=X
p1505
aVAUD=X
p1506
aVJPY=X
p1507
asS'12232015'
p1508
(lp1509
VCAD=X
p1510
aVCHF=X
p1511
aVAUD=X
p1512
aVJPY=X
p1513
asS'12232016'
p1514
(lp1515
VCAD=X
p1516
aVAUD=X
p1517
aVJPY=X
p1518
aVNZD=X
p1519
asS'01032017'
p1520
(lp1521
VCAD=X
p1522
aVAUD=X
p1523
aVJPY=X
p1524
aVNZD=X
p1525
asS'11202015'
p1526
(lp1527
VCAD=X
p1528
aVCHF=X
p1529
aVAUD=X
p1530
aVJPY=X
p1531
aVNZD=X
p1532
asS'07132016'
p1533
(lp1534
VAUD=X
p1535
aVJPY=X
p1536
aVNZD=X
p1537
asS'07132015'
p1538
(lp1539
VEUR=X
p1540
aVCHF=X
p1541
aVAUD=X
p1542
aVNZD=X
p1543
asS'09252015'
p1544
(lp1545
VCAD=X
p1546
aVCHF=X
p1547
aVAUD=X
p1548
aVJPY=X
p1549
aVNZD=X
p1550
asS'11152016'
p1551
(lp1552
VEUR=X
p1553
aVCAD=X
p1554
aVAUD=X
p1555
asS'12082015'
p1556
(lp1557
VCHF=X
p1558
aVAUD=X
p1559
aVJPY=X
p1560
asS'12082016'
p1561
(lp1562
VEUR=X
p1563
aVCAD=X
p1564
aVAUD=X
p1565
aVJPY=X
p1566
aVNZD=X
p1567
asS'03072016'
p1568
(lp1569
VCAD=X
p1570
aVCHF=X
p1571
aVAUD=X
p1572
aVJPY=X
p1573
aVNZD=X
p1574
asS'06252015'
p1575
(lp1576
VCHF=X
p1577
aVAUD=X
p1578
aVJPY=X
p1579
aVNZD=X
p1580
asS'03222016'
p1581
(lp1582
VCAD=X
p1583
aVAUD=X
p1584
aVJPY=X
p1585
aVNZD=X
p1586
asS'08052015'
p1587
(lp1588
VCHF=X
p1589
aVAUD=X
p1590
aVNZD=X
p1591
asS'08052016'
p1592
(lp1593
VCAD=X
p1594
aVAUD=X
p1595
aVJPY=X
p1596
aVNZD=X
p1597
asS'09302015'
p1598
(lp1599
VCHF=X
p1600
aVAUD=X
p1601
aVJPY=X
p1602
aVNZD=X
p1603
asS'04222016'
p1604
(lp1605
VCAD=X
p1606
aVCHF=X
p1607
aVAUD=X
p1608
aVJPY=X
p1609
aVNZD=X
p1610
asS'04172015'
p1611
(lp1612
VCAD=X
p1613
aVCHF=X
p1614
aVAUD=X
p1615
aVJPY=X
p1616
aVNZD=X
p1617
asS'09142016'
p1618
(lp1619
VCAD=X
p1620
aVAUD=X
p1621
aVJPY=X
p1622
asS'02012016'
p1623
(lp1624
VCAD=X
p1625
aVCHF=X
p1626
aVAUD=X
p1627
aVJPY=X
p1628
aVNZD=X
p1629
asS'02012017'
p1630
(lp1631
VEUR=X
p1632
aVCAD=X
p1633
aVAUD=X
p1634
aVNZD=X
p1635
asS'03152016'
p1636
(lp1637
VCAD=X
p1638
aVAUD=X
p1639
aVJPY=X
p1640
aVNZD=X
p1641
asS'03182015'
p1642
(lp1643
VEUR=X
p1644
aVCAD=X
p1645
aVCHF=X
p1646
aVAUD=X
p1647
aVJPY=X
p1648
aVNZD=X
p1649
asS'03182016'
p1650
(lp1651
VCAD=X
p1652
aVAUD=X
p1653
aVJPY=X
p1654
aVNZD=X
p1655
asS'05162016'
p1656
(lp1657
VCAD=X
p1658
aVAUD=X
p1659
aVJPY=X
p1660
aVGBP=X
p1661
aVNZD=X
p1662
asS'09172015'
p1663
(lp1664
VCHF=X
p1665
aVAUD=X
p1666
aVJPY=X
p1667
aVNZD=X
p1668
asS'10132015'
p1669
(lp1670
VCHF=X
p1671
aVAUD=X
p1672
aVJPY=X
p1673
aVNZD=X
p1674
asS'05192016'
p1675
(lp1676
VCHF=X
p1677
aVAUD=X
p1678
aVJPY=X
p1679
aVGBP=X
p1680
asS'05192015'
p1681
(lp1682
VEUR=X
p1683
aVCHF=X
p1684
aVAUD=X
p1685
aVJPY=X
p1686
asS'10252016'
p1687
(lp1688
VEUR=X
p1689
aVCHF=X
p1690
aVAUD=X
p1691
aVJPY=X
p1692
aVNZD=X
p1693
asS'07072015'
p1694
(lp1695
VEUR=X
p1696
aVCHF=X
p1697
aVAUD=X
p1698
aVJPY=X
p1699
aVNZD=X
p1700
asS'03102016'
p1701
(lp1702
VCAD=X
p1703
aVCHF=X
p1704
aVAUD=X
p1705
aVJPY=X
p1706
aVNZD=X
p1707
asS'11062015'
p1708
(lp1709
VCAD=X
p1710
aVCHF=X
p1711
aVAUD=X
p1712
aVJPY=X
p1713
asS'08252015'
p1714
(lp1715
VCAD=X
p1716
aVCHF=X
p1717
aVAUD=X
p1718
aVJPY=X
p1719
aVNZD=X
p1720
asS'06212016'
p1721
(lp1722
VAUD=X
p1723
aVJPY=X
p1724
aVNZD=X
p1725
asS'01252016'
p1726
(lp1727
VCAD=X
p1728
aVCHF=X
p1729
aVAUD=X
p1730
aVJPY=X
p1731
aVNZD=X
p1732
asS'02122016'
p1733
(lp1734
VCAD=X
p1735
aVCHF=X
p1736
aVAUD=X
p1737
aVJPY=X
p1738
aVNZD=X
p1739
asS'12032015'
p1740
(lp1741
VAUD=X
p1742
asS'09242015'
p1743
(lp1744
VCHF=X
p1745
aVAUD=X
p1746
aVJPY=X
p1747
aVNZD=X
p1748
asS'06092016'
p1749
(lp1750
VAUD=X
p1751
aVJPY=X
p1752
aVNZD=X
p1753
asS'06092015'
p1754
(lp1755
VCAD=X
p1756
aVCHF=X
p1757
aVAUD=X
p1758
aVJPY=X
p1759
aVNZD=X
p1760
asS'04112016'
p1761
(lp1762
VCAD=X
p1763
aVCHF=X
p1764
aVAUD=X
p1765
aVJPY=X
p1766
aVNZD=X
p1767
asS'08282015'
p1768
(lp1769
VCAD=X
p1770
aVCHF=X
p1771
aVAUD=X
p1772
aVJPY=X
p1773
aVNZD=X
p1774
asS'07182016'
p1775
(lp1776
VCAD=X
p1777
aVAUD=X
p1778
aVJPY=X
p1779
asS'07082015'
p1780
(lp1781
VEUR=X
p1782
aVCHF=X
p1783
aVAUD=X
p1784
aVJPY=X
p1785
aVNZD=X
p1786
asS'03102015'
p1787
(lp1788
VCAD=X
p1789
aVCHF=X
p1790
aVAUD=X
p1791
aVJPY=X
p1792
aVNZD=X
p1793
asS'01302017'
p1794
(lp1795
VCAD=X
p1796
aVAUD=X
p1797
aVJPY=X
p1798
aVNZD=X
p1799
asS'10072015'
p1800
(lp1801
VCHF=X
p1802
aVAUD=X
p1803
aVJPY=X
p1804
aVNZD=X
p1805
asS'02262016'
p1806
(lp1807
VCAD=X
p1808
aVCHF=X
p1809
aVJPY=X
p1810
aVNZD=X
p1811
asS'02262015'
p1812
(lp1813
VCAD=X
p1814
aVCHF=X
p1815
aVAUD=X
p1816
aVJPY=X
p1817
asS'02192016'
p1818
(lp1819
VCAD=X
p1820
aVCHF=X
p1821
aVAUD=X
p1822
aVJPY=X
p1823
aVNZD=X
p1824
asS'08252016'
p1825
(lp1826
VCAD=X
p1827
aVAUD=X
p1828
aVJPY=X
p1829
asS'08312015'
p1830
(lp1831
VCAD=X
p1832
aVCHF=X
p1833
aVAUD=X
p1834
aVJPY=X
p1835
aVNZD=X
p1836
asS'08312016'
p1837
(lp1838
VCAD=X
p1839
aVAUD=X
p1840
aVJPY=X
p1841
asS'10222015'
p1842
(lp1843
VCHF=X
p1844
aVAUD=X
p1845
aVJPY=X
p1846
asS'06222016'
p1847
(lp1848
VAUD=X
p1849
aVJPY=X
p1850
aVNZD=X
p1851
asS'06222015'
p1852
(lp1853
VCHF=X
p1854
aVAUD=X
p1855
aVJPY=X
p1856
aVNZD=X
p1857
asS'03212016'
p1858
(lp1859
VCAD=X
p1860
aVCHF=X
p1861
aVAUD=X
p1862
aVJPY=X
p1863
aVNZD=X
p1864
asS'11012016'
p1865
(lp1866
VEUR=X
p1867
aVCAD=X
p1868
aVCHF=X
p1869
aVAUD=X
p1870
aVJPY=X
p1871
aVNZD=X
p1872
asS'07012016'
p1873
(lp1874
VAUD=X
p1875
aVJPY=X
p1876
aVNZD=X
p1877
asS'06192015'
p1878
(lp1879
VCHF=X
p1880
aVAUD=X
p1881
aVJPY=X
p1882
aVNZD=X
p1883
asS'03302016'
p1884
(lp1885
VCAD=X
p1886
aVCHF=X
p1887
aVAUD=X
p1888
aVGBP=X
p1889
aVNZD=X
p1890
asS'02022017'
p1891
(lp1892
VCAD=X
p1893
aVAUD=X
p1894
aVJPY=X
p1895
aVNZD=X
p1896
asS'10182016'
p1897
(lp1898
VCAD=X
p1899
aVCHF=X
p1900
aVAUD=X
p1901
asS'04082015'
p1902
(lp1903
VEUR=X
p1904
aVCAD=X
p1905
aVCHF=X
p1906
aVAUD=X
p1907
aVJPY=X
p1908
asS'04082016'
p1909
(lp1910
VCAD=X
p1911
aVCHF=X
p1912
aVAUD=X
p1913
aVJPY=X
p1914
aVNZD=X
p1915
asS'08012016'
p1916
(lp1917
VCAD=X
p1918
aVAUD=X
p1919
aVJPY=X
p1920
asS'01122017'
p1921
(lp1922
VCAD=X
p1923
aVAUD=X
p1924
aVJPY=X
p1925
aVNZD=X
p1926
asS'01122016'
p1927
(lp1928
VCAD=X
p1929
aVCHF=X
p1930
aVAUD=X
p1931
aVJPY=X
p1932
aVNZD=X
p1933
asS'01172017'
p1934
(lp1935
VCAD=X
p1936
aVAUD=X
p1937
aVJPY=X
p1938
aVNZD=X
p1939
asS'03302015'
p1940
(lp1941
VCAD=X
p1942
aVEUR=X
p1943
aVCHF=X
p1944
aVAUD=X
p1945
aVJPY=X
p1946
aVNZD=X
p1947
asS'04282016'
p1948
(lp1949
VCAD=X
p1950
aVCHF=X
p1951
aVAUD=X
p1952
aVJPY=X
p1953
asS'02102016'
p1954
(lp1955
VCAD=X
p1956
aVAUD=X
p1957
aVJPY=X
p1958
aVNZD=X
p1959
asS'02102017'
p1960
(lp1961
VCAD=X
p1962
aVCHF=X
p1963
aVAUD=X
p1964
aVJPY=X
p1965
aVNZD=X
p1966
asS'04072016'
p1967
(lp1968
VCAD=X
p1969
aVAUD=X
p1970
aVJPY=X
p1971
aVGBP=X
p1972
aVNZD=X
p1973
asS'04302015'
p1974
(lp1975
VCAD=X
p1976
aVCHF=X
p1977
aVAUD=X
p1978
aVJPY=X
p1979
asS'09262016'
p1980
(lp1981
VCAD=X
p1982
aVAUD=X
p1983
aVJPY=X
p1984
asS'04072015'
p1985
(lp1986
VEUR=X
p1987
aVCAD=X
p1988
aVCHF=X
p1989
aVAUD=X
p1990
aVJPY=X
p1991
asS'05052015'
p1992
(lp1993
VCHF=X
p1994
aVAUD=X
p1995
aVNZD=X
p1996
asS'05052016'
p1997
(lp1998
VCAD=X
p1999
aVAUD=X
p2000
aVJPY=X
p2001
aVNZD=X
p2002
asS'03092016'
p2003
(lp2004
VCAD=X
p2005
aVCHF=X
p2006
aVAUD=X
p2007
aVJPY=X
p2008
aVNZD=X
p2009
asS'03092015'
p2010
(lp2011
VCAD=X
p2012
aVCHF=X
p2013
aVAUD=X
p2014
aVJPY=X
p2015
asS'04202016'
p2016
(lp2017
VCAD=X
p2018
aVCHF=X
p2019
aVAUD=X
p2020
aVJPY=X
p2021
aVGBP=X
p2022
aVNZD=X
p2023
asS'04202015'
p2024
(lp2025
VCAD=X
p2026
aVCHF=X
p2027
aVAUD=X
p2028
aVJPY=X
p2029
asS'06112015'
p2030
(lp2031
VCHF=X
p2032
aVAUD=X
p2033
aVJPY=X
p2034
aVNZD=X
p2035
asS'10102016'
p2036
(lp2037
VEUR=X
p2038
aVCAD=X
p2039
aVAUD=X
p2040
asS'03012016'
p2041
(lp2042
VCAD=X
p2043
aVCHF=X
p2044
aVJPY=X
p2045
aVNZD=X
p2046
asS'01072016'
p2047
(lp2048
VCAD=X
p2049
aVCHF=X
p2050
aVAUD=X
p2051
aVJPY=X
p2052
aVNZD=X
p2053
asS'11122015'
p2054
(lp2055
VCAD=X
p2056
aVAUD=X
p2057
aVJPY=X
p2058
aVNZD=X
p2059
asS'01102017'
p2060
(lp2061
VCAD=X
p2062
aVAUD=X
p2063
aVJPY=X
p2064
aVNZD=X
p2065
asS'01312017'
p2066
(lp2067
VCAD=X
p2068
aVAUD=X
p2069
aVNZD=X
p2070
asS'07212015'
p2071
(lp2072
VCAD=X
p2073
aVCHF=X
p2074
aVAUD=X
p2075
aVJPY=X
p2076
aVNZD=X
p2077
asS'09202016'
p2078
(lp2079
VCAD=X
p2080
aVAUD=X
p2081
aVJPY=X
p2082
asS'07212016'
p2083
(lp2084
VCAD=X
p2085
aVCHF=X
p2086
aVAUD=X
p2087
aVJPY=X
p2088
asS'03272015'
p2089
(lp2090
VEUR=X
p2091
aVCAD=X
p2092
aVCHF=X
p2093
aVAUD=X
p2094
aVJPY=X
p2095
asS'10192015'
p2096
(lp2097
VCAD=X
p2098
aVCHF=X
p2099
aVAUD=X
p2100
aVJPY=X
p2101
aVNZD=X
p2102
asS'06022015'
p2103
(lp2104
VCHF=X
p2105
aVAUD=X
p2106
aVJPY=X
p2107
asS'01142016'
p2108
(lp2109
VCAD=X
p2110
aVCHF=X
p2111
aVAUD=X
p2112
aVJPY=X
p2113
asS'06022016'
p2114
(lp2115
VCAD=X
p2116
aVCHF=X
p2117
aVAUD=X
p2118
asS'08292016'
p2119
(lp2120
VCAD=X
p2121
aVAUD=X
p2122
aVJPY=X
p2123
asS'10192016'
p2124
(lp2125
VEUR=X
p2126
aVCAD=X
p2127
aVCHF=X
p2128
aVAUD=X
p2129
aVJPY=X
p2130
asS'04102015'
p2131
(lp2132
VEUR=X
p2133
aVCAD=X
p2134
aVCHF=X
p2135
aVAUD=X
p2136
aVJPY=X
p2137
aVNZD=X
p2138
asS'01152016'
p2139
(lp2140
VCAD=X
p2141
aVCHF=X
p2142
aVAUD=X
p2143
aVJPY=X
p2144
asS'12012015'
p2145
(lp2146
VCHF=X
p2147
aVAUD=X
p2148
aVJPY=X
p2149
asS'10092015'
p2150
(lp2151
VCHF=X
p2152
aVAUD=X
p2153
aVJPY=X
p2154
aVNZD=X
p2155
asS'12012016'
p2156
(lp2157
VEUR=X
p2158
aVCAD=X
p2159
aVCHF=X
p2160
aVAUD=X
p2161
aVJPY=X
p2162
aVNZD=X
p2163
asS'07082016'
p2164
(lp2165
VCAD=X
p2166
aVAUD=X
p2167
aVJPY=X
p2168
asS'12302016'
p2169
(lp2170
VEUR=X
p2171
aVCAD=X
p2172
aVAUD=X
p2173
aVJPY=X
p2174
aVNZD=X
p2175
asS'11192015'
p2176
(lp2177
VCAD=X
p2178
aVCHF=X
p2179
aVAUD=X
p2180
aVJPY=X
p2181
aVNZD=X
p2182
asS'08192016'
p2183
(lp2184
VCAD=X
p2185
aVAUD=X
p2186
aVJPY=X
p2187
aVNZD=X
p2188
asS'06032016'
p2189
(lp2190
VCHF=X
p2191
aVAUD=X
p2192
asS'05232016'
p2193
(lp2194
VCHF=X
p2195
aVAUD=X
p2196
aVJPY=X
p2197
asS'10212015'
p2198
(lp2199
VCHF=X
p2200
aVAUD=X
p2201
aVJPY=X
p2202
asS'04242015'
p2203
(lp2204
VEUR=X
p2205
aVCAD=X
p2206
aVCHF=X
p2207
aVAUD=X
p2208
aVJPY=X
p2209
asS'10212016'
p2210
(lp2211
VEUR=X
p2212
aVCAD=X
p2213
aVCHF=X
p2214
aVJPY=X
p2215
aVNZD=X
p2216
asS'11022015'
p2217
(lp2218
VCAD=X
p2219
aVCHF=X
p2220
aVAUD=X
p2221
aVJPY=X
p2222
aVNZD=X
p2223
asS'10302015'
p2224
(lp2225
VCAD=X
p2226
aVCHF=X
p2227
aVAUD=X
p2228
aVJPY=X
p2229
aVNZD=X
p2230
asS'11022016'
p2231
(lp2232
VEUR=X
p2233
aVCAD=X
p2234
aVAUD=X
p2235
aVJPY=X
p2236
aVNZD=X
p2237
asS'07292015'
p2238
(lp2239
VCHF=X
p2240
aVAUD=X
p2241
aVJPY=X
p2242
aVNZD=X
p2243
asS'07292016'
p2244
(lp2245
VCAD=X
p2246
aVAUD=X
p2247
aVJPY=X
p2248
asS'02242015'
p2249
(lp2250
VCHF=X
p2251
aVAUD=X
p2252
aVJPY=X
p2253
asS'02242016'
p2254
(lp2255
VCAD=X
p2256
aVCHF=X
p2257
aVAUD=X
p2258
aVJPY=X
p2259
aVNZD=X
p2260
asS'05082015'
p2261
(lp2262
VCAD=X
p2263
aVCHF=X
p2264
aVAUD=X
p2265
asS'12122016'
p2266
(lp2267
VEUR=X
p2268
aVCAD=X
p2269
aVAUD=X
p2270
aVJPY=X
p2271
aVNZD=X
p2272
asS'12172015'
p2273
(lp2274
VCHF=X
p2275
aVAUD=X
p2276
aVJPY=X
p2277
asS'03142016'
p2278
(lp2279
VCAD=X
p2280
aVCHF=X
p2281
aVAUD=X
p2282
aVJPY=X
p2283
asS'11102015'
p2284
(lp2285
VCAD=X
p2286
aVCHF=X
p2287
aVAUD=X
p2288
aVJPY=X
p2289
aVNZD=X
p2290
asS'11102016'
p2291
(lp2292
VEUR=X
p2293
aVCAD=X
p2294
aVAUD=X
p2295
aVJPY=X
p2296
asS'07262016'
p2297
(lp2298
VCAD=X
p2299
aVAUD=X
p2300
aVJPY=X
p2301
asS'08262015'
p2302
(lp2303
VCAD=X
p2304
aVCHF=X
p2305
aVAUD=X
p2306
aVJPY=X
p2307
aVNZD=X
p2308
asS'08262016'
p2309
(lp2310
VCAD=X
p2311
aVAUD=X
p2312
aVJPY=X
p2313
asS'02172016'
p2314
(lp2315
VCAD=X
p2316
aVCHF=X
p2317
aVAUD=X
p2318
aVJPY=X
p2319
aVNZD=X
p2320
asS'02172015'
p2321
(lp2322
VEUR=X
p2323
aVCAD=X
p2324
aVCHF=X
p2325
aVJPY=X
p2326
asS'04042016'
p2327
(lp2328
VCAD=X
p2329
aVAUD=X
p2330
aVJPY=X
p2331
aVNZD=X
p2332
asS'06052015'
p2333
(lp2334
VCHF=X
p2335
aVAUD=X
p2336
aVJPY=X
p2337
asS'09082015'
p2338
(lp2339
VCAD=X
p2340
aVCHF=X
p2341
aVAUD=X
p2342
aVJPY=X
p2343
aVNZD=X
p2344
asS'09082016'
p2345
(lp2346
VCAD=X
p2347
aVAUD=X
p2348
aVJPY=X
p2349
asS'10012015'
p2350
(lp2351
VCHF=X
p2352
aVAUD=X
p2353
aVJPY=X
p2354
aVNZD=X
p2355
asS'09122016'
p2356
(lp2357
VCAD=X
p2358
aVAUD=X
p2359
aVJPY=X
p2360
asS'09222015'
p2361
(lp2362
VNZD=X
p2363
asS'09222016'
p2364
(lp2365
VCAD=X
p2366
aVAUD=X
p2367
aVJPY=X
p2368
asS'12072016'
p2369
(lp2370
VEUR=X
p2371
aVCAD=X
p2372
aVCHF=X
p2373
aVAUD=X
p2374
aVJPY=X
p2375
aVNZD=X
p2376
asS'12072015'
p2377
(lp2378
VCHF=X
p2379
aVAUD=X
p2380
asS'06292015'
p2381
(lp2382
VEUR=X
p2383
aVCHF=X
p2384
aVAUD=X
p2385
aVJPY=X
p2386
aVNZD=X
p2387
asS'12102015'
p2388
(lp2389
VAUD=X
p2390
aVJPY=X
p2391
asS'03202015'
p2392
(lp2393
VEUR=X
p2394
aVCAD=X
p2395
aVCHF=X
p2396
aVAUD=X
p2397
aVJPY=X
p2398
aVNZD=X
p2399
asS'05242016'
p2400
(lp2401
VCHF=X
p2402
aVAUD=X
p2403
aVJPY=X
p2404
asS'07072016'
p2405
(lp2406
VCAD=X
p2407
aVJPY=X
p2408
asS'10062015'
p2409
(lp2410
VCHF=X
p2411
aVAUD=X
p2412
aVJPY=X
p2413
aVNZD=X
p2414
asS'05072015'
p2415
(lp2416
VCAD=X
p2417
aVCHF=X
p2418
aVAUD=X
p2419
aVJPY=X
p2420
asS'07142015'
p2421
(lp2422
VEUR=X
p2423
aVCHF=X
p2424
aVAUD=X
p2425
aVJPY=X
p2426
aVNZD=X
p2427
asS'08112015'
p2428
(lp2429
VCHF=X
p2430
aVAUD=X
p2431
aVJPY=X
p2432
aVNZD=X
p2433
asS'10272015'
p2434
(lp2435
VCAD=X
p2436
aVCHF=X
p2437
aVAUD=X
p2438
aVJPY=X
p2439
asS'07142016'
p2440
(lp2441
VAUD=X
p2442
aVJPY=X
p2443
asS'08102016'
p2444
(lp2445
VCAD=X
p2446
aVCHF=X
p2447
aVAUD=X
p2448
aVJPY=X
p2449
aVNZD=X
p2450
asS'12142016'
p2451
(lp2452
VEUR=X
p2453
aVCAD=X
p2454
aVCHF=X
p2455
aVAUD=X
p2456
aVJPY=X
p2457
aVNZD=X
p2458
asS'12142015'
p2459
(lp2460
VAUD=X
p2461
aVJPY=X
p2462
asS'08102015'
p2463
(lp2464
VCHF=X
p2465
aVAUD=X
p2466
aVJPY=X
p2467
aVNZD=X
p2468
asS'11142016'
p2469
(lp2470
VEUR=X
p2471
aVCAD=X
p2472
aVAUD=X
p2473
asS'03262015'
p2474
(lp2475
VEUR=X
p2476
aVCAD=X
p2477
aVCHF=X
p2478
aVAUD=X
p2479
aVJPY=X
p2480
asS'12152016'
p2481
(lp2482
VEUR=X
p2483
aVCAD=X
p2484
aVCHF=X
p2485
aVAUD=X
p2486
aVJPY=X
p2487
aVNZD=X
p2488
asS'11232016'
p2489
(lp2490
VEUR=X
p2491
aVCAD=X
p2492
aVCHF=X
p2493
aVAUD=X
p2494
asS'12152015'
p2495
(lp2496
VAUD=X
p2497
aVJPY=X
p2498
asS'06262015'
p2499
(lp2500
VCHF=X
p2501
aVAUD=X
p2502
aVJPY=X
p2503
aVNZD=X
p2504
asS'02052016'
p2505
(lp2506
VCAD=X
p2507
aVCHF=X
p2508
aVAUD=X
p2509
aVJPY=X
p2510
aVNZD=X
p2511
asS'02222016'
p2512
(lp2513
VCAD=X
p2514
aVCHF=X
p2515
aVAUD=X
p2516
aVJPY=X
p2517
aVNZD=X
p2518
asS'04252016'
p2519
(lp2520
VCAD=X
p2521
aVCHF=X
p2522
aVAUD=X
p2523
aVNZD=X
p2524
asS'03022015'
p2525
(lp2526
VEUR=X
p2527
aVCAD=X
p2528
aVCHF=X
p2529
aVAUD=X
p2530
aVJPY=X
p2531
asS'03022016'
p2532
(lp2533
VCHF=X
p2534
aVAUD=X
p2535
aVNZD=X
p2536
asS'10312016'
p2537
(lp2538
VEUR=X
p2539
aVCAD=X
p2540
aVCHF=X
p2541
aVAUD=X
p2542
aVJPY=X
p2543
aVNZD=X
p2544
asS'10062016'
p2545
(lp2546
VEUR=X
p2547
aVCAD=X
p2548
aVAUD=X
p2549
asS'04022015'
p2550
(lp2551
VEUR=X
p2552
aVCAD=X
p2553
aVCHF=X
p2554
aVAUD=X
p2555
aVJPY=X
p2556
aVNZD=X
p2557
asS'03192015'
p2558
(lp2559
VEUR=X
p2560
aVCAD=X
p2561
aVCHF=X
p2562
aVAUD=X
p2563
aVJPY=X
p2564
aVNZD=X
p2565
asS'11242015'
p2566
(lp2567
VCHF=X
p2568
aVAUD=X
p2569
aVJPY=X
p2570
aVNZD=X
p2571
asS'04122016'
p2572
(lp2573
VCAD=X
p2574
aVAUD=X
p2575
aVJPY=X
p2576
aVGBP=X
p2577
aVNZD=X
p2578
asS'06292016'
p2579
(lp2580
VAUD=X
p2581
aVJPY=X
p2582
aVNZD=X
p2583
asS'10142015'
p2584
(lp2585
VCAD=X
p2586
aVCHF=X
p2587
aVAUD=X
p2588
aVNZD=X
p2589
asS'10142016'
p2590
(lp2591
VCAD=X
p2592
aVCHF=X
p2593
aVAUD=X
p2594
asS'03312016'
p2595
(lp2596
VCAD=X
p2597
aVCHF=X
p2598
aVAUD=X
p2599
aVNZD=X
p2600
asS'03312015'
p2601
(lp2602
VEUR=X
p2603
aVCAD=X
p2604
aVCHF=X
p2605
aVAUD=X
p2606
aVJPY=X
p2607
aVNZD=X
p2608
asS'11172016'
p2609
(lp2610
VCAD=X
p2611
aVEUR=X
p2612
aVAUD=X
p2613
asS'11172015'
p2614
(lp2615
VCAD=X
p2616
aVAUD=X
p2617
aVJPY=X
p2618
aVNZD=X
p2619
asS'05032016'
p2620
(lp2621
VCAD=X
p2622
aVAUD=X
p2623
aVJPY=X
p2624
aVNZD=X
p2625
asS'07252016'
p2626
(lp2627
VAUD=X
p2628
aVJPY=X
p2629
asS'09212015'
p2630
(lp2631
VCHF=X
p2632
aVAUD=X
p2633
aVNZD=X
p2634
asS'08112016'
p2635
(lp2636
VCAD=X
p2637
aVAUD=X
p2638
aVJPY=X
p2639
aVNZD=X
p2640
asS'03052015'
p2641
(lp2642
VCAD=X
p2643
aVCHF=X
p2644
aVAUD=X
p2645
aVJPY=X
p2646
aVNZD=X
p2647
asS'06062016'
p2648
(lp2649
VCHF=X
p2650
aVAUD=X
p2651
aVJPY=X
p2652
aVGBP=X
p2653
aVNZD=X
p2654
asS'08042015'
p2655
(lp2656
VCAD=X
p2657
aVCHF=X
p2658
aVAUD=X
p2659
aVNZD=X
p2660
asS'08042016'
p2661
(lp2662
VCAD=X
p2663
aVAUD=X
p2664
aVJPY=X
p2665
aVNZD=X
p2666
asS'01272017'
p2667
(lp2668
VCAD=X
p2669
aVAUD=X
p2670
aVJPY=X
p2671
aVNZD=X
p2672
asS'01272016'
p2673
(lp2674
VCAD=X
p2675
aVCHF=X
p2676
aVAUD=X
p2677
aVJPY=X
p2678
aVNZD=X
p2679
asS'09182015'
p2680
(lp2681
VCHF=X
p2682
aVAUD=X
p2683
aVJPY=X
p2684
aVNZD=X
p2685
asS'01222016'
p2686
(lp2687
VCAD=X
p2688
aVCHF=X
p2689
aVAUD=X
p2690
aVJPY=X
p2691
aVNZD=X
p2692
asS'04152016'
p2693
(lp2694
VCAD=X
p2695
aVAUD=X
p2696
aVJPY=X
p2697
aVNZD=X
p2698
asS'04152015'
p2699
(lp2700
VCAD=X
p2701
aVCHF=X
p2702
aVJPY=X
p2703
aVNZD=X
p2704
asS'04272015'
p2705
(lp2706
VEUR=X
p2707
aVCAD=X
p2708
aVCHF=X
p2709
aVAUD=X
p2710
asS'04272016'
p2711
(lp2712
VCAD=X
p2713
aVCHF=X
p2714
aVAUD=X
p2715
aVJPY=X
p2716
asS'05122015'
p2717
(lp2718
VCAD=X
p2719
aVCHF=X
p2720
aVAUD=X
p2721
asS'05122016'
p2722
(lp2723
VCAD=X
p2724
aVCHF=X
p2725
aVAUD=X
p2726
aVJPY=X
p2727
aVGBP=X
p2728
aVNZD=X
p2729
asS'02192015'
p2730
(lp2731
VCAD=X
p2732
aVCHF=X
p2733
aVAUD=X
p2734
aVJPY=X
p2735
asS'05272015'
p2736
(lp2737
VEUR=X
p2738
aVCHF=X
p2739
aVAUD=X
p2740
aVJPY=X
p2741
asS'05272016'
p2742
(lp2743
VCAD=X
p2744
aVCHF=X
p2745
aVAUD=X
p2746
asS'08242016'
p2747
(lp2748
VCAD=X
p2749
aVAUD=X
p2750
aVJPY=X
p2751
asS'08242015'
p2752
(lp2753
VCAD=X
p2754
aVCHF=X
p2755
aVAUD=X
p2756
aVJPY=X
p2757
aVNZD=X
p2758
asS'11302016'
p2759
(lp2760
VEUR=X
p2761
aVCAD=X
p2762
aVCHF=X
p2763
aVAUD=X
p2764
aVJPY=X
p2765
aVNZD=X
p2766
asS'01062017'
p2767
(lp2768
VEUR=X
p2769
aVCAD=X
p2770
aVAUD=X
p2771
aVJPY=X
p2772
aVNZD=X
p2773
asS'11302015'
p2774
(lp2775
VCHF=X
p2776
aVAUD=X
p2777
aVJPY=X
p2778
aVNZD=X
p2779
asS'09042015'
p2780
(lp2781
VCAD=X
p2782
aVCHF=X
p2783
aVAUD=X
p2784
aVJPY=X
p2785
aVNZD=X
p2786
asS'10072016'
p2787
(lp2788
sS'10262016'
p2789
(lp2790
VEUR=X
p2791
aVCAD=X
p2792
aVCHF=X
p2793
aVAUD=X
p2794
aVJPY=X
p2795
aVNZD=X
p2796
asS'10262015'
p2797
(lp2798
VCHF=X
p2799
aVAUD=X
p2800
aVJPY=X
p2801
asS'07052016'
p2802
(lp2803
VJPY=X
p2804
asS'03122015'
p2805
(lp2806
VCAD=X
p2807
aVCHF=X
p2808
aVAUD=X
p2809
aVJPY=X
p2810
aVNZD=X
p2811
asS'03132015'
p2812
(lp2813
VCAD=X
p2814
aVCHF=X
p2815
aVAUD=X
p2816
aVJPY=X
p2817
asS'01182017'
p2818
(lp2819
VCAD=X
p2820
aVAUD=X
p2821
aVJPY=X
p2822
aVNZD=X
p2823
asS'11222016'
p2824
(lp2825
VEUR=X
p2826
aVCAD=X
p2827
aVCHF=X
p2828
aVAUD=X
p2829
asS'11052015'
p2830
(lp2831
VCAD=X
p2832
aVCHF=X
p2833
aVAUD=X
p2834
aVJPY=X
p2835
asS'01252017'
p2836
(lp2837
VCAD=X
p2838
aVAUD=X
p2839
aVJPY=X
p2840
aVNZD=X
p2841
asS'10022015'
p2842
(lp2843
VCHF=X
p2844
aVAUD=X
p2845
aVJPY=X
p2846
aVNZD=X
p2847
asS'03162015'
p2848
(lp2849
VEUR=X
p2850
aVCAD=X
p2851
aVCHF=X
p2852
aVAUD=X
p2853
aVJPY=X
p2854
aVNZD=X
p2855
asS'01112016'
p2856
(lp2857
VCAD=X
p2858
aVCHF=X
p2859
aVAUD=X
p2860
aVJPY=X
p2861
aVNZD=X
p2862
asS'01112017'
p2863
(lp2864
VCAD=X
p2865
aVAUD=X
p2866
aVJPY=X
p2867
aVNZD=X
p2868
asS'09102015'
p2869
(lp2870
VCHF=X
p2871
aVAUD=X
p2872
aVJPY=X
p2873
aVNZD=X
p2874
asS'07232015'
p2875
(lp2876
VCAD=X
p2877
aVCHF=X
p2878
aVAUD=X
p2879
aVJPY=X
p2880
aVNZD=X
p2881
asS'09152016'
p2882
(lp2883
VAUD=X
p2884
aVJPY=X
p2885
asS'01212016'
p2886
(lp2887
VCAD=X
p2888
aVCHF=X
p2889
aVAUD=X
p2890
aVJPY=X
p2891
aVNZD=X
p2892
asS'09152015'
p2893
(lp2894
VCHF=X
p2895
aVAUD=X
p2896
aVJPY=X
p2897
aVNZD=X
p2898
asS'06182015'
p2899
(lp2900
VCHF=X
p2901
aVAUD=X
p2902
aVJPY=X
p2903
aVNZD=X
p2904
asS'02032016'
p2905
(lp2906
VCAD=X
p2907
aVCHF=X
p2908
aVAUD=X
p2909
aVJPY=X
p2910
aVNZD=X
p2911
asS'02032017'
p2912
(lp2913
VCAD=X
p2914
aVAUD=X
p2915
aVJPY=X
p2916
aVNZD=X
p2917
asS'01202016'
p2918
(lp2919
VCAD=X
p2920
aVCHF=X
p2921
aVAUD=X
p2922
aVJPY=X
p2923
aVNZD=X
p2924
asS'01202017'
p2925
(lp2926
VEUR=X
p2927
aVCAD=X
p2928
aVAUD=X
p2929
aVJPY=X
p2930
aVNZD=X
p2931
asS'02132015'
p2932
(lp2933
VCAD=X
p2934
aVCHF=X
p2935
aVAUD=X
p2936
aVJPY=X
p2937
asS'10272016'
p2938
(lp2939
VEUR=X
p2940
aVCAD=X
p2941
aVCHF=X
p2942
aVAUD=X
p2943
asS'03242015'
p2944
(lp2945
VCAD=X
p2946
aVEUR=X
p2947
aVCHF=X
p2948
aVAUD=X
p2949
aVJPY=X
p2950
aVNZD=X
p2951
asS'03242016'
p2952
(lp2953
VCAD=X
p2954
aVAUD=X
p2955
aVJPY=X
p2956
aVNZD=X
p2957
asS'01292016'
p2958
(lp2959
VCAD=X
p2960
aVCHF=X
p2961
aVAUD=X
p2962
aVJPY=X
p2963
aVNZD=X
p2964
asS'05022016'
p2965
(lp2966
VCAD=X
p2967
aVCHF=X
p2968
aVAUD=X
p2969
aVJPY=X
p2970
aVNZD=X
p2971
asS'12222016'
p2972
(lp2973
VEUR=X
p2974
aVCAD=X
p2975
aVAUD=X
p2976
aVJPY=X
p2977
aVNZD=X
p2978
asS'10292015'
p2979
(lp2980
VCAD=X
p2981
aVCHF=X
p2982
aVAUD=X
p2983
aVJPY=X
p2984
aVNZD=X
p2985
asS'02292016'
p2986
(lp2987
VCAD=X
p2988
aVCHF=X
p2989
aVAUD=X
p2990
aVJPY=X
p2991
aVNZD=X
p2992
asS'10112016'
p2993
(lp2994
VCAD=X
p2995
aVAUD=X
p2996
asS'04192016'
p2997
(lp2998
VCAD=X
p2999
aVCHF=X
p3000
aVAUD=X
p3001
aVJPY=X
p3002
aVGBP=X
p3003
aVNZD=X
p3004
asS'08202015'
p3005
(lp3006
VCHF=X
p3007
aVAUD=X
p3008
aVJPY=X
p3009
aVNZD=X
p3010
asS'05212015'
p3011
(lp3012
VEUR=X
p3013
aVCAD=X
p3014
aVCHF=X
p3015
aVAUD=X
p3016
asS'10052016'
p3017
(lp3018
VCAD=X
p3019
aVAUD=X
p3020
aVJPY=X
p3021
asS'10052015'
p3022
(lp3023
VCAD=X
p3024
aVCHF=X
p3025
aVAUD=X
p3026
aVJPY=X
p3027
aVNZD=X
p3028
asS'05112015'
p3029
(lp3030
VCAD=X
p3031
aVCHF=X
p3032
aVAUD=X
p3033
aVJPY=X
p3034
asS'12272016'
p3035
(lp3036
VCAD=X
p3037
aVAUD=X
p3038
aVJPY=X
p3039
aVNZD=X
p3040
asS'12222015'
p3041
(lp3042
VCAD=X
p3043
aVCHF=X
p3044
aVAUD=X
p3045
aVJPY=X
p3046
asS'01092017'
p3047
(lp3048
VCAD=X
p3049
aVAUD=X
p3050
aVJPY=X
p3051
aVNZD=X
p3052
asS'07102015'
p3053
(lp3054
VCHF=X
p3055
aVAUD=X
p3056
aVJPY=X
p3057
aVNZD=X
p3058
as.