(dp1
S'11072014'
p2
(lp3
VHCN
p4
aVKSU
p5
aVHOG
p6
aVGPN
p7
aVAKAM
p8
aVSTT
p9
aVWDC
p10
aVAMP
p11
aVXEC
p12
asS'03232016'
p13
(lp14
VPCLN
p15
aVKSU
p16
aVXOM
p17
aVHCN
p18
aVFISV
p19
aVADBE
p20
asS'03232015'
p21
(lp22
VADBE
p23
aVLNC
p24
aVMET
p25
aVVRSN
p26
aVAKAM
p27
aVPH
p28
aVAVY
p29
aVLB
p30
aVWBA
p31
aVEXPE
p32
aVAYI
p33
aVSWKS
p34
aVAAL
p35
asS'12022015'
p36
(lp37
VALK
p38
aVEW
p39
asS'09012015'
p40
(lp41
VNOC
p42
aVJPM
p43
aVKSS
p44
aVMYL
p45
aVNFLX
p46
asS'12022013'
p47
(lp48
VROST
p49
aVULTA
p50
aVNUE
p51
aVTRIP
p52
aVWBA
p53
aVHOT
p54
aVTMO
p55
aVALK
p56
aVKSS
p57
aVAMGN
p58
aVPFG
p59
aVA
aVWHR
p60
aVUHS
p61
asS'11072013'
p62
(lp63
VWYNN
p64
aVEOG
p65
aVEQT
p66
aVFB
p67
aVDG
p68
aVWBA
p69
aVWYN
p70
aVHOT
p71
aVROST
p72
aVKSS
p73
aVWHR
p74
aVESRX
p75
aVNUE
p76
aVAGN
p77
asS'08132013'
p78
(lp79
VMTB
p80
aVSLG
p81
aVCOF
p82
aVPRU
p83
aVSTT
p84
aVILMN
p85
aVUNH
p86
aVANTM
p87
aVMNST
p88
aVCBS
p89
aVHOT
p90
aVJEC
p91
aVEMR
p92
aVAXP
p93
aVCTXS
p94
aVMPC
p95
asS'07312015'
p96
(lp97
VMYL
p98
aVTSO
p99
aVCNC
p100
aVKSS
p101
aVADBE
p102
aVSEE
p103
aVMNK
p104
aVPVH
p105
aVDLPH
p106
aVAKAM
p107
aVEQT
p108
aVNOC
p109
asS'08132015'
p110
(lp111
VPRGO
p112
aVADI
p113
aVDLPH
p114
aVHAR
p115
aVFIS
p116
aVEQT
p117
aVNFLX
p118
asS'08132014'
p119
(lp120
VCMG
p121
aVXEC
p122
aVULTA
p123
aVBLL
p124
aVILMN
p125
aVSTZ
p126
aVEW
p127
asS'08082013'
p128
(lp129
VMTB
p130
aVILMN
p131
aVUNH
p132
aVGPC
p133
aVR
aVAPC
p134
aVPSA
p135
aVTSO
p136
aVHOT
p137
aVCTXS
p138
aVCMI
p139
asS'08082014'
p140
(lp141
VWYNN
p142
aVILMN
p143
aVHBI
p144
aVLRCX
p145
aVBWA
p146
aVHSIC
p147
aVAVGO
p148
aVBLL
p149
aVWDC
p150
aVTIF
p151
aVCRM
p152
aVULTA
p153
aVEW
p154
aVMPC
p155
asS'08082016'
p156
(lp157
VPSA
p158
aVQRVO
p159
aVAWK
p160
aVEQT
p161
aVDLPH
p162
aVWBA
p163
aVAYI
p164
aVNVDA
p165
aVADBE
p166
aVJPM
p167
aVROP
p168
aVHES
p169
aVRHT
p170
aVHAR
p171
asS'06302016'
p172
(lp173
VWYNN
p174
aVPXD
p175
aVRHT
p176
aVPPG
p177
aVDD
p178
aVADBE
p179
aVUNP
p180
aVEQT
p181
aVAPA
p182
aVXEC
p183
aVDLR
p184
aVMKC
p185
aVORLY
p186
aVPSA
p187
asS'12062013'
p188
(lp189
VULTA
p190
aVIR
p191
aVROST
p192
aVLMT
p193
aVMMM
p194
aVTRIP
p195
aVWBA
p196
aVAGN
p197
aVHAS
p198
aVNUE
p199
aVFIS
p200
aVCTAS
p201
aVAMGN
p202
aVDLPH
p203
asS'06302014'
p204
(lp205
VCMG
p206
aVBA
p207
aVLLL
p208
aVTSCO
p209
aVUHS
p210
aVILMN
p211
aVKORS
p212
aVIR
p213
aVALK
p214
aVWDC
p215
aVADP
p216
aVHOT
p217
aVTRIP
p218
aVCRM
p219
aVEW
p220
aVPRGO
p221
aVGOOG
p222
asS'06302015'
p223
(lp224
VGS
p225
aVFFIV
p226
aVSWKS
p227
aVR
aVKMX
p228
aVADI
p229
aVSTZ
p230
aVAKAM
p231
aVSTJ
p232
aVAXP
p233
aVEXPE
p234
aVEQT
p235
aVCHRW
p236
aVCNC
p237
aVADBE
p238
aVLH
p239
aVUHS
p240
asS'12062016'
p241
(lp242
VNVDA
p243
aVSNA
p244
aVSWKS
p245
aVUAL
p246
aVAMP
p247
aVAYI
p248
aVILMN
p249
aVLNC
p250
aVPFG
p251
aVTEL
p252
aVSHW
p253
aVROK
p254
aVDOV
p255
aVTIF
p256
aVEQT
p257
aVURI
p258
asS'02082017'
p259
(lp260
VCVX
p261
aVMET
p262
aVUAL
p263
aVSTT
p264
aVBA
p265
aVPNR
p266
aVJPM
p267
aVDTE
p268
aVAME
p269
aVLUV
p270
aVQRVO
p271
aVNVDA
p272
asS'02082016'
p273
(lp274
VREGN
p275
aVADBE
p276
aVLLY
p277
aVVRSK
p278
aVGILD
p279
aVED
p280
aVFISV
p281
asS'10122015'
p282
(lp283
VSWKS
p284
aVHES
p285
aVNFLX
p286
asS'06132014'
p287
(lp288
VMCK
p289
aVALK
p290
aVBA
p291
aVEW
p292
aVUHS
p293
aVHAS
p294
aVIR
p295
aVWDC
p296
aVPRGO
p297
aVILMN
p298
aVGOOGL
p299
asS'04232014'
p300
(lp301
VANTM
p302
aVTSCO
p303
aVETN
p304
aVFIS
p305
aVSNI
p306
aVCTXS
p307
aVEW
p308
aVCXO
p309
aVIR
p310
aVVRTX
p311
aVPRGO
p312
aVBA
p313
aVILMN
p314
asS'04232015'
p315
(lp316
VSWKS
p317
aVALLE
p318
aVEW
p319
aVADBE
p320
asS'09272013'
p321
(lp322
VCMI
p323
aVDG
p324
aVGILD
p325
aVWYN
p326
aVFTI
p327
aVURI
p328
aVTRIP
p329
aVA
aVUHS
p330
aVEQIX
p331
asS'12182013'
p332
(lp333
VBWA
p334
aVULTA
p335
aVAGN
p336
aVGILD
p337
aVTSO
p338
aVHAS
p339
aVC
aVWBA
p340
aVROST
p341
aVKSS
p342
aVESRX
p343
aVIR
p344
aVFIS
p345
aVCTAS
p346
aVMHK
p347
aVILMN
p348
aVA
aVMMM
p349
aVADS
p350
aVNFLX
p351
aVFB
p352
asS'02092017'
p353
(lp354
VMET
p355
aVUAL
p356
aVBA
p357
aVPNR
p358
aVDTE
p359
aVAME
p360
aVQRVO
p361
aVAYI
p362
asS'10132014'
p363
(lp364
VHUM
p365
aVMET
p366
aVCRM
p367
aVAYI
p368
asS'02092015'
p369
(lp370
VDLR
p371
aVSWKS
p372
aVHCA
p373
aVBDX
p374
aVKLAC
p375
aVAKAM
p376
aVTIF
p377
aVAIG
p378
aVUNP
p379
aVAXP
p380
aVLB
p381
asS'06122013'
p382
(lp383
VAAPL
p384
aVILMN
p385
aVTMO
p386
aVAPC
p387
aVGILD
p388
aVHOT
p389
aVHRS
p390
aVVMC
p391
aVUNH
p392
aVUHS
p393
aVMNST
p394
asS'12182015'
p395
(lp396
VGD
p397
aVFISV
p398
aVADI
p399
asS'12182014'
p400
(lp401
VCMG
p402
aVHOG
p403
aVAMP
p404
aVAYI
p405
aVMET
p406
aVSTX
p407
aVLNC
p408
aVKLAC
p409
aVAIG
p410
aVKSU
p411
aVBBBY
p412
aVHUM
p413
aVWDC
p414
asS'07312014'
p415
(lp416
VILMN
p417
aVHOT
p418
aVAVGO
p419
aVBLL
p420
aVBWA
p421
aVDNB
p422
aVM
aVBMY
p423
aVEW
p424
asS'12112013'
p425
(lp426
VULTA
p427
aVIR
p428
aVROST
p429
aVAGN
p430
aVMMM
p431
aVLMT
p432
aVECL
p433
aVGILD
p434
aVWBA
p435
aVTROW
p436
aVNFLX
p437
aVHAS
p438
aVILMN
p439
aVNUE
p440
aVA
aVAAPL
p441
asS'02272014'
p442
(lp443
VMCK
p444
aVCMCSA
p445
aVMHK
p446
aVSPGI
p447
aVAAPL
p448
aVILMN
p449
aVEW
p450
aVTROW
p451
aVACN
p452
aVFIS
p453
aVIR
p454
aVNFLX
p455
aVADS
p456
asS'02272015'
p457
(lp458
VBBBY
p459
aVBLL
p460
aVAPA
p461
aVHON
p462
aVLNC
p463
aVMCHP
p464
aVBWA
p465
aVCMCSA
p466
aVMET
p467
aVR
aVGILD
p468
aVVRSN
p469
aVSWKS
p470
aVTIF
p471
aVWBA
p472
aVGOOGL
p473
asS'02272013'
p474
(lp475
VMPC
p476
aVURI
p477
aVHOT
p478
aVKORS
p479
aVEMR
p480
aVUTX
p481
aVTSO
p482
aVAAPL
p483
asS'12112014'
p484
(lp485
VKSU
p486
aVCMG
p487
aVKLAC
p488
aVADBE
p489
aVHOG
p490
aVAKAM
p491
aVNFLX
p492
aVMAR
p493
aVHON
p494
aVLNC
p495
aVSWKS
p496
aVPNW
p497
aVWDC
p498
asS'07192013'
p499
(lp500
VILMN
p501
aVDLTR
p502
aVPRU
p503
aVHAR
p504
aVMTB
p505
aVSTT
p506
aVMNST
p507
aVUNH
p508
aVLNT
p509
aVAPC
p510
aVWHR
p511
asS'09282016'
p512
(lp513
VPCLN
p514
aVWYNN
p515
aVEQT
p516
aVSWKS
p517
aVTIF
p518
aVQRVO
p519
aVSIG
p520
aVDOV
p521
aVNVDA
p522
aVSNA
p523
aVILMN
p524
aVDLR
p525
asS'09082015'
p526
(lp527
VNOC
p528
aVNFLX
p529
asS'09282015'
p530
(lp531
VCNC
p532
aVSTZ
p533
aVAVY
p534
aVNFLX
p535
asS'10182013'
p536
(lp537
VEQIX
p538
aVROST
p539
aVA
aVFB
p540
aVAGN
p541
aVHBI
p542
aVHP
p543
aVWYN
p544
aVEOG
p545
asS'07312013'
p546
(lp547
VMTB
p548
aVMNST
p549
aVAPC
p550
aVPCAR
p551
aVDLTR
p552
aVHOT
p553
aVCOL
p554
aVUNH
p555
aVURI
p556
aVUHS
p557
aVILMN
p558
aVWHR
p559
asS'04162013'
p560
(lp561
VRRC
p562
aVFFIV
p563
aVUHS
p564
aVHON
p565
aVETN
p566
aVDG
p567
aVALXN
p568
aVHOG
p569
aVHOT
p570
aVEQIX
p571
aVWYNN
p572
asS'04162014'
p573
(lp574
VAAPL
p575
aVPRGO
p576
aVILMN
p577
aVAMZN
p578
aVANTM
p579
aVAVGO
p580
aVALK
p581
aVMCK
p582
aVTSCO
p583
aVXEC
p584
aVFIS
p585
aVSNI
p586
aVHON
p587
aVITW
p588
aVBA
p589
aVIR
p590
asS'04162015'
p591
(lp592
VSWKS
p593
aVTSO
p594
aVALLE
p595
aVEFX
p596
aVLNC
p597
asS'03062014'
p598
(lp599
VCMCSA
p600
aVESS
p601
aVWDC
p602
aVMHK
p603
aVDGX
p604
aVACN
p605
aVFIS
p606
aVCOL
p607
aVBMY
p608
aVIR
p609
aVAVGO
p610
aVHP
p611
aVAAPL
p612
aVECL
p613
asS'03062015'
p614
(lp615
VCNC
p616
aVEOG
p617
aVBLL
p618
aVBBBY
p619
aVHON
p620
aVCMG
p621
aVPH
p622
aVTRIP
p623
aVDLR
p624
aVMCHP
p625
aVBWA
p626
aVAKAM
p627
aVADBE
p628
aVLNC
p629
aVCMCSA
p630
aVMET
p631
aVAXP
p632
aVWBA
p633
aVSWKS
p634
asS'05102013'
p635
(lp636
VBIIB
p637
aVVRTX
p638
aVMNST
p639
aVSPGI
p640
aVAXP
p641
aVUNH
p642
aVTMO
p643
aVUHS
p644
aVHOG
p645
aVHOT
p646
aVURI
p647
asS'03062013'
p648
(lp649
VAAPL
p650
aVFFIV
p651
aVHP
p652
aVUTX
p653
aVUPS
p654
aVDIS
p655
aVTSO
p656
asS'08032016'
p657
(lp658
VPSA
p659
aVAYI
p660
aVEQT
p661
aVQRVO
p662
aVALB
p663
aVSIG
p664
aVWBA
p665
aVAN
p666
aVDLPH
p667
aVHES
p668
aVADBE
p669
aVNVDA
p670
aVDD
p671
aVURI
p672
aVWYNN
p673
aVRHT
p674
aVHAR
p675
aVILMN
p676
aVPCLN
p677
asS'12212016'
p678
(lp679
VPVH
p680
aVAMP
p681
aVEQT
p682
aVTIF
p683
aVJEC
p684
aVCAT
p685
aVLNC
p686
aVCMA
p687
aVPFG
p688
aVNTRS
p689
aVDOV
p690
aVJPM
p691
aVUAL
p692
aVAXP
p693
aVDD
p694
aVSWKS
p695
aVTSS
p696
aVILMN
p697
asS'12212015'
p698
(lp699
VAAPL
p700
aVADI
p701
aVEA
p702
asS'08032015'
p703
(lp704
VMYL
p705
aVTSO
p706
aVCNC
p707
aVKSS
p708
aVABBV
p709
aVPVH
p710
aVADBE
p711
aVDLPH
p712
aVFIS
p713
aVEQT
p714
aVNOC
p715
aVEXPE
p716
asS'11032014'
p717
(lp718
VMLM
p719
aVGPN
p720
aVGILD
p721
aVDOV
p722
aVURI
p723
asS'11032015'
p724
(lp725
VSTZ
p726
aVTSS
p727
aVHAR
p728
aVTSO
p729
aVNFLX
p730
asS'07222014'
p731
(lp732
VILMN
p733
aVTRIP
p734
aVAYI
p735
aVCRM
p736
aVEW
p737
aVPVH
p738
aVHOT
p739
aVBLL
p740
aVWYNN
p741
aVUHS
p742
aVPSX
p743
aVPRGO
p744
asS'07222015'
p745
(lp746
VDLPH
p747
aVCNC
p748
aVSRCL
p749
aVADBE
p750
aVLNC
p751
aVFIS
p752
aVALLE
p753
aVNOC
p754
aVAKAM
p755
asS'11132013'
p756
(lp757
VREGN
p758
aVEOG
p759
aVWYNN
p760
aVWYN
p761
aVWBA
p762
aVILMN
p763
aVTMO
p764
aVDLTR
p765
aVNUE
p766
aVMMM
p767
aVMHK
p768
aVTSO
p769
aVAGN
p770
asS'02022016'
p771
(lp772
VREGN
p773
aVILMN
p774
aVADBE
p775
aVTEL
p776
aVED
p777
aVALB
p778
aVADI
p779
aVMKC
p780
aVOXY
p781
asS'12202013'
p782
(lp783
VULTA
p784
aVHAS
p785
aVGILD
p786
aVC
aVKSS
p787
aVNUE
p788
aVROST
p789
aVEQT
p790
aVILMN
p791
aVA
aVADS
p792
aVLMT
p793
aVNFLX
p794
aVFB
p795
aVMMM
p796
asS'11132015'
p797
(lp798
VULTA
p799
aVLRCX
p800
aVMET
p801
aVALK
p802
aVTSO
p803
asS'11132014'
p804
(lp805
VHCN
p806
aVHUM
p807
aVBLL
p808
aVWDC
p809
aVHOG
p810
aVSWKS
p811
aVADBE
p812
aVPH
p813
aVLNC
p814
aVAKAM
p815
aVAMP
p816
aVXEC
p817
aVNFLX
p818
asS'10242014'
p819
(lp820
VCTXS
p821
aVAKAM
p822
aVSTT
p823
aVXEC
p824
asS'04082015'
p825
(lp826
VAGN
p827
aVHUM
p828
aVSWKS
p829
aVAKAM
p830
aVHCA
p831
aVVRSN
p832
aVMET
p833
aVALLE
p834
aVWAT
p835
aVTDG
p836
aVRCL
p837
asS'10242016'
p838
(lp839
VILMN
p840
aVPCLN
p841
aVROP
p842
aVEQT
p843
aVAMP
p844
aVSWKS
p845
aVSTZ
p846
aVTEL
p847
aVWYNN
p848
aVTIF
p849
aVOKE
p850
aVJEC
p851
aVNVDA
p852
aVEMN
p853
aVSNA
p854
asS'06012016'
p855
(lp856
VSIG
p857
aVXEC
p858
aVSHW
p859
aVXOM
p860
aVAPA
p861
aVPSA
p862
aVGPC
p863
aVADBE
p864
aVAET
p865
aVTSO
p866
aVHUM
p867
asS'04252014'
p868
(lp869
VULTA
p870
aVTSCO
p871
aVECL
p872
aVNUE
p873
aVCXO
p874
aVEW
p875
aVXEC
p876
aVBMY
p877
aVIR
p878
aVCTXS
p879
aVBA
p880
aVILMN
p881
asS'10242013'
p882
(lp883
VREGN
p884
aVA
aVEOG
p885
aVFB
p886
aVUHS
p887
aVROST
p888
aVAGN
p889
aVDG
p890
aVNUE
p891
aVTJX
p892
aVDRI
p893
aVALK
p894
aVWYN
p895
aVKSU
p896
asS'04182013'
p897
(lp898
VBLK
p899
aVJEC
p900
aVALXN
p901
aVUHS
p902
aVETN
p903
aVFFIV
p904
aVHON
p905
aVROK
p906
aVURI
p907
aVHOT
p908
aVBIIB
p909
aVHOG
p910
aVWYNN
p911
asS'12292015'
p912
(lp913
VTSO
p914
aVREGN
p915
aVADI
p916
aVAME
p917
aVED
p918
asS'03112013'
p919
(lp920
VFFIV
p921
aVTSO
p922
aVHOT
p923
aVCOF
p924
aVAAPL
p925
asS'03112014'
p926
(lp927
VADS
p928
aVESS
p929
aVCAH
p930
aVSJM
p931
aVACN
p932
aVSPGI
p933
aVKLAC
p934
aVIR
p935
aVDGX
p936
aVETN
p937
aVBMY
p938
aVTRIP
p939
aVEW
p940
aVECL
p941
aVAAPL
p942
aVCMG
p943
asS'03112015'
p944
(lp945
VCMG
p946
aVCELG
p947
aVADBE
p948
aVMCHP
p949
aVKLAC
p950
aVAVY
p951
aVAKAM
p952
aVVRSN
p953
aVLNC
p954
aVABBV
p955
aVBBBY
p956
aVCMCSA
p957
aVDLR
p958
aVMET
p959
aVWBA
p960
aVAXP
p961
aVSWKS
p962
asS'08212014'
p963
(lp964
VCMG
p965
aVBMY
p966
aVUHS
p967
aVBF-B
p968
aVILMN
p969
aVNFLX
p970
asS'08212015'
p971
(lp972
VKSS
p973
aVAKAM
p974
aVLLL
p975
aVSTZ
p976
aVHUM
p977
aVAET
p978
aVNFLX
p979
asS'08012013'
p980
(lp981
VMTB
p982
aVMNST
p983
aVAPC
p984
aVPRU
p985
aVUNH
p986
aVHOT
p987
aVCOL
p988
aVILMN
p989
aVUHS
p990
aVURI
p991
aVWHR
p992
asS'02102017'
p993
(lp994
VMET
p995
aVABBV
p996
aVLNC
p997
aVAME
p998
aVQRVO
p999
aVURI
p1000
asS'01132014'
p1001
(lp1002
VNFLX
p1003
aVADS
p1004
aVSNI
p1005
aVCMI
p1006
aVWHR
p1007
aVAMP
p1008
aVHAS
p1009
aVFIS
p1010
aVFB
p1011
aVSPGI
p1012
aVA
aVTMO
p1013
aVILMN
p1014
aVTRIP
p1015
aVULTA
p1016
asS'01132015'
p1017
(lp1018
VAAP
p1019
aVKSU
p1020
aVWDC
p1021
aVLNC
p1022
aVAXP
p1023
aVETR
p1024
aVR
aVMET
p1025
aVSWKS
p1026
aVAKAM
p1027
aVHCA
p1028
aVHP
p1029
aVKLAC
p1030
aVDOV
p1031
aVMNK
p1032
asS'01132016'
p1033
(lp1034
VREGN
p1035
aVADBE
p1036
aVTSO
p1037
aVAAPL
p1038
aVOXY
p1039
aVADI
p1040
aVFISV
p1041
asS'01132017'
p1042
(lp1043
VCVX
p1044
aVOKE
p1045
aVJPM
p1046
aVLNC
p1047
aVUAL
p1048
aVBA
p1049
aVOMC
p1050
aVJEC
p1051
aVPFG
p1052
aVKSU
p1053
aVAMP
p1054
aVPNR
p1055
aVTIF
p1056
aVPVH
p1057
aVILMN
p1058
asS'08012016'
p1059
(lp1060
VPSA
p1061
aVSHW
p1062
aVAYI
p1063
aVEQT
p1064
aVHES
p1065
aVWBA
p1066
aVPPG
p1067
aVLYB
p1068
aVEMR
p1069
aVSIG
p1070
aVADBE
p1071
aVAN
p1072
aVFIS
p1073
aVNVDA
p1074
aVDD
p1075
aVRHT
p1076
aVHAR
p1077
aVWYNN
p1078
aVURI
p1079
aVPCLN
p1080
asS'11292013'
p1081
(lp1082
VROST
p1083
aVULTA
p1084
aVNUE
p1085
aVTRIP
p1086
aVHOT
p1087
aVWBA
p1088
aVKSS
p1089
aVPFG
p1090
aVA
aVUHS
p1091
aVWHR
p1092
asS'06022014'
p1093
(lp1094
VVRSK
p1095
aVANTM
p1096
aVVFC
p1097
aVFIS
p1098
aVKORS
p1099
aVMET
p1100
aVETN
p1101
aVUHS
p1102
aVBA
p1103
aVWDC
p1104
aVILMN
p1105
aVPRGO
p1106
asS'05202013'
p1107
(lp1108
VAAPL
p1109
aVMNST
p1110
aVUHS
p1111
aVSPGI
p1112
aVSIG
p1113
aVUNH
p1114
aVHOT
p1115
aVO
aVTMO
p1116
aVURI
p1117
aVILMN
p1118
aVUTX
p1119
aVEMN
p1120
asS'05202016'
p1121
(lp1122
VAYI
p1123
aVSHW
p1124
aVPSA
p1125
aVDLPH
p1126
aVKSU
p1127
aVADSK
p1128
aVR
aVGPC
p1129
aVOXY
p1130
aVHON
p1131
aVXOM
p1132
aVMKC
p1133
aVXEC
p1134
aVTSO
p1135
aVSIG
p1136
aVCME
p1137
asS'05202014'
p1138
(lp1139
VHAS
p1140
aVHON
p1141
aVIR
p1142
aVBA
p1143
aVESS
p1144
aVFIS
p1145
aVPRGO
p1146
aVKORS
p1147
aVSPGI
p1148
aVVRTX
p1149
aVANTM
p1150
aVECL
p1151
aVTRIP
p1152
asS'05202015'
p1153
(lp1154
VMYL
p1155
aVLNC
p1156
aVMET
p1157
aVSTJ
p1158
aVADM
p1159
aVWBA
p1160
aVKR
p1161
aVUHS
p1162
aVSWKS
p1163
aVHUM
p1164
asS'07092013'
p1165
(lp1166
VUHS
p1167
aVILMN
p1168
aVMNST
p1169
aVRRC
p1170
aVBA
p1171
aVUNH
p1172
aVHOT
p1173
aVHP
p1174
aVAPC
p1175
aVURI
p1176
aVCTXS
p1177
aVMTB
p1178
asS'07092015'
p1179
(lp1180
VCNC
p1181
aVGS
p1182
aVADI
p1183
aVAXP
p1184
aVADBE
p1185
aVSTZ
p1186
aVR
aVAKAM
p1187
aVNOC
p1188
aVSTJ
p1189
aVFIS
p1190
asS'07092014'
p1191
(lp1192
VTRIP
p1193
aVUHS
p1194
aVILMN
p1195
aVCRM
p1196
aVBA
p1197
aVDD
p1198
aVMET
p1199
aVBLL
p1200
aVDNB
p1201
aVEW
p1202
aVGOOG
p1203
asS'04012014'
p1204
(lp1205
VTRIP
p1206
aVPRGO
p1207
aVMCK
p1208
aVACN
p1209
aVCAH
p1210
aVWBA
p1211
aVSPGI
p1212
aVCOL
p1213
aVSNI
p1214
aVIR
p1215
aVHON
p1216
aVEW
p1217
aVBDX
p1218
aVBA
p1219
asS'04012015'
p1220
(lp1221
VAGN
p1222
aVSWKS
p1223
aVAKAM
p1224
aVADBE
p1225
aVHUM
p1226
aVAXP
p1227
aVTSO
p1228
aVLNC
p1229
aVMET
p1230
aVAAL
p1231
aVHON
p1232
aVVRSN
p1233
aVTDG
p1234
asS'12092013'
p1235
(lp1236
VULTA
p1237
aVIR
p1238
aVROST
p1239
aVTRIP
p1240
aVLMT
p1241
aVMMM
p1242
aVWBA
p1243
aVAGN
p1244
aVHAS
p1245
aVCTAS
p1246
aVNUE
p1247
aVILMN
p1248
aVDLPH
p1249
aVVRTX
p1250
asS'01122016'
p1251
(lp1252
VREGN
p1253
aVLLY
p1254
aVAAPL
p1255
aVOXY
p1256
aVFISV
p1257
aVSCG
p1258
aVTSO
p1259
asS'12092015'
p1260
(lp1261
VWHR
p1262
aVFISV
p1263
aVEW
p1264
aVABC
p1265
aVQCOM
p1266
aVALK
p1267
asS'12092014'
p1268
(lp1269
VXEC
p1270
aVKLAC
p1271
aVILMN
p1272
aVHOG
p1273
aVSTX
p1274
aVADBE
p1275
aVTIF
p1276
aVLNC
p1277
aVMAR
p1278
aVHON
p1279
aVSWKS
p1280
aVSTT
p1281
aVNFLX
p1282
asS'04012013'
p1283
(lp1284
VRRC
p1285
aVMLM
p1286
aVROK
p1287
aVTSO
p1288
aVHOG
p1289
aVDIS
p1290
aVUTX
p1291
aVHOT
p1292
aVFTI
p1293
aVDG
p1294
aVFLR
p1295
aVWYNN
p1296
asS'09232013'
p1297
(lp1298
VDG
p1299
aVHOT
p1300
aVRRC
p1301
aVCMI
p1302
aVEL
p1303
aVNUE
p1304
aVGPC
p1305
aVUHS
p1306
aVEQIX
p1307
asS'02062015'
p1308
(lp1309
VDLR
p1310
aVHCA
p1311
aVKLAC
p1312
aVSWKS
p1313
aVKMX
p1314
aVAKAM
p1315
aVTIF
p1316
aVAIG
p1317
aVAXP
p1318
aVUNP
p1319
aVLB
p1320
aVGS
p1321
asS'10232015'
p1322
(lp1323
VNFLX
p1324
aVSTZ
p1325
aVFISV
p1326
aVPCLN
p1327
asS'10232014'
p1328
(lp1329
VCTXS
p1330
aVMET
p1331
asS'10232013'
p1332
(lp1333
VREGN
p1334
aVGPC
p1335
aVA
aVFB
p1336
aVEOG
p1337
aVROST
p1338
aVUHS
p1339
aVEQIX
p1340
aVAGN
p1341
aVNUE
p1342
aVALK
p1343
aVWYN
p1344
aVKSU
p1345
asS'03042013'
p1346
(lp1347
VAAPL
p1348
aVUTX
p1349
aVHOT
p1350
aVDIS
p1351
aVTSO
p1352
asS'03042016'
p1353
(lp1354
VSCG
p1355
aVAEP
p1356
aVMKC
p1357
aVGILD
p1358
aVCVX
p1359
aVKSU
p1360
aVAET
p1361
aVADBE
p1362
aVSHW
p1363
aVTSO
p1364
aVPCLN
p1365
asS'03042014'
p1366
(lp1367
VILMN
p1368
aVNFLX
p1369
aVFB
p1370
aVMHK
p1371
aVCMCSA
p1372
aVMCK
p1373
aVESS
p1374
aVADS
p1375
aVFIS
p1376
aVETN
p1377
aVAVGO
p1378
aVIR
p1379
aVAAPL
p1380
aVLOW
p1381
aVULTA
p1382
aVTRIP
p1383
aVPRGO
p1384
asS'03042015'
p1385
(lp1386
VEOG
p1387
aVBLL
p1388
aVBBBY
p1389
aVCELG
p1390
aVDLR
p1391
aVCMG
p1392
aVR
aVLNC
p1393
aVMCHP
p1394
aVVRSN
p1395
aVBWA
p1396
aVCMCSA
p1397
aVTIF
p1398
aVSWKS
p1399
aVAXP
p1400
aVUHS
p1401
asS'05142013'
p1402
(lp1403
VVRTX
p1404
aVMNST
p1405
aVAMGN
p1406
aVBIIB
p1407
aVSPGI
p1408
aVAXP
p1409
aVTMO
p1410
aVUHS
p1411
aVHOG
p1412
aVHOT
p1413
aVURI
p1414
aVBCR
p1415
asS'03052014'
p1416
(lp1417
VGILD
p1418
aVMHK
p1419
aVFB
p1420
aVCMCSA
p1421
aVESS
p1422
aVKLAC
p1423
aVSTZ
p1424
aVWDC
p1425
aVACN
p1426
aVMCK
p1427
aVCOL
p1428
aVIR
p1429
aVAVGO
p1430
aVDISCK
p1431
aVREGN
p1432
aVLOW
p1433
aVULTA
p1434
aVAAPL
p1435
aVTRIP
p1436
aVPRGO
p1437
asS'05142015'
p1438
(lp1439
VMYL
p1440
aVR
aVCMCSA
p1441
aVEQT
p1442
aVSTJ
p1443
aVSWKS
p1444
aVTSO
p1445
aVCNC
p1446
asS'05142014'
p1447
(lp1448
VIR
p1449
aVETN
p1450
aVNUE
p1451
aVBMY
p1452
aVBA
p1453
aVVAR
p1454
aVVRTX
p1455
aVPXD
p1456
asS'08162013'
p1457
(lp1458
VGPC
p1459
aVMNST
p1460
aVMTB
p1461
aVCOF
p1462
aVILMN
p1463
aVSTT
p1464
aVEMR
p1465
aVUHS
p1466
aVAXP
p1467
aVMPC
p1468
aVJEC
p1469
aVAPC
p1470
asS'07012013'
p1471
(lp1472
VCMG
p1473
aVHOT
p1474
aVUHS
p1475
aVSPGI
p1476
aVMNST
p1477
aVUNH
p1478
aVCTXS
p1479
aVILMN
p1480
asS'03162016'
p1481
(lp1482
VMKC
p1483
aVXOM
p1484
aVWMT
p1485
aVAEP
p1486
aVHCN
p1487
aVADBE
p1488
aVSPG
p1489
aVAET
p1490
aVSHW
p1491
aVPCLN
p1492
asS'07012015'
p1493
(lp1494
VGS
p1495
aVFFIV
p1496
aVR
aVKMX
p1497
aVEXPE
p1498
aVAKAM
p1499
aVAXP
p1500
aVSTJ
p1501
aVEQT
p1502
aVLNC
p1503
aVAIG
p1504
aVCHRW
p1505
aVADBE
p1506
aVCNC
p1507
aVUHS
p1508
asS'07012014'
p1509
(lp1510
VCMG
p1511
aVBA
p1512
aVUHS
p1513
aVTSCO
p1514
aVIR
p1515
aVTRIP
p1516
aVWDC
p1517
aVALK
p1518
aVILMN
p1519
aVCRM
p1520
aVEW
p1521
aVGOOG
p1522
asS'11082016'
p1523
(lp1524
VWYNN
p1525
aVQRVO
p1526
aVSWKS
p1527
aVCAT
p1528
aVSHW
p1529
aVQCOM
p1530
aVCMA
p1531
aVNVDA
p1532
aVURI
p1533
aVUAL
p1534
aVTEL
p1535
aVSNA
p1536
aVMSI
p1537
aVILMN
p1538
asS'11082013'
p1539
(lp1540
VREGN
p1541
aVEOG
p1542
aVWYNN
p1543
aVEQT
p1544
aVWBA
p1545
aVWYN
p1546
aVHOT
p1547
aVWHR
p1548
aVROST
p1549
aVKSS
p1550
aVILMN
p1551
aVMMM
p1552
aVNUE
p1553
aVAGN
p1554
asS'03262014'
p1555
(lp1556
VTRIP
p1557
aVPRGO
p1558
aVMCK
p1559
aVSNI
p1560
aVWBA
p1561
aVCAH
p1562
aVBDX
p1563
aVWYN
p1564
aVFIS
p1565
aVIR
p1566
aVEW
p1567
aVSJM
p1568
aVAMP
p1569
aVETN
p1570
aVBA
p1571
aVPRU
p1572
aVMET
p1573
asS'11092016'
p1574
(lp1575
VXEC
p1576
aVWYNN
p1577
aVQRVO
p1578
aVSWKS
p1579
aVCAT
p1580
aVUAL
p1581
aVILMN
p1582
aVAMP
p1583
aVMSI
p1584
aVIR
p1585
aVSHW
p1586
aVPH
p1587
asS'11092015'
p1588
(lp1589
VGPN
p1590
aVGD
p1591
aVLRCX
p1592
aVTSO
p1593
aVNFLX
p1594
asS'01312014'
p1595
(lp1596
VWHR
p1597
aVADS
p1598
aVAMP
p1599
aVCMI
p1600
aVTRIP
p1601
aVACN
p1602
aVEW
p1603
aVSNI
p1604
aVTMO
p1605
aVPRGO
p1606
aVIR
p1607
aVA
aVFIS
p1608
aVWBA
p1609
aVCNC
p1610
aVANTM
p1611
aVHP
p1612
aVILMN
p1613
aVNFLX
p1614
asS'05082015'
p1615
(lp1616
VNFLX
p1617
aVR
aVHCA
p1618
aVSTJ
p1619
aVSWKS
p1620
aVLNC
p1621
aVEA
p1622
aVTSO
p1623
asS'06132016'
p1624
(lp1625
VXEC
p1626
aVAPA
p1627
aVADBE
p1628
aVJEC
p1629
aVOXY
p1630
aVVRTX
p1631
aVFMC
p1632
aVDD
p1633
aVFISV
p1634
aVRHT
p1635
aVHAR
p1636
aVURI
p1637
aVDLPH
p1638
aVEQT
p1639
aVORLY
p1640
aVDLR
p1641
aVWYNN
p1642
aVPCLN
p1643
asS'04212015'
p1644
(lp1645
VSWKS
p1646
aVKSS
p1647
aVSTZ
p1648
aVALLE
p1649
aVADBE
p1650
aVLNC
p1651
aVR
asS'08182016'
p1652
(lp1653
VPSA
p1654
aVURI
p1655
aVHAR
p1656
aVWYNN
p1657
aVCME
p1658
aVDOV
p1659
aVEQT
p1660
aVNVDA
p1661
asS'06032014'
p1662
(lp1663
VHAS
p1664
aVANTM
p1665
aVVRSK
p1666
aVAIG
p1667
aVAVGO
p1668
aVDRI
p1669
aVMET
p1670
aVBA
p1671
aVWDC
p1672
aVILMN
p1673
aVPRGO
p1674
asS'06032015'
p1675
(lp1676
VFFIV
p1677
aVSTJ
p1678
aVADM
p1679
aVLNC
p1680
aVMET
p1681
aVALLE
p1682
aVLH
p1683
aVADI
p1684
aVUHS
p1685
aVHUM
p1686
asS'04062015'
p1687
(lp1688
VSWKS
p1689
aVHUM
p1690
aVAAL
p1691
aVAMP
p1692
aVAKAM
p1693
aVULTA
p1694
aVLNC
p1695
aVADBE
p1696
aVMET
p1697
aVVRSN
p1698
aVALLE
p1699
aVBLL
p1700
aVTDG
p1701
asS'09272016'
p1702
(lp1703
VPCLN
p1704
aVWYNN
p1705
aVSWKS
p1706
aVTIF
p1707
aVQRVO
p1708
aVDOV
p1709
aVNVDA
p1710
aVSNA
p1711
aVDLR
p1712
aVILMN
p1713
asS'08192013'
p1714
(lp1715
VGPC
p1716
aVMNST
p1717
aVILMN
p1718
aVWYN
p1719
aVANTM
p1720
aVTMO
p1721
aVEMR
p1722
aVUHS
p1723
aVAPC
p1724
aVCMI
p1725
aVSTZ
p1726
asS'11272013'
p1727
(lp1728
VULTA
p1729
aVNUE
p1730
aVTRIP
p1731
aVWYNN
p1732
aVHOT
p1733
aVWBA
p1734
aVAMGN
p1735
aVFIS
p1736
aVPCAR
p1737
aVPFG
p1738
aVUHS
p1739
aVA
aVBEN
p1740
aVWHR
p1741
asS'08302016'
p1742
(lp1743
VWYNN
p1744
aVILMN
p1745
aVAYI
p1746
aVHAR
p1747
aVNVDA
p1748
aVCAT
p1749
aVTSN
p1750
aVDOV
p1751
aVAXP
p1752
aVJEC
p1753
aVEFX
p1754
aVURI
p1755
aVHES
p1756
aVNKE
p1757
aVGPN
p1758
aVQRVO
p1759
aVAMP
p1760
aVPSA
p1761
aVEQT
p1762
asS'06032013'
p1763
(lp1764
VHOG
p1765
aVILMN
p1766
aVMNST
p1767
aVSIG
p1768
aVCNC
p1769
aVSPGI
p1770
aVAIZ
p1771
aVHRS
p1772
aVHOT
p1773
aVUNH
p1774
aVUHS
p1775
aVTMO
p1776
aVAAPL
p1777
aVJEC
p1778
asS'06132013'
p1779
(lp1780
VAAPL
p1781
aVILMN
p1782
aVTMO
p1783
aVAPC
p1784
aVHOT
p1785
aVAZO
p1786
aVVMC
p1787
aVUNH
p1788
aVUHS
p1789
aVMNST
p1790
asS'09162013'
p1791
(lp1792
VKSS
p1793
aVIFF
p1794
aVUHS
p1795
aVDLR
p1796
aVGPC
p1797
aVCMI
p1798
aVEQIX
p1799
asS'09162015'
p1800
(lp1801
VABBV
p1802
aVHUM
p1803
aVNFLX
p1804
asS'09162014'
p1805
(lp1806
VCMG
p1807
aVILMN
p1808
aVMPC
p1809
aVXEC
p1810
aVCI
p1811
aVAMP
p1812
aVSTZ
p1813
aVPNW
p1814
asS'08232013'
p1815
(lp1816
VSIG
p1817
aVMNST
p1818
aVGPC
p1819
aVEMR
p1820
aVDLPH
p1821
aVWYN
p1822
aVAPC
p1823
asS'10152014'
p1824
(lp1825
VREGN
p1826
aVCMG
p1827
aVHUM
p1828
asS'03202013'
p1829
(lp1830
VTSO
p1831
aVHOT
p1832
aVCOG
p1833
asS'03202014'
p1834
(lp1835
VTRIP
p1836
aVSNI
p1837
aVCOL
p1838
aVWBA
p1839
aVPRGO
p1840
aVETN
p1841
aVFIS
p1842
aVIR
p1843
aVSJM
p1844
aVPNW
p1845
aVMHK
p1846
aVEW
p1847
aVANTM
p1848
aVULTA
p1849
asS'03202015'
p1850
(lp1851
VADBE
p1852
aVVRSN
p1853
aVLNC
p1854
aVBLL
p1855
aVMET
p1856
aVAKAM
p1857
aVGS
p1858
aVEXPE
p1859
aVWBA
p1860
aVHCA
p1861
aVDLR
p1862
aVAYI
p1863
aVABBV
p1864
aVSWKS
p1865
asS'10152015'
p1866
(lp1867
VHES
p1868
aVNFLX
p1869
asS'02182014'
p1870
(lp1871
VCF
p1872
aVCMCSA
p1873
aVWDC
p1874
aVIR
p1875
aVETN
p1876
aVACN
p1877
aVANTM
p1878
aVKLAC
p1879
aVILMN
p1880
aVFB
p1881
aVESS
p1882
aVTMO
p1883
aVWBA
p1884
aVSNI
p1885
aVCMI
p1886
aVNFLX
p1887
aVADS
p1888
asS'02182015'
p1889
(lp1890
VCMG
p1891
aVDLR
p1892
aVSWKS
p1893
aVAXP
p1894
aVABBV
p1895
aVWBA
p1896
aVKMX
p1897
aVABC
p1898
aVTIF
p1899
aVLNC
p1900
aVSPGI
p1901
aVAKAM
p1902
aVAMZN
p1903
asS'08112015'
p1904
(lp1905
VTMO
p1906
aVSWKS
p1907
aVGS
p1908
aVABBV
p1909
aVMYL
p1910
aVKSS
p1911
aVFIS
p1912
aVTXN
p1913
aVEXR
p1914
aVEQT
p1915
aVDLPH
p1916
aVHAR
p1917
asS'08112014'
p1918
(lp1919
VWYNN
p1920
aVCMG
p1921
aVHBI
p1922
aVBWA
p1923
aVWDC
p1924
aVHSIC
p1925
aVVRSK
p1926
aVAVGO
p1927
aVGILD
p1928
aVBLL
p1929
aVTIF
p1930
aVCRM
p1931
aVUHS
p1932
aVEW
p1933
aVMPC
p1934
asS'01192016'
p1935
(lp1936
VREGN
p1937
aVTSO
p1938
aVGILD
p1939
aVADBE
p1940
aVADI
p1941
asS'10082014'
p1942
(lp1943
VXEC
p1944
aVAVGO
p1945
aVMAR
p1946
aVAIG
p1947
aVMET
p1948
aVCOF
p1949
aVSTZ
p1950
aVCRM
p1951
aVGRMN
p1952
aVNFLX
p1953
asS'11232015'
p1954
(lp1955
VPCLN
p1956
aVGOOGL
p1957
aVEA
p1958
aVFISV
p1959
aVLRCX
p1960
aVGD
p1961
aVWBA
p1962
aVTSO
p1963
aVEW
p1964
aVMET
p1965
aVALK
p1966
asS'02092016'
p1967
(lp1968
VREGN
p1969
aVILMN
p1970
aVADBE
p1971
aVVRSK
p1972
aVGILD
p1973
aVSCG
p1974
aVED
p1975
asS'07162015'
p1976
(lp1977
VCNC
p1978
aVFIS
p1979
aVSTJ
p1980
aVTSO
p1981
asS'07162014'
p1982
(lp1983
VILMN
p1984
aVCRM
p1985
aVUHS
p1986
aVWYNN
p1987
aVEW
p1988
aVMPC
p1989
aVLRCX
p1990
aVBLL
p1991
aVPRGO
p1992
aVGOOGL
p1993
asS'07162013'
p1994
(lp1995
VILMN
p1996
aVUNH
p1997
aVDLTR
p1998
aVPRU
p1999
aVUHS
p2000
aVAPC
p2001
aVSIG
p2002
aVMTB
p2003
aVHOT
p2004
aVWHR
p2005
asS'06122014'
p2006
(lp2007
VMCK
p2008
aVALK
p2009
aVBA
p2010
aVEW
p2011
aVMPC
p2012
aVUHS
p2013
aVKORS
p2014
aVHAS
p2015
aVCRM
p2016
aVIR
p2017
aVWDC
p2018
aVPRGO
p2019
aVILMN
p2020
asS'05042016'
p2021
(lp2022
VPCLN
p2023
aVDLPH
p2024
aVADBE
p2025
aVKSU
p2026
aVSIG
p2027
aVSWK
p2028
aVGPC
p2029
aVALB
p2030
aVADSK
p2031
aVPXD
p2032
aVWBA
p2033
aVXOM
p2034
aVHCN
p2035
asS'04302014'
p2036
(lp2037
VPXD
p2038
aVBDX
p2039
aVWHR
p2040
aVNUE
p2041
aVTSCO
p2042
aVEW
p2043
aVFIS
p2044
aVAVGO
p2045
aVBMY
p2046
aVIR
p2047
aVCTXS
p2048
aVAGN
p2049
aVEQIX
p2050
asS'07172014'
p2051
(lp2052
VILMN
p2053
aVCRM
p2054
aVWYNN
p2055
aVEW
p2056
aVUHS
p2057
aVACN
p2058
aVBLL
p2059
aVGOOGL
p2060
aVPRGO
p2061
asS'06122015'
p2062
(lp2063
VADI
p2064
aVADM
p2065
aVALLE
p2066
aVADBE
p2067
aVSTJ
p2068
aVAXP
p2069
aVEMN
p2070
aVVRSN
p2071
aVR
aVLH
p2072
aVLNC
p2073
aVEW
p2074
asS'07172013'
p2075
(lp2076
VILMN
p2077
aVUNH
p2078
aVBA
p2079
aVPRU
p2080
aVHP
p2081
aVDLTR
p2082
aVAPC
p2083
aVMTB
p2084
aVHOT
p2085
aVCBS
p2086
aVWHR
p2087
asS'06102013'
p2088
(lp2089
VAAPL
p2090
aVILMN
p2091
aVFFIV
p2092
aVTMO
p2093
aVHOG
p2094
aVAPC
p2095
aVVMC
p2096
aVEQT
p2097
aVHOT
p2098
aVTRIP
p2099
aVSPGI
p2100
aVMNST
p2101
asS'06102014'
p2102
(lp2103
VEW
p2104
aVKORS
p2105
aVNUE
p2106
aVHAS
p2107
aVCERN
p2108
aVUHS
p2109
aVBA
p2110
aVIR
p2111
aVWDC
p2112
aVILMN
p2113
aVGOOG
p2114
aVGOOGL
p2115
asS'09262016'
p2116
(lp2117
VSWKS
p2118
aVTIF
p2119
aVDOV
p2120
aVWYNN
p2121
aVNVDA
p2122
aVSNA
p2123
aVILMN
p2124
aVPSA
p2125
asS'06102016'
p2126
(lp2127
VSIG
p2128
aVXEC
p2129
aVAPA
p2130
aVADBE
p2131
aVALB
p2132
aVJEC
p2133
aVMCK
p2134
aVFMC
p2135
aVRHT
p2136
aVSHW
p2137
aVVRTX
p2138
aVDLPH
p2139
aVEQT
p2140
aVHAR
p2141
aVSLB
p2142
aVURI
p2143
aVDLR
p2144
aVWYNN
p2145
asS'08182015'
p2146
(lp2147
VKSS
p2148
aVGS
p2149
aVPKI
p2150
aVHAR
p2151
aVSWKS
p2152
aVOMC
p2153
aVCME
p2154
aVTXN
p2155
aVFIS
p2156
aVSTZ
p2157
aVHUM
p2158
aVNFLX
p2159
asS'01242017'
p2160
(lp2161
VCVX
p2162
aVOKE
p2163
aVCTSH
p2164
aVAXP
p2165
aVCLX
p2166
aVAME
p2167
aVKSU
p2168
aVMLM
p2169
asS'01242014'
p2170
(lp2171
VCMI
p2172
aVWHR
p2173
aVADS
p2174
aVSNI
p2175
aVANTM
p2176
aVTMO
p2177
aVSPGI
p2178
aVFB
p2179
aVECL
p2180
aVTRIP
p2181
aVWDC
p2182
aVIR
p2183
aVFIS
p2184
aVACN
p2185
aVA
aVCMCSA
p2186
aVULTA
p2187
aVILMN
p2188
aVNFLX
p2189
asS'02252013'
p2190
(lp2191
VSHW
p2192
aVURI
p2193
aVHOT
p2194
aVUTX
p2195
aVTSO
p2196
aVAAPL
p2197
asS'02252014'
p2198
(lp2199
VCMCSA
p2200
aVMHK
p2201
aVESS
p2202
aVTROW
p2203
aVWDC
p2204
aVIR
p2205
aVACN
p2206
aVCAH
p2207
aVETN
p2208
aVCMG
p2209
aVSNI
p2210
aVHP
p2211
aVADS
p2212
asS'02252015'
p2213
(lp2214
VCMCSA
p2215
aVWBA
p2216
aVLNC
p2217
aVSWKS
p2218
aVMET
p2219
aVMYL
p2220
aVGILD
p2221
aVVRSN
p2222
aVR
aVAKAM
p2223
aVTIF
p2224
asS'02252016'
p2225
(lp2226
VAEP
p2227
aVSCG
p2228
aVMKC
p2229
aVADBE
p2230
aVILMN
p2231
asS'09072016'
p2232
(lp2233
VAYI
p2234
aVILMN
p2235
aVHES
p2236
aVJEC
p2237
aVDOV
p2238
aVNVDA
p2239
aVTIF
p2240
aVCAT
p2241
aVSWKS
p2242
aVTSN
p2243
aVWYNN
p2244
aVURI
p2245
aVAXP
p2246
aVSHW
p2247
aVQRVO
p2248
aVVTR
p2249
aVAMP
p2250
aVPSA
p2251
asS'04232013'
p2252
(lp2253
VALXN
p2254
aVMLM
p2255
aVURI
p2256
aVUHS
p2257
aVHOT
p2258
aVFFIV
p2259
aVHON
p2260
aVDG
p2261
aVHOG
p2262
aVCELG
p2263
aVMNST
p2264
asS'12132016'
p2265
(lp2266
VNVDA
p2267
aVWYNN
p2268
aVAMP
p2269
aVR
aVJEC
p2270
aVCAT
p2271
aVLNC
p2272
aVTWX
p2273
aVAXP
p2274
aVILMN
p2275
aVUAL
p2276
aVPFG
p2277
aVCMA
p2278
aVTIF
p2279
aVTEL
p2280
aVDD
p2281
aVDOV
p2282
aVADBE
p2283
aVSTZ
p2284
asS'12132013'
p2285
(lp2286
VULTA
p2287
aVAGN
p2288
aVIR
p2289
aVMMM
p2290
aVROST
p2291
aVGILD
p2292
aVTSO
p2293
aVTROW
p2294
aVHAS
p2295
aVWBA
p2296
aVAMGN
p2297
aVAAPL
p2298
aVFIS
p2299
aVNUE
p2300
aVILMN
p2301
aVA
asS'04302013'
p2302
(lp2303
VJEC
p2304
aVMNST
p2305
aVURI
p2306
aVHOT
p2307
aVESRX
p2308
aVETN
p2309
aVHOG
p2310
aVMLM
p2311
aVBIIB
p2312
aVVRTX
p2313
asS'04072014'
p2314
(lp2315
VTRIP
p2316
aVPRGO
p2317
aVMCK
p2318
aVTSCO
p2319
aVECL
p2320
aVCAH
p2321
aVPRU
p2322
aVWBA
p2323
aVIR
p2324
aVSNI
p2325
aVHON
p2326
aVSJM
p2327
aVBA
p2328
asS'06242015'
p2329
(lp2330
VKMX
p2331
aVAKAM
p2332
aVADI
p2333
aVADM
p2334
aVEQT
p2335
aVSTJ
p2336
aVLH
p2337
aVGS
p2338
aVAIG
p2339
aVCHRW
p2340
aVCNC
p2341
aVADBE
p2342
aVHES
p2343
asS'06242014'
p2344
(lp2345
VBA
p2346
aVKORS
p2347
aVILMN
p2348
aVMCK
p2349
aVLLL
p2350
aVALK
p2351
aVTRIP
p2352
aVTSCO
p2353
aVFLR
p2354
aVAIG
p2355
aVIR
p2356
aVUHS
p2357
aVEW
p2358
aVVRTX
p2359
aVGOOGL
p2360
asS'06242016'
p2361
(lp2362
VPCLN
p2363
aVVRTX
p2364
aVWYNN
p2365
aVADBE
p2366
aVURI
p2367
aVHAR
p2368
aVAAPL
p2369
aVRHT
p2370
aVXEC
p2371
aVCOL
p2372
aVUNP
p2373
aVDD
p2374
aVCAT
p2375
aVCME
p2376
aVAPA
p2377
aVEQT
p2378
aVMKC
p2379
aVWBA
p2380
asS'09202013'
p2381
(lp2382
VTRIP
p2383
aVDG
p2384
aVKSS
p2385
aVRRC
p2386
aVWYN
p2387
aVHOT
p2388
aVNUE
p2389
aVEOG
p2390
aVCMI
p2391
aVGPC
p2392
aVUHS
p2393
asS'06242013'
p2394
(lp2395
VGS
p2396
aVHOT
p2397
aVTRIP
p2398
aVBA
p2399
aVUHS
p2400
aVTMO
p2401
aVAPC
p2402
aVMNST
p2403
aVCTXS
p2404
aVILMN
p2405
aVUNH
p2406
asS'02022015'
p2407
(lp2408
VFFIV
p2409
aVAAL
p2410
aVGS
p2411
aVAXP
p2412
aVKLAC
p2413
aVKMX
p2414
aVPNW
p2415
aVETR
p2416
aVAKAM
p2417
aVBLL
p2418
aVLB
p2419
aVDLR
p2420
aVKSU
p2421
aVSWKS
p2422
asS'02042016'
p2423
(lp2424
VREGN
p2425
aVILMN
p2426
aVABC
p2427
aVAET
p2428
aVED
p2429
asS'02042015'
p2430
(lp2431
VCMG
p2432
aVPNW
p2433
aVKLAC
p2434
aVETR
p2435
aVAXP
p2436
aVGILD
p2437
aVDLR
p2438
aVAKAM
p2439
aVHD
p2440
aVBLL
p2441
aVSWKS
p2442
aVGS
p2443
aVKSU
p2444
aVAPA
p2445
asS'02042014'
p2446
(lp2447
VAAPL
p2448
aVADS
p2449
aVAMP
p2450
aVACN
p2451
aVETN
p2452
aVSTJ
p2453
aVA
aVTMO
p2454
aVIR
p2455
aVPRGO
p2456
aVCNC
p2457
aVSNI
p2458
aVWBA
p2459
aVFIS
p2460
aVHP
p2461
aVEQIX
p2462
aVANTM
p2463
aVESS
p2464
aVULTA
p2465
aVILMN
p2466
aVNFLX
p2467
asS'07202015'
p2468
(lp2469
VDLPH
p2470
aVUHS
p2471
aVCNC
p2472
aVADBE
p2473
aVFIS
p2474
aVLH
p2475
aVAKAM
p2476
aVTSO
p2477
asS'07202016'
p2478
(lp2479
VPSA
p2480
aVAPA
p2481
aVXEC
p2482
aVRHT
p2483
aVSLB
p2484
aVLEG
p2485
aVFIS
p2486
aVURI
p2487
aVNVDA
p2488
aVADBE
p2489
aVEMR
p2490
aVDD
p2491
aVAXP
p2492
aVPPG
p2493
aVHAR
p2494
aVSIG
p2495
aVPCLN
p2496
asS'05152013'
p2497
(lp2498
VMNST
p2499
aVSPGI
p2500
aVBIIB
p2501
aVTMO
p2502
aVAXP
p2503
aVUHS
p2504
aVHOT
p2505
aVILMN
p2506
aVHOG
p2507
aVURI
p2508
aVGS
p2509
asS'05152014'
p2510
(lp2511
VIR
p2512
aVTSCO
p2513
aVMET
p2514
aVNUE
p2515
aVBA
p2516
aVVRTX
p2517
aVPXD
p2518
aVAVGO
p2519
asS'05152015'
p2520
(lp2521
VMYL
p2522
aVR
aVEQT
p2523
aVTROW
p2524
aVWDC
p2525
aVSTJ
p2526
aVSWKS
p2527
aVADM
p2528
asS'05182016'
p2529
(lp2530
VAYI
p2531
aVKSU
p2532
aVR
aVDLPH
p2533
aVCBS
p2534
aVPXD
p2535
aVESS
p2536
aVSHW
p2537
aVADSK
p2538
aVGPC
p2539
aVXOM
p2540
aVVMC
p2541
aVTSO
p2542
aVXEC
p2543
aVMKC
p2544
asS'10042013'
p2545
(lp2546
VEQIX
p2547
aVAMGN
p2548
aVCMI
p2549
aVREGN
p2550
aVMMM
p2551
aVWYN
p2552
aVGILD
p2553
aVTMO
p2554
aVA
aVFB
p2555
aVDG
p2556
aVABC
p2557
aVFTI
p2558
aVUHS
p2559
aVAGN
p2560
asS'06032016'
p2561
(lp2562
VSIG
p2563
aVXEC
p2564
aVVMC
p2565
aVAPA
p2566
aVXOM
p2567
aVOXY
p2568
aVHON
p2569
aVADBE
p2570
aVDLR
p2571
aVGPC
p2572
aVDD
p2573
aVRHT
p2574
aVTSO
p2575
aVPSA
p2576
aVMCK
p2577
asS'10042016'
p2578
(lp2579
VWYNN
p2580
aVTIF
p2581
aVSWKS
p2582
aVAYI
p2583
aVPH
p2584
aVUTX
p2585
aVPSA
p2586
aVILMN
p2587
aVSNA
p2588
aVSIG
p2589
aVNVDA
p2590
aVQCOM
p2591
aVDOV
p2592
aVPCLN
p2593
asS'05182015'
p2594
(lp2595
VMYL
p2596
aVCMCSA
p2597
aVEQT
p2598
aVR
aVBLL
p2599
aVLNC
p2600
aVMET
p2601
aVSTJ
p2602
aVKMX
p2603
aVSTZ
p2604
aVADM
p2605
aVSWKS
p2606
asS'08152013'
p2607
(lp2608
VGPC
p2609
aVMTB
p2610
aVWHR
p2611
aVCOF
p2612
aVUNH
p2613
aVSTT
p2614
aVILMN
p2615
aVAPC
p2616
aVEMR
p2617
aVCTXS
p2618
aVAXP
p2619
aVUHS
p2620
aVCMI
p2621
asS'05132016'
p2622
(lp2623
VPCLN
p2624
aVKSU
p2625
aVSPG
p2626
aVDLPH
p2627
aVSIG
p2628
aVTSO
p2629
aVPRU
p2630
aVR
aVAPA
p2631
aVSHW
p2632
aVHON
p2633
aVOXY
p2634
aVGPC
p2635
aVXOM
p2636
aVROP
p2637
aVPAYX
p2638
aVXEC
p2639
aVXRAY
p2640
aVMKC
p2641
asS'08152014'
p2642
(lp2643
VCMG
p2644
aVTIF
p2645
aVCRM
p2646
aVBLL
p2647
aVCVS
p2648
aVTRIP
p2649
aVECL
p2650
aVGILD
p2651
aVEW
p2652
asS'10102013'
p2653
(lp2654
VREGN
p2655
aVEQIX
p2656
aVCMI
p2657
aVILMN
p2658
aVAGN
p2659
aVGILD
p2660
aVMMM
p2661
aVA
aVWYN
p2662
aVDLPH
p2663
aVGPC
p2664
aVKSU
p2665
aVTROW
p2666
aVDVA
p2667
asS'10162013'
p2668
(lp2669
VREGN
p2670
aVEQIX
p2671
aVAGN
p2672
aVCMI
p2673
aVA
aVGPC
p2674
aVBBBY
p2675
aVUHS
p2676
aVHOT
p2677
aVWYN
p2678
aVRRC
p2679
asS'06172016'
p2680
(lp2681
VXEC
p2682
aVVRTX
p2683
aVURI
p2684
aVR
aVSIG
p2685
aVKSU
p2686
aVADBE
p2687
aVAPA
p2688
aVFISV
p2689
aVDD
p2690
aVRHT
p2691
aVOXY
p2692
aVXOM
p2693
aVEQT
p2694
aVEMR
p2695
aVWYNN
p2696
aVSPG
p2697
asS'06172015'
p2698
(lp2699
VMNK
p2700
aVAVGO
p2701
aVSTZ
p2702
aVADM
p2703
aVADBE
p2704
aVSTJ
p2705
aVR
aVEQT
p2706
aVAXP
p2707
aVGS
p2708
aVVRSN
p2709
aVAIG
p2710
aVKSS
p2711
aVLH
p2712
aVCNC
p2713
asS'10162014'
p2714
(lp2715
VREGN
p2716
aVHUM
p2717
aVAKAM
p2718
aVA
asS'12112015'
p2719
(lp2720
VREGN
p2721
aVFISV
p2722
aVMKC
p2723
aVABC
p2724
asS'06112014'
p2725
(lp2726
VMCK
p2727
aVEW
p2728
aVBA
p2729
aVKORS
p2730
aVHAS
p2731
aVHOT
p2732
aVUHS
p2733
aVTSCO
p2734
aVIR
p2735
aVMET
p2736
aVWDC
p2737
aVILMN
p2738
aVGOOGL
p2739
asS'05222014'
p2740
(lp2741
VIR
p2742
aVHAS
p2743
aVNUE
p2744
aVBA
p2745
aVETN
p2746
aVKORS
p2747
aVANTM
p2748
aVVRTX
p2749
aVPRGO
p2750
asS'05222015'
p2751
(lp2752
VMNST
p2753
aVMYL
p2754
aVEQT
p2755
aVR
aVALLE
p2756
aVSIG
p2757
aVLNC
p2758
aVMO
p2759
aVSTJ
p2760
aVMET
p2761
aVWBA
p2762
aVAMP
p2763
aVKR
p2764
aVHUM
p2765
asS'12312013'
p2766
(lp2767
VA
aVFB
p2768
aVWBA
p2769
aVGILD
p2770
aVECL
p2771
aVAGN
p2772
aVROST
p2773
aVILMN
p2774
aVLMT
p2775
aVMMM
p2776
aVULTA
p2777
aVBLK
p2778
asS'01162015'
p2779
(lp2780
VAMP
p2781
aVAXP
p2782
aVKMX
p2783
aVHCA
p2784
aVSTX
p2785
aVAKAM
p2786
aVR
aVSWKS
p2787
aVETR
p2788
aVKLAC
p2789
asS'01162014'
p2790
(lp2791
VSNI
p2792
aVCMI
p2793
aVAMP
p2794
aVHAS
p2795
aVSPGI
p2796
aVEL
p2797
aVFIS
p2798
aVCTAS
p2799
aVFB
p2800
aVWHR
p2801
aVROST
p2802
aVULTA
p2803
aVTMO
p2804
aVA
aVIR
p2805
aVILMN
p2806
asS'05222013'
p2807
(lp2808
VAAPL
p2809
aVUHS
p2810
aVMNST
p2811
aVURI
p2812
aVO
aVUNH
p2813
aVSIG
p2814
aVILMN
p2815
aVHOT
p2816
aVHOG
p2817
aVAIZ
p2818
aVTMO
p2819
aVHRS
p2820
asS'07272016'
p2821
(lp2822
VSHW
p2823
aVPSA
p2824
aVCNC
p2825
aVHES
p2826
aVAYI
p2827
aVAWK
p2828
aVWBA
p2829
aVPXD
p2830
aVPPG
p2831
aVADBE
p2832
aVAN
p2833
aVNVDA
p2834
aVRHT
p2835
aVAXP
p2836
aVLYB
p2837
aVFIS
p2838
aVDD
p2839
aVNTRS
p2840
aVHAR
p2841
aVWYNN
p2842
aVURI
p2843
asS'07272015'
p2844
(lp2845
VMYL
p2846
aVCNC
p2847
aVSWKS
p2848
aVHAR
p2849
aVEA
p2850
aVDLPH
p2851
aVADBE
p2852
aVMET
p2853
aVFIS
p2854
aVKSS
p2855
aVLH
p2856
aVEQT
p2857
aVCHRW
p2858
aVPRGO
p2859
asS'03302016'
p2860
(lp2861
VPCLN
p2862
aVSHW
p2863
aVKSU
p2864
aVGPC
p2865
aVTXN
p2866
aVSPG
p2867
aVHCN
p2868
aVADBE
p2869
asS'10142015'
p2870
(lp2871
VLRCX
p2872
aVSTZ
p2873
aVHES
p2874
aVNFLX
p2875
aVPCLN
p2876
asS'06042015'
p2877
(lp2878
VFFIV
p2879
aVADM
p2880
aVSTJ
p2881
aVR
aVLNC
p2882
aVALLE
p2883
aVUHS
p2884
aVADI
p2885
aVSWKS
p2886
aVLH
p2887
aVHUM
p2888
asS'06042014'
p2889
(lp2890
VEW
p2891
aVHAS
p2892
aVANTM
p2893
aVBCR
p2894
aVVRSK
p2895
aVAVGO
p2896
aVBA
p2897
aVAGN
p2898
aVMET
p2899
aVWDC
p2900
aVILMN
p2901
asS'10202014'
p2902
(lp2903
VCMG
p2904
aVCXO
p2905
aVAKAM
p2906
aVHUM
p2907
asS'10202015'
p2908
(lp2909
VNFLX
p2910
aVLRCX
p2911
aVPCLN
p2912
asS'10202016'
p2913
(lp2914
VILMN
p2915
aVPCLN
p2916
aVROP
p2917
aVEQT
p2918
aVWYNN
p2919
aVBLK
p2920
aVNVDA
p2921
aVSWKS
p2922
aVURI
p2923
aVTIF
p2924
aVJEC
p2925
aVSHW
p2926
asS'11182014'
p2927
(lp2928
VAYI
p2929
aVCMI
p2930
aVGPN
p2931
aVBLL
p2932
aVSTT
p2933
aVPH
p2934
aVLNC
p2935
aVHOG
p2936
aVAMP
p2937
aVSWKS
p2938
aVAKAM
p2939
aVXEC
p2940
aVNFLX
p2941
aVCMG
p2942
asS'11182015'
p2943
(lp2944
VPCLN
p2945
aVEA
p2946
aVGD
p2947
aVFISV
p2948
aVLRCX
p2949
aVNFLX
p2950
asS'06232014'
p2951
(lp2952
VKORS
p2953
aVBA
p2954
aVLLL
p2955
aVILMN
p2956
aVTRIP
p2957
aVTSCO
p2958
aVANTM
p2959
aVFIS
p2960
aVAIG
p2961
aVHOT
p2962
aVWDC
p2963
aVIR
p2964
aVUHS
p2965
aVHAS
p2966
aVMPC
p2967
aVEW
p2968
aVGOOGL
p2969
asS'06232015'
p2970
(lp2971
VAKAM
p2972
aVMNK
p2973
aVEQT
p2974
aVSTZ
p2975
aVADM
p2976
aVADI
p2977
aVSTJ
p2978
aVAIG
p2979
aVCHRW
p2980
aVADBE
p2981
aVCNC
p2982
aVEMN
p2983
asS'12192016'
p2984
(lp2985
VPVH
p2986
aVAMP
p2987
aVWYNN
p2988
aVEQT
p2989
aVCAT
p2990
aVTIF
p2991
aVJEC
p2992
aVGWW
p2993
aVLNC
p2994
aVPFG
p2995
aVUAL
p2996
aVJPM
p2997
aVAXP
p2998
aVDOV
p2999
aVDD
p3000
aVSWKS
p3001
aVNVDA
p3002
aVILMN
p3003
asS'12192014'
p3004
(lp3005
VCMG
p3006
aVHOG
p3007
aVMET
p3008
aVAYI
p3009
aVDOV
p3010
aVSTX
p3011
aVAIG
p3012
aVLNC
p3013
aVKLAC
p3014
aVKSU
p3015
aVWDC
p3016
aVBIIB
p3017
asS'11182013'
p3018
(lp3019
VILMN
p3020
aVKSS
p3021
aVKSU
p3022
aVSJM
p3023
aVSTJ
p3024
aVWBA
p3025
aVTRIP
p3026
aVA
asS'06152016'
p3027
(lp3028
VXEC
p3029
aVFB
p3030
aVAPA
p3031
aVADBE
p3032
aVVRTX
p3033
aVURI
p3034
aVDD
p3035
aVOXY
p3036
aVRHT
p3037
aVSHW
p3038
aVDLPH
p3039
aVEQT
p3040
aVWYNN
p3041
aVPCLN
p3042
asS'10162015'
p3043
(lp3044
VSWKS
p3045
aVLRCX
p3046
aVNFLX
p3047
asS'08192014'
p3048
(lp3049
VCMG
p3050
aVSTT
p3051
aVCRM
p3052
aVUHS
p3053
aVCVS
p3054
aVBF-B
p3055
aVGOOG
p3056
asS'08272013'
p3057
(lp3058
VSIG
p3059
aVREGN
p3060
aVTMO
p3061
aVMNST
p3062
aVLLY
p3063
aVGPC
p3064
aVILMN
p3065
aVTEL
p3066
aVEMR
p3067
aVHOT
p3068
aVSTT
p3069
aVWYN
p3070
aVAPC
p3071
aVMPC
p3072
aVCF
p3073
asS'08272014'
p3074
(lp3075
VCMG
p3076
asS'08272015'
p3077
(lp3078
VHAR
p3079
aVLLL
p3080
aVAKAM
p3081
aVJPM
p3082
aVSTZ
p3083
aVNFLX
p3084
asS'04262013'
p3085
(lp3086
VALXN
p3087
aVURI
p3088
aVHOT
p3089
aVETN
p3090
aVMLM
p3091
aVDG
p3092
aVAYI
p3093
aVMNST
p3094
aVFTI
p3095
aVHOG
p3096
aVBIIB
p3097
aVFFIV
p3098
aVVRTX
p3099
asS'01212014'
p3100
(lp3101
VSNI
p3102
aVCMI
p3103
aVWHR
p3104
aVAMP
p3105
aVULTA
p3106
aVSPGI
p3107
aVHAS
p3108
aVFB
p3109
aVFIS
p3110
aVTMO
p3111
aVA
aVESS
p3112
aVILMN
p3113
asS'12242013'
p3114
(lp3115
VTRIP
p3116
aVAGN
p3117
aVULTA
p3118
aVECL
p3119
aVHAS
p3120
aVWBA
p3121
aVDFS
p3122
aVNUE
p3123
aVA
aVROST
p3124
aVNFLX
p3125
aVILMN
p3126
aVLMT
p3127
aVIR
p3128
aVFB
p3129
aVMMM
p3130
asS'12022016'
p3131
(lp3132
VNVDA
p3133
aVSNA
p3134
aVSWKS
p3135
aVPFG
p3136
aVUAL
p3137
aVTEL
p3138
aVLNC
p3139
aVJEC
p3140
aVILMN
p3141
aVTIF
p3142
aVDD
p3143
aVDOV
p3144
aVEQT
p3145
aVSHW
p3146
asS'12242015'
p3147
(lp3148
VREGN
p3149
aVAAPL
p3150
aVTSO
p3151
aVADI
p3152
aVLLY
p3153
aVEQIX
p3154
aVAET
p3155
asS'04292016'
p3156
(lp3157
VALK
p3158
aVPCLN
p3159
aVMCK
p3160
aVADBE
p3161
aVXRAY
p3162
aVCME
p3163
aVKSU
p3164
aVAET
p3165
aVXOM
p3166
aVAIZ
p3167
aVPXD
p3168
asS'04292014'
p3169
(lp3170
VNUE
p3171
aVTSCO
p3172
aVPXD
p3173
aVURI
p3174
aVFIS
p3175
aVMCK
p3176
aVEW
p3177
aVAIG
p3178
aVILMN
p3179
aVBA
p3180
aVIR
p3181
aVCTXS
p3182
asS'11252013'
p3183
(lp3184
VWYNN
p3185
aVULTA
p3186
aVNUE
p3187
aVHOT
p3188
aVTRIP
p3189
aVKSS
p3190
aVAGN
p3191
aVWBA
p3192
aVTIF
p3193
aVDG
p3194
aVALL
p3195
aVGPC
p3196
aVSPGI
p3197
aVFIS
p3198
aVA
aVWHR
p3199
asS'11252014'
p3200
(lp3201
VNFLX
p3202
aVGPN
p3203
aVKMX
p3204
aVHCN
p3205
aVHOG
p3206
aVAMP
p3207
aVLNC
p3208
aVBWA
p3209
aVSTX
p3210
aVAKAM
p3211
asS'04292013'
p3212
(lp3213
VURI
p3214
aVHOT
p3215
aVMNST
p3216
aVDG
p3217
aVROK
p3218
aVETN
p3219
aVFTI
p3220
aVESRX
p3221
aVTSO
p3222
aVHOG
p3223
aVFFIV
p3224
aVBIIB
p3225
aVVRTX
p3226
asS'11252016'
p3227
(lp3228
VTIF
p3229
aVPFG
p3230
aVBA
p3231
aVTEL
p3232
aVDD
p3233
aVMSI
p3234
aVSWKS
p3235
aVCVX
p3236
aVDOV
p3237
aVCMA
p3238
aVLNC
p3239
aVSNA
p3240
aVCAT
p3241
aVEQT
p3242
aVWHR
p3243
aVILMN
p3244
aVAMP
p3245
aVURI
p3246
aVNVDA
p3247
aVWYNN
p3248
aVSHW
p3249
asS'05172013'
p3250
(lp3251
VAAPL
p3252
aVMNST
p3253
aVSIG
p3254
aVUHS
p3255
aVSPGI
p3256
aVUNH
p3257
aVHOT
p3258
aVO
aVTMO
p3259
aVILMN
p3260
aVBIIB
p3261
aVUTX
p3262
aVURI
p3263
aVCBS
p3264
aVEMN
p3265
aVGS
p3266
asS'04052013'
p3267
(lp3268
VMLM
p3269
aVWYNN
p3270
aVFTI
p3271
aVHOT
p3272
aVDG
p3273
aVROK
p3274
asS'04052016'
p3275
(lp3276
VPCLN
p3277
aVALK
p3278
aVSHW
p3279
aVAET
p3280
aVOXY
p3281
aVKSU
p3282
aVGPC
p3283
aVXRAY
p3284
aVTXN
p3285
aVAEP
p3286
aVSPG
p3287
aVADBE
p3288
aVMKC
p3289
asS'05102016'
p3290
(lp3291
VPCLN
p3292
aVAYI
p3293
aVKSU
p3294
aVDLPH
p3295
aVTSO
p3296
aVALK
p3297
aVAPA
p3298
aVPRU
p3299
aVADSK
p3300
aVHON
p3301
aVROP
p3302
aVSIG
p3303
aVXEC
p3304
aVADBE
p3305
aVALB
p3306
aVGPC
p3307
aVXOM
p3308
aVXRAY
p3309
aVMKC
p3310
aVDLR
p3311
aVFB
p3312
aVESS
p3313
asS'07022014'
p3314
(lp3315
VLLL
p3316
aVBA
p3317
aVUHS
p3318
aVTSCO
p3319
aVIR
p3320
aVTRIP
p3321
aVM
aVALK
p3322
aVCRM
p3323
aVILMN
p3324
aVEW
p3325
aVGOOG
p3326
aVGOOGL
p3327
asS'07022015'
p3328
(lp3329
VGS
p3330
aVFFIV
p3331
aVR
aVKMX
p3332
aVCNC
p3333
aVSTZ
p3334
aVSTJ
p3335
aVAXP
p3336
aVEQT
p3337
aVLNC
p3338
aVAKAM
p3339
aVALLE
p3340
aVAIG
p3341
aVFIS
p3342
aVCHRW
p3343
aVLH
p3344
aVUHS
p3345
asS'09142015'
p3346
(lp3347
VMNST
p3348
aVABBV
p3349
aVTSO
p3350
aVNOC
p3351
aVHUM
p3352
aVSWKS
p3353
aVNFLX
p3354
asS'03082013'
p3355
(lp3356
VFFIV
p3357
aVHP
p3358
aVAAPL
p3359
aVTSO
p3360
aVHOT
p3361
aVCOF
p3362
asS'07022013'
p3363
(lp3364
VHOT
p3365
aVBA
p3366
aVUHS
p3367
aVSPGI
p3368
aVKSS
p3369
aVUNH
p3370
aVMNST
p3371
aVDG
p3372
aVANTM
p3373
aVCTXS
p3374
aVCMG
p3375
aVILMN
p3376
asS'11042013'
p3377
(lp3378
VREGN
p3379
aVWYNN
p3380
aVEOG
p3381
aVFB
p3382
aVDG
p3383
aVA
aVCINF
p3384
aVPRU
p3385
aVNUE
p3386
aVWYN
p3387
aVKSS
p3388
aVILMN
p3389
aVAGN
p3390
asS'02232016'
p3391
(lp3392
VED
p3393
aVSCG
p3394
aVFB
p3395
aVAVY
p3396
aVABC
p3397
aVADBE
p3398
aVKSU
p3399
aVTSO
p3400
aVILMN
p3401
asS'11042016'
p3402
(lp3403
VXEC
p3404
aVCAT
p3405
aVURI
p3406
aVWYNN
p3407
aVSWKS
p3408
aVNVDA
p3409
aVQCOM
p3410
aVCMA
p3411
aVTIF
p3412
aVDOV
p3413
aVEQT
p3414
aVJEC
p3415
aVILMN
p3416
aVAXP
p3417
aVIR
p3418
asS'11042015'
p3419
(lp3420
VEFX
p3421
aVTSS
p3422
aVALK
p3423
aVLRCX
p3424
aVTSO
p3425
aVNFLX
p3426
asS'11042014'
p3427
(lp3428
VCTXS
p3429
aVKSU
p3430
aVAYI
p3431
aVGILD
p3432
aVHOG
p3433
aVUNH
p3434
aVDOV
p3435
aVCMG
p3436
asS'08142013'
p3437
(lp3438
VMTB
p3439
aVGPC
p3440
aVWHR
p3441
aVCOF
p3442
aVSTT
p3443
aVILMN
p3444
aVAPC
p3445
aVHOT
p3446
aVEMR
p3447
aVJEC
p3448
aVCTXS
p3449
aVUHS
p3450
asS'07152013'
p3451
(lp3452
VILMN
p3453
aVUHS
p3454
aVUNH
p3455
aVPRU
p3456
aVHOT
p3457
aVMTB
p3458
aVWHR
p3459
asS'07152014'
p3460
(lp3461
VILMN
p3462
aVTRIP
p3463
aVUHS
p3464
aVCRM
p3465
aVWYNN
p3466
aVACN
p3467
aVMET
p3468
aVDNB
p3469
aVAMP
p3470
aVMPC
p3471
aVEW
p3472
aVPRGO
p3473
aVGOOGL
p3474
asS'07152015'
p3475
(lp3476
VCNC
p3477
aVPVH
p3478
aVGS
p3479
aVADBE
p3480
aVAXP
p3481
aVEFX
p3482
aVFIS
p3483
aVSTJ
p3484
aVTSO
p3485
asS'08142014'
p3486
(lp3487
VCMG
p3488
aVCRM
p3489
aVGILD
p3490
aVCVS
p3491
aVWYN
p3492
aVILMN
p3493
aVEW
p3494
asS'08142015'
p3495
(lp3496
VGS
p3497
aVSTJ
p3498
aVJPM
p3499
aVAVGO
p3500
aVDLPH
p3501
aVADI
p3502
aVFIS
p3503
aVNFLX
p3504
asS'12022014'
p3505
(lp3506
VKLAC
p3507
aVXEC
p3508
aVLYB
p3509
aVPH
p3510
aVDOV
p3511
aVILMN
p3512
aVGPN
p3513
aVLNC
p3514
aVMAR
p3515
aVHOG
p3516
aVSTT
p3517
aVVAR
p3518
aVMET
p3519
aVAKAM
p3520
aVSTX
p3521
aVHCN
p3522
aVLOW
p3523
aVBIIB
p3524
asS'01072015'
p3525
(lp3526
VWDC
p3527
aVBIIB
p3528
aVKSU
p3529
aVLNC
p3530
aVHCA
p3531
aVAKAM
p3532
aVMET
p3533
aVETR
p3534
aVAIG
p3535
aVAAL
p3536
aVHP
p3537
asS'07222013'
p3538
(lp3539
VILMN
p3540
aVKSS
p3541
aVPRU
p3542
aVMNST
p3543
aVAPC
p3544
aVUNH
p3545
asS'01072014'
p3546
(lp3547
VNFLX
p3548
aVFSLR
p3549
aVR
aVWDC
p3550
aVECL
p3551
aVFIS
p3552
aVAMP
p3553
aVADS
p3554
aVFB
p3555
aVWBA
p3556
aVTRIP
p3557
aVILMN
p3558
aVCMI
p3559
aVAGN
p3560
aVULTA
p3561
asS'01142014'
p3562
(lp3563
VNFLX
p3564
aVSNI
p3565
aVADS
p3566
aVMMM
p3567
aVCMI
p3568
aVAMP
p3569
aVHAS
p3570
aVFIS
p3571
aVSPGI
p3572
aVFB
p3573
aVA
aVTMO
p3574
aVTRIP
p3575
aVULTA
p3576
aVILMN
p3577
asS'09062013'
p3578
(lp3579
VEMN
p3580
aVCOF
p3581
aVEMR
p3582
aVTRIP
p3583
aVLLY
p3584
aVHP
p3585
aVDLPH
p3586
aVHOT
p3587
aVAGN
p3588
aVEQIX
p3589
asS'01262016'
p3590
(lp3591
VTSO
p3592
aVREGN
p3593
aVGILD
p3594
aVTEL
p3595
aVILMN
p3596
aVOXY
p3597
aVLB
p3598
asS'01262017'
p3599
(lp3600
VWHR
p3601
aVOKE
p3602
aVCVX
p3603
aVCTSH
p3604
aVBLK
p3605
aVAME
p3606
aVKSU
p3607
aVQRVO
p3608
asS'09062016'
p3609
(lp3610
VILMN
p3611
aVAYI
p3612
aVHES
p3613
aVWYNN
p3614
aVCAT
p3615
aVDOV
p3616
aVNVDA
p3617
aVURI
p3618
aVSHW
p3619
aVTSN
p3620
aVAXP
p3621
aVVTR
p3622
aVSWKS
p3623
aVQRVO
p3624
aVGPN
p3625
aVAMP
p3626
aVPSA
p3627
asS'07222016'
p3628
(lp3629
VSHW
p3630
aVPSA
p3631
aVWBA
p3632
aVXEC
p3633
aVRHT
p3634
aVLEG
p3635
aVNVDA
p3636
aVSLB
p3637
aVPPG
p3638
aVAXP
p3639
aVDD
p3640
aVLYB
p3641
aVAYI
p3642
aVHAR
p3643
aVURI
p3644
aVPCLN
p3645
asS'03292016'
p3646
(lp3647
VPCLN
p3648
aVSHW
p3649
aVKSU
p3650
aVOXY
p3651
aVHSY
p3652
aVCME
p3653
aVGPC
p3654
aVALK
p3655
aVTXN
p3656
aVSPG
p3657
aVHCN
p3658
aVADBE
p3659
asS'02112015'
p3660
(lp3661
VDLR
p3662
aVSWKS
p3663
aVHCA
p3664
aVAGN
p3665
aVKLAC
p3666
aVAIG
p3667
aVAKAM
p3668
aVAXP
p3669
aVLB
p3670
aVGS
p3671
aVAMZN
p3672
asS'02112014'
p3673
(lp3674
VETN
p3675
aVACN
p3676
aVTSCO
p3677
aVIR
p3678
aVCNC
p3679
aVFLR
p3680
aVANTM
p3681
aVLRCX
p3682
aVEQT
p3683
aVEQIX
p3684
aVILMN
p3685
aVSNI
p3686
aVFB
p3687
aVWBA
p3688
aVCMI
p3689
aVULTA
p3690
aVESS
p3691
aVAAPL
p3692
aVADS
p3693
asS'02112016'
p3694
(lp3695
VREGN
p3696
aVILMN
p3697
aVADBE
p3698
aVFB
p3699
aVED
p3700
aVGILD
p3701
aVMKC
p3702
asS'11032016'
p3703
(lp3704
VXEC
p3705
aVFB
p3706
aVSTZ
p3707
aVCAT
p3708
aVURI
p3709
aVSWKS
p3710
aVWYNN
p3711
aVNVDA
p3712
aVTIF
p3713
aVCMA
p3714
aVEQT
p3715
aVILMN
p3716
aVUAL
p3717
aVJEC
p3718
aVBA
p3719
aVAPD
p3720
asS'01042016'
p3721
(lp3722
VREGN
p3723
aVLB
p3724
aVADI
p3725
aVTSO
p3726
asS'01042017'
p3727
(lp3728
VBLK
p3729
aVFDX
p3730
aVGWW
p3731
aVUAL
p3732
aVTIF
p3733
aVLNC
p3734
aVKSU
p3735
aVCVX
p3736
aVJPM
p3737
aVADI
p3738
aVJEC
p3739
aVSWKS
p3740
aVDOV
p3741
aVPFG
p3742
aVAXP
p3743
aVPNR
p3744
aVFIS
p3745
aVILMN
p3746
asS'11172015'
p3747
(lp3748
VPCLN
p3749
aVGD
p3750
aVFISV
p3751
aVNFLX
p3752
asS'12202016'
p3753
(lp3754
VPVH
p3755
aVWYNN
p3756
aVEQT
p3757
aVTIF
p3758
aVCAT
p3759
aVJEC
p3760
aVLNC
p3761
aVGWW
p3762
aVPFG
p3763
aVJPM
p3764
aVDOV
p3765
aVUAL
p3766
aVAXP
p3767
aVSWKS
p3768
aVNVDA
p3769
aVILMN
p3770
asS'12162013'
p3771
(lp3772
VULTA
p3773
aVAGN
p3774
aVAAPL
p3775
aVGILD
p3776
aVMMM
p3777
aVIR
p3778
aVROST
p3779
aVLMT
p3780
aVHAS
p3781
aVWBA
p3782
aVDIS
p3783
aVTMO
p3784
aVFIS
p3785
aVCTAS
p3786
aVNUE
p3787
aVA
aVNFLX
p3788
aVILMN
p3789
asS'12162015'
p3790
(lp3791
VREGN
p3792
aVFISV
p3793
aVMKC
p3794
asS'12162014'
p3795
(lp3796
VCMG
p3797
aVNFLX
p3798
aVHOG
p3799
aVCELG
p3800
aVMET
p3801
aVAKAM
p3802
aVKLAC
p3803
aVLNC
p3804
aVMAR
p3805
aVSWKS
p3806
aVWDC
p3807
asS'12162016'
p3808
(lp3809
VAMP
p3810
aVWYNN
p3811
aVEQT
p3812
aVCAT
p3813
aVJEC
p3814
aVTIF
p3815
aVLNC
p3816
aVPFG
p3817
aVCMA
p3818
aVSHW
p3819
aVUAL
p3820
aVJPM
p3821
aVNVDA
p3822
aVAXP
p3823
aVDOV
p3824
aVSWKS
p3825
aVDD
p3826
aVNEE
p3827
aVILMN
p3828
asS'09152015'
p3829
(lp3830
VMNST
p3831
aVABBV
p3832
aVTSO
p3833
aVHUM
p3834
aVNFLX
p3835
asS'05032016'
p3836
(lp3837
VDLPH
p3838
aVADBE
p3839
aVSIG
p3840
aVKSU
p3841
aVWBA
p3842
aVSCG
p3843
aVCME
p3844
aVXOM
p3845
aVPCLN
p3846
aVPXD
p3847
asS'11072016'
p3848
(lp3849
VXEC
p3850
aVWYNN
p3851
aVCAT
p3852
aVSWKS
p3853
aVURI
p3854
aVNVDA
p3855
aVQCOM
p3856
aVCMA
p3857
aVDOV
p3858
aVJEC
p3859
aVTIF
p3860
aVEQT
p3861
aVILMN
p3862
asS'01052015'
p3863
(lp3864
VWDC
p3865
aVHCA
p3866
aVXEC
p3867
aVMET
p3868
aVAIG
p3869
aVAAL
p3870
aVDLR
p3871
aVKSU
p3872
aVKLAC
p3873
aVILMN
p3874
aVMPC
p3875
aVCMG
p3876
asS'01052017'
p3877
(lp3878
VBLK
p3879
aVGWW
p3880
aVUAL
p3881
aVTIF
p3882
aVLNC
p3883
aVADI
p3884
aVCVX
p3885
aVJPM
p3886
aVSWKS
p3887
aVJEC
p3888
aVDOV
p3889
aVAXP
p3890
aVPNR
p3891
aVSTZ
p3892
aVILMN
p3893
asS'01052016'
p3894
(lp3895
VFISV
p3896
aVEL
p3897
aVADI
p3898
aVED
p3899
aVOXY
p3900
aVTSO
p3901
asS'03172016'
p3902
(lp3903
VMKC
p3904
aVAEP
p3905
aVAET
p3906
aVHCN
p3907
aVTSCO
p3908
aVALK
p3909
aVADBE
p3910
aVPCLN
p3911
asS'03172014'
p3912
(lp3913
VTRIP
p3914
aVCOL
p3915
aVSNI
p3916
aVFIS
p3917
aVIR
p3918
aVHP
p3919
aVETN
p3920
aVMHK
p3921
aVACN
p3922
aVSJM
p3923
aVPRGO
p3924
aVCAH
p3925
aVPNW
p3926
aVKLAC
p3927
aVEW
p3928
aVULTA
p3929
asS'03172015'
p3930
(lp3931
VAYI
p3932
aVVRSN
p3933
aVCMCSA
p3934
aVAVY
p3935
aVAKAM
p3936
aVADBE
p3937
aVEXPE
p3938
aVCELG
p3939
aVMET
p3940
aVDLR
p3941
aVBBBY
p3942
aVWBA
p3943
aVABBV
p3944
aVAXP
p3945
aVSWKS
p3946
asS'09102013'
p3947
(lp3948
VEMN
p3949
aVAGN
p3950
aVTMO
p3951
aVTJX
p3952
aVEMR
p3953
aVPRU
p3954
asS'05092014'
p3955
(lp3956
VETN
p3957
aVAGN
p3958
aVGRMN
p3959
aVNUE
p3960
aVIR
p3961
aVHON
p3962
aVNKE
p3963
aVVRTX
p3964
aVBA
p3965
aVMCK
p3966
aVBDX
p3967
aVPXD
p3968
asS'05092016'
p3969
(lp3970
VPCLN
p3971
aVAYI
p3972
aVTSO
p3973
aVKSU
p3974
aVVLO
p3975
aVAPA
p3976
aVPRU
p3977
aVHON
p3978
aVADBE
p3979
aVXEC
p3980
aVADSK
p3981
aVGPC
p3982
aVR
aVALB
p3983
aVAET
p3984
aVXOM
p3985
aVFISV
p3986
aVESS
p3987
aVICE
p3988
asS'05092013'
p3989
(lp3990
VVRTX
p3991
aVMNST
p3992
aVUNH
p3993
aVSPGI
p3994
aVAXP
p3995
aVUHS
p3996
aVHOT
p3997
aVURI
p3998
aVEQIX
p3999
asS'05292014'
p4000
(lp4001
VHAS
p4002
aVPH
p4003
aVANTM
p4004
aVMET
p4005
aVNTRS
p4006
aVHOT
p4007
aVIR
p4008
aVBA
p4009
aVUHS
p4010
aVWDC
p4011
aVPRGO
p4012
aVGOOGL
p4013
asS'10072016'
p4014
(lp4015
VAYI
p4016
aVAPD
p4017
aVWYNN
p4018
aVPSA
p4019
aVDGX
p4020
aVNVDA
p4021
aVEQT
p4022
aVUTX
p4023
aVAMP
p4024
aVPH
p4025
aVSNA
p4026
aVSWKS
p4027
aVILMN
p4028
aVDOV
p4029
aVURI
p4030
aVPCLN
p4031
asS'11252015'
p4032
(lp4033
VFISV
p4034
aVLRCX
p4035
aVGD
p4036
aVALK
p4037
aVEW
p4038
asS'07122013'
p4039
(lp4040
VILMN
p4041
aVSTZ
p4042
aVUHS
p4043
aVUNH
p4044
aVPRU
p4045
aVHOT
p4046
aVMTB
p4047
asS'06202013'
p4048
(lp4049
VHOT
p4050
aVAPC
p4051
aVTRIP
p4052
aVMNST
p4053
aVHRS
p4054
aVILMN
p4055
aVCTXS
p4056
aVSIG
p4057
aVUNH
p4058
aVCNC
p4059
asS'07122016'
p4060
(lp4061
VWBA
p4062
aVEQT
p4063
aVRHT
p4064
aVDD
p4065
aVWYNN
p4066
aVURI
p4067
aVMDT
p4068
aVADBE
p4069
aVFISV
p4070
aVPXD
p4071
aVKSU
p4072
aVNVDA
p4073
aVAPD
p4074
aVSIG
p4075
aVISRG
p4076
aVPCLN
p4077
asS'06202016'
p4078
(lp4079
VVRTX
p4080
aVXEC
p4081
aVR
aVADBE
p4082
aVKSU
p4083
aVAPA
p4084
aVHAR
p4085
aVSIG
p4086
aVDD
p4087
aVRHT
p4088
aVOXY
p4089
aVXOM
p4090
aVEMR
p4091
aVWYNN
p4092
aVPCLN
p4093
asS'03282013'
p4094
(lp4095
VMLM
p4096
aVROK
p4097
aVHOG
p4098
aVDIS
p4099
aVUTX
p4100
aVURI
p4101
aVFTI
p4102
aVDG
p4103
asS'03282014'
p4104
(lp4105
VTRIP
p4106
aVPRGO
p4107
aVMCK
p4108
aVMHK
p4109
aVSPGI
p4110
aVCF
p4111
aVSNI
p4112
aVCAH
p4113
aVWBA
p4114
aVHON
p4115
aVCOL
p4116
aVEW
p4117
aVIR
p4118
aVFIS
p4119
aVWYN
p4120
aVBDX
p4121
aVSTZ
p4122
aVSJM
p4123
aVFLR
p4124
aVETN
p4125
asS'03282016'
p4126
(lp4127
VPCLN
p4128
aVKSU
p4129
aVOXY
p4130
aVEL
p4131
aVSPG
p4132
aVGPC
p4133
aVALK
p4134
aVXOM
p4135
aVTXN
p4136
aVHCN
p4137
aVADBE
p4138
asS'01282016'
p4139
(lp4140
VREGN
p4141
aVTSO
p4142
aVADBE
p4143
aVGILD
p4144
aVLLY
p4145
aVSCG
p4146
aVTEL
p4147
aVOXY
p4148
asS'11112015'
p4149
(lp4150
VGD
p4151
aVMET
p4152
aVLRCX
p4153
aVTSO
p4154
asS'01282014'
p4155
(lp4156
VADS
p4157
aVWHR
p4158
aVAMP
p4159
aVTMO
p4160
aVSNI
p4161
aVWDC
p4162
aVANTM
p4163
aVFB
p4164
aVECL
p4165
aVPRGO
p4166
aVACN
p4167
aVIR
p4168
aVFIS
p4169
aVA
aVWBA
p4170
aVCMCSA
p4171
aVULTA
p4172
aVILMN
p4173
asS'01282015'
p4174
(lp4175
VAXP
p4176
aVKLAC
p4177
aVSWK
p4178
aVBLL
p4179
aVETR
p4180
aVHCA
p4181
aVMAR
p4182
aVGILD
p4183
asS'04092014'
p4184
(lp4185
VAGN
p4186
aVTRIP
p4187
aVPRGO
p4188
aVMCK
p4189
aVCAH
p4190
aVIR
p4191
aVFIS
p4192
aVSPGI
p4193
aVSNI
p4194
aVETN
p4195
aVHON
p4196
aVSJM
p4197
aVNUE
p4198
asS'04092015'
p4199
(lp4200
VCMG
p4201
aVHUM
p4202
aVSWKS
p4203
aVAKAM
p4204
aVORLY
p4205
aVALLE
p4206
aVFIS
p4207
aVVRSN
p4208
aVWAT
p4209
aVWDC
p4210
aVRCL
p4211
asS'08162016'
p4212
(lp4213
VISRG
p4214
aVPSA
p4215
aVURI
p4216
aVEQT
p4217
aVTSN
p4218
aVCME
p4219
aVILMN
p4220
aVAXP
p4221
aVPRU
p4222
aVDOV
p4223
aVWYNN
p4224
aVNVDA
p4225
asS'06012015'
p4226
(lp4227
VTSO
p4228
aVLNC
p4229
aVSTJ
p4230
aVMET
p4231
aVADM
p4232
aVALLE
p4233
aVPNR
p4234
aVADBE
p4235
aVSTZ
p4236
aVADI
p4237
aVEW
p4238
aVHUM
p4239
asS'09232015'
p4240
(lp4241
VSTZ
p4242
aVSTJ
p4243
aVAVGO
p4244
aVABBV
p4245
aVFL
p4246
aVNFLX
p4247
asS'09232014'
p4248
(lp4249
VCMG
p4250
aVILMN
p4251
aVURI
p4252
aVAYI
p4253
aVGOOGL
p4254
asS'04092013'
p4255
(lp4256
VBLK
p4257
aVMLM
p4258
aVUHS
p4259
aVHON
p4260
aVETN
p4261
aVUTX
p4262
aVWYNN
p4263
asS'07242013'
p4264
(lp4265
VHOT
p4266
aVPRU
p4267
aVILMN
p4268
aVMNST
p4269
aVUNH
p4270
aVWHR
p4271
asS'07242014'
p4272
(lp4273
VILMN
p4274
aVEW
p4275
aVCRM
p4276
aVBWA
p4277
aVAYI
p4278
aVBLL
p4279
aVCVS
p4280
aVPVH
p4281
aVPRGO
p4282
asS'07242015'
p4283
(lp4284
VCNC
p4285
aVDLPH
p4286
aVEQT
p4287
aVFIS
p4288
aVALLE
p4289
aVEFX
p4290
aVCHRW
p4291
aVAKAM
p4292
aVPRGO
p4293
asS'12292016'
p4294
(lp4295
VTIF
p4296
aVLNC
p4297
aVUAL
p4298
aVJEC
p4299
aVAPA
p4300
aVSTT
p4301
aVCAT
p4302
aVJPM
p4303
aVDOV
p4304
aVPFG
p4305
aVAXP
p4306
aVCVX
p4307
aVSWKS
p4308
aVSTZ
p4309
asS'02162016'
p4310
(lp4311
VADBE
p4312
aVREGN
p4313
aVFB
p4314
aVILMN
p4315
aVED
p4316
aVAEP
p4317
aVAVY
p4318
aVGILD
p4319
asS'08022016'
p4320
(lp4321
VPSA
p4322
aVAYI
p4323
aVEQT
p4324
aVSHW
p4325
aVCBS
p4326
aVPPG
p4327
aVDLR
p4328
aVHES
p4329
aVWBA
p4330
aVALB
p4331
aVSIG
p4332
aVAN
p4333
aVADBE
p4334
aVJPM
p4335
aVNVDA
p4336
aVAXP
p4337
aVDD
p4338
aVRHT
p4339
aVHAR
p4340
aVWYNN
p4341
aVURI
p4342
aVPCLN
p4343
asS'06282013'
p4344
(lp4345
VGS
p4346
aVTRIP
p4347
aVUHS
p4348
aVHOT
p4349
aVSPGI
p4350
aVBA
p4351
aVLYB
p4352
aVTMO
p4353
aVMNST
p4354
aVSIG
p4355
aVAPC
p4356
aVCTXS
p4357
aVUNH
p4358
aVILMN
p4359
asS'10082015'
p4360
(lp4361
VSWKS
p4362
aVHES
p4363
asS'08022013'
p4364
(lp4365
VMTB
p4366
aVMNST
p4367
aVPCAR
p4368
aVAPC
p4369
aVILMN
p4370
aVUNH
p4371
aVCBS
p4372
aVPRU
p4373
aVAAP
p4374
aVHOT
p4375
aVUHS
p4376
aVCOL
p4377
aVURI
p4378
aVMPC
p4379
aVCMI
p4380
aVWHR
p4381
asS'10082013'
p4382
(lp4383
VREGN
p4384
aVCMI
p4385
aVILMN
p4386
aVGILD
p4387
aVMMM
p4388
aVFB
p4389
aVWYN
p4390
aVGPC
p4391
aVA
aVWBA
p4392
aVTROW
p4393
aVAGN
p4394
aVUHS
p4395
asS'10152013'
p4396
(lp4397
VREGN
p4398
aVEQIX
p4399
aVAGN
p4400
aVA
aVILMN
p4401
aVWYN
p4402
aVHOT
p4403
aVRRC
p4404
asS'12292014'
p4405
(lp4406
VMAR
p4407
aVAAL
p4408
aVSWKS
p4409
aVSTX
p4410
aVLNC
p4411
aVILMN
p4412
aVHON
p4413
aVWDC
p4414
aVMNK
p4415
aVKLAC
p4416
aVKMX
p4417
aVKSU
p4418
asS'05012015'
p4419
(lp4420
VCNC
p4421
aVDLTR
p4422
aVSIG
p4423
aVSWKS
p4424
aVAMP
p4425
aVALLE
p4426
aVSTJ
p4427
aVTSO
p4428
asS'05012014'
p4429
(lp4430
VXEC
p4431
aVBDX
p4432
aVETN
p4433
aVCF
p4434
aVTSCO
p4435
aVMCO
p4436
aVMET
p4437
aVEW
p4438
aVAVGO
p4439
aVSNI
p4440
aVIR
p4441
aVCTXS
p4442
aVAGN
p4443
asS'05132013'
p4444
(lp4445
VBIIB
p4446
aVMNST
p4447
aVVRTX
p4448
aVSPGI
p4449
aVTMO
p4450
aVUHS
p4451
aVHOG
p4452
aVHOT
p4453
aVURI
p4454
aVGS
p4455
asS'05132014'
p4456
(lp4457
VETN
p4458
aVIR
p4459
aVNUE
p4460
aVHON
p4461
aVBMY
p4462
aVBA
p4463
aVVRTX
p4464
aVUHS
p4465
aVVAR
p4466
aVPXD
p4467
aVTRIP
p4468
asS'05132015'
p4469
(lp4470
VCMCSA
p4471
aVSTJ
p4472
aVEQT
p4473
aVKMX
p4474
aVSWKS
p4475
aVTSO
p4476
aVADM
p4477
aVCNC
p4478
asS'05012013'
p4479
(lp4480
VMNST
p4481
aVHOT
p4482
aVBIIB
p4483
aVHOG
p4484
aVVRTX
p4485
asS'07062015'
p4486
(lp4487
VGS
p4488
aVCNC
p4489
aVR
aVAXP
p4490
aVSTJ
p4491
aVALLE
p4492
aVAKAM
p4493
aVFIS
p4494
aVLH
p4495
aVORLY
p4496
aVUHS
p4497
asS'03112016'
p4498
(lp4499
VTSN
p4500
aVMKC
p4501
aVXOM
p4502
aVAEP
p4503
aVTXN
p4504
aVADBE
p4505
aVAET
p4506
aVPCLN
p4507
asS'06042013'
p4508
(lp4509
VHOG
p4510
aVILMN
p4511
aVDIS
p4512
aVVMC
p4513
aVAPC
p4514
aVHOT
p4515
aVR
aVSPGI
p4516
aVUNH
p4517
aVMNST
p4518
aVTRIP
p4519
aVUHS
p4520
aVTMO
p4521
aVAAPL
p4522
asS'12312015'
p4523
(lp4524
VSHW
p4525
aVADI
p4526
aVTSO
p4527
aVAET
p4528
aVREGN
p4529
asS'12312014'
p4530
(lp4531
VSTX
p4532
aVWDC
p4533
aVILMN
p4534
aVLNC
p4535
aVMPC
p4536
aVKSU
p4537
aVCMG
p4538
asS'12262014'
p4539
(lp4540
VBIIB
p4541
aVULTA
p4542
aVHOG
p4543
aVAAL
p4544
aVMET
p4545
aVADM
p4546
aVFIS
p4547
aVSWKS
p4548
aVLNC
p4549
aVSTX
p4550
aVAMP
p4551
aVHON
p4552
aVMNK
p4553
aVWDC
p4554
aVKLAC
p4555
aVKMX
p4556
aVKSU
p4557
asS'06232016'
p4558
(lp4559
VURI
p4560
aVADBE
p4561
aVAAPL
p4562
aVCOL
p4563
aVWYNN
p4564
aVXEC
p4565
aVRHT
p4566
aVDD
p4567
aVAPA
p4568
aVMKC
p4569
aVEQT
p4570
aVPCLN
p4571
asS'05212013'
p4572
(lp4573
VAAPL
p4574
aVMNST
p4575
aVSPGI
p4576
aVSIG
p4577
aVUNH
p4578
aVURI
p4579
aVHOT
p4580
aVO
aVHOG
p4581
aVTMO
p4582
aVILMN
p4583
aVHRS
p4584
aVCBS
p4585
aVUTX
p4586
asS'05262015'
p4587
(lp4588
VEQT
p4589
aVMYL
p4590
aVHP
p4591
aVLOW
p4592
aVR
aVALLE
p4593
aVSTJ
p4594
aVMET
p4595
aVWBA
p4596
aVAMP
p4597
aVKR
p4598
aVHUM
p4599
asS'05262016'
p4600
(lp4601
VROP
p4602
aVPSA
p4603
aVSIG
p4604
aVPCLN
p4605
aVDLPH
p4606
aVXOM
p4607
aVXEC
p4608
aVGPC
p4609
aVKSU
p4610
aVVMC
p4611
aVAET
p4612
aVTSO
p4613
aVADBE
p4614
aVCME
p4615
aVORLY
p4616
asS'12262013'
p4617
(lp4618
VTRIP
p4619
aVNFLX
p4620
aVWBA
p4621
aVFIS
p4622
aVECL
p4623
aVDFS
p4624
aVA
aVGILD
p4625
aVULTA
p4626
aVROST
p4627
aVLRCX
p4628
aVADS
p4629
aVILMN
p4630
aVWHR
p4631
aVIR
p4632
aVLMT
p4633
aVFB
p4634
aVMMM
p4635
aVCMI
p4636
asS'03032015'
p4637
(lp4638
VBBBY
p4639
aVBLL
p4640
aVCELG
p4641
aVHON
p4642
aVCMG
p4643
aVMCHP
p4644
aVLNC
p4645
aVR
aVGILD
p4646
aVAKAM
p4647
aVVRSN
p4648
aVBWA
p4649
aVCMCSA
p4650
aVSWKS
p4651
aVTIF
p4652
asS'03032014'
p4653
(lp4654
VNFLX
p4655
aVMHK
p4656
aVMCK
p4657
aVCMCSA
p4658
aVESS
p4659
aVFB
p4660
aVADS
p4661
aVAAPL
p4662
aVFIS
p4663
aVAVGO
p4664
aVCMG
p4665
aVIR
p4666
aVETN
p4667
aVLOW
p4668
aVTRIP
p4669
aVPRGO
p4670
asS'03032016'
p4671
(lp4672
VSCG
p4673
aVAEP
p4674
aVMKC
p4675
aVAET
p4676
aVHCN
p4677
aVTSO
p4678
aVPCLN
p4679
asS'04212016'
p4680
(lp4681
VSCG
p4682
aVFISV
p4683
aVALK
p4684
aVADBE
p4685
aVXOM
p4686
aVAPA
p4687
aVAYI
p4688
aVKSU
p4689
aVCMG
p4690
asS'11112014'
p4691
(lp4692
VHUM
p4693
aVHCN
p4694
aVUNH
p4695
aVLOW
p4696
aVKMX
p4697
aVSTX
p4698
aVHOG
p4699
aVTXN
p4700
aVMET
p4701
aVWDC
p4702
aVLNC
p4703
aVSTT
p4704
aVPH
p4705
aVAMP
p4706
aVXEC
p4707
asS'04212014'
p4708
(lp4709
VANTM
p4710
aVPRGO
p4711
aVAVGO
p4712
aVETN
p4713
aVILMN
p4714
aVFIS
p4715
aVSNI
p4716
aVVRTX
p4717
aVMCK
p4718
aVTEL
p4719
aVAGN
p4720
aVIR
p4721
aVBA
p4722
aVMHK
p4723
aVAMZN
p4724
asS'11112016'
p4725
(lp4726
VWYNN
p4727
aVADBE
p4728
aVQCOM
p4729
aVSWKS
p4730
aVALK
p4731
aVUAL
p4732
aVAXP
p4733
aVCMA
p4734
aVBA
p4735
aVDOV
p4736
aVPVH
p4737
aVTIF
p4738
aVRCL
p4739
aVMSI
p4740
aVCAT
p4741
aVLNC
p4742
aVILMN
p4743
aVADS
p4744
aVPH
p4745
aVURI
p4746
aVAMP
p4747
aVPCLN
p4748
asS'11112013'
p4749
(lp4750
VREGN
p4751
aVEOG
p4752
aVWYNN
p4753
aVEQT
p4754
aVSTJ
p4755
aVROST
p4756
aVKSS
p4757
aVMMM
p4758
aVMHK
p4759
aVNUE
p4760
aVAGN
p4761
asS'12042014'
p4762
(lp4763
VKLAC
p4764
aVXEC
p4765
aVDOV
p4766
aVURI
p4767
aVILMN
p4768
aVLNC
p4769
aVCMG
p4770
aVMAR
p4771
aVHOG
p4772
aVMET
p4773
aVPSX
p4774
aVSTX
p4775
aVSTT
p4776
aVNFLX
p4777
asS'12042015'
p4778
(lp4779
VALK
p4780
asS'12042013'
p4781
(lp4782
VIR
p4783
aVROST
p4784
aVULTA
p4785
aVAGN
p4786
aVTRIP
p4787
aVWBA
p4788
aVNUE
p4789
aVPFG
p4790
aVCCI
p4791
aVCTAS
p4792
aVUHS
p4793
aVEQIX
p4794
asS'08052014'
p4795
(lp4796
VPRGO
p4797
aVAVGO
p4798
aVTIF
p4799
aVBLL
p4800
aVULTA
p4801
aVEW
p4802
aVMPC
p4803
asS'09032015'
p4804
(lp4805
VMNST
p4806
aVNOC
p4807
aVCNC
p4808
aVCXO
p4809
aVNFLX
p4810
asS'09032014'
p4811
(lp4812
VCMG
p4813
aVADSK
p4814
aVSTZ
p4815
asS'09032013'
p4816
(lp4817
VEMR
p4818
aVLLY
p4819
aVURI
p4820
aVWYN
p4821
asS'02032016'
p4822
(lp4823
VREGN
p4824
aVILMN
p4825
aVLLY
p4826
aVABC
p4827
aVADBE
p4828
aVED
p4829
aVADI
p4830
asS'09022016'
p4831
(lp4832
VILMN
p4833
aVAYI
p4834
aVWYNN
p4835
aVCAT
p4836
aVHES
p4837
aVNVDA
p4838
aVDOV
p4839
aVSHW
p4840
aVURI
p4841
aVTSN
p4842
aVLEG
p4843
aVTIF
p4844
aVSNA
p4845
aVSWKS
p4846
aVQRVO
p4847
aVEQT
p4848
aVAMP
p4849
aVPSA
p4850
asS'05282013'
p4851
(lp4852
VO
aVAAPL
p4853
aVHOG
p4854
aVSPGI
p4855
aVILMN
p4856
aVURI
p4857
aVMNST
p4858
aVSIG
p4859
aVUHS
p4860
aVVMC
p4861
aVUNH
p4862
aVTMO
p4863
aVHOT
p4864
aVHRS
p4865
aVAXP
p4866
asS'09092013'
p4867
(lp4868
VEMN
p4869
aVAGN
p4870
aVTJX
p4871
aVWYN
p4872
aVEQIX
p4873
asS'09022015'
p4874
(lp4875
VNOC
p4876
aVLLL
p4877
aVNFLX
p4878
asS'09092015'
p4879
(lp4880
VMNST
p4881
aVSTZ
p4882
aVNOC
p4883
aVNFLX
p4884
asS'09092014'
p4885
(lp4886
VCMG
p4887
aVWYNN
p4888
aVEW
p4889
aVSTZ
p4890
aVTSO
p4891
aVILMN
p4892
aVPNW
p4893
aVMAR
p4894
aVGOOGL
p4895
asS'05282014'
p4896
(lp4897
VHAS
p4898
aVXEC
p4899
aVIR
p4900
aVHOT
p4901
aVANTM
p4902
aVBA
p4903
aVUHS
p4904
aVPRGO
p4905
asS'09112015'
p4906
(lp4907
VMNST
p4908
aVABBV
p4909
aVSTZ
p4910
aVPVH
p4911
aVNOC
p4912
aVHUM
p4913
aVSWKS
p4914
aVNFLX
p4915
asS'05112016'
p4916
(lp4917
VPCLN
p4918
aVAYI
p4919
aVKSU
p4920
aVDLPH
p4921
aVTSO
p4922
aVALK
p4923
aVORLY
p4924
aVAPA
p4925
aVSIG
p4926
aVADSK
p4927
aVHON
p4928
aVROP
p4929
aVOXY
p4930
aVGPC
p4931
aVADBE
p4932
aVXEC
p4933
aVXOM
p4934
aVCME
p4935
aVSPG
p4936
aVMKC
p4937
aVPSA
p4938
aVICE
p4939
asS'08292013'
p4940
(lp4941
VSIG
p4942
aVAGN
p4943
aVMNST
p4944
aVEMR
p4945
aVLLY
p4946
aVCF
p4947
aVHUM
p4948
aVWYN
p4949
aVDLPH
p4950
aVSTZ
p4951
asS'12052014'
p4952
(lp4953
VAMZN
p4954
aVKLAC
p4955
aVXEC
p4956
aVDOV
p4957
aVURI
p4958
aVILMN
p4959
aVCMG
p4960
aVLNC
p4961
aVMAR
p4962
aVHOG
p4963
aVSTX
p4964
aVUNH
p4965
aVLOW
p4966
aVNFLX
p4967
asS'12052016'
p4968
(lp4969
VNVDA
p4970
aVSNA
p4971
aVSWKS
p4972
aVUAL
p4973
aVAMP
p4974
aVLNC
p4975
aVPFG
p4976
aVJEC
p4977
aVILMN
p4978
aVTEL
p4979
aVROK
p4980
aVSHW
p4981
aVDOV
p4982
aVTIF
p4983
aVEQT
p4984
asS'10172016'
p4985
(lp4986
VPCLN
p4987
aVILMN
p4988
aVROP
p4989
aVWYNN
p4990
aVEQT
p4991
aVNVDA
p4992
aVSYK
p4993
aVFB
p4994
aVURI
p4995
aVQCOM
p4996
aVTIF
p4997
aVSNA
p4998
aVDGX
p4999
aVSWKS
p5000
aVJEC
p5001
aVJWN
p5002
aVPSA
p5003
asS'12052013'
p5004
(lp5005
VIR
p5006
aVULTA
p5007
aVROST
p5008
aVAGN
p5009
aVNUE
p5010
aVCTAS
p5011
aVCCI
p5012
aVDG
p5013
aVWYNN
p5014
aVEQIX
p5015
asS'06162015'
p5016
(lp5017
VAVGO
p5018
aVSTZ
p5019
aVADM
p5020
aVAXP
p5021
aVEMN
p5022
aVKSS
p5023
aVGS
p5024
aVAIG
p5025
aVLH
p5026
aVLNC
p5027
aVEW
p5028
asS'04132015'
p5029
(lp5030
VTSO
p5031
aVSWKS
p5032
aVAKAM
p5033
aVALLE
p5034
aVLNC
p5035
aVVRSN
p5036
aVADBE
p5037
asS'04132016'
p5038
(lp5039
VWBA
p5040
aVALK
p5041
aVFISV
p5042
aVGPC
p5043
aVADBE
p5044
aVSCG
p5045
aVDLPH
p5046
aVKSU
p5047
aVCELG
p5048
asS'08062015'
p5049
(lp5050
VMYL
p5051
aVTSO
p5052
aVTMO
p5053
aVAIG
p5054
aVKSS
p5055
aVPVH
p5056
aVCNC
p5057
aVEMN
p5058
aVEQT
p5059
aVDLPH
p5060
asS'08062014'
p5061
(lp5062
VILMN
p5063
aVHBI
p5064
aVAVGO
p5065
aVTIF
p5066
aVBLL
p5067
aVWDC
p5068
aVULTA
p5069
aVEW
p5070
aVMPC
p5071
asS'08292016'
p5072
(lp5073
VWYNN
p5074
aVILMN
p5075
aVSHW
p5076
aVAYI
p5077
aVNVDA
p5078
aVCAT
p5079
aVFIS
p5080
aVTSN
p5081
aVDOV
p5082
aVAXP
p5083
aVLEG
p5084
aVRHT
p5085
aVURI
p5086
aVHES
p5087
aVAMP
p5088
aVGPN
p5089
aVQRVO
p5090
aVPSA
p5091
aVTIF
p5092
asS'08052013'
p5093
(lp5094
VILMN
p5095
aVMNST
p5096
aVCOF
p5097
aVUNH
p5098
aVCBS
p5099
aVR
aVCMI
p5100
aVWHR
p5101
asS'09022014'
p5102
(lp5103
VCMG
p5104
aVMCK
p5105
asS'06082016'
p5106
(lp5107
VSIG
p5108
aVAPA
p5109
aVADBE
p5110
aVXOM
p5111
aVXEC
p5112
aVJEC
p5113
aVEQT
p5114
aVMCK
p5115
aVRHT
p5116
aVETR
p5117
aVSLB
p5118
aVURI
p5119
asS'06082015'
p5120
(lp5121
VFFIV
p5122
aVCELG
p5123
aVSWKS
p5124
aVADM
p5125
aVNKE
p5126
aVSTJ
p5127
aVADBE
p5128
aVAXP
p5129
aVADI
p5130
aVALLE
p5131
aVKMX
p5132
aVR
aVLNC
p5133
aVLH
p5134
aVHUM
p5135
asS'11182016'
p5136
(lp5137
VFB
p5138
aVQCOM
p5139
aVPCLN
p5140
aVBA
p5141
aVTIF
p5142
aVSWKS
p5143
aVQRVO
p5144
aVAXP
p5145
aVDOV
p5146
aVWYNN
p5147
aVMSI
p5148
aVCAT
p5149
aVILMN
p5150
aVPRU
p5151
aVLNC
p5152
aVSNA
p5153
aVPH
p5154
aVURI
p5155
aVADS
p5156
aVSHW
p5157
aVNVDA
p5158
aVAMP
p5159
asS'02212014'
p5160
(lp5161
VCMCSA
p5162
aVCRM
p5163
aVMHK
p5164
aVWDC
p5165
aVFIS
p5166
aVIR
p5167
aVETN
p5168
aVACN
p5169
aVILMN
p5170
aVWBA
p5171
aVHP
p5172
aVSNI
p5173
aVADS
p5174
aVPCLN
p5175
asS'10282013'
p5176
(lp5177
VREGN
p5178
aVFB
p5179
aVEOG
p5180
aVA
aVAGN
p5181
aVIFF
p5182
aVNUE
p5183
aVROST
p5184
aVWYN
p5185
aVALK
p5186
aVHOT
p5187
aVWHR
p5188
asS'10282014'
p5189
(lp5190
VNFLX
p5191
aVXEC
p5192
aVSTT
p5193
aVGILD
p5194
asS'11292016'
p5195
(lp5196
VROK
p5197
aVPFG
p5198
aVPVH
p5199
aVSNA
p5200
aVTEL
p5201
aVCVX
p5202
aVMSI
p5203
aVDOV
p5204
aVBA
p5205
aVLNC
p5206
aVTIF
p5207
aVDD
p5208
aVUAL
p5209
aVAMP
p5210
aVEQT
p5211
aVNVDA
p5212
aVILMN
p5213
aVWYNN
p5214
aVSHW
p5215
asS'10282016'
p5216
(lp5217
VSHW
p5218
aVXEC
p5219
aVILMN
p5220
aVCAT
p5221
aVPCLN
p5222
aVSTZ
p5223
aVSWKS
p5224
aVURI
p5225
aVEQT
p5226
aVTIF
p5227
aVWYNN
p5228
aVJEC
p5229
aVFB
p5230
aVNVDA
p5231
aVSNA
p5232
aVAXP
p5233
asS'02212013'
p5234
(lp5235
VHOT
p5236
aVUTX
p5237
aVHP
p5238
aVJEC
p5239
aVTSO
p5240
aVPRGO
p5241
aVAAPL
p5242
asS'05022013'
p5243
(lp5244
VMNST
p5245
aVROK
p5246
aVALXN
p5247
aVBIIB
p5248
aVSPGI
p5249
aVHOT
p5250
aVVRTX
p5251
aVREGN
p5252
asS'05312016'
p5253
(lp5254
VROP
p5255
aVSIG
p5256
aVSHW
p5257
aVXEC
p5258
aVXOM
p5259
aVPSA
p5260
aVVMC
p5261
aVEMR
p5262
aVGPC
p5263
aVAET
p5264
aVADBE
p5265
aVTSO
p5266
aVORLY
p5267
asS'01232015'
p5268
(lp5269
VAXP
p5270
aVHCA
p5271
aVKSU
p5272
aVKMX
p5273
aVBLL
p5274
aVAKAM
p5275
aVETR
p5276
aVFIS
p5277
aVMAR
p5278
aVPNW
p5279
aVKLAC
p5280
aVAMP
p5281
aVCMG
p5282
aVSWKS
p5283
asS'01232014'
p5284
(lp5285
VSNI
p5286
aVCMI
p5287
aVWHR
p5288
aVANTM
p5289
aVAMP
p5290
aVSPGI
p5291
aVTMO
p5292
aVFB
p5293
aVTRIP
p5294
aVFIS
p5295
aVULTA
p5296
aVCMCSA
p5297
aVA
aVBA
p5298
aVACN
p5299
aVILMN
p5300
asS'01232017'
p5301
(lp5302
VCVX
p5303
aVOKE
p5304
aVLNC
p5305
aVAXP
p5306
aVCTSH
p5307
aVLVLT
p5308
aVAME
p5309
aVFMC
p5310
aVMLM
p5311
aVKSU
p5312
asS'05312013'
p5313
(lp5314
VDIS
p5315
aVILMN
p5316
aVSIG
p5317
aVMNST
p5318
aVURI
p5319
aVSPGI
p5320
aVVMC
p5321
aVHOT
p5322
aVHRS
p5323
aVUHS
p5324
aVUNH
p5325
aVTMO
p5326
aVAAPL
p5327
aVJEC
p5328
asS'09092016'
p5329
(lp5330
VAYI
p5331
aVILMN
p5332
aVSWKS
p5333
aVHES
p5334
aVTIF
p5335
aVNVDA
p5336
aVDOV
p5337
aVSNA
p5338
aVTSN
p5339
aVURI
p5340
aVQRVO
p5341
aVCAT
p5342
aVLEG
p5343
aVTRIP
p5344
aVPSA
p5345
aVWYNN
p5346
asS'12282016'
p5347
(lp5348
VAMP
p5349
aVTIF
p5350
aVJEC
p5351
aVLNC
p5352
aVUAL
p5353
aVCAT
p5354
aVPFG
p5355
aVDOV
p5356
aVJPM
p5357
aVAXP
p5358
aVVMC
p5359
aVKSU
p5360
aVSWKS
p5361
aVSTZ
p5362
asS'12192013'
p5363
(lp5364
VULTA
p5365
aVTSO
p5366
aVGILD
p5367
aVHAS
p5368
aVWBA
p5369
aVKSS
p5370
aVROST
p5371
aVFIS
p5372
aVIR
p5373
aVILMN
p5374
aVA
aVADS
p5375
aVFB
p5376
asS'07302014'
p5377
(lp5378
VILMN
p5379
aVHOT
p5380
aVAVGO
p5381
aVGOOG
p5382
aVGOOGL
p5383
aVTIF
p5384
aVPRGO
p5385
aVBLL
p5386
aVBWA
p5387
aVECL
p5388
aVEW
p5389
asS'07302013'
p5390
(lp5391
VMTB
p5392
aVHP
p5393
aVAPC
p5394
aVSTT
p5395
aVPRU
p5396
aVDLTR
p5397
aVPCAR
p5398
aVMON
p5399
aVCBS
p5400
aVHOT
p5401
aVCOL
p5402
aVUNH
p5403
aVUHS
p5404
aVILMN
p5405
aVWHR
p5406
asS'07282014'
p5407
(lp5408
VILMN
p5409
aVHOT
p5410
aVAVGO
p5411
aVEW
p5412
aVCRM
p5413
aVPVH
p5414
aVUHS
p5415
asS'02202014'
p5416
(lp5417
VCMCSA
p5418
aVWDC
p5419
aVCRM
p5420
aVIR
p5421
aVFIS
p5422
aVETN
p5423
aVACN
p5424
aVFB
p5425
aVILMN
p5426
aVHP
p5427
aVWBA
p5428
aVSNI
p5429
aVAAPL
p5430
aVADS
p5431
aVPCLN
p5432
asS'07282016'
p5433
(lp5434
VSHW
p5435
aVPSA
p5436
aVHES
p5437
aVAPA
p5438
aVAYI
p5439
aVWBA
p5440
aVAWK
p5441
aVALB
p5442
aVPPG
p5443
aVCRM
p5444
aVAN
p5445
aVNVDA
p5446
aVAXP
p5447
aVRHT
p5448
aVLYB
p5449
aVFIS
p5450
aVHAR
p5451
aVURI
p5452
asS'01022014'
p5453
(lp5454
VNFLX
p5455
aVTRIP
p5456
aVA
aVFB
p5457
aVWBA
p5458
aVNKE
p5459
aVFSLR
p5460
aVGILD
p5461
aVFIS
p5462
aVCTAS
p5463
aVAGN
p5464
aVROST
p5465
aVILMN
p5466
aVMMM
p5467
aVBLK
p5468
aVULTA
p5469
asS'02202013'
p5470
(lp5471
VHOT
p5472
aVUTX
p5473
aVLLY
p5474
aVURI
p5475
aVHP
p5476
aVTSO
p5477
aVAAPL
p5478
asS'04152014'
p5479
(lp5480
VAAPL
p5481
aVAMZN
p5482
aVAGN
p5483
aVPRGO
p5484
aVILMN
p5485
aVMCK
p5486
aVAVGO
p5487
aVANTM
p5488
aVTSCO
p5489
aVCTXS
p5490
aVXEC
p5491
aVSJM
p5492
aVSNI
p5493
aVFIS
p5494
aVHON
p5495
aVBA
p5496
aVIR
p5497
aVITW
p5498
asS'10312013'
p5499
(lp5500
VREGN
p5501
aVWYNN
p5502
aVEOG
p5503
aVA
aVWBA
p5504
aVNUE
p5505
aVROST
p5506
aVKSS
p5507
aVALK
p5508
aVAGN
p5509
asS'11162016'
p5510
(lp5511
VFB
p5512
aVWYNN
p5513
aVQCOM
p5514
aVSWKS
p5515
aVQRVO
p5516
aVPX
p5517
aVPVH
p5518
aVBA
p5519
aVC
aVDOV
p5520
aVAXP
p5521
aVEQT
p5522
aVMSI
p5523
aVILMN
p5524
aVLNC
p5525
aVSNA
p5526
aVROP
p5527
aVPH
p5528
aVNVDA
p5529
aVURI
p5530
aVAMP
p5531
asS'11162015'
p5532
(lp5533
VGD
p5534
aVFISV
p5535
asS'01092015'
p5536
(lp5537
VXEC
p5538
aVKSU
p5539
aVWDC
p5540
aVLNC
p5541
aVAXP
p5542
aVCOP
p5543
aVAKAM
p5544
aVMET
p5545
aVSWKS
p5546
aVETR
p5547
aVAIG
p5548
aVAAL
p5549
aVHCA
p5550
aVLLL
p5551
aVHP
p5552
aVCELG
p5553
aVCMG
p5554
asS'08222014'
p5555
(lp5556
VCMG
p5557
aVBMY
p5558
aVUNH
p5559
aVBF-B
p5560
aVILMN
p5561
aVNFLX
p5562
asS'08122013'
p5563
(lp5564
VMTB
p5565
aVCOF
p5566
aVILMN
p5567
aVPRU
p5568
aVSTT
p5569
aVURI
p5570
aVUNH
p5571
aVANTM
p5572
aVAPC
p5573
aVJEC
p5574
aVEMR
p5575
aVCTXS
p5576
aVHP
p5577
aVCMI
p5578
asS'08122014'
p5579
(lp5580
VCMG
p5581
aVWYNN
p5582
aVXEC
p5583
aVWDC
p5584
aVILMN
p5585
aVBWA
p5586
aVIR
p5587
aVAVGO
p5588
aVBLL
p5589
aVCRM
p5590
aVUHS
p5591
aVULTA
p5592
aVEW
p5593
aVMPC
p5594
asS'08122015'
p5595
(lp5596
VTMO
p5597
aVLLL
p5598
aVPRGO
p5599
aVTSCO
p5600
aVNOC
p5601
aVKSS
p5602
aVTXN
p5603
aVADI
p5604
aVDLPH
p5605
aVFIS
p5606
aVEQT
p5607
aVHUM
p5608
aVHAR
p5609
asS'08222013'
p5610
(lp5611
VCOF
p5612
aVMNST
p5613
aVGPC
p5614
aVUHS
p5615
aVWYN
p5616
aVDLPH
p5617
aVEMR
p5618
aVILMN
p5619
aVAIZ
p5620
aVSTZ
p5621
asS'01082014'
p5622
(lp5623
VNFLX
p5624
aVADS
p5625
aVWHR
p5626
aVNKE
p5627
aVFIS
p5628
aVECL
p5629
aVAMP
p5630
aVWDC
p5631
aVCMI
p5632
aVFB
p5633
aVLMT
p5634
aVSPGI
p5635
aVROST
p5636
aVUTX
p5637
aVTRIP
p5638
aVILMN
p5639
aVTMO
p5640
aVAGN
p5641
aVULTA
p5642
asS'01082015'
p5643
(lp5644
VWDC
p5645
aVKSU
p5646
aVSWKS
p5647
aVLNC
p5648
aVAXP
p5649
aVAKAM
p5650
aVMET
p5651
aVETR
p5652
aVHCA
p5653
aVAIG
p5654
aVAAL
p5655
aVCMG
p5656
asS'01082016'
p5657
(lp5658
VREGN
p5659
aVAAPL
p5660
aVADI
p5661
aVFISV
p5662
aVAET
p5663
aVTSO
p5664
aVED
p5665
asS'10172013'
p5666
(lp5667
VREGN
p5668
aVEQIX
p5669
aVA
aVAGN
p5670
aVGPC
p5671
aVUHS
p5672
aVWBA
p5673
aVHOT
p5674
aVILMN
p5675
aVJEC
p5676
aVWYN
p5677
aVRRC
p5678
asS'07082016'
p5679
(lp5680
VWYNN
p5681
aVRHT
p5682
aVDD
p5683
aVURI
p5684
aVEQT
p5685
aVWBA
p5686
aVPXD
p5687
aVADBE
p5688
aVEMR
p5689
aVKSU
p5690
aVDLR
p5691
aVFISV
p5692
aVGS
p5693
aVSHW
p5694
aVPCLN
p5695
asS'09052014'
p5696
(lp5697
VWYNN
p5698
aVEW
p5699
aVCXO
p5700
asS'09292015'
p5701
(lp5702
VCNC
p5703
aVAVY
p5704
aVNFLX
p5705
asS'09292014'
p5706
(lp5707
VNFLX
p5708
aVCMG
p5709
aVAYI
p5710
aVAVGO
p5711
aVTIF
p5712
aVAMP
p5713
aVMAR
p5714
aVMET
p5715
aVGRMN
p5716
asS'06142013'
p5717
(lp5718
VGOOG
p5719
aVGOOGL
p5720
aVAAPL
p5721
aVILMN
p5722
aVTMO
p5723
aVAPC
p5724
aVHOT
p5725
aVEBAY
p5726
aVKSS
p5727
aVSPGI
p5728
aVVMC
p5729
aVUNH
p5730
aVUHS
p5731
aVAZO
p5732
aVMNST
p5733
asS'09052013'
p5734
(lp5735
VEMN
p5736
aVCOF
p5737
aVEMR
p5738
aVLLY
p5739
aVGPC
p5740
aVHP
p5741
aVTRIP
p5742
aVESRX
p5743
aVDG
p5744
aVAGN
p5745
aVEQIX
p5746
asS'09192013'
p5747
(lp5748
VDG
p5749
aVRRC
p5750
aVWYN
p5751
aVGPC
p5752
aVIFF
p5753
aVCMI
p5754
aVUHS
p5755
aVEOG
p5756
asS'04142016'
p5757
(lp5758
VWBA
p5759
aVFISV
p5760
aVGPC
p5761
aVAPD
p5762
aVADBE
p5763
aVALK
p5764
aVSCG
p5765
aVHON
p5766
aVXOM
p5767
aVAPA
p5768
aVJPM
p5769
aVKSU
p5770
aVOXY
p5771
aVCELG
p5772
asS'06162016'
p5773
(lp5774
VXEC
p5775
aVSIG
p5776
aVR
aVFB
p5777
aVURI
p5778
aVKSU
p5779
aVAPA
p5780
aVVRTX
p5781
aVADBE
p5782
aVDD
p5783
aVSHW
p5784
aVOXY
p5785
aVRHT
p5786
aVFISV
p5787
aVEQT
p5788
aVEMR
p5789
aVXOM
p5790
aVWYNN
p5791
asS'04142014'
p5792
(lp5793
VAMZN
p5794
aVAGN
p5795
aVAAPL
p5796
aVBLK
p5797
aVPRGO
p5798
aVILMN
p5799
aVMCK
p5800
aVANTM
p5801
aVXEC
p5802
aVBDX
p5803
aVTSCO
p5804
aVETN
p5805
aVSJM
p5806
aVFIS
p5807
aVHON
p5808
aVSNI
p5809
aVIR
p5810
aVBA
p5811
aVYUM
p5812
asS'04142015'
p5813
(lp5814
VTSO
p5815
aVSWKS
p5816
aVALLE
p5817
aVVRSN
p5818
aVADBE
p5819
asS'09132013'
p5820
(lp5821
VEMR
p5822
aVUHS
p5823
aVDLR
p5824
aVGPC
p5825
asS'06172013'
p5826
(lp5827
VGOOG
p5828
aVGOOGL
p5829
aVILMN
p5830
aVTMO
p5831
aVHOT
p5832
aVAPC
p5833
aVGS
p5834
aVEBAY
p5835
aVUHS
p5836
aVMNST
p5837
asS'10172014'
p5838
(lp5839
VAKAM
p5840
aVHUM
p5841
asS'08092016'
p5842
(lp5843
VPSA
p5844
aVTRIP
p5845
aVAWK
p5846
aVEQT
p5847
aVDOW
p5848
aVWBA
p5849
aVURI
p5850
aVNVDA
p5851
aVVRSN
p5852
aVADBE
p5853
aVWYNN
p5854
aVHAR
p5855
asS'07112014'
p5856
(lp5857
VTRIP
p5858
aVILMN
p5859
aVUHS
p5860
aVCRM
p5861
aVMET
p5862
aVBA
p5863
aVBDX
p5864
aVEW
p5865
aVWDC
p5866
asS'09212016'
p5867
(lp5868
VURI
p5869
aVDLR
p5870
aVDOV
p5871
aVSHW
p5872
aVTIF
p5873
aVNVDA
p5874
aVSNA
p5875
aVPSA
p5876
aVILMN
p5877
aVPCLN
p5878
asS'09212015'
p5879
(lp5880
VABBV
p5881
aVFISV
p5882
aVNFLX
p5883
asS'10032014'
p5884
(lp5885
VAVGO
p5886
aVXEC
p5887
aVAMP
p5888
aVMAR
p5889
aVNFLX
p5890
aVMET
p5891
aVPNW
p5892
aVSTZ
p5893
aVGRMN
p5894
aVAYI
p5895
asS'07192016'
p5896
(lp5897
VHES
p5898
aVRHT
p5899
aVXEC
p5900
aVSLB
p5901
aVLEG
p5902
aVFIS
p5903
aVURI
p5904
aVWYNN
p5905
aVDD
p5906
aVEMR
p5907
aVAXP
p5908
aVHAR
p5909
aVSIG
p5910
asS'07112013'
p5911
(lp5912
VUHS
p5913
aVILMN
p5914
aVUNH
p5915
aVPRU
p5916
aVHOT
p5917
aVAPC
p5918
asS'08062013'
p5919
(lp5920
VMTB
p5921
aVILMN
p5922
aVCOF
p5923
aVMNST
p5924
aVUNH
p5925
aVGPC
p5926
aVPRU
p5927
aVDOV
p5928
aVHOT
p5929
aVCTXS
p5930
aVCMI
p5931
asS'11302015'
p5932
(lp5933
VFISV
p5934
aVTSO
p5935
aVMET
p5936
aVULTA
p5937
aVALK
p5938
aVEFX
p5939
aVEW
p5940
asS'09192014'
p5941
(lp5942
VCMG
p5943
aVILMN
p5944
aVXEC
p5945
aVCI
p5946
aVGOOGL
p5947
aVGOOG
p5948
asS'09302014'
p5949
(lp5950
VAYI
p5951
aVAVGO
p5952
aVAMP
p5953
aVMAR
p5954
aVPNW
p5955
aVMET
p5956
aVHOT
p5957
aVGRMN
p5958
asS'06272013'
p5959
(lp5960
VGS
p5961
aVTRIP
p5962
aVUHS
p5963
aVHOT
p5964
aVBA
p5965
aVMNST
p5966
aVSPGI
p5967
aVTMO
p5968
aVAPC
p5969
aVCOF
p5970
aVSIG
p5971
aVDG
p5972
aVILMN
p5973
asS'06272016'
p5974
(lp5975
VPCLN
p5976
aVWYNN
p5977
aVPXD
p5978
aVADBE
p5979
aVRHT
p5980
aVXEC
p5981
aVCOL
p5982
aVAPA
p5983
aVVRSN
p5984
aVCME
p5985
aVWBA
p5986
aVEQT
p5987
aVCPB
p5988
aVMKC
p5989
aVORLY
p5990
asS'12272013'
p5991
(lp5992
VNFLX
p5993
aVTRIP
p5994
aVNKE
p5995
aVAGN
p5996
aVCELG
p5997
aVWBA
p5998
aVA
aVFIS
p5999
aVGILD
p6000
aVDFS
p6001
aVROST
p6002
aVCTAS
p6003
aVULTA
p6004
aVFB
p6005
aVWHR
p6006
aVILMN
p6007
aVIR
p6008
aVLMT
p6009
aVMMM
p6010
asS'06272014'
p6011
(lp6012
VBA
p6013
aVILMN
p6014
aVLLL
p6015
aVUHS
p6016
aVCMG
p6017
aVKORS
p6018
aVIR
p6019
aVHCA
p6020
aVWDC
p6021
aVADP
p6022
aVTRIP
p6023
aVEW
p6024
aVGOOG
p6025
asS'08072013'
p6026
(lp6027
VMTB
p6028
aVILMN
p6029
aVMNST
p6030
aVUNH
p6031
aVGPC
p6032
aVPSA
p6033
aVR
aVWHR
p6034
aVCTXS
p6035
asS'08072014'
p6036
(lp6037
VILMN
p6038
aVWYNN
p6039
aVHBI
p6040
aVAVGO
p6041
aVTIF
p6042
aVBLL
p6043
aVWDC
p6044
aVULTA
p6045
aVEW
p6046
aVMPC
p6047
asS'08072015'
p6048
(lp6049
VTMO
p6050
aVABBV
p6051
aVRHT
p6052
aVKSS
p6053
aVPVH
p6054
aVPRGO
p6055
aVEQT
p6056
aVTXN
p6057
aVCHRW
p6058
aVDLPH
p6059
asS'09172013'
p6060
(lp6061
VTRIP
p6062
aVKSS
p6063
aVIFF
p6064
aVRRC
p6065
aVGPC
p6066
aVDLR
p6067
aVUHS
p6068
aVCMI
p6069
aVEQIX
p6070
asS'05252016'
p6071
(lp6072
VPCLN
p6073
aVPSA
p6074
aVOXY
p6075
aVDLPH
p6076
aVORLY
p6077
aVXOM
p6078
aVGPC
p6079
aVHON
p6080
aVEXR
p6081
aVMKC
p6082
aVXEC
p6083
aVVMC
p6084
aVBLK
p6085
aVTSO
p6086
aVCME
p6087
aVSIG
p6088
asS'05272016'
p6089
(lp6090
VSIG
p6091
aVSHW
p6092
aVPSA
p6093
aVXOM
p6094
aVJEC
p6095
aVXEC
p6096
aVVMC
p6097
aVGPC
p6098
aVAET
p6099
aVTSO
p6100
aVADBE
p6101
aVCME
p6102
aVWYNN
p6103
aVPCLN
p6104
asS'07062016'
p6105
(lp6106
VPCLN
p6107
aVWYNN
p6108
aVURI
p6109
aVRHT
p6110
aVDD
p6111
aVPXD
p6112
aVEQT
p6113
aVCOL
p6114
aVWBA
p6115
aVADBE
p6116
aVSLB
p6117
aVDLR
p6118
asS'03252015'
p6119
(lp6120
VADBE
p6121
aVTDG
p6122
aVC
aVNDAQ
p6123
aVMET
p6124
aVVRSN
p6125
aVAVY
p6126
aVLB
p6127
aVSWKS
p6128
aVEXPE
p6129
asS'03252014'
p6130
(lp6131
VTRIP
p6132
aVPRGO
p6133
aVMCK
p6134
aVSNI
p6135
aVCAH
p6136
aVBDX
p6137
aVCOL
p6138
aVFIS
p6139
aVEW
p6140
aVWYN
p6141
aVSJM
p6142
aVIR
p6143
aVETN
p6144
asS'03252013'
p6145
(lp6146
VWHR
p6147
aVMLM
p6148
aVHOT
p6149
aVDIS
p6150
aVUHS
p6151
asS'05062016'
p6152
(lp6153
VPCLN
p6154
aVAYI
p6155
aVTSO
p6156
aVORLY
p6157
aVVLO
p6158
aVROP
p6159
aVPRU
p6160
aVAPA
p6161
aVADBE
p6162
aVHON
p6163
aVXEC
p6164
aVADSK
p6165
aVSIG
p6166
aVR
aVOXY
p6167
aVALB
p6168
aVXOM
p6169
aVFISV
p6170
aVSPG
p6171
aVESS
p6172
asS'02062014'
p6173
(lp6174
VAAPL
p6175
aVPH
p6176
aVPRGO
p6177
aVETN
p6178
aVAMP
p6179
aVACN
p6180
aVADS
p6181
aVA
aVEQIX
p6182
aVIR
p6183
aVHP
p6184
aVCNC
p6185
aVWBA
p6186
aVSNI
p6187
aVANTM
p6188
aVILMN
p6189
aVEQT
p6190
aVESS
p6191
aVNFLX
p6192
asS'05062014'
p6193
(lp6194
VXEC
p6195
aVETN
p6196
aVHON
p6197
aVAIG
p6198
aVFMC
p6199
aVMCK
p6200
aVBDX
p6201
aVBA
p6202
aVILMN
p6203
aVUHS
p6204
asS'05062015'
p6205
(lp6206
VHCA
p6207
aVCMCSA
p6208
aVSWKS
p6209
aVSTJ
p6210
aVLNC
p6211
asS'05062013'
p6212
(lp6213
VMNST
p6214
aVHOT
p6215
aVURI
p6216
aVWYNN
p6217
asS'11212014'
p6218
(lp6219
VILMN
p6220
aVGPN
p6221
aVAYI
p6222
aVSTT
p6223
aVPCG
p6224
aVBLL
p6225
aVPH
p6226
aVAMP
p6227
aVNFLX
p6228
aVLNC
p6229
aVHOG
p6230
aVSTX
p6231
aVWYN
p6232
aVDOV
p6233
aVAKAM
p6234
aVLOW
p6235
aVXEC
p6236
asS'01062016'
p6237
(lp6238
VREGN
p6239
aVENDP
p6240
aVFISV
p6241
aVADI
p6242
aVED
p6243
aVQCOM
p6244
aVTSO
p6245
asS'11212016'
p6246
(lp6247
VBA
p6248
aVTIF
p6249
aVPFG
p6250
aVSWKS
p6251
aVQRVO
p6252
aVMSI
p6253
aVDOV
p6254
aVCAT
p6255
aVCMA
p6256
aVROK
p6257
aVSNA
p6258
aVLNC
p6259
aVPH
p6260
aVUAL
p6261
aVILMN
p6262
aVURI
p6263
aVNVDA
p6264
aVSHW
p6265
asS'04012016'
p6266
(lp6267
VPCLN
p6268
aVSHW
p6269
aVAYI
p6270
aVKSU
p6271
aVOXY
p6272
aVAET
p6273
aVXRAY
p6274
aVGPC
p6275
aVTXN
p6276
aVHSY
p6277
aVAEP
p6278
aVFISV
p6279
aVSPG
p6280
aVADBE
p6281
asS'11212013'
p6282
(lp6283
VWYNN
p6284
aVKSS
p6285
aVWBA
p6286
aVSTJ
p6287
aVLNT
p6288
aVWHR
p6289
aVA
aVTSO
p6290
asS'12232013'
p6291
(lp6292
VULTA
p6293
aVECL
p6294
aVKSS
p6295
aVFIS
p6296
aVA
aVROST
p6297
aVILMN
p6298
aVLMT
p6299
aVADS
p6300
aVIR
p6301
aVNFLX
p6302
aVFB
p6303
aVMMM
p6304
asS'12232015'
p6305
(lp6306
VREGN
p6307
aVAAPL
p6308
aVADI
p6309
asS'12232014'
p6310
(lp6311
VHOG
p6312
aVMET
p6313
aVBBBY
p6314
aVAMP
p6315
aVLNC
p6316
aVSTX
p6317
aVR
aVSWKS
p6318
aVHON
p6319
aVMNK
p6320
aVKLAC
p6321
aVWDC
p6322
aVKMX
p6323
aVKSU
p6324
aVCMG
p6325
asS'12232016'
p6326
(lp6327
VKSS
p6328
aVAMP
p6329
aVTIF
p6330
aVEQT
p6331
aVJEC
p6332
aVLNC
p6333
aVCAT
p6334
aVUAL
p6335
aVPFG
p6336
aVDOV
p6337
aVJPM
p6338
aVBA
p6339
aVAXP
p6340
aVDD
p6341
aVKSU
p6342
aVSTZ
p6343
aVPSA
p6344
aVSWKS
p6345
aVILMN
p6346
aVNVDA
p6347
asS'01032017'
p6348
(lp6349
VFDX
p6350
aVGWW
p6351
aVUAL
p6352
aVKSS
p6353
aVTIF
p6354
aVLNC
p6355
aVCMA
p6356
aVJEC
p6357
aVJPM
p6358
aVCVX
p6359
aVKSU
p6360
aVDOV
p6361
aVPFG
p6362
aVAXP
p6363
aVSWKS
p6364
aVPNR
p6365
asS'01032014'
p6366
(lp6367
VNFLX
p6368
aVTRIP
p6369
aVFB
p6370
aVA
aVWBA
p6371
aVFIS
p6372
aVHAS
p6373
aVILMN
p6374
aVAGN
p6375
aVMMM
p6376
aVBLK
p6377
aVIR
p6378
aVULTA
p6379
asS'04262016'
p6380
(lp6381
VALK
p6382
aVAYI
p6383
aVSCG
p6384
aVXRAY
p6385
aVCME
p6386
aVXOM
p6387
aVCELG
p6388
aVPCLN
p6389
aVKSU
p6390
asS'05172016'
p6391
(lp6392
VPCLN
p6393
aVKSU
p6394
aVAYI
p6395
aVDLPH
p6396
aVR
aVCBS
p6397
aVGPC
p6398
aVSIG
p6399
aVSHW
p6400
aVOXY
p6401
aVTSO
p6402
aVESS
p6403
aVXOM
p6404
aVXRAY
p6405
aVXEC
p6406
aVMKC
p6407
aVALB
p6408
asS'04292015'
p6409
(lp6410
VSWKS
p6411
aVCERN
p6412
aVAMP
p6413
aVLNC
p6414
aVEQT
p6415
aVAAL
p6416
aVSTJ
p6417
asS'11202015'
p6418
(lp6419
VPCLN
p6420
aVEA
p6421
aVFISV
p6422
aVMET
p6423
aVALK
p6424
asS'11202014'
p6425
(lp6426
VCMI
p6427
aVAYI
p6428
aVGPN
p6429
aVSTT
p6430
aVPCG
p6431
aVADBE
p6432
aVLNC
p6433
aVAMP
p6434
aVWYN
p6435
aVSTX
p6436
aVHOG
p6437
aVAKAM
p6438
aVNFLX
p6439
aVXEC
p6440
asS'12092016'
p6441
(lp6442
VNVDA
p6443
aVAYI
p6444
aVILMN
p6445
aVJEC
p6446
aVPH
p6447
aVLNC
p6448
aVR
aVAMP
p6449
aVAXP
p6450
aVUAL
p6451
aVSWKS
p6452
aVSNA
p6453
aVSHW
p6454
aVADS
p6455
aVTIF
p6456
aVCMA
p6457
aVDOV
p6458
aVEQT
p6459
asS'07132016'
p6460
(lp6461
VEQT
p6462
aVWBA
p6463
aVRHT
p6464
aVXRAY
p6465
aVDD
p6466
aVWYNN
p6467
aVMDT
p6468
aVCOL
p6469
aVURI
p6470
aVHAR
p6471
aVPSA
p6472
aVPCLN
p6473
asS'11202013'
p6474
(lp6475
VWYNN
p6476
aVKSS
p6477
aVWBA
p6478
aVNUE
p6479
aVSTJ
p6480
aVA
aVTSO
p6481
asS'07132015'
p6482
(lp6483
VCNC
p6484
aVFFIV
p6485
aVGS
p6486
aVADI
p6487
aVADBE
p6488
aVAXP
p6489
aVAIG
p6490
aVGPN
p6491
aVFIS
p6492
aVAKAM
p6493
aVCHRW
p6494
aVR
aVTSO
p6495
asS'09252013'
p6496
(lp6497
VGILD
p6498
aVHOT
p6499
aVCMI
p6500
aVGPC
p6501
aVUHS
p6502
aVEQIX
p6503
asS'04042013'
p6504
(lp6505
VRRC
p6506
aVMLM
p6507
aVHOG
p6508
aVJEC
p6509
aVFLR
p6510
aVFTI
p6511
aVUHS
p6512
aVHOT
p6513
aVWYNN
p6514
aVROK
p6515
aVSPGI
p6516
asS'09252015'
p6517
(lp6518
VHUM
p6519
aVAVY
p6520
aVNFLX
p6521
asS'09252014'
p6522
(lp6523
VCMG
p6524
aVAVGO
p6525
aVAYI
p6526
aVAMP
p6527
aVMET
p6528
asS'10272016'
p6529
(lp6530
VILMN
p6531
aVPCLN
p6532
aVAMP
p6533
aVCAT
p6534
aVSTZ
p6535
aVEQT
p6536
aVSWKS
p6537
aVURI
p6538
aVTIF
p6539
aVUAL
p6540
aVTEL
p6541
aVWYNN
p6542
aVJEC
p6543
aVFB
p6544
aVAPD
p6545
aVSNA
p6546
aVAXP
p6547
asS'11152013'
p6548
(lp6549
VEOG
p6550
aVREGN
p6551
aVILMN
p6552
aVSJM
p6553
aVHOT
p6554
aVWBA
p6555
aVNUE
p6556
aVWYN
p6557
aVA
aVTRIP
p6558
aVAGN
p6559
asS'08212013'
p6560
(lp6561
VMNST
p6562
aVCOF
p6563
aVGPC
p6564
aVTMO
p6565
aVILMN
p6566
aVANTM
p6567
aVUHS
p6568
aVEMR
p6569
aVDLPH
p6570
aVAPC
p6571
asS'11152016'
p6572
(lp6573
VADBE
p6574
aVWYNN
p6575
aVV
aVQCOM
p6576
aVSWKS
p6577
aVXEC
p6578
aVQRVO
p6579
aVTIF
p6580
aVBA
p6581
aVC
aVAXP
p6582
aVDOV
p6583
aVCMA
p6584
aVMSI
p6585
aVILMN
p6586
aVCAT
p6587
aVLNC
p6588
aVSNA
p6589
aVNVDA
p6590
aVPH
p6591
aVURI
p6592
aVAMP
p6593
asS'10262015'
p6594
(lp6595
VSTJ
p6596
aVSTZ
p6597
aVNFLX
p6598
aVTSS
p6599
aVVNO
p6600
aVPCLN
p6601
asS'08302013'
p6602
(lp6603
VAGN
p6604
aVMNST
p6605
aVEMR
p6606
aVLLY
p6607
aVWYN
p6608
aVDLPH
p6609
aVSTZ
p6610
aVDG
p6611
aVKSS
p6612
aVMPC
p6613
asS'05232016'
p6614
(lp6615
VESS
p6616
aVPSA
p6617
aVAYI
p6618
aVDLPH
p6619
aVADSK
p6620
aVGPC
p6621
aVR
aVHON
p6622
aVVMC
p6623
aVEXR
p6624
aVXOM
p6625
aVMKC
p6626
aVADBE
p6627
aVXEC
p6628
aVTSO
p6629
aVSIG
p6630
asS'12082014'
p6631
(lp6632
VAMZN
p6633
aVXEC
p6634
aVKLAC
p6635
aVILMN
p6636
aVHOG
p6637
aVLNC
p6638
aVSTX
p6639
aVMAR
p6640
aVADBE
p6641
aVTIF
p6642
aVBWA
p6643
aVNFLX
p6644
aVLOW
p6645
aVSWKS
p6646
asS'12082015'
p6647
(lp6648
VWHR
p6649
aVEW
p6650
aVFISV
p6651
aVABC
p6652
aVEA
p6653
aVALK
p6654
asS'12082016'
p6655
(lp6656
VAYI
p6657
aVVMC
p6658
aVILMN
p6659
aVSNA
p6660
aVUAL
p6661
aVAMP
p6662
aVLNC
p6663
aVPFG
p6664
aVSWKS
p6665
aVROK
p6666
aVTEL
p6667
aVSHW
p6668
aVCMA
p6669
aVDOV
p6670
aVTIF
p6671
aVEQT
p6672
aVURI
p6673
aVAMZN
p6674
asS'03072014'
p6675
(lp6676
VESS
p6677
aVCMCSA
p6678
aVCOL
p6679
aVDGX
p6680
aVACN
p6681
aVKLAC
p6682
aVMHK
p6683
aVAVGO
p6684
aVBMY
p6685
aVETN
p6686
aVIR
p6687
aVANTM
p6688
aVDISCK
p6689
aVEW
p6690
aVECL
p6691
aVCMG
p6692
asS'03072016'
p6693
(lp6694
VTSN
p6695
aVAEP
p6696
aVMKC
p6697
aVAET
p6698
aVADBE
p6699
aVHCN
p6700
aVSHW
p6701
aVAYI
p6702
aVPCLN
p6703
asS'03122015'
p6704
(lp6705
VAYI
p6706
aVCELG
p6707
aVADBE
p6708
aVHUM
p6709
aVVRSN
p6710
aVAVY
p6711
aVAKAM
p6712
aVLNC
p6713
aVABBV
p6714
aVBBBY
p6715
aVDLR
p6716
aVMET
p6717
aVWBA
p6718
aVSWKS
p6719
aVAXP
p6720
aVCMG
p6721
asS'06282016'
p6722
(lp6723
VPCLN
p6724
aVWYNN
p6725
aVPXD
p6726
aVIBM
p6727
aVRHT
p6728
aVPPG
p6729
aVADBE
p6730
aVXEC
p6731
aVUNP
p6732
aVCOL
p6733
aVDD
p6734
aVKSU
p6735
aVEMR
p6736
aVWBA
p6737
aVCME
p6738
aVEQT
p6739
aVGPC
p6740
aVMKC
p6741
aVORLY
p6742
asS'10212014'
p6743
(lp6744
VCMG
p6745
aVA
aVSTZ
p6746
aVXEC
p6747
aVCXO
p6748
asS'06252014'
p6749
(lp6750
VBA
p6751
aVLLL
p6752
aVKORS
p6753
aVDIS
p6754
aVTRIP
p6755
aVWDC
p6756
aVUHS
p6757
aVHOT
p6758
aVPFG
p6759
aVHAS
p6760
aVEW
p6761
aVCMG
p6762
aVGOOGL
p6763
asS'06252015'
p6764
(lp6765
VKMX
p6766
aVAKAM
p6767
aVADI
p6768
aVADM
p6769
aVSTJ
p6770
aVEQT
p6771
aVFIS
p6772
aVCNC
p6773
aVHES
p6774
aVKSS
p6775
aVADBE
p6776
asS'04242015'
p6777
(lp6778
VSWKS
p6779
aVALLE
p6780
aVDPS
p6781
aVEQT
p6782
aVLNC
p6783
aVBLL
p6784
aVADBE
p6785
aVCNC
p6786
asS'06252013'
p6787
(lp6788
VGS
p6789
aVBA
p6790
aVHOT
p6791
aVUHS
p6792
aVTRIP
p6793
aVTMO
p6794
aVMNST
p6795
aVAPC
p6796
aVKSS
p6797
aVCTXS
p6798
aVEFX
p6799
aVSPGI
p6800
aVLYB
p6801
aVDG
p6802
aVUNH
p6803
aVILMN
p6804
asS'03222016'
p6805
(lp6806
VPCLN
p6807
aVHSY
p6808
aVKSU
p6809
aVAET
p6810
aVXOM
p6811
aVHCN
p6812
asS'08052015'
p6813
(lp6814
VTSO
p6815
aVAIG
p6816
aVKSS
p6817
aVCNC
p6818
aVEQT
p6819
aVTXN
p6820
aVDLPH
p6821
aVSEE
p6822
aVNOC
p6823
aVMLM
p6824
asS'09302013'
p6825
(lp6826
VGS
p6827
aVCMI
p6828
aVDG
p6829
aVHOT
p6830
aVGILD
p6831
aVWYN
p6832
aVFTI
p6833
aVABC
p6834
aVGPC
p6835
aVURI
p6836
aVFB
p6837
aVUHS
p6838
aVAGN
p6839
aVEQIX
p6840
asS'10212016'
p6841
(lp6842
VILMN
p6843
aVROP
p6844
aVEQT
p6845
aVWYNN
p6846
aVSWKS
p6847
aVNVDA
p6848
aVTIF
p6849
aVURI
p6850
aVDGX
p6851
aVJEC
p6852
aVOKE
p6853
aVMNST
p6854
aVSHW
p6855
aVSNA
p6856
asS'09302015'
p6857
(lp6858
VCNC
p6859
aVAVY
p6860
asS'03222013'
p6861
(lp6862
VMLM
p6863
aVHOT
p6864
aVCOG
p6865
asS'09302016'
p6866
(lp6867
VWYNN
p6868
aVEQT
p6869
aVSWKS
p6870
aVTIF
p6871
aVSIG
p6872
aVPH
p6873
aVILMN
p6874
aVSNA
p6875
aVNVDA
p6876
aVDOV
p6877
aVDLR
p6878
asS'03082016'
p6879
(lp6880
VOXY
p6881
aVTSN
p6882
aVMKC
p6883
aVAEP
p6884
aVXOM
p6885
aVAET
p6886
aVADBE
p6887
aVHCN
p6888
aVSHW
p6889
aVAYI
p6890
aVPCLN
p6891
asS'04172013'
p6892
(lp6893
VUHS
p6894
aVHON
p6895
aVALXN
p6896
aVEMR
p6897
aVURI
p6898
aVHOT
p6899
aVWYNN
p6900
aVBIIB
p6901
asS'04172015'
p6902
(lp6903
VHUM
p6904
aVSWKS
p6905
aVKSS
p6906
aVTSO
p6907
aVSHW
p6908
aVALLE
p6909
aVAVY
p6910
aVLNC
p6911
aVCMCSA
p6912
asS'04172014'
p6913
(lp6914
VPRGO
p6915
aVANTM
p6916
aVILMN
p6917
aVAVGO
p6918
aVALK
p6919
aVMCK
p6920
aVCTXS
p6921
aVAMZN
p6922
aVFIS
p6923
aVSNI
p6924
aVEQIX
p6925
aVHON
p6926
aVITW
p6927
aVIR
p6928
aVBA
p6929
aVMHK
p6930
asS'09142016'
p6931
(lp6932
VAYI
p6933
aVXEC
p6934
aVSHW
p6935
aVURI
p6936
aVVTR
p6937
aVDOV
p6938
aVSWKS
p6939
aVSNA
p6940
aVNVDA
p6941
aVILMN
p6942
aVJEC
p6943
aVTIF
p6944
aVPSA
p6945
aVCAT
p6946
aVQRVO
p6947
asS'02012016'
p6948
(lp6949
VREGN
p6950
aVILMN
p6951
aVGILD
p6952
aVADBE
p6953
aVTEL
p6954
aVALB
p6955
aVMKC
p6956
aVOXY
p6957
asS'02012017'
p6958
(lp6959
VCVX
p6960
aVCTSH
p6961
aVUAL
p6962
aVAXP
p6963
aVAME
p6964
aVPNR
p6965
aVLUV
p6966
aVQRVO
p6967
asS'03152016'
p6968
(lp6969
VMKC
p6970
aVXOM
p6971
aVADBE
p6972
aVHCN
p6973
aVAET
p6974
aVSHW
p6975
aVPCLN
p6976
asS'03182013'
p6977
(lp6978
VTSO
p6979
aVUTX
p6980
aVHOG
p6981
aVHOT
p6982
aVALXN
p6983
asS'03182015'
p6984
(lp6985
VMO
p6986
aVBLL
p6987
aVVRSN
p6988
aVAVY
p6989
aVAKAM
p6990
aVEXPE
p6991
aVAYI
p6992
aVBBBY
p6993
aVWBA
p6994
aVAXP
p6995
aVABBV
p6996
aVSWKS
p6997
asS'06172014'
p6998
(lp6999
VALK
p7000
aVBA
p7001
aVKORS
p7002
aVBDX
p7003
aVEW
p7004
aVDOW
p7005
aVHOT
p7006
aVMPC
p7007
aVPSX
p7008
aVUHS
p7009
aVNUE
p7010
aVHAS
p7011
aVTSCO
p7012
aVILMN
p7013
aVMET
p7014
aVGOOG
p7015
asS'03182016'
p7016
(lp7017
VXOM
p7018
aVAEP
p7019
aVAET
p7020
aVHCN
p7021
aVALK
p7022
aVADBE
p7023
aVPCLN
p7024
asS'05162014'
p7025
(lp7026
VIR
p7027
aVORLY
p7028
aVHAS
p7029
aVTSCO
p7030
aVNUE
p7031
aVBA
p7032
aVBDX
p7033
aVAVGO
p7034
asS'05162016'
p7035
(lp7036
VPCLN
p7037
aVKSU
p7038
aVAYI
p7039
aVR
aVCBS
p7040
aVPRU
p7041
aVSIG
p7042
aVTSO
p7043
aVAPA
p7044
aVOXY
p7045
aVHON
p7046
aVVNO
p7047
aVSHW
p7048
aVXOM
p7049
aVXRAY
p7050
aVXEC
p7051
aVESS
p7052
aVMKC
p7053
asS'09172014'
p7054
(lp7055
VCMG
p7056
aVILMN
p7057
aVMPC
p7058
aVXEC
p7059
aVAMP
p7060
aVMAR
p7061
aVSTZ
p7062
asS'09172015'
p7063
(lp7064
VABBV
p7065
aVAZO
p7066
aVCNC
p7067
aVHUM
p7068
aVNFLX
p7069
asS'05162013'
p7070
(lp7071
VMNST
p7072
aVSIG
p7073
aVCOG
p7074
aVSPGI
p7075
aVHOT
p7076
aVUHS
p7077
aVTMO
p7078
aVJEC
p7079
aVCBS
p7080
aVHOG
p7081
aVBIIB
p7082
aVURI
p7083
aVGS
p7084
asS'02282014'
p7085
(lp7086
VILMN
p7087
aVESS
p7088
aVMCK
p7089
aVNFLX
p7090
aVCMCSA
p7091
aVMHK
p7092
aVSPGI
p7093
aVAAPL
p7094
aVACN
p7095
aVEW
p7096
aVFIS
p7097
aVAVGO
p7098
aVIR
p7099
aVADS
p7100
aVTRIP
p7101
aVPRGO
p7102
asS'02282013'
p7103
(lp7104
VURI
p7105
aVHOT
p7106
aVUTX
p7107
aVTSO
p7108
aVAAPL
p7109
asS'03152013'
p7110
(lp7111
VTSO
p7112
aVFFIV
p7113
aVRHT
p7114
aVHOG
p7115
aVHOT
p7116
asS'11222016'
p7117
(lp7118
VTIF
p7119
aVBA
p7120
aVDD
p7121
aVPFG
p7122
aVFFIV
p7123
aVMSI
p7124
aVCVX
p7125
aVSWKS
p7126
aVKSU
p7127
aVDOV
p7128
aVC
aVROK
p7129
aVOKE
p7130
aVCAT
p7131
aVCMA
p7132
aVKMX
p7133
aVLNC
p7134
aVSNA
p7135
aVUAL
p7136
aVILMN
p7137
aVAMP
p7138
aVNVDA
p7139
asS'10132015'
p7140
(lp7141
VLRCX
p7142
aVHES
p7143
aVNFLX
p7144
asS'05192016'
p7145
(lp7146
VPCLN
p7147
aVAYI
p7148
aVPXD
p7149
aVKSU
p7150
aVCBS
p7151
aVR
aVGPC
p7152
aVHON
p7153
aVXOM
p7154
aVEXR
p7155
aVXEC
p7156
aVMKC
p7157
aVTSO
p7158
aVSIG
p7159
asS'05192014'
p7160
(lp7161
VHAS
p7162
aVIR
p7163
aVHON
p7164
aVBA
p7165
aVNUE
p7166
aVETN
p7167
aVNKE
p7168
aVECL
p7169
aVVRTX
p7170
aVTRIP
p7171
asS'05192015'
p7172
(lp7173
VMYL
p7174
aVR
aVWDC
p7175
aVMET
p7176
aVKMX
p7177
aVSTJ
p7178
aVADM
p7179
aVSWKS
p7180
aVUHS
p7181
asS'12242014'
p7182
(lp7183
VHOG
p7184
aVGPN
p7185
aVMET
p7186
aVLNC
p7187
aVSWKS
p7188
aVSTX
p7189
aVAMP
p7190
aVHON
p7191
aVMNK
p7192
aVWDC
p7193
aVKLAC
p7194
aVKMX
p7195
asS'10252016'
p7196
(lp7197
VILMN
p7198
aVEQT
p7199
aVCAT
p7200
aVPCLN
p7201
aVRCL
p7202
aVAMP
p7203
aVSWKS
p7204
aVSTZ
p7205
aVOKE
p7206
aVCLX
p7207
aVTEL
p7208
aVTIF
p7209
aVWYNN
p7210
aVJEC
p7211
aVUAL
p7212
aVPSA
p7213
aVNVDA
p7214
aVSNA
p7215
asS'10252013'
p7216
(lp7217
VA
aVFB
p7218
aVDO
p7219
aVUHS
p7220
aVLRCX
p7221
aVIFF
p7222
aVDG
p7223
aVROST
p7224
aVNUE
p7225
aVDRI
p7226
aVAGN
p7227
aVALK
p7228
aVWYN
p7229
aVWHR
p7230
aVKSU
p7231
asS'10192015'
p7232
(lp7233
VLRCX
p7234
aVNFLX
p7235
asS'03102015'
p7236
(lp7237
VCMG
p7238
aVCELG
p7239
aVADBE
p7240
aVAKAM
p7241
aVAVY
p7242
aVVRSN
p7243
aVBBBY
p7244
aVLNC
p7245
aVDLR
p7246
aVMET
p7247
aVAXP
p7248
aVWBA
p7249
aVSWKS
p7250
asS'07072014'
p7251
(lp7252
VLLL
p7253
aVUHS
p7254
aVBA
p7255
aVTRIP
p7256
aVACN
p7257
aVTSCO
p7258
aVCXO
p7259
aVCRM
p7260
aVILMN
p7261
aVM
aVEW
p7262
aVGOOG
p7263
aVGOOGL
p7264
asS'03102016'
p7265
(lp7266
VTSN
p7267
aVMKC
p7268
aVXOM
p7269
aVAEP
p7270
aVADBE
p7271
aVSHW
p7272
aVPCLN
p7273
asS'08252016'
p7274
(lp7275
VWYNN
p7276
aVSHW
p7277
aVILMN
p7278
aVAYI
p7279
aVNVDA
p7280
aVTSN
p7281
aVDOV
p7282
aVURI
p7283
aVAMP
p7284
aVPSA
p7285
aVBHI
p7286
aVHES
p7287
aVGPN
p7288
asS'11062014'
p7289
(lp7290
VHCN
p7291
aVKSU
p7292
aVHOG
p7293
aVGPN
p7294
aVTIF
p7295
aVDOV
p7296
aVMAR
p7297
aVXEC
p7298
aVAMP
p7299
aVPH
p7300
asS'09262014'
p7301
(lp7302
VCMG
p7303
aVGOOGL
p7304
aVAYI
p7305
aVAMP
p7306
aVMAR
p7307
asS'06212013'
p7308
(lp7309
VGS
p7310
aVHOT
p7311
aVTRIP
p7312
aVTMO
p7313
aVUHS
p7314
aVMNST
p7315
aVILMN
p7316
aVSIG
p7317
aVCTXS
p7318
aVCNC
p7319
aVUNH
p7320
asS'11062013'
p7321
(lp7322
VREGN
p7323
aVWYNN
p7324
aVEOG
p7325
aVEQT
p7326
aVDG
p7327
aVWBA
p7328
aVWYN
p7329
aVROST
p7330
aVNUE
p7331
aVKSS
p7332
aVAGN
p7333
asS'01252017'
p7334
(lp7335
VNVDA
p7336
aVOKE
p7337
aVCVX
p7338
aVAXP
p7339
aVCTSH
p7340
aVLNC
p7341
aVOMC
p7342
aVAME
p7343
aVBA
p7344
aVPNR
p7345
aVKSU
p7346
asS'11022016'
p7347
(lp7348
VXEC
p7349
aVCAT
p7350
aVSTZ
p7351
aVURI
p7352
aVSWKS
p7353
aVILMN
p7354
aVNVDA
p7355
aVEQT
p7356
aVUAL
p7357
aVJEC
p7358
aVTEL
p7359
aVWYNN
p7360
aVAXP
p7361
aVAPD
p7362
asS'10022015'
p7363
(lp7364
VAVY
p7365
aVDLPH
p7366
aVNFLX
p7367
asS'02122016'
p7368
(lp7369
VREGN
p7370
aVILMN
p7371
aVADBE
p7372
aVAEP
p7373
aVED
p7374
aVGILD
p7375
asS'02122014'
p7376
(lp7377
VETN
p7378
aVACN
p7379
aVHP
p7380
aVIR
p7381
aVANTM
p7382
aVA
aVILMN
p7383
aVVIAB
p7384
aVFB
p7385
aVEQIX
p7386
aVSNI
p7387
aVWBA
p7388
aVULTA
p7389
aVESS
p7390
aVCMI
p7391
aVAAPL
p7392
aVADS
p7393
aVNFLX
p7394
asS'02122015'
p7395
(lp7396
VDLR
p7397
aVSWKS
p7398
aVHCA
p7399
aVFIS
p7400
aVKMX
p7401
aVKLAC
p7402
aVAXP
p7403
aVAIG
p7404
aVAKAM
p7405
aVGS
p7406
asS'09242013'
p7407
(lp7408
VGILD
p7409
aVHOT
p7410
aVTRIP
p7411
aVAGN
p7412
aVDG
p7413
aVKSS
p7414
aVCMI
p7415
aVEL
p7416
aVNUE
p7417
aVGPC
p7418
aVUHS
p7419
aVEQIX
p7420
asS'12032015'
p7421
(lp7422
VPCLN
p7423
aVGD
p7424
aVXLNX
p7425
aVALK
p7426
asS'12032014'
p7427
(lp7428
VKLAC
p7429
aVXEC
p7430
aVLYB
p7431
aVDOV
p7432
aVPH
p7433
aVCMG
p7434
aVAMZN
p7435
aVILMN
p7436
aVMMM
p7437
aVLNC
p7438
aVNFLX
p7439
aVGRMN
p7440
aVGPN
p7441
aVMAR
p7442
aVHOG
p7443
aVAMP
p7444
aVPSX
p7445
aVMET
p7446
aVSTT
p7447
aVAIG
p7448
aVSTX
p7449
aVCTXS
p7450
aVLOW
p7451
asS'12032013'
p7452
(lp7453
VROST
p7454
aVULTA
p7455
aVEOG
p7456
aVNUE
p7457
aVWBA
p7458
aVILMN
p7459
aVWHR
p7460
aVCCI
p7461
aVPFG
p7462
aVA
aVUHS
p7463
asS'09242014'
p7464
(lp7465
VCMG
p7466
aVTIF
p7467
aVAYI
p7468
aVAVGO
p7469
aVAMP
p7470
aVHUM
p7471
asS'09242015'
p7472
(lp7473
VSTZ
p7474
aVSTJ
p7475
aVTEL
p7476
aVAVY
p7477
aVABBV
p7478
aVFL
p7479
aVCNC
p7480
aVNFLX
p7481
asS'07142015'
p7482
(lp7483
VCNC
p7484
aVFFIV
p7485
aVADI
p7486
aVGS
p7487
aVUHS
p7488
aVADBE
p7489
aVAXP
p7490
aVFIS
p7491
aVAKAM
p7492
asS'02242015'
p7493
(lp7494
VCMG
p7495
aVEOG
p7496
aVAXP
p7497
aVWBA
p7498
aVCMCSA
p7499
aVSWKS
p7500
aVMET
p7501
aVGILD
p7502
aVLNC
p7503
aVMYL
p7504
aVVRSN
p7505
aVR
aVTIF
p7506
aVAKAM
p7507
asS'06092016'
p7508
(lp7509
VSIG
p7510
aVAPA
p7511
aVADBE
p7512
aVALB
p7513
aVXEC
p7514
aVADSK
p7515
aVJEC
p7516
aVCXO
p7517
aVMCK
p7518
aVSHW
p7519
aVRHT
p7520
aVEQT
p7521
aVSLB
p7522
aVURI
p7523
aVHAR
p7524
asS'07302015'
p7525
(lp7526
VMYL
p7527
aVTSO
p7528
aVCNC
p7529
aVTSCO
p7530
aVADBE
p7531
aVAIG
p7532
aVDLPH
p7533
aVNOC
p7534
aVEQT
p7535
aVCHRW
p7536
asS'06092014'
p7537
(lp7538
VEW
p7539
aVKORS
p7540
aVHAS
p7541
aVMHK
p7542
aVAIG
p7543
aVCERN
p7544
aVBDX
p7545
aVBA
p7546
aVMET
p7547
aVWDC
p7548
aVILMN
p7549
asS'06092015'
p7550
(lp7551
VMNK
p7552
aVSWKS
p7553
aVFFIV
p7554
aVCELG
p7555
aVADM
p7556
aVNKE
p7557
aVADBE
p7558
aVSTJ
p7559
aVADI
p7560
aVAXP
p7561
aVALLE
p7562
aVR
aVSTZ
p7563
aVLNC
p7564
asS'12282015'
p7565
(lp7566
VREGN
p7567
aVTSO
p7568
aVSWKS
p7569
aVADI
p7570
asS'03182014'
p7571
(lp7572
VCTSH
p7573
aVTRIP
p7574
aVCOL
p7575
aVSNI
p7576
aVFIS
p7577
aVIR
p7578
aVETN
p7579
aVMHK
p7580
aVHP
p7581
aVACN
p7582
aVSJM
p7583
aVPRGO
p7584
aVPNW
p7585
aVEW
p7586
aVAAPL
p7587
aVKLAC
p7588
asS'04112013'
p7589
(lp7590
VFFIV
p7591
aVUHS
p7592
aVHON
p7593
aVETN
p7594
aVHOT
p7595
aVBCR
p7596
aVWYNN
p7597
aVALXN
p7598
asS'10122016'
p7599
(lp7600
VILMN
p7601
aVPCLN
p7602
aVAPD
p7603
aVWYNN
p7604
aVPSA
p7605
aVNVDA
p7606
aVSNA
p7607
aVPH
p7608
aVTIF
p7609
aVJWN
p7610
aVSWKS
p7611
aVURI
p7612
asS'04112016'
p7613
(lp7614
VPCLN
p7615
aVTSO
p7616
aVFB
p7617
aVBA
p7618
aVGPC
p7619
aVWBA
p7620
aVSPG
p7621
aVHON
p7622
aVXOM
p7623
aVCNC
p7624
aVADBE
p7625
aVMKC
p7626
aVKSU
p7627
aVEXR
p7628
aVSHW
p7629
aVCELG
p7630
asS'08282015'
p7631
(lp7632
VLLL
p7633
aVKSS
p7634
aVJPM
p7635
aVMYL
p7636
aVNFLX
p7637
asS'04112014'
p7638
(lp7639
VAGN
p7640
aVAAPL
p7641
aVBLK
p7642
aVPRGO
p7643
aVILMN
p7644
aVMCK
p7645
aVANTM
p7646
aVTSCO
p7647
aVRTN
p7648
aVFIS
p7649
aVIR
p7650
aVPXD
p7651
aVCXO
p7652
asS'07182014'
p7653
(lp7654
VILMN
p7655
aVWYNN
p7656
aVCRM
p7657
aVEW
p7658
aVMET
p7659
aVACN
p7660
aVLM
p7661
aVUHS
p7662
aVBLL
p7663
aVCVS
p7664
aVPRGO
p7665
aVGOOGL
p7666
asS'09112014'
p7667
(lp7668
VCMG
p7669
aVCXO
p7670
aVILMN
p7671
aVSTZ
p7672
aVEW
p7673
aVGOOGL
p7674
asS'07182013'
p7675
(lp7676
VILMN
p7677
aVPRU
p7678
aVUNH
p7679
aVHP
p7680
aVUHS
p7681
aVSTT
p7682
aVMTB
p7683
aVHOG
p7684
aVAPC
p7685
aVWHR
p7686
asS'10282015'
p7687
(lp7688
VSTZ
p7689
aVEL
p7690
aVTSO
p7691
aVALK
p7692
aVVNO
p7693
aVNFLX
p7694
aVPCLN
p7695
asS'07072015'
p7696
(lp7697
VCNC
p7698
aVGS
p7699
aVR
aVAXP
p7700
aVSTJ
p7701
aVADBE
p7702
aVAIG
p7703
aVAKAM
p7704
aVFIS
p7705
aVLH
p7706
aVCLX
p7707
aVORLY
p7708
aVUHS
p7709
asS'06072013'
p7710
(lp7711
VILMN
p7712
aVHOG
p7713
aVVMC
p7714
aVTMO
p7715
aVEQT
p7716
aVHOT
p7717
aVTRIP
p7718
aVSPGI
p7719
aVMNST
p7720
asS'03102014'
p7721
(lp7722
VGILD
p7723
aVESS
p7724
aVDGX
p7725
aVACN
p7726
aVFLR
p7727
aVKLAC
p7728
aVMHK
p7729
aVETN
p7730
aVIR
p7731
aVMCK
p7732
aVEW
p7733
aVTRIP
p7734
aVCMG
p7735
asS'02202015'
p7736
(lp7737
VCMG
p7738
aVDLR
p7739
aVAXP
p7740
aVSWKS
p7741
aVWBA
p7742
aVCELG
p7743
aVKMX
p7744
aVMYL
p7745
aVVRSN
p7746
aVTIF
p7747
aVSPGI
p7748
aVGOOGL
p7749
aVAKAM
p7750
asS'12172013'
p7751
(lp7752
VULTA
p7753
aVAGN
p7754
aVGILD
p7755
aVIR
p7756
aVHAS
p7757
aVROST
p7758
aVWBA
p7759
aVMMM
p7760
aVKSS
p7761
aVFIS
p7762
aVADS
p7763
aVILMN
p7764
aVA
aVFB
p7765
asS'01302015'
p7766
(lp7767
VGS
p7768
aVAXP
p7769
aVKLAC
p7770
aVAAL
p7771
aVKMX
p7772
aVBLL
p7773
aVETR
p7774
aVAKAM
p7775
aVAMP
p7776
aVDLR
p7777
aVGILD
p7778
aVSWKS
p7779
asS'01302014'
p7780
(lp7781
VADS
p7782
aVAMP
p7783
aVCMI
p7784
aVTRIP
p7785
aVEW
p7786
aVSNI
p7787
aVACN
p7788
aVPRGO
p7789
aVIR
p7790
aVWBA
p7791
aVFIS
p7792
aVFB
p7793
aVILMN
p7794
aVNFLX
p7795
asS'01302017'
p7796
(lp7797
VCVX
p7798
aVOKE
p7799
aVCTSH
p7800
aVUAL
p7801
aVAME
p7802
aVLUV
p7803
aVPNR
p7804
aVQRVO
p7805
asS'07282015'
p7806
(lp7807
VMYL
p7808
aVNOC
p7809
aVCNC
p7810
aVTSO
p7811
aVADBE
p7812
aVFIS
p7813
aVDLPH
p7814
aVABBV
p7815
aVLH
p7816
aVSTZ
p7817
aVCHRW
p7818
aVEQT
p7819
asS'02192015'
p7820
(lp7821
VCMG
p7822
aVDLR
p7823
aVAXP
p7824
aVSWKS
p7825
aVWBA
p7826
aVABBV
p7827
aVMCHP
p7828
aVKMX
p7829
aVLNC
p7830
aVTIF
p7831
aVSPGI
p7832
aVAKAM
p7833
asS'02192014'
p7834
(lp7835
VCMCSA
p7836
aVWDC
p7837
aVIR
p7838
aVETN
p7839
aVACN
p7840
aVESS
p7841
aVSPGI
p7842
aVILMN
p7843
aVTMO
p7844
aVWBA
p7845
aVSNI
p7846
aVADS
p7847
aVAAPL
p7848
aVPCLN
p7849
asS'02262015'
p7850
(lp7851
VBBBY
p7852
aVCMG
p7853
aVHON
p7854
aVKSS
p7855
aVLNC
p7856
aVCMCSA
p7857
aVMET
p7858
aVMYL
p7859
aVGILD
p7860
aVSWKS
p7861
aVR
aVAXP
p7862
aVVRSN
p7863
aVAKAM
p7864
aVKLAC
p7865
aVTIF
p7866
asS'02192016'
p7867
(lp7868
VED
p7869
aVAEP
p7870
aVSCG
p7871
aVADBE
p7872
aVAVY
p7873
aVABC
p7874
aVGILD
p7875
aVILMN
p7876
asS'02262013'
p7877
(lp7878
VURI
p7879
aVHOT
p7880
aVHP
p7881
aVEMR
p7882
aVTSO
p7883
aVAAPL
p7884
asS'10072013'
p7885
(lp7886
VEQIX
p7887
aVAMGN
p7888
aVCMI
p7889
aVMMM
p7890
aVGILD
p7891
aVWYN
p7892
aVHOT
p7893
aVGPC
p7894
aVABC
p7895
aVFTI
p7896
aVUHS
p7897
aVAGN
p7898
asS'11062015'
p7899
(lp7900
VMSI
p7901
aVEA
p7902
aVMET
p7903
aVLRCX
p7904
aVTSO
p7905
aVNFLX
p7906
asS'08312015'
p7907
(lp7908
VNOC
p7909
aVLLL
p7910
aVHAR
p7911
aVKSS
p7912
aVJPM
p7913
aVMYL
p7914
aVSWKS
p7915
aVNFLX
p7916
asS'08312016'
p7917
(lp7918
VWYNN
p7919
aVILMN
p7920
aVSHW
p7921
aVAYI
p7922
aVNVDA
p7923
aVCAT
p7924
aVDOV
p7925
aVTSN
p7926
aVJEC
p7927
aVFIS
p7928
aVHES
p7929
aVURI
p7930
aVTRIP
p7931
aVCME
p7932
aVSNA
p7933
aVGPN
p7934
aVQRVO
p7935
aVTIF
p7936
aVAMP
p7937
aVPSA
p7938
aVEQT
p7939
asS'05282015'
p7940
(lp7941
VEQT
p7942
aVMNST
p7943
aVFFIV
p7944
aVTSO
p7945
aVMYL
p7946
aVLNC
p7947
aVSTJ
p7948
aVALLE
p7949
aVMET
p7950
aVBF-B
p7951
aVAMP
p7952
aVCMCSA
p7953
aVCELG
p7954
aVEW
p7955
aVHUM
p7956
aVSWKS
p7957
asS'10222014'
p7958
(lp7959
VCMG
p7960
aVXEC
p7961
aVSTZ
p7962
aVCXO
p7963
aVGRMN
p7964
asS'10222015'
p7965
(lp7966
VNFLX
p7967
aVLRCX
p7968
aVPCLN
p7969
asS'08252014'
p7970
(lp7971
VCMG
p7972
aVUNH
p7973
aVILMN
p7974
asS'04182016'
p7975
(lp7976
VFB
p7977
aVTSO
p7978
aVWBA
p7979
aVFISV
p7980
aVACN
p7981
aVSCG
p7982
aVADBE
p7983
aVALK
p7984
aVXOM
p7985
aVAPA
p7986
aVKSU
p7987
aVOXY
p7988
aVPCLN
p7989
asS'03212013'
p7990
(lp7991
VWHR
p7992
aVDIS
p7993
aVHOT
p7994
aVCOG
p7995
asS'08252015'
p7996
(lp7997
VMNST
p7998
aVHAR
p7999
aVLLL
p8000
aVAKAM
p8001
aVKSS
p8002
aVSTZ
p8003
aVSTJ
p8004
aVMYL
p8005
aVNFLX
p8006
asS'03212014'
p8007
(lp8008
VTRIP
p8009
aVPRGO
p8010
aVSNI
p8011
aVWBA
p8012
aVCOL
p8013
aVCAH
p8014
aVMHK
p8015
aVETN
p8016
aVMCK
p8017
aVFIS
p8018
aVSJM
p8019
aVWYN
p8020
aVIR
p8021
aVPNW
p8022
aVEW
p8023
asS'03212016'
p8024
(lp8025
VKSU
p8026
aVXOM
p8027
aVAET
p8028
aVHCN
p8029
aVPCLN
p8030
aVALK
p8031
aVSPG
p8032
aVACN
p8033
aVADBE
p8034
asS'11012016'
p8035
(lp8036
VXEC
p8037
aVCAT
p8038
aVPCLN
p8039
aVSTZ
p8040
aVSWKS
p8041
aVURI
p8042
aVILMN
p8043
aVEQT
p8044
aVUAL
p8045
aVSNA
p8046
aVNVDA
p8047
aVJEC
p8048
aVWYNN
p8049
aVAXP
p8050
aVAPD
p8051
asS'07142016'
p8052
(lp8053
VEQT
p8054
aVAWK
p8055
aVWBA
p8056
aVRHT
p8057
aVVRSN
p8058
aVWYNN
p8059
aVXEC
p8060
aVCOL
p8061
aVADBE
p8062
aVURI
p8063
aVNVDA
p8064
aVHAR
p8065
aVSIG
p8066
aVAYI
p8067
aVPCLN
p8068
asS'11012013'
p8069
(lp8070
VREGN
p8071
aVEOG
p8072
aVA
aVNUE
p8073
aVROST
p8074
aVKSS
p8075
aVALK
p8076
aVILMN
p8077
aVAGN
p8078
asS'09232016'
p8079
(lp8080
VXEC
p8081
aVPVH
p8082
aVLRCX
p8083
aVDOV
p8084
aVTIF
p8085
aVCAT
p8086
aVNVDA
p8087
aVSWKS
p8088
aVDLR
p8089
aVPCLN
p8090
aVSNA
p8091
aVILMN
p8092
aVSHW
p8093
aVPSA
p8094
asS'07012016'
p8095
(lp8096
VWYNN
p8097
aVPXD
p8098
aVRHT
p8099
aVDD
p8100
aVPPG
p8101
aVADBE
p8102
aVUNP
p8103
aVEQT
p8104
aVSLB
p8105
aVFISV
p8106
aVDLR
p8107
aVMKC
p8108
aVORLY
p8109
aVPSA
p8110
asS'06192013'
p8111
(lp8112
VTMO
p8113
aVTRIP
p8114
aVAPC
p8115
aVILMN
p8116
aVUHS
p8117
aVMNST
p8118
aVBA
p8119
aVEBAY
p8120
aVSPGI
p8121
aVCNC
p8122
asS'06192015'
p8123
(lp8124
VMNK
p8125
aVAKAM
p8126
aVADM
p8127
aVSTZ
p8128
aVEXPE
p8129
aVADBE
p8130
aVADI
p8131
aVPVH
p8132
aVR
aVSTJ
p8133
aVAIG
p8134
aVSWKS
p8135
aVEMN
p8136
aVLH
p8137
aVKSS
p8138
aVCNC
p8139
asS'06192014'
p8140
(lp8141
VMCK
p8142
aVBA
p8143
aVKORS
p8144
aVLLL
p8145
aVILMN
p8146
aVLRCX
p8147
aVTSCO
p8148
aVUHS
p8149
aVHOT
p8150
aVHAS
p8151
aVHCA
p8152
aVIR
p8153
aVWDC
p8154
aVEW
p8155
aVGOOG
p8156
aVGOOGL
p8157
asS'02022017'
p8158
(lp8159
VCVX
p8160
aVCTSH
p8161
aVUAL
p8162
aVOKE
p8163
aVAXP
p8164
aVPNR
p8165
aVAME
p8166
aVLNC
p8167
aVFL
p8168
aVQRVO
p8169
asS'10182016'
p8170
(lp8171
VPCLN
p8172
aVILMN
p8173
aVROP
p8174
aVWYNN
p8175
aVEQT
p8176
aVNVDA
p8177
aVURI
p8178
aVQCOM
p8179
aVFB
p8180
aVTIF
p8181
aVSWKS
p8182
aVDGX
p8183
aVOKE
p8184
aVSNA
p8185
aVSHW
p8186
aVPSA
p8187
asS'08172015'
p8188
(lp8189
VGS
p8190
aVPKI
p8191
aVAVGO
p8192
aVTXN
p8193
aVADI
p8194
aVFIS
p8195
aVSTZ
p8196
aVHUM
p8197
aVNFLX
p8198
asS'04082014'
p8199
(lp8200
VTRIP
p8201
aVPRGO
p8202
aVMCK
p8203
aVTSCO
p8204
aVCAH
p8205
aVWBA
p8206
aVIR
p8207
aVSPGI
p8208
aVSNI
p8209
aVSJM
p8210
asS'04082016'
p8211
(lp8212
VPCLN
p8213
aVBA
p8214
aVALK
p8215
aVGPC
p8216
aVWBA
p8217
aVSPG
p8218
aVKSU
p8219
aVADBE
p8220
aVEXR
p8221
aVSHW
p8222
aVCELG
p8223
asS'08012014'
p8224
(lp8225
VILMN
p8226
aVHOT
p8227
aVAVGO
p8228
aVBWA
p8229
aVLM
p8230
aVBLL
p8231
aVAYI
p8232
aVEW
p8233
asS'04082013'
p8234
(lp8235
VBLK
p8236
aVMLM
p8237
aVUHS
p8238
aVFTI
p8239
aVWYNN
p8240
aVROK
p8241
aVMNST
p8242
asS'01122015'
p8243
(lp8244
VKSU
p8245
aVAAP
p8246
aVWDC
p8247
aVKMX
p8248
aVLNC
p8249
aVCOP
p8250
aVAXP
p8251
aVAKAM
p8252
aVMET
p8253
aVETR
p8254
aVHP
p8255
aVHCA
p8256
aVDOV
p8257
aVKLAC
p8258
aVMPC
p8259
aVMNK
p8260
asS'11282014'
p8261
(lp8262
VKLAC
p8263
aVKSU
p8264
aVXEC
p8265
aVSTT
p8266
aVGPN
p8267
aVUNH
p8268
aVHOG
p8269
aVAMP
p8270
aVLNC
p8271
aVHCN
p8272
aVSTX
p8273
aVCTXS
p8274
aVAKAM
p8275
aVLOW
p8276
aVSWKS
p8277
aVWDC
p8278
aVWYN
p8279
aVCMG
p8280
asS'01122017'
p8281
(lp8282
VCVX
p8283
aVVMC
p8284
aVJPM
p8285
aVLNC
p8286
aVUAL
p8287
aVTEL
p8288
aVJEC
p8289
aVKSU
p8290
aVOMC
p8291
aVPFG
p8292
aVTIF
p8293
aVAXP
p8294
aVAMP
p8295
aVDOV
p8296
aVPVH
p8297
aVILMN
p8298
asS'11282016'
p8299
(lp8300
VPFG
p8301
aVTIF
p8302
aVBA
p8303
aVPVH
p8304
aVTEL
p8305
aVMSI
p8306
aVSWKS
p8307
aVDD
p8308
aVCVX
p8309
aVDOV
p8310
aVSNA
p8311
aVCMA
p8312
aVLNC
p8313
aVAMP
p8314
aVURI
p8315
aVILMN
p8316
aVNVDA
p8317
aVWYNN
p8318
aVSHW
p8319
asS'01172014'
p8320
(lp8321
VSNI
p8322
aVCMI
p8323
aVAMP
p8324
aVSPGI
p8325
aVFB
p8326
aVCTAS
p8327
aVULTA
p8328
aVFIS
p8329
aVECL
p8330
aVTMO
p8331
aVFLR
p8332
aVA
aVWDC
p8333
aVILMN
p8334
asS'07032013'
p8335
(lp8336
VUHS
p8337
aVHOT
p8338
aVBA
p8339
aVNFLX
p8340
aVAIZ
p8341
aVRRC
p8342
aVUNH
p8343
aVMNST
p8344
aVILMN
p8345
aVAPC
p8346
aVURI
p8347
aVGPC
p8348
asS'01172017'
p8349
(lp8350
VJPM
p8351
aVCVX
p8352
aVOKE
p8353
aVLNC
p8354
aVUAL
p8355
aVJEC
p8356
aVLVLT
p8357
aVAXP
p8358
aVSTT
p8359
aVAME
p8360
aVKSU
p8361
aVSWKS
p8362
aVPNR
p8363
aVPVH
p8364
asS'03302015'
p8365
(lp8366
VADBE
p8367
aVAKAM
p8368
aVC
aVSWKS
p8369
aVAXP
p8370
aVMET
p8371
aVULTA
p8372
aVABBV
p8373
aVAVY
p8374
aVVRSN
p8375
aVBBBY
p8376
aVAAL
p8377
aVAYI
p8378
asS'02102014'
p8379
(lp8380
VPRGO
p8381
aVETN
p8382
aVACN
p8383
aVTSCO
p8384
aVAMP
p8385
aVHP
p8386
aVFLR
p8387
aVPH
p8388
aVLRCX
p8389
aVCNC
p8390
aVIR
p8391
aVANTM
p8392
aVTMO
p8393
aVEQIX
p8394
aVAAPL
p8395
aVEQT
p8396
aVSNI
p8397
aVCMI
p8398
aVILMN
p8399
aVFB
p8400
aVESS
p8401
asS'02102015'
p8402
(lp8403
VDLR
p8404
aVSWKS
p8405
aVHCA
p8406
aVBDX
p8407
aVABC
p8408
aVKLAC
p8409
aVUNP
p8410
aVAKAM
p8411
aVAIG
p8412
aVAXP
p8413
aVLB
p8414
aVGS
p8415
asS'04282015'
p8416
(lp8417
VEW
p8418
aVSWKS
p8419
aVDPS
p8420
aVEQT
p8421
aVLNC
p8422
aVAMP
p8423
aVAAL
p8424
aVAKAM
p8425
asS'04282014'
p8426
(lp8427
VTSCO
p8428
aVBF-B
p8429
aVFIS
p8430
aVMET
p8431
aVDRI
p8432
aVMCK
p8433
aVHON
p8434
aVEW
p8435
aVAIG
p8436
aVBA
p8437
aVIR
p8438
asS'06072016'
p8439
(lp8440
VSIG
p8441
aVXEC
p8442
aVAPA
p8443
aVXOM
p8444
aVOXY
p8445
aVADBE
p8446
aVJEC
p8447
aVCXO
p8448
aVSHW
p8449
aVGPC
p8450
aVEQT
p8451
aVMCK
p8452
aVRHT
p8453
aVETR
p8454
aVTSO
p8455
aVURI
p8456
asS'04072016'
p8457
(lp8458
VPCLN
p8459
aVALK
p8460
aVCXO
p8461
aVCME
p8462
aVKSU
p8463
aVSPG
p8464
aVSHW
p8465
aVOXY
p8466
aVADBE
p8467
aVMKC
p8468
asS'04302015'
p8469
(lp8470
VSWKS
p8471
aVSIG
p8472
aVDLTR
p8473
aVCNC
p8474
aVAMP
p8475
aVLNC
p8476
aVAAL
p8477
aVEQT
p8478
aVSTJ
p8479
aVTSO
p8480
asS'08182014'
p8481
(lp8482
VCMG
p8483
aVTIF
p8484
aVCRM
p8485
aVCVS
p8486
aVECL
p8487
aVGOOGL
p8488
asS'04072015'
p8489
(lp8490
VSWKS
p8491
aVHUM
p8492
aVAMP
p8493
aVULTA
p8494
aVAKAM
p8495
aVLOW
p8496
aVNDAQ
p8497
aVADBE
p8498
aVVRSN
p8499
aVHON
p8500
aVWAT
p8501
aVBLL
p8502
aVTDG
p8503
aVRCL
p8504
asS'05052015'
p8505
(lp8506
VSIG
p8507
aVAMP
p8508
aVNKE
p8509
aVSWKS
p8510
aVSTJ
p8511
aVLNC
p8512
asS'05052014'
p8513
(lp8514
VWHR
p8515
aVXEC
p8516
aVETN
p8517
aVBDX
p8518
aVMCK
p8519
aVAIG
p8520
aVBA
p8521
asS'05052016'
p8522
(lp8523
VPCLN
p8524
aVAYI
p8525
aVDLPH
p8526
aVTSO
p8527
aVORLY
p8528
aVKSU
p8529
aVADBE
p8530
aVHON
p8531
aVXEC
p8532
aVR
aVALB
p8533
aVFISV
p8534
aVXOM
p8535
aVICE
p8536
asS'03092016'
p8537
(lp8538
VTSN
p8539
aVMKC
p8540
aVXOM
p8541
aVAEP
p8542
aVAET
p8543
aVADBE
p8544
aVSHW
p8545
aVPCLN
p8546
asS'03092015'
p8547
(lp8548
VLLL
p8549
aVEOG
p8550
aVPH
p8551
aVCMG
p8552
aVBBBY
p8553
aVAVY
p8554
aVAKAM
p8555
aVDLR
p8556
aVADBE
p8557
aVLNC
p8558
aVMET
p8559
aVAXP
p8560
aVWBA
p8561
aVSWKS
p8562
asS'04222016'
p8563
(lp8564
VSCG
p8565
aVGPC
p8566
aVALK
p8567
aVFISV
p8568
aVFB
p8569
aVADBE
p8570
aVAYI
p8571
aVXOM
p8572
aVKSU
p8573
aVPCLN
p8574
asS'04202016'
p8575
(lp8576
VWBA
p8577
aVSCG
p8578
aVADBE
p8579
aVALK
p8580
aVKSU
p8581
aVAYI
p8582
asS'04202015'
p8583
(lp8584
VHUM
p8585
aVSWKS
p8586
aVKSS
p8587
aVTSO
p8588
aVALLE
p8589
aVEW
p8590
aVADBE
p8591
aVR
aVAKAM
p8592
aVLNC
p8593
asS'06112015'
p8594
(lp8595
VMNK
p8596
aVSWKS
p8597
aVFFIV
p8598
aVADM
p8599
aVADBE
p8600
aVSIG
p8601
aVADI
p8602
aVSTJ
p8603
aVALLE
p8604
aVNKE
p8605
aVAXP
p8606
aVEMN
p8607
aVUHS
p8608
aVSTZ
p8609
aVCNC
p8610
aVR
aVLNC
p8611
aVAMP
p8612
aVLH
p8613
aVEW
p8614
asS'10102014'
p8615
(lp8616
VILMN
p8617
aVHUM
p8618
aVVRTX
p8619
aVMET
p8620
aVCRM
p8621
aVGRMN
p8622
asS'10102016'
p8623
(lp8624
VAYI
p8625
aVPSA
p8626
aVWYNN
p8627
aVPCLN
p8628
aVFB
p8629
aVNVDA
p8630
aVDOV
p8631
aVTEL
p8632
aVTIF
p8633
aVDGX
p8634
aVEQT
p8635
aVPH
p8636
aVSNA
p8637
aVJEC
p8638
aVILMN
p8639
aVSWKS
p8640
aVURI
p8641
asS'03012016'
p8642
(lp8643
VMKC
p8644
aVHCN
p8645
aVAET
p8646
aVTSO
p8647
aVILMN
p8648
aVPCLN
p8649
asS'03012013'
p8650
(lp8651
VAAPL
p8652
aVKORS
p8653
aVHOT
p8654
aVCOF
p8655
aVDIS
p8656
aVTSO
p8657
asS'07032014'
p8658
(lp8659
VLLL
p8660
aVBA
p8661
aVUHS
p8662
aVTSCO
p8663
aVDOW
p8664
aVTRIP
p8665
aVMET
p8666
aVADP
p8667
aVCRM
p8668
aVILMN
p8669
aVEW
p8670
aVGOOG
p8671
aVGOOGL
p8672
asS'11122013'
p8673
(lp8674
VEOG
p8675
aVREGN
p8676
aVWYNN
p8677
aVSTJ
p8678
aVWBA
p8679
aVWYN
p8680
aVA
aVKSS
p8681
aVILMN
p8682
aVROST
p8683
aVNUE
p8684
aVMMM
p8685
aVAGN
p8686
asS'09262013'
p8687
(lp8688
VHOT
p8689
aVDG
p8690
aVCMI
p8691
aVFTI
p8692
aVTRIP
p8693
aVNUE
p8694
aVA
aVAGN
p8695
aVUHS
p8696
aVEQIX
p8697
asS'01072016'
p8698
(lp8699
VREGN
p8700
aVADI
p8701
aVFISV
p8702
aVHUM
p8703
aVED
p8704
aVAET
p8705
aVTSO
p8706
asS'11122014'
p8707
(lp8708
VHCN
p8709
aVBLL
p8710
aVKMX
p8711
aVSTX
p8712
aVHOG
p8713
aVWDC
p8714
aVLNC
p8715
aVAKAM
p8716
aVAMP
p8717
aVXEC
p8718
asS'11122015'
p8719
(lp8720
VMET
p8721
aVTSS
p8722
aVALK
p8723
aVTSO
p8724
asS'01102017'
p8725
(lp8726
VBLK
p8727
aVGWW
p8728
aVCVX
p8729
aVUAL
p8730
aVJPM
p8731
aVLNC
p8732
aVADI
p8733
aVTIF
p8734
aVKSU
p8735
aVJEC
p8736
aVCTXS
p8737
aVSWKS
p8738
aVAME
p8739
aVAXP
p8740
aVILMN
p8741
asS'01102014'
p8742
(lp8743
VNFLX
p8744
aVSNI
p8745
aVADS
p8746
aVMMM
p8747
aVSJM
p8748
aVCMI
p8749
aVGILD
p8750
aVFIS
p8751
aVAMP
p8752
aVSPGI
p8753
aVFB
p8754
aVA
aVECL
p8755
aVEQIX
p8756
aVTMO
p8757
aVILMN
p8758
aVULTA
p8759
asS'04032013'
p8760
(lp8761
VRRC
p8762
aVMLM
p8763
aVHOG
p8764
aVROK
p8765
aVFLR
p8766
aVFTI
p8767
aVDIS
p8768
aVUHS
p8769
aVWYNN
p8770
aVSPGI
p8771
asS'03262013'
p8772
(lp8773
VROK
p8774
aVMLM
p8775
aVHOG
p8776
aVVMC
p8777
aVHOT
p8778
aVHD
p8779
aVDIS
p8780
aVFTI
p8781
aVFLR
p8782
asS'01312017'
p8783
(lp8784
VCVX
p8785
aVCTSH
p8786
aVUAL
p8787
aVOKE
p8788
aVAXP
p8789
aVAME
p8790
aVLUV
p8791
aVPNR
p8792
aVQRVO
p8793
asS'01212015'
p8794
(lp8795
VHCA
p8796
aVKSU
p8797
aVAXP
p8798
aVAMP
p8799
aVAKAM
p8800
aVR
aVADBE
p8801
aVFIS
p8802
aVETR
p8803
aVKLAC
p8804
aVCMG
p8805
asS'08262014'
p8806
(lp8807
VCMG
p8808
aVBMY
p8809
aVCRM
p8810
asS'07212015'
p8811
(lp8812
VDLPH
p8813
aVCNC
p8814
aVLH
p8815
aVFIS
p8816
aVAKAM
p8817
asS'07212014'
p8818
(lp8819
VILMN
p8820
aVTRIP
p8821
aVCRM
p8822
aVWYNN
p8823
aVEW
p8824
aVHOT
p8825
aVCTXS
p8826
aVUHS
p8827
aVPRGO
p8828
aVAVGO
p8829
aVBLL
p8830
aVGOOG
p8831
asS'07212016'
p8832
(lp8833
VPSA
p8834
aVSHW
p8835
aVXEC
p8836
aVRHT
p8837
aVLEG
p8838
aVSLB
p8839
aVNVDA
p8840
aVAXP
p8841
aVDD
p8842
aVVRTX
p8843
aVPPG
p8844
aVURI
p8845
aVAYI
p8846
aVSIG
p8847
aVHAR
p8848
aVPCLN
p8849
asS'03272013'
p8850
(lp8851
VROK
p8852
aVMLM
p8853
aVTSO
p8854
aVHOG
p8855
aVURI
p8856
aVDIS
p8857
aVHD
p8858
aVHOT
p8859
aVFTI
p8860
aVFLR
p8861
aVCOF
p8862
aVDG
p8863
asS'02032014'
p8864
(lp8865
VAAPL
p8866
aVSHW
p8867
aVAMP
p8868
aVSTJ
p8869
aVACN
p8870
aVPRGO
p8871
aVSNI
p8872
aVIR
p8873
aVTMO
p8874
aVFIS
p8875
aVWBA
p8876
aVCNC
p8877
aVANTM
p8878
aVESS
p8879
aVULTA
p8880
aVILMN
p8881
aVNFLX
p8882
asS'03272015'
p8883
(lp8884
VADBE
p8885
aVSWKS
p8886
aVC
aVAKAM
p8887
aVLNC
p8888
aVTSO
p8889
aVVRSN
p8890
aVLB
p8891
aVAAL
p8892
asS'03272014'
p8893
(lp8894
VTRIP
p8895
aVPRGO
p8896
aVMCK
p8897
aVSNI
p8898
aVWBA
p8899
aVCAH
p8900
aVHON
p8901
aVCOL
p8902
aVWYN
p8903
aVIR
p8904
aVFIS
p8905
aVBDX
p8906
aVEW
p8907
aVSJM
p8908
aVBA
p8909
asS'06022015'
p8910
(lp8911
VTSO
p8912
aVFFIV
p8913
aVR
aVLNC
p8914
aVSTJ
p8915
aVMET
p8916
aVADM
p8917
aVLVLT
p8918
aVDNB
p8919
aVWBA
p8920
aVLH
p8921
aVUHS
p8922
aVHUM
p8923
asS'04102013'
p8924
(lp8925
VFFIV
p8926
aVUHS
p8927
aVBLK
p8928
aVHON
p8929
aVETN
p8930
aVDG
p8931
aVHOG
p8932
aVHOT
p8933
aVEMR
p8934
aVCOF
p8935
aVWYNN
p8936
asS'01142015'
p8937
(lp8938
VWDC
p8939
aVAXP
p8940
aVR
aVHCA
p8941
aVMET
p8942
aVSWKS
p8943
aVETR
p8944
aVAKAM
p8945
aVKLAC
p8946
asS'06022016'
p8947
(lp8948
VSIG
p8949
aVXEC
p8950
aVVMC
p8951
aVXOM
p8952
aVOXY
p8953
aVSHW
p8954
aVAPA
p8955
aVDLR
p8956
aVDLPH
p8957
aVGPC
p8958
aVADBE
p8959
aVPSA
p8960
aVRHT
p8961
aVTSO
p8962
aVAET
p8963
asS'02142014'
p8964
(lp8965
VCMCSA
p8966
aVIR
p8967
aVETN
p8968
aVACN
p8969
aVILMN
p8970
aVANTM
p8971
aVFLR
p8972
aVKLAC
p8973
aVFB
p8974
aVESS
p8975
aVTMO
p8976
aVSNI
p8977
aVWBA
p8978
aVCMI
p8979
aVNFLX
p8980
aVADS
p8981
asS'10192016'
p8982
(lp8983
VPCLN
p8984
aVILMN
p8985
aVROP
p8986
aVEQT
p8987
aVWYNN
p8988
aVURI
p8989
aVNVDA
p8990
aVSWKS
p8991
aVTIF
p8992
aVDGX
p8993
aVFB
p8994
aVSNA
p8995
aVRSG
p8996
aVSHW
p8997
aVPSA
p8998
asS'08292014'
p8999
(lp9000
VCMG
p9001
aVAMP
p9002
aVGILD
p9003
asS'01262015'
p9004
(lp9005
VAXP
p9006
aVKMX
p9007
aVWBA
p9008
aVHCA
p9009
aVMET
p9010
aVKLAC
p9011
aVAKAM
p9012
aVPNW
p9013
aVAMP
p9014
aVCMG
p9015
aVSWKS
p9016
aVGILD
p9017
asS'01152016'
p9018
(lp9019
VREGN
p9020
aVTSO
p9021
aVGILD
p9022
aVADBE
p9023
aVADI
p9024
aVFISV
p9025
asS'01152014'
p9026
(lp9027
VSNI
p9028
aVCMI
p9029
aVWHR
p9030
aVAMP
p9031
aVHAS
p9032
aVANTM
p9033
aVFIS
p9034
aVCTAS
p9035
aVFB
p9036
aVROST
p9037
aVECL
p9038
aVWDC
p9039
aVTMO
p9040
aVA
aVULTA
p9041
aVTRIP
p9042
aVIR
p9043
aVILMN
p9044
asS'01152015'
p9045
(lp9046
VXEC
p9047
aVKSU
p9048
aVAMP
p9049
aVWDC
p9050
aVKMX
p9051
aVAXP
p9052
aVHCA
p9053
aVR
aVSTX
p9054
aVAKAM
p9055
aVETR
p9056
aVHOG
p9057
aVKLAC
p9058
asS'12012015'
p9059
(lp9060
VFISV
p9061
aVTSO
p9062
aVCCL
p9063
aVMET
p9064
aVALK
p9065
asS'12012014'
p9066
(lp9067
VKLAC
p9068
aVXEC
p9069
aVILMN
p9070
aVGPN
p9071
aVSTT
p9072
aVAMP
p9073
aVANTM
p9074
aVLNC
p9075
aVHOG
p9076
aVBIIB
p9077
aVMET
p9078
aVUNH
p9079
aVSTX
p9080
aVHCN
p9081
aVAKAM
p9082
aVCTXS
p9083
aVSWKS
p9084
aVLOW
p9085
aVPVH
p9086
asS'12012016'
p9087
(lp9088
VSNA
p9089
aVSWKS
p9090
aVPFG
p9091
aVTEL
p9092
aVUAL
p9093
aVLNC
p9094
aVBA
p9095
aVCOF
p9096
aVJEC
p9097
aVDOV
p9098
aVDD
p9099
aVTIF
p9100
aVILMN
p9101
aVEQT
p9102
aVSHW
p9103
asS'07082013'
p9104
(lp9105
VUHS
p9106
aVBA
p9107
aVILMN
p9108
aVMNST
p9109
aVHOT
p9110
aVUNH
p9111
aVAPC
p9112
aVURI
p9113
asS'12302013'
p9114
(lp9115
VNFLX
p9116
aVAGN
p9117
aVA
aVWBA
p9118
aVECL
p9119
aVFIS
p9120
aVGILD
p9121
aVFB
p9122
aVAMP
p9123
aVROST
p9124
aVCTAS
p9125
aVILMN
p9126
aVLMT
p9127
aVULTA
p9128
aVMMM
p9129
asS'12302015'
p9130
(lp9131
VTSO
p9132
aVLLY
p9133
aVFISV
p9134
aVADI
p9135
aVMKC
p9136
aVREGN
p9137
aVED
p9138
aVAET
p9139
asS'12302014'
p9140
(lp9141
VSWKS
p9142
aVMAR
p9143
aVSTX
p9144
aVADM
p9145
aVWDC
p9146
aVILMN
p9147
aVMNK
p9148
aVLNC
p9149
aVKMX
p9150
aVMPC
p9151
aVKSU
p9152
aVCMG
p9153
asS'07082014'
p9154
(lp9155
VTRIP
p9156
aVUHS
p9157
aVLLL
p9158
aVILMN
p9159
aVBA
p9160
aVACN
p9161
aVDD
p9162
aVCRM
p9163
aVTSCO
p9164
aVEW
p9165
aVGOOG
p9166
aVGOOGL
p9167
asS'12302016'
p9168
(lp9169
VGWW
p9170
aVTIF
p9171
aVUAL
p9172
aVLNC
p9173
aVCMA
p9174
aVJEC
p9175
aVCAT
p9176
aVJPM
p9177
aVDOV
p9178
aVCVX
p9179
aVAXP
p9180
aVPFG
p9181
aVQRVO
p9182
aVSWKS
p9183
aVKSU
p9184
aVSTZ
p9185
asS'11192015'
p9186
(lp9187
VPCLN
p9188
aVEA
p9189
aVFISV
p9190
aVMET
p9191
aVAIZ
p9192
asS'11192014'
p9193
(lp9194
VAYI
p9195
aVCMI
p9196
aVGPN
p9197
aVSTT
p9198
aVBLL
p9199
aVPCG
p9200
aVHCN
p9201
aVPH
p9202
aVLNC
p9203
aVDOV
p9204
aVAMP
p9205
aVHOG
p9206
aVWYN
p9207
aVAKAM
p9208
aVXEC
p9209
aVNFLX
p9210
asS'11262014'
p9211
(lp9212
VNFLX
p9213
aVKLAC
p9214
aVILMN
p9215
aVGPN
p9216
aVHOG
p9217
aVHCN
p9218
aVADBE
p9219
aVAMP
p9220
aVLNC
p9221
aVSTX
p9222
aVAKAM
p9223
aVCMG
p9224
aVWYN
p9225
aVXEC
p9226
aVMHK
p9227
asS'11262013'
p9228
(lp9229
VROST
p9230
aVULTA
p9231
aVWYNN
p9232
aVNUE
p9233
aVTRIP
p9234
aVHOT
p9235
aVAMGN
p9236
aVKSS
p9237
aVWBA
p9238
aVDG
p9239
aVGPC
p9240
aVPFG
p9241
aVFIS
p9242
aVA
aVTIF
p9243
aVWHR
p9244
asS'11192013'
p9245
(lp9246
VILMN
p9247
aVKSS
p9248
aVWBA
p9249
aVSJM
p9250
aVTRIP
p9251
aVWHR
p9252
aVA
aVTSO
p9253
asS'04102014'
p9254
(lp9255
VADS
p9256
aVAGN
p9257
aVAAPL
p9258
aVTRIP
p9259
aVPRGO
p9260
aVBLK
p9261
aVMCK
p9262
aVANTM
p9263
aVALK
p9264
aVBDX
p9265
aVSPGI
p9266
aVFIS
p9267
aVIR
p9268
aVETN
p9269
aVSNI
p9270
aVHON
p9271
aVCXO
p9272
asS'08222016'
p9273
(lp9274
VWYNN
p9275
aVAWK
p9276
aVPSA
p9277
aVURI
p9278
aVSCG
p9279
aVDLPH
p9280
aVAXP
p9281
aVNVDA
p9282
aVDOV
p9283
aVHES
p9284
aVEQT
p9285
asS'08192016'
p9286
(lp9287
VPSA
p9288
aVWYNN
p9289
aVTSN
p9290
aVURI
p9291
aVSCG
p9292
aVDLPH
p9293
aVAXP
p9294
aVNVDA
p9295
aVDOV
p9296
aVEQT
p9297
asS'08152016'
p9298
(lp9299
VTRIP
p9300
aVPSA
p9301
aVAWK
p9302
aVEQT
p9303
aVTSN
p9304
aVHAR
p9305
aVTEL
p9306
aVDOV
p9307
aVNVDA
p9308
aVWYNN
p9309
asS'08192015'
p9310
(lp9311
VKSS
p9312
aVHAR
p9313
aVGS
p9314
aVLLL
p9315
aVPKI
p9316
aVOMC
p9317
aVNOC
p9318
aVPVH
p9319
aVFIS
p9320
aVSTZ
p9321
aVHUM
p9322
aVNFLX
p9323
asS'04242013'
p9324
(lp9325
VALXN
p9326
aVURI
p9327
aVUHS
p9328
aVMLM
p9329
aVSPGI
p9330
aVHOT
p9331
aVDG
p9332
aVFFIV
p9333
aVHOG
p9334
aVMNST
p9335
aVVRTX
p9336
asS'05232014'
p9337
(lp9338
VPXD
p9339
aVHAS
p9340
aVBA
p9341
aVALK
p9342
aVANTM
p9343
aVPRGO
p9344
asS'10212013'
p9345
(lp9346
VGPC
p9347
aVA
aVROST
p9348
aVACN
p9349
aVALK
p9350
aVFB
p9351
aVNUE
p9352
aVAGN
p9353
aVHP
p9354
aVWYN
p9355
aVEOG
p9356
asS'11272015'
p9357
(lp9358
VPCLN
p9359
aVEA
p9360
aVFISV
p9361
aVMET
p9362
aVBMY
p9363
aVALK
p9364
aVEFX
p9365
aVULTA
p9366
asS'10212015'
p9367
(lp9368
VTSO
p9369
aVNFLX
p9370
aVPCLN
p9371
asS'08122016'
p9372
(lp9373
VTRIP
p9374
aVPSA
p9375
aVSHW
p9376
aVAWK
p9377
aVEQT
p9378
aVEMR
p9379
aVURI
p9380
aVLLTC
p9381
aVTEL
p9382
aVHAR
p9383
aVWYNN
p9384
aVNVDA
p9385
asS'05232013'
p9386
(lp9387
VAAPL
p9388
aVO
aVUHS
p9389
aVMNST
p9390
aVHOG
p9391
aVILMN
p9392
aVSIG
p9393
aVUNH
p9394
aVTMO
p9395
aVHOT
p9396
aVAIZ
p9397
aVHRS
p9398
aVEMN
p9399
asS'04242014'
p9400
(lp9401
VULTA
p9402
aVTSCO
p9403
aVECL
p9404
aVFIS
p9405
aVSNI
p9406
aVVFC
p9407
aVEW
p9408
aVAVGO
p9409
aVCXO
p9410
aVIR
p9411
aVBA
p9412
aVCELG
p9413
aVILMN
p9414
asS'02132014'
p9415
(lp9416
VETN
p9417
aVWDC
p9418
aVCMCSA
p9419
aVIR
p9420
aVACN
p9421
aVANTM
p9422
aVHP
p9423
aVA
aVILMN
p9424
aVFLR
p9425
aVKLAC
p9426
aVVIAB
p9427
aVFB
p9428
aVEQIX
p9429
aVSNI
p9430
aVESS
p9431
aVWBA
p9432
aVCMI
p9433
aVNFLX
p9434
aVADS
p9435
asS'04222015'
p9436
(lp9437
VSWKS
p9438
aVKSS
p9439
aVSTZ
p9440
aVEW
p9441
aVALLE
p9442
aVADBE
p9443
aVLNC
p9444
aVAKAM
p9445
aVCNC
p9446
asS'10302013'
p9447
(lp9448
VWYNN
p9449
aVFB
p9450
aVEOG
p9451
aVA
aVNUE
p9452
aVIFF
p9453
aVROST
p9454
aVWYN
p9455
aVKSS
p9456
aVALK
p9457
aVAGN
p9458
asS'11022015'
p9459
(lp9460
VSTZ
p9461
aVEFX
p9462
aVAET
p9463
aVLRCX
p9464
aVNFLX
p9465
asS'10302015'
p9466
(lp9467
VSTZ
p9468
aVFISV
p9469
aVTSS
p9470
aVPCLN
p9471
asS'10302014'
p9472
(lp9473
VNFLX
p9474
aVMLM
p9475
aVMET
p9476
aVSTT
p9477
aVDOV
p9478
aVXEC
p9479
aVHUM
p9480
asS'07292015'
p9481
(lp9482
VMYL
p9483
aVCNC
p9484
aVTSO
p9485
aVADBE
p9486
aVFIS
p9487
aVAIG
p9488
aVNOC
p9489
aVDLPH
p9490
aVSTZ
p9491
aVAKAM
p9492
aVEQT
p9493
asS'07292014'
p9494
(lp9495
VILMN
p9496
aVAVGO
p9497
aVHOT
p9498
aVEW
p9499
aVAMP
p9500
aVDNB
p9501
aVBLL
p9502
aVGOOG
p9503
aVECL
p9504
aVCRM
p9505
asS'07292016'
p9506
(lp9507
VPSA
p9508
aVSHW
p9509
aVAYI
p9510
aVHES
p9511
aVWBA
p9512
aVPPG
p9513
aVAWK
p9514
aVLYB
p9515
aVADBE
p9516
aVSIG
p9517
aVAN
p9518
aVNVDA
p9519
aVAXP
p9520
aVPCLN
p9521
aVFIS
p9522
aVDOW
p9523
aVDD
p9524
aVRHT
p9525
aVHAR
p9526
aVWYNN
p9527
aVURI
p9528
asS'04062016'
p9529
(lp9530
VPCLN
p9531
aVCXO
p9532
aVALK
p9533
aVAET
p9534
aVGPC
p9535
aVSHW
p9536
aVXRAY
p9537
aVOXY
p9538
aVAEP
p9539
aVTXN
p9540
aVSPG
p9541
aVMKC
p9542
aVADBE
p9543
asS'02242014'
p9544
(lp9545
VCMCSA
p9546
aVMHK
p9547
aVCNC
p9548
aVEW
p9549
aVFIS
p9550
aVWDC
p9551
aVTROW
p9552
aVIR
p9553
aVACN
p9554
aVETN
p9555
aVWBA
p9556
aVHP
p9557
aVSNI
p9558
aVCMG
p9559
aVADS
p9560
asS'07292013'
p9561
(lp9562
VMTB
p9563
aVDLTR
p9564
aVPRU
p9565
aVMNST
p9566
aVKSS
p9567
aVCBS
p9568
aVMON
p9569
aVCOL
p9570
aVUNH
p9571
aVILMN
p9572
aVAGN
p9573
aVWHR
p9574
asS'02242016'
p9575
(lp9576
VED
p9577
aVAEP
p9578
aVFL
p9579
aVSCG
p9580
aVKSU
p9581
aVADBE
p9582
aVTSO
p9583
aVILMN
p9584
asS'05082014'
p9585
(lp9586
VETN
p9587
aVHON
p9588
aVMCK
p9589
aVIR
p9590
aVVRTX
p9591
aVBA
p9592
aVXEC
p9593
aVTRIP
p9594
asS'12122014'
p9595
(lp9596
VKSU
p9597
aVCMG
p9598
aVKLAC
p9599
aVHOG
p9600
aVAKAM
p9601
aVLNC
p9602
aVNFLX
p9603
aVADBE
p9604
aVLOW
p9605
aVSWKS
p9606
aVWDC
p9607
asS'12122016'
p9608
(lp9609
VNVDA
p9610
aVWYNN
p9611
aVAYI
p9612
aVILMN
p9613
aVCAT
p9614
aVJEC
p9615
aVAMP
p9616
aVR
aVLNC
p9617
aVAXP
p9618
aVROK
p9619
aVPFG
p9620
aVUAL
p9621
aVSWKS
p9622
aVADS
p9623
aVJPM
p9624
aVTEL
p9625
aVSNA
p9626
aVSHW
p9627
aVADBE
p9628
aVCMA
p9629
aVTIF
p9630
aVDOV
p9631
asS'12172014'
p9632
(lp9633
VCMG
p9634
aVAYI
p9635
aVHOG
p9636
aVMET
p9637
aVSTX
p9638
aVNFLX
p9639
aVKLAC
p9640
aVLNC
p9641
aVAAL
p9642
aVWDC
p9643
asS'12172015'
p9644
(lp9645
VREGN
p9646
aVADI
p9647
aVFISV
p9648
asS'12122013'
p9649
(lp9650
VULTA
p9651
aVIR
p9652
aVROST
p9653
aVMMM
p9654
aVGILD
p9655
aVTSO
p9656
aVTROW
p9657
aVHAS
p9658
aVWBA
p9659
aVTMO
p9660
aVMET
p9661
aVILMN
p9662
aVNUE
p9663
aVA
aVNFLX
p9664
aVFB
p9665
aVAAPL
p9666
asS'05082013'
p9667
(lp9668
VBIIB
p9669
aVVRTX
p9670
aVMNST
p9671
aVUNH
p9672
aVSPGI
p9673
aVUHS
p9674
aVHOT
p9675
aVESRX
p9676
aVURI
p9677
asS'03142014'
p9678
(lp9679
VCOL
p9680
aVTRIP
p9681
aVHP
p9682
aVCF
p9683
aVSNI
p9684
aVFIS
p9685
aVIR
p9686
aVETN
p9687
aVACN
p9688
aVSPGI
p9689
aVSJM
p9690
aVCAH
p9691
aVPNW
p9692
aVWFM
p9693
aVKLAC
p9694
aVEW
p9695
asS'03142016'
p9696
(lp9697
VTSN
p9698
aVMKC
p9699
aVXOM
p9700
aVTXN
p9701
aVADBE
p9702
aVALB
p9703
aVHCN
p9704
aVAET
p9705
aVSHW
p9706
aVPCLN
p9707
asS'08232016'
p9708
(lp9709
VWYNN
p9710
aVILMN
p9711
aVPRU
p9712
aVJEC
p9713
aVPSA
p9714
aVURI
p9715
aVNVDA
p9716
aVDOV
p9717
aVDLPH
p9718
aVHES
p9719
aVAYI
p9720
aVEQT
p9721
asS'03142013'
p9722
(lp9723
VTSO
p9724
aVFFIV
p9725
aVRHT
p9726
aVHOG
p9727
aVHOT
p9728
asS'11102014'
p9729
(lp9730
VBLL
p9731
aVHCN
p9732
aVUNH
p9733
aVKMX
p9734
aVFIS
p9735
aVHOG
p9736
aVSPGI
p9737
aVAKAM
p9738
aVLNC
p9739
aVSTT
p9740
aVAMP
p9741
aVXEC
p9742
asS'11102015'
p9743
(lp9744
VGD
p9745
aVTSS
p9746
aVLRCX
p9747
asS'11102016'
p9748
(lp9749
VWYNN
p9750
aVQRVO
p9751
aVEQT
p9752
aVCMA
p9753
aVAXP
p9754
aVUAL
p9755
aVDOV
p9756
aVMSI
p9757
aVCAT
p9758
aVILMN
p9759
aVPH
p9760
aVAMP
p9761
aVSHW
p9762
aVPCLN
p9763
asS'07262016'
p9764
(lp9765
VAPA
p9766
aVPSA
p9767
aVPXD
p9768
aVAWK
p9769
aVWBA
p9770
aVPPG
p9771
aVLEG
p9772
aVSLB
p9773
aVAN
p9774
aVRHT
p9775
aVNVDA
p9776
aVFIS
p9777
aVAXP
p9778
aVDD
p9779
aVLYB
p9780
aVHAR
p9781
aVWYNN
p9782
aVURI
p9783
asS'08262013'
p9784
(lp9785
VREGN
p9786
aVSIG
p9787
aVTMO
p9788
aVMNST
p9789
aVCMI
p9790
aVLLY
p9791
aVGPC
p9792
aVTEL
p9793
aVEMR
p9794
aVDLPH
p9795
aVILMN
p9796
aVWYN
p9797
aVALK
p9798
aVAPC
p9799
aVCF
p9800
asS'08262015'
p9801
(lp9802
VMNST
p9803
aVHAR
p9804
aVLLL
p9805
aVAKAM
p9806
aVKSS
p9807
aVSTZ
p9808
aVLEN
p9809
aVSTJ
p9810
aVNFLX
p9811
asS'07262013'
p9812
(lp9813
VFTI
p9814
aVDLTR
p9815
aVPRU
p9816
aVPCAR
p9817
aVAPC
p9818
aVAIZ
p9819
aVCBS
p9820
aVUNH
p9821
aVILMN
p9822
aVWHR
p9823
asS'08262016'
p9824
(lp9825
VWYNN
p9826
aVSHW
p9827
aVILMN
p9828
aVAYI
p9829
aVCAT
p9830
aVNVDA
p9831
aVAXP
p9832
aVDOV
p9833
aVURI
p9834
aVRHT
p9835
aVAMP
p9836
aVPSA
p9837
aVHES
p9838
aVGPN
p9839
aVQRVO
p9840
asS'09132016'
p9841
(lp9842
VAYI
p9843
aVSWKS
p9844
aVILMN
p9845
aVURI
p9846
aVSNA
p9847
aVVTR
p9848
aVNVDA
p9849
aVDOV
p9850
aVTIF
p9851
aVJEC
p9852
aVQRVO
p9853
aVCAT
p9854
aVPSA
p9855
aVAMP
p9856
aVWYNN
p9857
asS'02172016'
p9858
(lp9859
VFB
p9860
aVED
p9861
aVADBE
p9862
aVAEP
p9863
aVABC
p9864
aVAVY
p9865
aVCVX
p9866
aVILMN
p9867
aVAYI
p9868
asS'02172015'
p9869
(lp9870
VCMG
p9871
aVDLR
p9872
aVAXP
p9873
aVABBV
p9874
aVKMX
p9875
aVADI
p9876
aVLNC
p9877
aVAKAM
p9878
asS'10092014'
p9879
(lp9880
VMAR
p9881
aVVRTX
p9882
aVMET
p9883
aVAIG
p9884
aVSTZ
p9885
aVGRMN
p9886
aVPNW
p9887
asS'10092013'
p9888
(lp9889
VREGN
p9890
aVCMI
p9891
aVILMN
p9892
aVFB
p9893
aVGILD
p9894
aVAGN
p9895
aVDLPH
p9896
aVWYN
p9897
aVGPC
p9898
aVA
aVABC
p9899
aVTROW
p9900
asS'04042014'
p9901
(lp9902
VTRIP
p9903
aVPRGO
p9904
aVMCK
p9905
aVTSCO
p9906
aVECL
p9907
aVCAH
p9908
aVSPGI
p9909
aVWBA
p9910
aVIR
p9911
aVSNI
p9912
aVBA
p9913
asS'04042016'
p9914
(lp9915
VPCLN
p9916
aVAYI
p9917
aVSHW
p9918
aVALK
p9919
aVKSU
p9920
aVTSN
p9921
aVOXY
p9922
aVGPC
p9923
aVXRAY
p9924
aVTXN
p9925
aVFB
p9926
aVHSY
p9927
aVAEP
p9928
aVSPG
p9929
aVADBE
p9930
asS'06052014'
p9931
(lp9932
VEW
p9933
aVHAS
p9934
aVNUE
p9935
aVVAR
p9936
aVAVGO
p9937
aVAIG
p9938
aVBA
p9939
aVMET
p9940
aVWDC
p9941
aVILMN
p9942
asS'06052015'
p9943
(lp9944
VFFIV
p9945
aVADM
p9946
aVSTJ
p9947
aVADBE
p9948
aVSWKS
p9949
aVR
aVALLE
p9950
aVADI
p9951
aVLH
p9952
aVHUM
p9953
asS'09082014'
p9954
(lp9955
VCMG
p9956
aVWYNN
p9957
aVGILD
p9958
aVSTZ
p9959
aVTSO
p9960
asS'06052013'
p9961
(lp9962
VILMN
p9963
aVHOG
p9964
aVAPC
p9965
aVVMC
p9966
aVHOT
p9967
aVEMN
p9968
aVSPGI
p9969
aVTMO
p9970
aVUHS
p9971
aVMNST
p9972
asS'09082016'
p9973
(lp9974
VAYI
p9975
aVILMN
p9976
aVHES
p9977
aVSWKS
p9978
aVTIF
p9979
aVJEC
p9980
aVNVDA
p9981
aVDOV
p9982
aVCAT
p9983
aVURI
p9984
aVLEG
p9985
aVAXP
p9986
aVGPN
p9987
aVWYNN
p9988
aVAMP
p9989
aVPSA
p9990
asS'09112013'
p9991
(lp9992
VTRIP
p9993
aVEMN
p9994
aVEMR
p9995
aVAXP
p9996
aVRRC
p9997
aVGPC
p9998
aVEOG
p9999
asS'09122014'
p10000
(lp10001
VCMG
p10002
aVGILD
p10003
aVWYNN
p10004
aVILMN
p10005
aVCXO
p10006
aVSTZ
p10007
aVGOOG
p10008
aVTEL
p10009
asS'10012015'
p10010
(lp10011
VCNC
p10012
aVSTZ
p10013
aVAVY
p10014
aVNFLX
p10015
asS'10012014'
p10016
(lp10017
VNFLX
p10018
aVXEC
p10019
aVAVGO
p10020
aVAMP
p10021
aVMAR
p10022
aVMET
p10023
aVPNW
p10024
aVSTZ
p10025
aVAYI
p10026
aVGRMN
p10027
asS'04282016'
p10028
(lp10029
VAYI
p10030
aVALK
p10031
aVPCLN
p10032
aVADBE
p10033
aVCME
p10034
aVXOM
p10035
aVKSU
p10036
aVPXD
p10037
asS'09222015'
p10038
(lp10039
VSTJ
p10040
aVABBV
p10041
aVNFLX
p10042
asS'09122013'
p10043
(lp10044
VTRIP
p10045
aVEMN
p10046
aVEMR
p10047
aVGPC
p10048
asS'10112016'
p10049
(lp10050
VILMN
p10051
aVPCLN
p10052
aVAPD
p10053
aVPSA
p10054
aVWYNN
p10055
aVDOV
p10056
aVNVDA
p10057
aVTEL
p10058
aVSNA
p10059
aVFB
p10060
aVPH
p10061
aVEQT
p10062
aVTIF
p10063
aVJWN
p10064
aVSWKS
p10065
aVURI
p10066
asS'12072016'
p10067
(lp10068
VNVDA
p10069
aVILMN
p10070
aVSNA
p10071
aVAMP
p10072
aVSWKS
p10073
aVUAL
p10074
aVAYI
p10075
aVLNC
p10076
aVPFG
p10077
aVSHW
p10078
aVROK
p10079
aVDD
p10080
aVJBHT
p10081
aVCMA
p10082
aVTIF
p10083
aVEQT
p10084
aVDOV
p10085
aVURI
p10086
asS'12072015'
p10087
(lp10088
VWHR
p10089
aVFISV
p10090
aVEW
p10091
aVALK
p10092
asS'12102013'
p10093
(lp10094
VULTA
p10095
aVIR
p10096
aVROST
p10097
aVTRIP
p10098
aVMMM
p10099
aVLMT
p10100
aVWBA
p10101
aVAGN
p10102
aVNFLX
p10103
aVHAS
p10104
aVCTAS
p10105
aVFIS
p10106
aVILMN
p10107
aVNUE
p10108
aVVRTX
p10109
asS'06292015'
p10110
(lp10111
VKMX
p10112
aVR
aVSTZ
p10113
aVAKAM
p10114
aVAMP
p10115
aVSTJ
p10116
aVLNC
p10117
aVEQT
p10118
aVADBE
p10119
aVCELG
p10120
asS'12102015'
p10121
(lp10122
VREGN
p10123
aVWHR
p10124
aVFISV
p10125
aVEW
p10126
aVMKC
p10127
aVABC
p10128
aVALK
p10129
asS'12102014'
p10130
(lp10131
VCMG
p10132
aVILMN
p10133
aVKLAC
p10134
aVAKAM
p10135
aVADBE
p10136
aVHOG
p10137
aVSTX
p10138
aVNFLX
p10139
aVMAR
p10140
aVLNC
p10141
asS'09122016'
p10142
(lp10143
VAYI
p10144
aVSWKS
p10145
aVILMN
p10146
aVDG
p10147
aVTIF
p10148
aVSNA
p10149
aVNVDA
p10150
aVURI
p10151
aVDOV
p10152
aVTSN
p10153
aVVTR
p10154
aVQRVO
p10155
aVLEG
p10156
aVPSA
p10157
aVWYNN
p10158
asS'01292015'
p10159
(lp10160
VAXP
p10161
aVKLAC
p10162
aVKMX
p10163
aVEW
p10164
aVBLL
p10165
aVKSU
p10166
aVAKAM
p10167
aVETR
p10168
aVMAR
p10169
aVMNK
p10170
aVDLR
p10171
aVGILD
p10172
aVSWKS
p10173
asS'09292016'
p10174
(lp10175
VWYNN
p10176
aVEQT
p10177
aVSWKS
p10178
aVTIF
p10179
aVILMN
p10180
aVDOV
p10181
aVSNA
p10182
aVNVDA
p10183
aVDLR
p10184
aVPSA
p10185
asS'05242016'
p10186
(lp10187
VPCLN
p10188
aVORLY
p10189
aVPSA
p10190
aVBLK
p10191
aVDLPH
p10192
aVOXY
p10193
aVADSK
p10194
aVGPC
p10195
aVAYI
p10196
aVHON
p10197
aVXOM
p10198
aVEXR
p10199
aVMKC
p10200
aVXEC
p10201
aVVMC
p10202
aVTSO
p10203
aVSIG
p10204
aVCME
p10205
asS'10012013'
p10206
(lp10207
VAMGN
p10208
aVCMI
p10209
aVWYN
p10210
aVGILD
p10211
aVDG
p10212
aVFTI
p10213
aVABC
p10214
aVGPC
p10215
aVHP
p10216
aVA
aVFB
p10217
aVUHS
p10218
aVEQIX
p10219
aVAGN
p10220
aVREGN
p10221
asS'05242013'
p10222
(lp10223
VAZO
p10224
aVAAPL
p10225
aVO
aVSPGI
p10226
aVHOG
p10227
aVUHS
p10228
aVURI
p10229
aVILMN
p10230
aVMNST
p10231
aVSIG
p10232
aVTMO
p10233
aVHOT
p10234
aVFMC
p10235
asS'07072016'
p10236
(lp10237
VWYNN
p10238
aVPCLN
p10239
aVRHT
p10240
aVURI
p10241
aVDD
p10242
aVPXD
p10243
aVEQT
p10244
aVWBA
p10245
aVSLB
p10246
aVADBE
p10247
aVEMR
p10248
aVIBM
p10249
aVDLR
p10250
aVSHW
p10251
asS'09162016'
p10252
(lp10253
VAYI
p10254
aVXEC
p10255
aVURI
p10256
aVSHW
p10257
aVUTX
p10258
aVVTR
p10259
aVDOV
p10260
aVSNA
p10261
aVPSA
p10262
aVNVDA
p10263
aVEW
p10264
aVCAT
p10265
aVILMN
p10266
aVEQT
p10267
aVQRVO
p10268
aVTIF
p10269
aVSWKS
p10270
aVWYNN
p10271
asS'08282013'
p10272
(lp10273
VWHR
p10274
aVAGN
p10275
aVSIG
p10276
aVTMO
p10277
aVMNST
p10278
aVILMN
p10279
aVGPC
p10280
aVLLY
p10281
aVEMR
p10282
aVCF
p10283
aVMPC
p10284
asS'09182013'
p10285
(lp10286
VRRC
p10287
aVGPC
p10288
aVIFF
p10289
aVCMI
p10290
aVUHS
p10291
aVDLR
p10292
asS'07082015'
p10293
(lp10294
VCNC
p10295
aVGS
p10296
aVADI
p10297
aVAXP
p10298
aVNOC
p10299
aVR
aVADBE
p10300
aVSTZ
p10301
aVSTJ
p10302
aVAKAM
p10303
aVLH
p10304
aVFIS
p10305
aVKR
p10306
asS'10062015'
p10307
(lp10308
VSTZ
p10309
aVNFLX
p10310
asS'06182015'
p10311
(lp10312
VAVGO
p10313
aVAKAM
p10314
aVADM
p10315
aVEQT
p10316
aVSTZ
p10317
aVALLE
p10318
aVADI
p10319
aVR
aVSTJ
p10320
aVAXP
p10321
aVGS
p10322
aVAIG
p10323
aVEMN
p10324
aVLH
p10325
aVVRSN
p10326
aVKSS
p10327
aVCNC
p10328
asS'05072015'
p10329
(lp10330
VHCA
p10331
aVSTJ
p10332
aVSWKS
p10333
aVLNC
p10334
asS'05072014'
p10335
(lp10336
VWHR
p10337
aVETN
p10338
aVHON
p10339
aVMCK
p10340
aVBDX
p10341
aVSPGI
p10342
aVBA
p10343
aVXEC
p10344
aVAVGO
p10345
aVAGN
p10346
asS'05072013'
p10347
(lp10348
VBIIB
p10349
aVVRTX
p10350
aVMNST
p10351
aVTMO
p10352
aVUHS
p10353
aVHOG
p10354
aVHOT
p10355
aVURI
p10356
asS'02182016'
p10357
(lp10358
VED
p10359
aVAEP
p10360
aVADBE
p10361
aVVRSK
p10362
aVAVY
p10363
aVABC
p10364
aVGILD
p10365
aVILMN
p10366
aVAYI
p10367
asS'10062014'
p10368
(lp10369
VAVGO
p10370
aVXEC
p10371
aVMAR
p10372
aVAMP
p10373
aVMET
p10374
aVAIG
p10375
aVVRTX
p10376
aVSTZ
p10377
aVPNW
p10378
aVNFLX
p10379
asS'10272014'
p10380
(lp10381
VNFLX
p10382
aVCTXS
p10383
aVAKAM
p10384
aVXEC
p10385
aVKSU
p10386
aVHUM
p10387
aVGILD
p10388
asS'08102016'
p10389
(lp10390
VPSA
p10391
aVTRIP
p10392
aVAWK
p10393
aVEQT
p10394
aVEMR
p10395
aVSNA
p10396
aVPPG
p10397
aVURI
p10398
aVAIZ
p10399
aVDOW
p10400
aVNVDA
p10401
aVAXP
p10402
aVWYNN
p10403
aVWBA
p10404
aVRHT
p10405
aVADBE
p10406
aVHAR
p10407
asS'09222014'
p10408
(lp10409
VCMG
p10410
aVGOOGL
p10411
aVGOOG
p10412
asS'12142015'
p10413
(lp10414
VREGN
p10415
aVFISV
p10416
aVALK
p10417
aVABC
p10418
asS'11142013'
p10419
(lp10420
VEOG
p10421
aVREGN
p10422
aVWYNN
p10423
aVILMN
p10424
aVUHS
p10425
aVWBA
p10426
aVSTJ
p10427
aVWYN
p10428
aVCINF
p10429
aVAGN
p10430
asS'11142014'
p10431
(lp10432
VAYI
p10433
aVHCN
p10434
aVGPN
p10435
aVSTX
p10436
aVLOW
p10437
aVADBE
p10438
aVHOG
p10439
aVLNC
p10440
aVSWKS
p10441
aVAKAM
p10442
aVAMP
p10443
aVXEC
p10444
asS'06162014'
p10445
(lp10446
VMCK
p10447
aVALK
p10448
aVBA
p10449
aVEW
p10450
aVKORS
p10451
aVMPC
p10452
aVHOT
p10453
aVPSX
p10454
aVAIG
p10455
aVHAS
p10456
aVILMN
p10457
aVGOOG
p10458
asS'11142016'
p10459
(lp10460
VFB
p10461
aVWYNN
p10462
aVADBE
p10463
aVXEC
p10464
aVCXO
p10465
aVQCOM
p10466
aVSWKS
p10467
aVQRVO
p10468
aVALK
p10469
aVUAL
p10470
aVDOV
p10471
aVCMA
p10472
aVMSI
p10473
aVUTX
p10474
aVILMN
p10475
aVCAT
p10476
aVNVDA
p10477
aVSNA
p10478
aVPH
p10479
aVURI
p10480
aVAMP
p10481
asS'03262015'
p10482
(lp10483
VADBE
p10484
aVSWKS
p10485
aVAKAM
p10486
aVMET
p10487
aVVRSN
p10488
aVAVY
p10489
aVTSO
p10490
aVLB
p10491
aVPKI
p10492
asS'06262013'
p10493
(lp10494
VGS
p10495
aVUHS
p10496
aVBA
p10497
aVHOT
p10498
aVTRIP
p10499
aVMNST
p10500
aVSPGI
p10501
aVAPC
p10502
aVCTXS
p10503
aVSIG
p10504
aVUNH
p10505
aVILMN
p10506
asS'11232016'
p10507
(lp10508
VFFIV
p10509
aVTIF
p10510
aVBA
p10511
aVPFG
p10512
aVDD
p10513
aVMSI
p10514
aVROK
p10515
aVCVX
p10516
aVSWKS
p10517
aVDOV
p10518
aVKSU
p10519
aVCMA
p10520
aVCAT
p10521
aVLNC
p10522
aVOKE
p10523
aVSNA
p10524
aVUAL
p10525
aVILMN
p10526
aVURI
p10527
aVAMP
p10528
aVNVDA
p10529
aVWYNN
p10530
aVSHW
p10531
asS'12152014'
p10532
(lp10533
VCMG
p10534
aVHOG
p10535
aVNFLX
p10536
aVKLAC
p10537
aVAKAM
p10538
aVLNC
p10539
aVSWKS
p10540
aVLOW
p10541
aVADBE
p10542
aVWDC
p10543
aVMNK
p10544
asS'12152015'
p10545
(lp10546
VREGN
p10547
aVFISV
p10548
aVABC
p10549
asS'06262015'
p10550
(lp10551
VKMX
p10552
aVR
aVSTZ
p10553
aVFFIV
p10554
aVADI
p10555
aVAKAM
p10556
aVADM
p10557
aVSTJ
p10558
aVCHRW
p10559
aVCNC
p10560
aVHES
p10561
aVADBE
p10562
aVCELG
p10563
asS'06262014'
p10564
(lp10565
VBA
p10566
aVILMN
p10567
aVLLL
p10568
aVKORS
p10569
aVUHS
p10570
aVIR
p10571
aVDIS
p10572
aVWDC
p10573
aVHOT
p10574
aVHAS
p10575
aVCMG
p10576
aVEW
p10577
aVGOOG
p10578
aVGOOGL
p10579
asS'02222013'
p10580
(lp10581
VSHW
p10582
aVHOT
p10583
aVURI
p10584
aVTSO
p10585
aVPRGO
p10586
aVAAPL
p10587
asS'02052016'
p10588
(lp10589
VILMN
p10590
aVREGN
p10591
aVLLY
p10592
aVGILD
p10593
aVWYN
p10594
aVED
p10595
asS'02222016'
p10596
(lp10597
VED
p10598
aVSCG
p10599
aVFB
p10600
aVAVY
p10601
aVADBE
p10602
aVABC
p10603
aVGILD
p10604
aVILMN
p10605
asS'02052014'
p10606
(lp10607
VAAPL
p10608
aVADS
p10609
aVPH
p10610
aVAMP
p10611
aVETN
p10612
aVACN
p10613
aVPRGO
p10614
aVA
aVIR
p10615
aVHP
p10616
aVEQIX
p10617
aVCNC
p10618
aVSNI
p10619
aVWBA
p10620
aVANTM
p10621
aVILMN
p10622
aVESS
p10623
aVULTA
p10624
aVNFLX
p10625
asS'02052015'
p10626
(lp10627
VFFIV
p10628
aVGILD
p10629
aVETR
p10630
aVHCA
p10631
aVKLAC
p10632
aVDLR
p10633
aVSWKS
p10634
aVAKAM
p10635
aVAXP
p10636
aVAIG
p10637
aVTIF
p10638
aVGS
p10639
aVAZO
p10640
asS'04252013'
p10641
(lp10642
VALXN
p10643
aVURI
p10644
aVETN
p10645
aVHOT
p10646
aVMLM
p10647
aVMNST
p10648
aVHOG
p10649
aVFFIV
p10650
aVBIIB
p10651
aVVRTX
p10652
asS'08282014'
p10653
(lp10654
VTSO
p10655
aVGILD
p10656
asS'04252016'
p10657
(lp10658
VALK
p10659
aVSCG
p10660
aVGPC
p10661
aVADBE
p10662
aVCME
p10663
aVXOM
p10664
aVCELG
p10665
aVKSU
p10666
aVPCLN
p10667
asS'03022015'
p10668
(lp10669
VBBBY
p10670
aVBLL
p10671
aVLNC
p10672
aVMCHP
p10673
aVCMCSA
p10674
aVGILD
p10675
aVMET
p10676
aVVRSN
p10677
aVSWKS
p10678
aVTIF
p10679
aVWBA
p10680
asS'03022016'
p10681
(lp10682
VSCG
p10683
aVAEP
p10684
aVMKC
p10685
aVAET
p10686
aVHCN
p10687
aVTSO
p10688
aVPCLN
p10689
asS'01192017'
p10690
(lp10691
VJPM
p10692
aVCVX
p10693
aVOKE
p10694
aVLNC
p10695
aVBA
p10696
aVCTSH
p10697
aVJEC
p10698
aVLVLT
p10699
aVKSU
p10700
asS'02102016'
p10701
(lp10702
VREGN
p10703
aVILMN
p10704
aVADBE
p10705
aVO
aVSCG
p10706
aVED
p10707
aVGILD
p10708
asS'09192016'
p10709
(lp10710
VXEC
p10711
aVSHW
p10712
aVURI
p10713
aVDLR
p10714
aVVTR
p10715
aVDOV
p10716
aVJEC
p10717
aVSNA
p10718
aVPSA
p10719
aVNTRS
p10720
aVNVDA
p10721
aVCAT
p10722
aVPCLN
p10723
aVILMN
p10724
aVTIF
p10725
aVSWKS
p10726
aVWYNN
p10727
asS'10312016'
p10728
(lp10729
VSHW
p10730
aVXEC
p10731
aVILMN
p10732
aVCAT
p10733
aVSWKS
p10734
aVSTZ
p10735
aVPCLN
p10736
aVURI
p10737
aVTIF
p10738
aVEQT
p10739
aVWYNN
p10740
aVFB
p10741
aVNVDA
p10742
aVSNA
p10743
aVAPD
p10744
aVAXP
p10745
asS'07182016'
p10746
(lp10747
VAWK
p10748
aVRHT
p10749
aVXEC
p10750
aVXOM
p10751
aVLEG
p10752
aVFIS
p10753
aVADBE
p10754
aVWYNN
p10755
aVAN
p10756
aVURI
p10757
aVDD
p10758
aVEMR
p10759
aVAXP
p10760
aVUNP
p10761
aVPPG
p10762
aVHAR
p10763
aVAPD
p10764
aVPCLN
p10765
asS'05042015'
p10766
(lp10767
VCNC
p10768
aVAMP
p10769
aVLNC
p10770
aVSWKS
p10771
aVSTJ
p10772
asS'04022013'
p10773
(lp10774
VTSO
p10775
aVMLM
p10776
aVROK
p10777
aVHOG
p10778
aVUTX
p10779
aVDIS
p10780
aVHD
p10781
aVHOT
p10782
aVFTI
p10783
aVFLR
p10784
aVUHS
p10785
aVWYNN
p10786
asS'10062016'
p10787
(lp10788
VAYI
p10789
aVAPD
p10790
aVWYNN
p10791
aVPSA
p10792
aVDLR
p10793
aVTIF
p10794
aVDGX
p10795
aVTEL
p10796
aVEQT
p10797
aVNVDA
p10798
aVUTX
p10799
aVDE
p10800
aVSWKS
p10801
aVAMP
p10802
aVPH
p10803
aVSNA
p10804
aVILMN
p10805
aVDOV
p10806
aVURI
p10807
aVPCLN
p10808
asS'07152016'
p10809
(lp10810
VEQT
p10811
aVAWK
p10812
aVWBA
p10813
aVRHT
p10814
aVXRAY
p10815
aVWYNN
p10816
aVLEG
p10817
aVDD
p10818
aVADBE
p10819
aVAN
p10820
aVCOL
p10821
aVNVDA
p10822
aVURI
p10823
aVEMR
p10824
aVAXP
p10825
aVUNP
p10826
aVPPG
p10827
aVHAR
p10828
aVSIG
p10829
aVPCLN
p10830
asS'09222016'
p10831
(lp10832
VURI
p10833
aVDOV
p10834
aVTIF
p10835
aVCAT
p10836
aVQRVO
p10837
aVNVDA
p10838
aVDLR
p10839
aVSHW
p10840
aVSNA
p10841
aVILMN
p10842
aVPSA
p10843
aVPCLN
p10844
asS'04022015'
p10845
(lp10846
VSWKS
p10847
aVULTA
p10848
aVAKAM
p10849
aVADBE
p10850
aVAXP
p10851
aVMET
p10852
aVHON
p10853
aVVRSN
p10854
aVDLR
p10855
aVTDG
p10856
asS'04022014'
p10857
(lp10858
VTRIP
p10859
aVPRGO
p10860
aVMCK
p10861
aVFB
p10862
aVACN
p10863
aVCAH
p10864
aVWBA
p10865
aVSPGI
p10866
aVSNI
p10867
aVIR
p10868
aVHON
p10869
aVBDX
p10870
aVPH
p10871
asS'08202013'
p10872
(lp10873
VMNST
p10874
aVGPC
p10875
aVCOF
p10876
aVTMO
p10877
aVILMN
p10878
aVANTM
p10879
aVEMR
p10880
aVUHS
p10881
aVCMI
p10882
aVAIZ
p10883
aVSTZ
p10884
asS'03192013'
p10885
(lp10886
VTSO
p10887
aVLLY
p10888
aVHOG
p10889
aVUTX
p10890
aVHOT
p10891
aVCOG
p10892
asS'03192014'
p10893
(lp10894
VCTSH
p10895
aVTRIP
p10896
aVCOL
p10897
aVSNI
p10898
aVFIS
p10899
aVETN
p10900
aVIR
p10901
aVSJM
p10902
aVCAH
p10903
aVACN
p10904
aVPRGO
p10905
aVWYN
p10906
aVMHK
p10907
aVPNW
p10908
aVURI
p10909
aVEW
p10910
aVAAPL
p10911
aVKLAC
p10912
aVANTM
p10913
asS'03192015'
p10914
(lp10915
VBLL
p10916
aVVRSN
p10917
aVMET
p10918
aVAKAM
p10919
aVAVY
p10920
aVKMX
p10921
aVEXPE
p10922
aVBBBY
p10923
aVAYI
p10924
aVWBA
p10925
aVAXP
p10926
aVSWKS
p10927
asS'11242015'
p10928
(lp10929
VFISV
p10930
aVMRK
p10931
aVGD
p10932
aVAPH
p10933
aVEL
p10934
aVTSO
p10935
aVALK
p10936
asS'11242014'
p10937
(lp10938
VNFLX
p10939
aVPCG
p10940
aVGPN
p10941
aVSTT
p10942
aVUNH
p10943
aVHUM
p10944
aVHCN
p10945
aVBLL
p10946
aVAMP
p10947
aVHOG
p10948
aVMET
p10949
aVLNC
p10950
aVSTX
p10951
aVBWA
p10952
aVDOV
p10953
aVAKAM
p10954
aVXEC
p10955
asS'10032013'
p10956
(lp10957
VEQIX
p10958
aVAMGN
p10959
aVCMI
p10960
aVGILD
p10961
aVMMM
p10962
aVWYN
p10963
aVGPC
p10964
aVA
aVFB
p10965
aVABC
p10966
aVREGN
p10967
aVUHS
p10968
aVAGN
p10969
asS'04122016'
p10970
(lp10971
VPCLN
p10972
aVTSO
p10973
aVGPC
p10974
aVWBA
p10975
aVSPG
p10976
aVADBE
p10977
aVXOM
p10978
aVTXN
p10979
aVKSU
p10980
aVSHW
p10981
aVCELG
p10982
asS'08092013'
p10983
(lp10984
VMTB
p10985
aVILMN
p10986
aVGPC
p10987
aVANTM
p10988
aVAPC
p10989
aVMNST
p10990
aVHOT
p10991
aVALB
p10992
aVCTXS
p10993
aVCMI
p10994
asS'06292016'
p10995
(lp10996
VPCLN
p10997
aVWYNN
p10998
aVPXD
p10999
aVRHT
p11000
aVPPG
p11001
aVADBE
p11002
aVDD
p11003
aVUNP
p11004
aVCOL
p11005
aVXEC
p11006
aVAPA
p11007
aVEQT
p11008
aVGPC
p11009
aVMKC
p11010
aVDLR
p11011
aVORLY
p11012
asS'04122013'
p11013
(lp11014
VUHS
p11015
aVJEC
p11016
aVHON
p11017
aVDG
p11018
aVETN
p11019
aVHOG
p11020
aVHOT
p11021
aVALXN
p11022
aVWYNN
p11023
aVBIIB
p11024
asS'06152015'
p11025
(lp11026
VADM
p11027
aVADI
p11028
aVSTZ
p11029
aVAXP
p11030
aVEMN
p11031
aVR
aVLH
p11032
aVLNC
p11033
aVMNST
p11034
aVEW
p11035
asS'10142014'
p11036
(lp11037
VREGN
p11038
aVCMG
p11039
aVHUM
p11040
asS'10142016'
p11041
(lp11042
VPCLN
p11043
aVILMN
p11044
aVROP
p11045
aVWYNN
p11046
aVEQT
p11047
aVSYK
p11048
aVNVDA
p11049
aVSNA
p11050
aVFB
p11051
aVQCOM
p11052
aVDGX
p11053
aVJEC
p11054
aVURI
p11055
aVTIF
p11056
aVSWKS
p11057
aVPSA
p11058
aVJWN
p11059
asS'10142013'
p11060
(lp11061
VREGN
p11062
aVAGN
p11063
aVA
aVDLPH
p11064
aVGPC
p11065
aVWYN
p11066
asS'05302013'
p11067
(lp11068
VSIG
p11069
aVILMN
p11070
aVMNST
p11071
aVSPGI
p11072
aVURI
p11073
aVUHS
p11074
aVHOT
p11075
aVHRS
p11076
aVAAPL
p11077
aVTMO
p11078
aVUNH
p11079
asS'03312016'
p11080
(lp11081
VPCLN
p11082
aVSHW
p11083
aVCXO
p11084
aVKSU
p11085
aVTSN
p11086
aVOXY
p11087
aVXRAY
p11088
aVGPC
p11089
aVTXN
p11090
aVAEP
p11091
aVHCN
p11092
aVFISV
p11093
aVSPG
p11094
aVMKC
p11095
aVADBE
p11096
asS'03312014'
p11097
(lp11098
VTRIP
p11099
aVPRGO
p11100
aVMCK
p11101
aVCAH
p11102
aVSNI
p11103
aVTSCO
p11104
aVPXD
p11105
aVWBA
p11106
aVCOL
p11107
aVALK
p11108
aVCF
p11109
aVHON
p11110
aVAVGO
p11111
aVIR
p11112
aVEW
p11113
aVSJM
p11114
aVETN
p11115
aVBA
p11116
asS'03312015'
p11117
(lp11118
VADBE
p11119
aVAKAM
p11120
aVSWKS
p11121
aVC
aVAXP
p11122
aVLNC
p11123
aVTSO
p11124
aVMET
p11125
aVABBV
p11126
aVORLY
p11127
aVVRSN
p11128
aVBBBY
p11129
aVDLR
p11130
asS'05032013'
p11131
(lp11132
VMNST
p11133
aVDG
p11134
aVBIIB
p11135
aVVRTX
p11136
aVURI
p11137
aVHOT
p11138
aVFFIV
p11139
aVMLM
p11140
asS'11172016'
p11141
(lp11142
VFB
p11143
aVQCOM
p11144
aVWYNN
p11145
aVSWKS
p11146
aVBA
p11147
aVDOV
p11148
aVMSI
p11149
aVCMA
p11150
aVCAT
p11151
aVILMN
p11152
aVLNC
p11153
aVSNA
p11154
aVPH
p11155
aVURI
p11156
aVNVDA
p11157
aVSHW
p11158
aVAMP
p11159
asS'07252013'
p11160
(lp11161
VFTI
p11162
aVDLTR
p11163
aVSTZ
p11164
aVPRU
p11165
aVHOT
p11166
aVPCAR
p11167
aVCBS
p11168
aVR
aVMNST
p11169
aVILMN
p11170
aVUNH
p11171
aVWHR
p11172
asS'11172014'
p11173
(lp11174
VAYI
p11175
aVHCN
p11176
aVGPN
p11177
aVSTT
p11178
aVLOW
p11179
aVPH
p11180
aVSTX
p11181
aVLNC
p11182
aVSWKS
p11183
aVHOG
p11184
aVAKAM
p11185
aVXEC
p11186
aVNFLX
p11187
asS'07252014'
p11188
(lp11189
VILMN
p11190
aVHOT
p11191
aVAVGO
p11192
aVEW
p11193
aVTIF
p11194
aVBLL
p11195
aVCRM
p11196
aVBWA
p11197
aVPVH
p11198
aVPCLN
p11199
aVUHS
p11200
asS'06202014'
p11201
(lp11202
VKORS
p11203
aVBA
p11204
aVLLL
p11205
aVTSCO
p11206
aVILMN
p11207
aVUHS
p11208
aVHAS
p11209
aVWDC
p11210
aVIR
p11211
aVEW
p11212
aVGOOG
p11213
asS'07252016'
p11214
(lp11215
VAPA
p11216
aVPSA
p11217
aVAWK
p11218
aVWBA
p11219
aVPXD
p11220
aVUNP
p11221
aVLEG
p11222
aVADBE
p11223
aVRHT
p11224
aVFIS
p11225
aVSLB
p11226
aVAYI
p11227
aVNVDA
p11228
aVAN
p11229
aVAXP
p11230
aVDD
p11231
aVHAR
p11232
aVPCLN
p11233
aVURI
p11234
asS'07112016'
p11235
(lp11236
VWYNN
p11237
aVRHT
p11238
aVEQT
p11239
aVDD
p11240
aVWBA
p11241
aVURI
p11242
aVPXD
p11243
aVXOM
p11244
aVADBE
p11245
aVSHW
p11246
asS'03052013'
p11247
(lp11248
VAAPL
p11249
aVUTX
p11250
aVHOT
p11251
aVDIS
p11252
aVCOF
p11253
aVTSO
p11254
asS'06062013'
p11255
(lp11256
VILMN
p11257
aVEQT
p11258
aVHOG
p11259
aVAPC
p11260
aVVMC
p11261
aVHOT
p11262
aVTRIP
p11263
aVTMO
p11264
aVSPGI
p11265
aVSTZ
p11266
aVUHS
p11267
aVMNST
p11268
asS'08112016'
p11269
(lp11270
VPSA
p11271
aVTRIP
p11272
aVAWK
p11273
aVSHW
p11274
aVEQT
p11275
aVEMR
p11276
aVCME
p11277
aVSNA
p11278
aVAIZ
p11279
aVNVDA
p11280
aVWYNN
p11281
aVADBE
p11282
aVPH
p11283
asS'06062014'
p11284
(lp11285
VEW
p11286
aVHAS
p11287
aVKORS
p11288
aVAIG
p11289
aVULTA
p11290
aVBA
p11291
aVMET
p11292
aVWDC
p11293
aVILMN
p11294
asS'03052015'
p11295
(lp11296
VEOG
p11297
aVBLL
p11298
aVBBBY
p11299
aVHON
p11300
aVDLR
p11301
aVAVY
p11302
aVMCHP
p11303
aVLNC
p11304
aVBWA
p11305
aVAKAM
p11306
aVTRIP
p11307
aVCMCSA
p11308
aVCMG
p11309
aVAXP
p11310
aVSWKS
p11311
asS'06062016'
p11312
(lp11313
VSIG
p11314
aVXEC
p11315
aVAPA
p11316
aVXOM
p11317
aVOXY
p11318
aVSHW
p11319
aVJEC
p11320
aVALB
p11321
aVADSK
p11322
aVADBE
p11323
aVGPC
p11324
aVTSO
p11325
aVMCK
p11326
aVURI
p11327
asS'08042015'
p11328
(lp11329
VMYL
p11330
aVTSO
p11331
aVAIG
p11332
aVABBV
p11333
aVKSS
p11334
aVPVH
p11335
aVCNC
p11336
aVFIS
p11337
aVDLPH
p11338
aVEQT
p11339
aVNOC
p11340
asS'08042014'
p11341
(lp11342
VILMN
p11343
aVPRGO
p11344
aVAVGO
p11345
aVHOT
p11346
aVSPGI
p11347
aVBLL
p11348
aVAYI
p11349
aVULTA
p11350
aVEW
p11351
aVMPC
p11352
aVCMG
p11353
asS'08042016'
p11354
(lp11355
VPSA
p11356
aVAYI
p11357
aVALB
p11358
aVEQT
p11359
aVTEL
p11360
aVSIG
p11361
aVWBA
p11362
aVADBE
p11363
aVHES
p11364
aVNVDA
p11365
aVWYNN
p11366
aVRHT
p11367
aVHAR
p11368
aVILMN
p11369
aVPCLN
p11370
asS'01272015'
p11371
(lp11372
VAXP
p11373
aVKMX
p11374
aVBLL
p11375
aVKLAC
p11376
aVSWK
p11377
aVETR
p11378
aVHCA
p11379
aVAKAM
p11380
aVPNW
p11381
aVHD
p11382
aVR
aVSWKS
p11383
aVGILD
p11384
asS'01272014'
p11385
(lp11386
VWHR
p11387
aVCMI
p11388
aVAMP
p11389
aVSNI
p11390
aVTMO
p11391
aVPRGO
p11392
aVANTM
p11393
aVFB
p11394
aVSPGI
p11395
aVTRIP
p11396
aVECL
p11397
aVWDC
p11398
aVACN
p11399
aVADSK
p11400
aVFIS
p11401
aVA
aVWBA
p11402
aVCMCSA
p11403
aVULTA
p11404
aVILMN
p11405
asS'01272017'
p11406
(lp11407
VWHR
p11408
aVADP
p11409
aVOKE
p11410
aVCVX
p11411
aVAXP
p11412
aVAME
p11413
aVQRVO
p11414
asS'07172015'
p11415
(lp11416
VCNC
p11417
aVLNC
p11418
aVADBE
p11419
aVFIS
p11420
aVLH
p11421
aVAKAM
p11422
aVTSO
p11423
asS'01222014'
p11424
(lp11425
VSNI
p11426
aVWHR
p11427
aVCMI
p11428
aVAMP
p11429
aVSPGI
p11430
aVULTA
p11431
aVHAS
p11432
aVFB
p11433
aVTMO
p11434
aVFIS
p11435
aVCMCSA
p11436
aVA
aVILMN
p11437
asS'01222015'
p11438
(lp11439
VAXP
p11440
aVHCA
p11441
aVKMX
p11442
aVKSU
p11443
aVAKAM
p11444
aVMAR
p11445
aVAMP
p11446
aVR
aVFIS
p11447
aVETR
p11448
aVAAL
p11449
aVADBE
p11450
aVPNW
p11451
aVSWKS
p11452
aVCMG
p11453
aVKLAC
p11454
aVDLR
p11455
asS'01222016'
p11456
(lp11457
VAMZN
p11458
aVREGN
p11459
aVTSO
p11460
aVGILD
p11461
aVTEL
p11462
asS'05292013'
p11463
(lp11464
VVRTX
p11465
aVAAPL
p11466
aVHOG
p11467
aVILMN
p11468
aVSIG
p11469
aVSPGI
p11470
aVMNST
p11471
aVURI
p11472
aVUHS
p11473
aVVMC
p11474
aVTMO
p11475
aVHOT
p11476
aVHRS
p11477
aVEMN
p11478
aVMPC
p11479
asS'09182014'
p11480
(lp11481
VCMG
p11482
aVILMN
p11483
aVXEC
p11484
aVCI
p11485
aVAMP
p11486
aVMAR
p11487
aVMET
p11488
asS'02072014'
p11489
(lp11490
VAAPL
p11491
aVPRGO
p11492
aVETN
p11493
aVTSCO
p11494
aVACN
p11495
aVAMP
p11496
aVPH
p11497
aVHP
p11498
aVEQIX
p11499
aVIR
p11500
aVTMO
p11501
aVANTM
p11502
aVMHK
p11503
aVCMI
p11504
aVWBA
p11505
aVILMN
p11506
aVSNI
p11507
aVEQT
p11508
aVADS
p11509
aVESS
p11510
asS'04152016'
p11511
(lp11512
VFB
p11513
aVTSO
p11514
aVWBA
p11515
aVFISV
p11516
aVSCG
p11517
aVALK
p11518
aVHON
p11519
aVXOM
p11520
aVAPA
p11521
aVKSU
p11522
aVOXY
p11523
aVPCLN
p11524
asS'04152015'
p11525
(lp11526
VTSO
p11527
aVSWKS
p11528
aVALLE
p11529
aVAMP
p11530
aVWAT
p11531
aVSTZ
p11532
aVVRSN
p11533
aVLNC
p11534
asS'01022015'
p11535
(lp11536
VABBV
p11537
aVWDC
p11538
aVSTX
p11539
aVMAR
p11540
aVILMN
p11541
aVFL
p11542
aVLNC
p11543
aVAAL
p11544
aVKSU
p11545
aVMPC
p11546
aVCMG
p11547
asS'04152013'
p11548
(lp11549
VAPC
p11550
aVJEC
p11551
aVUHS
p11552
aVDG
p11553
aVHOT
p11554
aVALXN
p11555
aVWYNN
p11556
aVBIIB
p11557
asS'09182015'
p11558
(lp11559
VABBV
p11560
aVFISV
p11561
aVNFLX
p11562
asS'04272015'
p11563
(lp11564
VSWKS
p11565
aVALLE
p11566
aVDPS
p11567
aVLNC
p11568
aVPFG
p11569
aVAAL
p11570
asS'04272016'
p11571
(lp11572
VALK
p11573
aVAYI
p11574
aVSCG
p11575
aVACN
p11576
aVHON
p11577
aVXRAY
p11578
aVXOM
p11579
aVCME
p11580
aVAET
p11581
aVKSU
p11582
aVPCLN
p11583
asS'05122015'
p11584
(lp11585
VPRGO
p11586
aVR
aVCMCSA
p11587
aVSTJ
p11588
aVKMX
p11589
aVEQT
p11590
aVSWKS
p11591
aVLNC
p11592
aVCNC
p11593
aVADM
p11594
aVLOW
p11595
asS'05122014'
p11596
(lp11597
VDISCA
p11598
aVETN
p11599
aVIR
p11600
aVEW
p11601
aVNKE
p11602
aVBA
p11603
aVVRTX
p11604
aVVAR
p11605
aVPXD
p11606
aVMCK
p11607
aVTRIP
p11608
asS'05122016'
p11609
(lp11610
VPCLN
p11611
aVKSU
p11612
aVDLPH
p11613
aVTSO
p11614
aVSIG
p11615
aVPRU
p11616
aVAPA
p11617
aVSHW
p11618
aVXOM
p11619
aVXEC
p11620
aVXRAY
p11621
aVCME
p11622
aVMKC
p11623
aVICE
p11624
asS'10072015'
p11625
(lp11626
VSWKS
p11627
asS'05272015'
p11628
(lp11629
VEQT
p11630
aVMYL
p11631
aVTSO
p11632
aVLOW
p11633
aVR
aVALLE
p11634
aVSTJ
p11635
aVBWA
p11636
aVMET
p11637
aVAMP
p11638
aVHUM
p11639
asS'05272014'
p11640
(lp11641
VHAS
p11642
aVANTM
p11643
aVPRGO
p11644
asS'10072014'
p11645
(lp11646
VAVGO
p11647
aVXEC
p11648
aVILMN
p11649
aVMAR
p11650
aVAMP
p11651
aVVRTX
p11652
aVAIG
p11653
aVMET
p11654
aVSTZ
p11655
aVCOF
p11656
aVPNW
p11657
aVCRM
p11658
aVGRMN
p11659
aVNFLX
p11660
asS'08202015'
p11661
(lp11662
VHAR
p11663
aVKSS
p11664
aVGS
p11665
aVLLL
p11666
aVPKI
p11667
aVCME
p11668
aVSTJ
p11669
aVPVH
p11670
aVSTZ
p11671
aVHUM
p11672
aVAET
p11673
aVAZO
p11674
aVNFLX
p11675
asS'08242016'
p11676
(lp11677
VWYNN
p11678
aVSHW
p11679
aVILMN
p11680
aVHAR
p11681
aVTSN
p11682
aVNVDA
p11683
aVPRU
p11684
aVPSA
p11685
aVURI
p11686
aVDOV
p11687
aVAYI
p11688
aVGPN
p11689
aVHES
p11690
aVBHI
p11691
aVDLPH
p11692
aVEQT
p11693
asS'08242015'
p11694
(lp11695
VLLL
p11696
aVAKAM
p11697
aVKSS
p11698
aVSTZ
p11699
aVSTJ
p11700
aVCI
p11701
aVNFLX
p11702
asS'11302016'
p11703
(lp11704
VSNA
p11705
aVPVH
p11706
aVPFG
p11707
aVMSI
p11708
aVBHI
p11709
aVSWKS
p11710
aVTEL
p11711
aVLNC
p11712
aVBA
p11713
aVCVX
p11714
aVDOV
p11715
aVUAL
p11716
aVAMP
p11717
aVDD
p11718
aVTIF
p11719
aVNVDA
p11720
aVEQT
p11721
aVILMN
p11722
aVWYNN
p11723
aVSHW
p11724
asS'01062017'
p11725
(lp11726
VBLK
p11727
aVGWW
p11728
aVKSS
p11729
aVUAL
p11730
aVCVX
p11731
aVADI
p11732
aVJPM
p11733
aVLNC
p11734
aVSWKS
p11735
aVKSU
p11736
aVAXP
p11737
aVAMP
p11738
aVDOV
p11739
aVBIIB
p11740
asS'01062014'
p11741
(lp11742
VNFLX
p11743
aVTRIP
p11744
aVWDC
p11745
aVA
aVWHR
p11746
aVFB
p11747
aVR
aVWBA
p11748
aVAMP
p11749
aVFIS
p11750
aVILMN
p11751
aVHAS
p11752
aVAGN
p11753
aVBLK
p11754
aVADS
p11755
aVIR
p11756
aVULTA
p11757
asS'01062015'
p11758
(lp11759
VWDC
p11760
aVCELG
p11761
aVHCA
p11762
aVAIG
p11763
aVDOV
p11764
aVKLAC
p11765
aVAAL
p11766
aVDLR
p11767
aVILMN
p11768
aVMPC
p11769
asS'09042014'
p11770
(lp11771
VEW
p11772
aVILMN
p11773
aVCXO
p11774
asS'09042015'
p11775
(lp11776
VNOC
p11777
aVCNC
p11778
aVNFLX
p11779
asS'02262014'
p11780
(lp11781
VCMCSA
p11782
aVAAPL
p11783
aVMHK
p11784
aVMCK
p11785
aVTROW
p11786
aVFIS
p11787
aVBMY
p11788
aVACN
p11789
aVCAH
p11790
aVIR
p11791
aVNFLX
p11792
aVPH
p11793
aVSNI
p11794
aVADS
p11795
asS'10262016'
p11796
(lp11797
VILMN
p11798
aVAMP
p11799
aVCAT
p11800
aVEQT
p11801
aVSWKS
p11802
aVURI
p11803
aVOKE
p11804
aVJWN
p11805
aVTIF
p11806
aVUAL
p11807
aVJEC
p11808
aVWYNN
p11809
aVFB
p11810
aVNVDA
p11811
asS'09042013'
p11812
(lp11813
VEMN
p11814
aVUHS
p11815
aVEMR
p11816
aVHP
p11817
aVTMO
p11818
aVLLY
p11819
aVTRIP
p11820
aVSBUX
p11821
aVWYN
p11822
aVDG
p11823
asS'06142016'
p11824
(lp11825
VXEC
p11826
aVFB
p11827
aVAPA
p11828
aVADBE
p11829
aVOXY
p11830
aVURI
p11831
aVFISV
p11832
aVRHT
p11833
aVDLPH
p11834
aVEQT
p11835
aVAAPL
p11836
aVORLY
p11837
aVDLR
p11838
aVWYNN
p11839
aVPCLN
p11840
asS'07052016'
p11841
(lp11842
VWYNN
p11843
aVRHT
p11844
aVURI
p11845
aVPXD
p11846
aVDD
p11847
aVCOL
p11848
aVADBE
p11849
aVEQT
p11850
aVUNP
p11851
aVEMR
p11852
aVWBA
p11853
aVSLB
p11854
aVFISV
p11855
aVDLR
p11856
aVORLY
p11857
aVPSA
p11858
asS'02232015'
p11859
(lp11860
VCMG
p11861
aVAXP
p11862
aVSWKS
p11863
aVMET
p11864
aVLNC
p11865
aVMYL
p11866
aVVRSN
p11867
aVTIF
p11868
aVAKAM
p11869
asS'03122014'
p11870
(lp11871
VSNI
p11872
aVACN
p11873
aVIR
p11874
aVSJM
p11875
aVSPGI
p11876
aVETN
p11877
aVDRI
p11878
aVDGX
p11879
aVTROW
p11880
aVEW
p11881
aVCMG
p11882
asS'07052013'
p11883
(lp11884
VUHS
p11885
aVRRC
p11886
aVHOT
p11887
aVEMN
p11888
aVMNST
p11889
aVILMN
p11890
aVAPC
p11891
aVNFLX
p11892
asS'06102015'
p11893
(lp11894
VMNK
p11895
aVSWKS
p11896
aVCELG
p11897
aVFFIV
p11898
aVADM
p11899
aVADBE
p11900
aVSTJ
p11901
aVNKE
p11902
aVUHS
p11903
aVADI
p11904
aVALLE
p11905
aVAXP
p11906
aVR
aVSTZ
p11907
aVLNC
p11908
aVLH
p11909
aVEW
p11910
asS'11222013'
p11911
(lp11912
VWYNN
p11913
aVULTA
p11914
aVNUE
p11915
aVTRIP
p11916
aVWBA
p11917
aVSTJ
p11918
aVTIF
p11919
aVGPC
p11920
aVFIS
p11921
aVA
asS'11052013'
p11922
(lp11923
VREGN
p11924
aVWYNN
p11925
aVEOG
p11926
aVDG
p11927
aVTMO
p11928
aVWYN
p11929
aVROST
p11930
aVKSS
p11931
aVAGN
p11932
asS'03132014'
p11933
(lp11934
VCOL
p11935
aVFLR
p11936
aVSNI
p11937
aVFIS
p11938
aVIR
p11939
aVACN
p11940
aVPNW
p11941
aVETN
p11942
aVCMCSA
p11943
aVSJM
p11944
aVDRI
p11945
aVTROW
p11946
aVKLAC
p11947
aVEW
p11948
aVCMG
p11949
asS'03132015'
p11950
(lp11951
VAYI
p11952
aVCELG
p11953
aVVRSN
p11954
aVAKAM
p11955
aVAVY
p11956
aVLNC
p11957
aVHUM
p11958
aVBBBY
p11959
aVMET
p11960
aVWBA
p11961
aVHCA
p11962
aVSWKS
p11963
aVAXP
p11964
aVCMG
p11965
asS'01182017'
p11966
(lp11967
VJPM
p11968
aVCVX
p11969
aVOKE
p11970
aVJEC
p11971
aVAXP
p11972
aVAME
p11973
aVKSU
p11974
asS'03132013'
p11975
(lp11976
VTSO
p11977
aVFFIV
p11978
aVHOT
p11979
asS'11052014'
p11980
(lp11981
VCTXS
p11982
aVKSU
p11983
aVAYI
p11984
aVHOG
p11985
aVGPN
p11986
aVDOV
p11987
aVMAR
p11988
aVXEC
p11989
aVSPGI
p11990
aVAMP
p11991
aVPH
p11992
aVCMG
p11993
asS'11052015'
p11994
(lp11995
VWBA
p11996
aVEA
p11997
aVMET
p11998
aVALK
p11999
aVLRCX
p12000
aVTSO
p12001
aVNFLX
p12002
asS'10112013'
p12003
(lp12004
VREGN
p12005
aVAGN
p12006
aVDLPH
p12007
aVMMM
p12008
aVWYN
p12009
aVGPC
p12010
aVWYNN
p12011
asS'09202016'
p12012
(lp12013
VXEC
p12014
aVURI
p12015
aVSHW
p12016
aVDLR
p12017
aVDOV
p12018
aVVTR
p12019
aVPCLN
p12020
aVCAT
p12021
aVNVDA
p12022
aVSNA
p12023
aVPSA
p12024
aVTIF
p12025
aVQRVO
p12026
aVILMN
p12027
aVSWKS
p12028
aVWYNN
p12029
asS'10022013'
p12030
(lp12031
VAMGN
p12032
aVCMI
p12033
aVGILD
p12034
aVWYN
p12035
aVMMM
p12036
aVDG
p12037
aVHOG
p12038
aVEQIX
p12039
aVABC
p12040
aVFTI
p12041
aVA
aVGPC
p12042
aVFB
p12043
aVUHS
p12044
aVAGN
p12045
aVREGN
p12046
asS'10022014'
p12047
(lp12048
VNFLX
p12049
aVAVGO
p12050
aVXEC
p12051
aVAMP
p12052
aVMAR
p12053
aVMET
p12054
aVSTZ
p12055
aVPNW
p12056
aVEW
p12057
aVGRMN
p12058
aVVRTX
p12059
aVAYI
p12060
asS'01252016'
p12061
(lp12062
VTSO
p12063
aVREGN
p12064
aVGILD
p12065
aVTEL
p12066
asS'06112013'
p12067
(lp12068
VAAPL
p12069
aVILMN
p12070
aVTMO
p12071
aVAPC
p12072
aVVMC
p12073
aVHOT
p12074
aVSPGI
p12075
aVUHS
p12076
aVMNST
p12077
asS'03162015'
p12078
(lp12079
VAYI
p12080
aVVRSN
p12081
aVADBE
p12082
aVCELG
p12083
aVAVY
p12084
aVEXPE
p12085
aVDLR
p12086
aVHCA
p12087
aVBBBY
p12088
aVABBV
p12089
aVWBA
p12090
aVAXP
p12091
aVSWKS
p12092
asS'01112016'
p12093
(lp12094
VREGN
p12095
aVAAPL
p12096
aVADI
p12097
aVNFLX
p12098
aVFISV
p12099
aVAET
p12100
aVTSO
p12101
asS'01112017'
p12102
(lp12103
VGWW
p12104
aVCVX
p12105
aVVMC
p12106
aVUAL
p12107
aVJPM
p12108
aVLNC
p12109
aVTIF
p12110
aVKSU
p12111
aVAXP
p12112
aVAMP
p12113
aVSWKS
p12114
aVPVH
p12115
aVILMN
p12116
asS'10032016'
p12117
(lp12118
VWYNN
p12119
aVTIF
p12120
aVSWKS
p12121
aVJWN
p12122
aVSIG
p12123
aVPH
p12124
aVDLR
p12125
aVILMN
p12126
aVSNA
p12127
aVNVDA
p12128
aVDOV
p12129
aVPSA
p12130
aVPCLN
p12131
asS'04102015'
p12132
(lp12133
VAGN
p12134
aVHUM
p12135
aVTSO
p12136
aVSWKS
p12137
aVAKAM
p12138
aVALLE
p12139
aVVRSN
p12140
aVWAT
p12141
aVCMG
p12142
asS'09102014'
p12143
(lp12144
VCMG
p12145
aVWYNN
p12146
aVEW
p12147
aVTSO
p12148
aVSTZ
p12149
aVILMN
p12150
aVPNW
p12151
aVMAR
p12152
aVGOOG
p12153
aVAVGO
p12154
asS'08172016'
p12155
(lp12156
VPSA
p12157
aVURI
p12158
aVTSN
p12159
aVEQT
p12160
aVHAR
p12161
aVEMR
p12162
aVCME
p12163
aVAXP
p12164
aVDOV
p12165
aVWYNN
p12166
aVNVDA
p12167
asS'01142016'
p12168
(lp12169
VREGN
p12170
aVTSO
p12171
aVGILD
p12172
aVADBE
p12173
aVADI
p12174
aVAAPL
p12175
aVFISV
p12176
asS'09102015'
p12177
(lp12178
VMNST
p12179
aVNOC
p12180
aVPVH
p12181
aVTSO
p12182
aVSWKS
p12183
aVNFLX
p12184
asS'04222013'
p12185
(lp12186
VALXN
p12187
aVUHS
p12188
aVFFIV
p12189
aVURI
p12190
aVEMR
p12191
aVHOT
p12192
aVHON
p12193
aVSPGI
p12194
aVDG
p12195
aVHOG
p12196
aVMNST
p12197
aVVRTX
p12198
asS'07232013'
p12199
(lp12200
VILMN
p12201
aVKSS
p12202
aVPRU
p12203
aVHOT
p12204
aVMNST
p12205
aVUNH
p12206
asS'02262016'
p12207
(lp12208
VED
p12209
aVAEP
p12210
aVSCG
p12211
aVMKC
p12212
aVADBE
p12213
aVTSO
p12214
aVILMN
p12215
aVPCLN
p12216
asS'07232015'
p12217
(lp12218
VCNC
p12219
aVDLPH
p12220
aVADBE
p12221
aVFIS
p12222
aVALLE
p12223
aVSWKS
p12224
aVAKAM
p12225
aVPRGO
p12226
asS'07232014'
p12227
(lp12228
VEW
p12229
aVCRM
p12230
aVILMN
p12231
aVAYI
p12232
aVBLL
p12233
aVHOT
p12234
aVPVH
p12235
aVAVGO
p12236
aVCVS
p12237
aVWYNN
p12238
aVPRGO
p12239
aVGOOGL
p12240
asS'09152016'
p12241
(lp12242
VAYI
p12243
aVXEC
p12244
aVPCLN
p12245
aVSHW
p12246
aVURI
p12247
aVVTR
p12248
aVDOV
p12249
aVPSA
p12250
aVNVDA
p12251
aVJEC
p12252
aVCAT
p12253
aVILMN
p12254
aVSWKS
p12255
aVQRVO
p12256
aVWYNN
p12257
asS'01212016'
p12258
(lp12259
VREGN
p12260
aVTSO
p12261
aVGILD
p12262
aVTEL
p12263
asS'09152014'
p12264
(lp12265
VCMG
p12266
aVILMN
p12267
aVCXO
p12268
aVCI
p12269
aVDOV
p12270
aVAMP
p12271
aVSTZ
p12272
aVPNW
p12273
aVMET
p12274
asS'06182013'
p12275
(lp12276
VTMO
p12277
aVGS
p12278
aVHOT
p12279
aVILMN
p12280
aVAPC
p12281
aVTRIP
p12282
aVEBAY
p12283
aVUHS
p12284
aVMNST
p12285
aVSPGI
p12286
aVCNC
p12287
aVEMN
p12288
aVUNH
p12289
aVAMGN
p12290
asS'06182014'
p12291
(lp12292
VMCK
p12293
aVALK
p12294
aVBA
p12295
aVKORS
p12296
aVDOW
p12297
aVLLL
p12298
aVUHS
p12299
aVHOT
p12300
aVPSX
p12301
aVILMN
p12302
aVTSCO
p12303
aVHCA
p12304
aVHAS
p12305
aVEW
p12306
aVMPC
p12307
aVMET
p12308
aVGOOG
p12309
asS'02032015'
p12310
(lp12311
VFFIV
p12312
aVCMG
p12313
aVPNW
p12314
aVKLAC
p12315
aVKMX
p12316
aVAXP
p12317
aVETR
p12318
aVAKAM
p12319
aVDLR
p12320
aVSWKS
p12321
aVKSU
p12322
asS'04032014'
p12323
(lp12324
VTRIP
p12325
aVPRGO
p12326
aVMCK
p12327
aVFB
p12328
aVACN
p12329
aVCAH
p12330
aVSPGI
p12331
aVWBA
p12332
aVSNI
p12333
aVIR
p12334
aVSJM
p12335
aVPXD
p12336
aVBA
p12337
asS'02032017'
p12338
(lp12339
VILMN
p12340
aVCTSH
p12341
aVCVX
p12342
aVUAL
p12343
aVMLM
p12344
aVPNR
p12345
aVAME
p12346
aVPFG
p12347
aVFL
p12348
aVQRVO
p12349
aVWDC
p12350
asS'01202016'
p12351
(lp12352
VREGN
p12353
aVTSO
p12354
aVGILD
p12355
aVTEL
p12356
asS'01202017'
p12357
(lp12358
VCVX
p12359
aVOKE
p12360
aVLNC
p12361
aVBA
p12362
aVLVLT
p12363
aVKSU
p12364
aVILMN
p12365
asS'01202015'
p12366
(lp12367
VKSU
p12368
aVHCA
p12369
aVAMP
p12370
aVAXP
p12371
aVAKAM
p12372
aVR
aVSWKS
p12373
aVETR
p12374
aVKLAC
p12375
aVCMG
p12376
asS'03072013'
p12377
(lp12378
VFFIV
p12379
aVAAPL
p12380
aVHP
p12381
aVHOT
p12382
aVTSO
p12383
aVJEC
p12384
aVCOF
p12385
asS'02132015'
p12386
(lp12387
VCMG
p12388
aVDLR
p12389
aVSWKS
p12390
aVAXP
p12391
aVFIS
p12392
aVUNP
p12393
aVKMX
p12394
aVLNC
p12395
aVAKAM
p12396
aVBLL
p12397
aVGS
p12398
aVAMZN
p12399
asS'07142014'
p12400
(lp12401
VTRIP
p12402
aVUHS
p12403
aVILMN
p12404
aVCRM
p12405
aVMET
p12406
aVMPC
p12407
aVDNB
p12408
aVBLL
p12409
aVEW
p12410
aVWDC
p12411
aVPRGO
p12412
aVGOOG
p12413
asS'03242014'
p12414
(lp12415
VTRIP
p12416
aVPRGO
p12417
aVADS
p12418
aVSNI
p12419
aVMCK
p12420
aVCAH
p12421
aVMHK
p12422
aVBDX
p12423
aVCOL
p12424
aVFIS
p12425
aVWYN
p12426
aVEW
p12427
aVETN
p12428
aVIR
p12429
aVSJM
p12430
aVPNW
p12431
aVAAPL
p12432
asS'03242015'
p12433
(lp12434
VTDG
p12435
aVADBE
p12436
aVMET
p12437
aVVRSN
p12438
aVLB
p12439
aVWBA
p12440
aVPKI
p12441
aVEXPE
p12442
aVSWKS
p12443
aVAAL
p12444
asS'03242016'
p12445
(lp12446
VPCLN
p12447
aVKSU
p12448
aVAPA
p12449
aVGPC
p12450
aVHCN
p12451
aVXOM
p12452
aVFISV
p12453
aVALK
p12454
aVTXN
p12455
aVADBE
p12456
asS'10272015'
p12457
(lp12458
VSTZ
p12459
aVVNO
p12460
aVALK
p12461
aVNFLX
p12462
aVPCLN
p12463
asS'01292016'
p12464
(lp12465
VREGN
p12466
aVILMN
p12467
aVGILD
p12468
aVADBE
p12469
aVTEL
p12470
aVLB
p12471
aVMKC
p12472
aVOXY
p12473
asS'10132016'
p12474
(lp12475
VILMN
p12476
aVPCLN
p12477
aVAPD
p12478
aVROP
p12479
aVWYNN
p12480
aVNVDA
p12481
aVSNA
p12482
aVEQT
p12483
aVFB
p12484
aVPSA
p12485
aVDGX
p12486
aVJEC
p12487
aVTIF
p12488
aVSWKS
p12489
aVJWN
p12490
aVURI
p12491
asS'01292014'
p12492
(lp12493
VADS
p12494
aVWHR
p12495
aVAMP
p12496
aVTRIP
p12497
aVSNI
p12498
aVFB
p12499
aVACN
p12500
aVPRGO
p12501
aVIR
p12502
aVA
aVFIS
p12503
aVWBA
p12504
aVHP
p12505
aVCMCSA
p12506
aVILMN
p12507
asS'05022016'
p12508
(lp12509
VAYI
p12510
aVSIG
p12511
aVACN
p12512
aVADBE
p12513
aVXEC
p12514
aVKSU
p12515
aVPCLN
p12516
aVAET
p12517
aVXOM
p12518
aVPXD
p12519
asS'05022014'
p12520
(lp12521
VWHR
p12522
aVBDX
p12523
aVETN
p12524
aVMCK
p12525
aVTSCO
p12526
aVSNI
p12527
aVIR
p12528
asS'12222015'
p12529
(lp12530
VREGN
p12531
aVAAPL
p12532
aVADI
p12533
asS'12222016'
p12534
(lp12535
VPVH
p12536
aVAMP
p12537
aVKSS
p12538
aVTIF
p12539
aVEQT
p12540
aVJEC
p12541
aVCAT
p12542
aVLNC
p12543
aVCMA
p12544
aVPFG
p12545
aVUAL
p12546
aVDOV
p12547
aVJPM
p12548
aVAXP
p12549
aVKSU
p12550
aVSWKS
p12551
aVILMN
p12552
asS'12142016'
p12553
(lp12554
VRL
p12555
aVWYNN
p12556
aVAMP
p12557
aVNVDA
p12558
aVR
aVCAT
p12559
aVJEC
p12560
aVROK
p12561
aVLNC
p12562
aVTWX
p12563
aVUAL
p12564
aVAXP
p12565
aVSWKS
p12566
aVCMA
p12567
aVTIF
p12568
aVILMN
p12569
aVQRVO
p12570
aVDD
p12571
aVTEL
p12572
aVDOV
p12573
aVADBE
p12574
asS'01272016'
p12575
(lp12576
VREGN
p12577
aVTSO
p12578
aVILMN
p12579
aVADBE
p12580
aVGILD
p12581
aVTEL
p12582
aVOXY
p12583
asS'10292013'
p12584
(lp12585
VREGN
p12586
aVWYNN
p12587
aVFB
p12588
aVUHS
p12589
aVEOG
p12590
aVA
aVNUE
p12591
aVROST
p12592
aVKSS
p12593
aVAGN
p12594
aVWYN
p12595
aVALK
p12596
asS'10292015'
p12597
(lp12598
VSTZ
p12599
aVALK
p12600
aVLRCX
p12601
aVPCLN
p12602
asS'10292014'
p12603
(lp12604
VNFLX
p12605
aVMET
p12606
aVKSU
p12607
aVSTT
p12608
aVDOV
p12609
aVXEC
p12610
aVGILD
p12611
asS'10312014'
p12612
(lp12613
VMLM
p12614
aVNFLX
p12615
aVDOV
p12616
aVSTT
p12617
aVGILD
p12618
asS'10222013'
p12619
(lp12620
VGPC
p12621
aVA
aVEQIX
p12622
aVROST
p12623
aVFB
p12624
aVUHS
p12625
aVNUE
p12626
aVHP
p12627
aVAGN
p12628
aVWYN
p12629
aVEOG
p12630
aVILMN
p12631
aVKSU
p12632
asS'04192013'
p12633
(lp12634
VALXN
p12635
aVUHS
p12636
aVEQIX
p12637
aVFFIV
p12638
aVUNH
p12639
aVHON
p12640
aVURI
p12641
aVHOT
p12642
aVBIIB
p12643
aVDG
p12644
aVHOG
p12645
aVMNST
p12646
aVVRTX
p12647
asS'05302014'
p12648
(lp12649
VVRSK
p12650
aVFIS
p12651
aVPH
p12652
aVMET
p12653
aVNTRS
p12654
aVBCR
p12655
aVHON
p12656
aVHOT
p12657
aVETN
p12658
aVBA
p12659
aVILMN
p12660
aVGOOG
p12661
aVGOOGL
p12662
asS'02292016'
p12663
(lp12664
VAEP
p12665
aVMKC
p12666
aVGILD
p12667
aVAET
p12668
aVTSO
p12669
aVPCLN
p12670
asS'08102015'
p12671
(lp12672
VSWKS
p12673
aVTMO
p12674
aVGS
p12675
aVABBV
p12676
aVRHT
p12677
aVPVH
p12678
aVKSS
p12679
aVADI
p12680
aVDLPH
p12681
aVHAR
p12682
asS'04192016'
p12683
(lp12684
VWBA
p12685
aVSCG
p12686
aVALK
p12687
aVAPA
p12688
aVOXY
p12689
aVKSU
p12690
aVPCLN
p12691
asS'08052016'
p12692
(lp12693
VPSA
p12694
aVISRG
p12695
aVEQT
p12696
aVAWK
p12697
aVAYI
p12698
aVSIG
p12699
aVWBA
p12700
aVNVDA
p12701
aVADBE
p12702
aVWYNN
p12703
aVHES
p12704
aVRHT
p12705
aVHAR
p12706
asS'08202014'
p12707
(lp12708
VCMG
p12709
aVUHS
p12710
aVUNH
p12711
aVBF-B
p12712
aVILMN
p12713
aVGOOG
p12714
aVNFLX
p12715
asS'09012016'
p12716
(lp12717
VILMN
p12718
aVWYNN
p12719
aVAYI
p12720
aVSHW
p12721
aVCAT
p12722
aVNVDA
p12723
aVDOV
p12724
aVHES
p12725
aVTSN
p12726
aVURI
p12727
aVLEG
p12728
aVSNA
p12729
aVADS
p12730
aVCME
p12731
aVTIF
p12732
aVQRVO
p12733
aVSWKS
p12734
aVEQT
p12735
aVPSA
p12736
asS'05212015'
p12737
(lp12738
VMNST
p12739
aVMYL
p12740
aVEQT
p12741
aVR
aVALLE
p12742
aVLNC
p12743
aVMET
p12744
aVSTJ
p12745
aVWBA
p12746
aVAMP
p12747
aVKR
p12748
aVHUM
p12749
asS'05212014'
p12750
(lp12751
VIR
p12752
aVHAS
p12753
aVNUE
p12754
aVETN
p12755
aVANTM
p12756
aVSPGI
p12757
aVPRGO
p12758
aVVRTX
p12759
aVECL
p12760
asS'06212016'
p12761
(lp12762
VFB
p12763
aVXEC
p12764
aVR
aVFISV
p12765
aVKSU
p12766
aVAPA
p12767
aVADBE
p12768
aVDD
p12769
aVXOM
p12770
aVWYNN
p12771
aVOXY
p12772
aVRHT
p12773
aVEMR
p12774
aVEQT
p12775
asS'10052016'
p12776
(lp12777
VAYI
p12778
aVWYNN
p12779
aVPSA
p12780
aVDLR
p12781
aVFB
p12782
aVTIF
p12783
aVDGX
p12784
aVSWKS
p12785
aVUTX
p12786
aVAMP
p12787
aVALK
p12788
aVPH
p12789
aVNVDA
p12790
aVSNA
p12791
aVQCOM
p12792
aVILMN
p12793
aVDOV
p12794
aVPCLN
p12795
asS'10052015'
p12796
(lp12797
VNFLX
p12798
asS'06222016'
p12799
(lp12800
VADBE
p12801
aVFISV
p12802
aVAAPL
p12803
aVXEC
p12804
aVHAR
p12805
aVHAS
p12806
aVKSU
p12807
aVWYNN
p12808
aVDD
p12809
aVAPA
p12810
aVCMI
p12811
aVXOM
p12812
aVRHT
p12813
aVEQT
p12814
asS'10092015'
p12815
(lp12816
VSWKS
p12817
aVHES
p12818
aVNFLX
p12819
aVPCLN
p12820
asS'03122013'
p12821
(lp12822
VKORS
p12823
aVFFIV
p12824
aVTSO
p12825
aVHOT
p12826
aVCOF
p12827
asS'06222015'
p12828
(lp12829
VMNK
p12830
aVEQT
p12831
aVAKAM
p12832
aVADM
p12833
aVEXPE
p12834
aVADI
p12835
aVPVH
p12836
aVSTJ
p12837
aVAIG
p12838
aVR
aVADBE
p12839
aVKSS
p12840
aVEMN
p12841
aVCNC
p12842
asS'05292015'
p12843
(lp12844
VFFIV
p12845
aVTSO
p12846
aVLNC
p12847
aVSTJ
p12848
aVMET
p12849
aVADM
p12850
aVALLE
p12851
aVWBA
p12852
aVCELG
p12853
aVHUM
p12854
asS'05112015'
p12855
(lp12856
VR
aVCMCSA
p12857
aVEQT
p12858
aVSTJ
p12859
aVGS
p12860
aVSWKS
p12861
aVLNC
p12862
aVEA
p12863
asS'04222014'
p12864
(lp12865
VULTA
p12866
aVANTM
p12867
aVTSCO
p12868
aVAVGO
p12869
aVFIS
p12870
aVETN
p12871
aVCOL
p12872
aVSNI
p12873
aVMCK
p12874
aVIR
p12875
aVVRTX
p12876
aVBA
p12877
aVEQIX
p12878
aVMHK
p12879
aVILMN
p12880
aVAMZN
p12881
asS'12152016'
p12882
(lp12883
VRL
p12884
aVWYNN
p12885
aVAMP
p12886
aVEQT
p12887
aVJEC
p12888
aVCAT
p12889
aVROK
p12890
aVNVDA
p12891
aVLNC
p12892
aVTIF
p12893
aVPFG
p12894
aVCMA
p12895
aVUAL
p12896
aVAXP
p12897
aVJPM
p12898
aVDD
p12899
aVDOV
p12900
aVILMN
p12901
asS'12272016'
p12902
(lp12903
VAMP
p12904
aVTIF
p12905
aVJEC
p12906
aVEQT
p12907
aVLNC
p12908
aVCAT
p12909
aVUAL
p12910
aVPFG
p12911
aVDOV
p12912
aVJPM
p12913
aVAXP
p12914
aVADI
p12915
aVSTZ
p12916
aVKSU
p12917
aVPSA
p12918
aVSWKS
p12919
asS'12222014'
p12920
(lp12921
VHOG
p12922
aVMAR
p12923
aVMET
p12924
aVAKAM
p12925
aVAIG
p12926
aVLNC
p12927
aVSTX
p12928
aVDOV
p12929
aVHON
p12930
aVSWKS
p12931
aVCMG
p12932
aVKLAC
p12933
aVWDC
p12934
aVKSU
p12935
asS'01092014'
p12936
(lp12937
VNFLX
p12938
aVGILD
p12939
aVCMI
p12940
aVFIS
p12941
aVWDC
p12942
aVAMP
p12943
aVFB
p12944
aVSPGI
p12945
aVECL
p12946
aVILMN
p12947
aVEQIX
p12948
aVULTA
p12949
asS'01092017'
p12950
(lp12951
VBLK
p12952
aVGWW
p12953
aVUAL
p12954
aVCVX
p12955
aVJPM
p12956
aVADI
p12957
aVLNC
p12958
aVTIF
p12959
aVCAT
p12960
aVKSU
p12961
aVSWKS
p12962
aVAXP
p12963
aVDOV
p12964
aVAMP
p12965
aVBIIB
p12966
aVILMN
p12967
asS'07102015'
p12968
(lp12969
VCNC
p12970
aVGS
p12971
aVADI
p12972
aVAXP
p12973
aVADBE
p12974
aVSTZ
p12975
aVAIG
p12976
aVEL
p12977
aVAKAM
p12978
aVR
aVSTJ
p12979
aVFIS
p12980
aVNOC
p12981
asS'07102014'
p12982
(lp12983
VTRIP
p12984
aVILMN
p12985
aVUHS
p12986
aVCRM
p12987
aVBA
p12988
aVBDX
p12989
aVDNB
p12990
aVBLL
p12991
aVWDC
p12992
aVEW
p12993
aVCXO
p12994
asS'07102013'
p12995
(lp12996
VUHS
p12997
aVMNST
p12998
aVILMN
p12999
aVUNH
p13000
aVHOT
p13001
aVAPC
p13002
aVMTB
p13003
as.